
8aaaf200-2450-11e4-abe2-0002a5d5c51b.elf:     file format elf32-littlearm
8aaaf200-2450-11e4-abe2-0002a5d5c51b.elf
architecture: arm, flags 0x00000150:
HAS_SYMS, DYNAMIC, D_PAGED
start address 0x000000f8

Program Header:
0x70000001 off    0x0000b93c vaddr 0x0000a93c paddr 0x0000a93c align 2**2
         filesz 0x00000600 memsz 0x00000600 flags r--
    LOAD off    0x00001000 vaddr 0x00000000 paddr 0x00000000 align 2**12
         filesz 0x0000b134 memsz 0x0000b134 flags r-x
    LOAD off    0x0000d000 vaddr 0x0000c000 paddr 0x0000c000 align 2**12
         filesz 0x000002a4 memsz 0x0000b2d8 flags rw-
 DYNAMIC off    0x0000d000 vaddr 0x0000c000 paddr 0x0000c000 align 2**2
         filesz 0x00000080 memsz 0x00000080 flags rw-
   STACK off    0x00000000 vaddr 0x00000000 paddr 0x00000000 align 2**4
         filesz 0x00000000 memsz 0x00000000 flags rwx

Dynamic Section:
  HASH                 0x0000b0e4
  STRTAB               0x0000b02c
  SYMTAB               0x0000af3c
  STRSZ                0x000000b8
  SYMENT               0x00000010
  DEBUG                0x00000000
  REL                  0x0000c0bc
  RELSZ                0x00000110
  RELENT               0x00000008
  FLAGS_1              0x08000000
  RELCOUNT             0x00000016
private flags = 5000400: [Version5 EABI] [hard-float ABI]

Sections:
Idx Name          Size      VMA       LMA       File off  Algn
  0 .ta_head      00000020  00000000  00000000  00001000  2**3
                  CONTENTS, ALLOC, LOAD, READONLY, DATA
  1 .text         00009140  00000020  00000020  00001020  2**2
                  CONTENTS, ALLOC, LOAD, READONLY, CODE
  2 .rodata       00000ef2  00009160  00009160  0000a160  2**2
                  CONTENTS, ALLOC, LOAD, READONLY, DATA
  3 .ARM.extab    000008b8  0000a054  0000a054  0000b054  2**2
                  CONTENTS, ALLOC, LOAD, READONLY, DATA
  4 .ARM.extab.text.utee_panic 0000000c  0000a90c  0000a90c  0000b90c  2**2
                  CONTENTS, ALLOC, LOAD, READONLY, DATA
  5 .ARM.extab.text.unlikely 0000000c  0000a918  0000a918  0000b918  2**2
                  CONTENTS, ALLOC, LOAD, READONLY, DATA
  6 .ARM.extab.text.__aeabi_ldivmod 0000000c  0000a924  0000a924  0000b924  2**2
                  CONTENTS, ALLOC, LOAD, READONLY, DATA
  7 .ARM.extab.text.__aeabi_uldivmod 0000000c  0000a930  0000a930  0000b930  2**2
                  CONTENTS, ALLOC, LOAD, READONLY, DATA
  8 .ARM.exidx    00000600  0000a93c  0000a93c  0000b93c  2**2
                  CONTENTS, ALLOC, LOAD, READONLY, DATA
  9 .dynsym       000000f0  0000af3c  0000af3c  0000bf3c  2**2
                  CONTENTS, ALLOC, LOAD, READONLY, DATA
 10 .dynstr       000000b8  0000b02c  0000b02c  0000c02c  2**0
                  CONTENTS, ALLOC, LOAD, READONLY, DATA
 11 .hash         00000050  0000b0e4  0000b0e4  0000c0e4  2**2
                  CONTENTS, ALLOC, LOAD, READONLY, DATA
 12 .dynamic      00000080  0000c000  0000c000  0000d000  2**2
                  CONTENTS, ALLOC, LOAD, DATA
 13 .got          0000003c  0000c080  0000c080  0000d080  2**2
                  CONTENTS, ALLOC, LOAD, DATA
 14 .rel.got      00000060  0000c16c  0000c16c  0000d16c  2**2
                  CONTENTS, ALLOC, LOAD, READONLY, DATA
 15 .data         000000d8  0000c1cc  0000c1cc  0000d1cc  2**2
                  CONTENTS, ALLOC, LOAD, DATA
 16 .bss          0000b034  0000c2a4  0000c2a4  0000d2a4  2**2
                  ALLOC
 17 .debug_info   0000dd6a  00000000  00000000  0000d2a4  2**0
                  CONTENTS, READONLY, DEBUGGING
 18 .debug_abbrev 00002938  00000000  00000000  0001b00e  2**0
                  CONTENTS, READONLY, DEBUGGING
 19 .debug_loc    0000c837  00000000  00000000  0001d946  2**0
                  CONTENTS, READONLY, DEBUGGING
 20 .debug_aranges 00000530  00000000  00000000  0002a180  2**3
                  CONTENTS, READONLY, DEBUGGING
 21 .debug_ranges 00000830  00000000  00000000  0002a6b0  2**3
                  CONTENTS, READONLY, DEBUGGING
 22 .debug_macro  00010ffd  00000000  00000000  0002aee0  2**0
                  CONTENTS, READONLY, DEBUGGING
 23 .debug_line   00005079  00000000  00000000  0003bedd  2**0
                  CONTENTS, READONLY, DEBUGGING
 24 .debug_str    0001147a  00000000  00000000  00040f56  2**0
                  CONTENTS, READONLY, DEBUGGING
 25 .comment      00000074  00000000  00000000  000523d0  2**0
                  CONTENTS, READONLY
 26 .ARM.attributes 00000038  00000000  00000000  00052444  2**0
                  CONTENTS, READONLY
 27 .debug_frame  00001eac  00000000  00000000  0005247c  2**2
                  CONTENTS, READONLY, DEBUGGING
 28 .rel.dyn      000000b0  0000c0bc  0000c0bc  0000d0bc  2**2
                  CONTENTS, ALLOC, LOAD, READONLY, DATA
SYMBOL TABLE:
00000000 l    d  .ta_head	00000000 .ta_head
00000020 l    d  .text	00000000 .text
00009160 l    d  .rodata	00000000 .rodata
0000a054 l    d  .ARM.extab	00000000 .ARM.extab
0000a90c l    d  .ARM.extab.text.utee_panic	00000000 .ARM.extab.text.utee_panic
0000a918 l    d  .ARM.extab.text.unlikely	00000000 .ARM.extab.text.unlikely
0000a924 l    d  .ARM.extab.text.__aeabi_ldivmod	00000000 .ARM.extab.text.__aeabi_ldivmod
0000a930 l    d  .ARM.extab.text.__aeabi_uldivmod	00000000 .ARM.extab.text.__aeabi_uldivmod
0000a93c l    d  .ARM.exidx	00000000 .ARM.exidx
0000af3c l    d  .dynsym	00000000 .dynsym
0000b02c l    d  .dynstr	00000000 .dynstr
0000b0e4 l    d  .hash	00000000 .hash
0000c000 l    d  .dynamic	00000000 .dynamic
0000c080 l    d  .got	00000000 .got
0000c16c l    d  .rel.got	00000000 .rel.got
0000c1cc l    d  .data	00000000 .data
0000c2a4 l    d  .bss	00000000 .bss
00000000 l    d  .debug_info	00000000 .debug_info
00000000 l    d  .debug_abbrev	00000000 .debug_abbrev
00000000 l    d  .debug_loc	00000000 .debug_loc
00000000 l    d  .debug_aranges	00000000 .debug_aranges
00000000 l    d  .debug_ranges	00000000 .debug_ranges
00000000 l    d  .debug_macro	00000000 .debug_macro
00000000 l    d  .debug_line	00000000 .debug_line
00000000 l    d  .debug_str	00000000 .debug_str
00000000 l    d  .comment	00000000 .comment
00000000 l    d  .ARM.attributes	00000000 .ARM.attributes
00000000 l    d  .debug_frame	00000000 .debug_frame
0000c0bc l    d  .rel.dyn	00000000 .rel.dyn
00000000 l    df *ABS*	00000000 user_ta_header.c
00009164 l     O .rodata	00000004 __compound_literal.5
00009168 l     O .rodata	00000004 __compound_literal.4
0000916c l     O .rodata	00000004 __compound_literal.3
00009170 l     O .rodata	00000001 __compound_literal.2
00009171 l     O .rodata	00000001 __compound_literal.1
00009172 l     O .rodata	00000001 __compound_literal.0
00000000 l    df *ABS*	00000000 hello_world_ta.c
00000000 l    df *ABS*	00000000 ./ta_entry_a32.o
00000000 l    df *ABS*	00000000 aeabi_unwind.c
00000000 l    df *ABS*	00000000 utee_syscalls_a32.o
00000000 l    df *ABS*	00000000 user_ta_entry.c
000005e0 l     F .text	00000040 ta_header_get_session
00000620 l     F .text	00000094 to_utee_params
000006b4 l     F .text	0000007c from_utee_params
00000730 l     F .text	000000c0 ta_header_remove_session
0000c2a4 l     O .bss	00000001 init_done
0000c23c l     O .data	00000008 ta_sessions
00000000 l    df *ABS*	00000000 tee_api.c
00000a54 l     F .text	000000a4 update_out_param
00000bf4 l     F .text	000001e8 copy_param.constprop.1
00009584 l     O .rodata	0000000b __func__.6776
0000c2cc l     O .bss	00000004 tee_api_instance_data
00000000 l    df *ABS*	00000000 tee_api_panic.c
00000000 l    df *ABS*	00000000 tee_system_pta.c
000012e4 l     F .text	0000008c invoke_system_pta
0000917c l     O .rodata	00000010 uuid.6213
0000918c l     O .rodata	0000000a __func__.6233
0000c2d0 l     O .bss	00000004 sess.6212
00000000 l    df *ABS*	00000000 tee_api_arith_mpi.c
000030a8 l     F .text	00000038 api_panic
00001470 l     F .text	00000038 mpi_panic
000014a8 l     F .text	00000090 get_mpi
00001538 l     F .text	00000080 copy_mpi_to_bigint
000015b8 l     F .text	00000104 bigint_binary
000016bc l     F .text	00000020 mpi_is_odd
000016dc l     F .text	00000028 rng_read
00001704 l     F .text	0000066c mpi_egcd
0000c2d4 l     O .bss	00003000 data.6739
00002150 l     F .text	0000018c bigint_binary_mod
000095ca l     O .rodata	00000008 __func__.6773
000095d2 l     O .rodata	0000000e __func__.6870
000095e0 l     O .rodata	00000009 __func__.7016
000095e9 l     O .rodata	00000012 __func__.6740
000095fb l     O .rodata	0000000f __func__.6779
0000960a l     O .rodata	0000001f __func__.6797
00009629 l     O .rodata	00000019 __func__.6804
00009642 l     O .rodata	00000012 __func__.6882
00009654 l     O .rodata	00000015 __func__.6835
00009669 l     O .rodata	0000000e __func__.6910
00009677 l     O .rodata	0000000e __func__.6939
00009685 l     O .rodata	0000000e __func__.6947
00009693 l     O .rodata	00000011 __func__.6976
000096a4 l     O .rodata	00000018 __func__.6993
000096bc l     O .rodata	0000001d __func__.7073
000096d9 l     O .rodata	00000019 __func__.7126
000096f2 l     O .rodata	00000015 __func__.7141
00000000 l    df *ABS*	00000000 trace_ext.c
00000000 l    df *ABS*	00000000 bignum.c
000031f4 l     F .text	00000054 mpi_get_digit
00003248 l     F .text	00000084 mpi_sub_hlp
000032cc l     F .text	00000548 mpi_mul_hlp
000053b8 l     F .text	000000c8 mpi_write_hlp
00005640 l     F .text	00000094 mpi_check_small_factors
00006124 l     F .text	00000288 mpi_miller_rabin
00009198 l     O .rodata	000002a0 small_prime
00009438 l     O .rodata	00000024 gcd_pairs
00000000 l    df *ABS*	00000000 platform_util.c
0000c244 l     O .data	00000004 memset_func
00000000 l    df *ABS*	00000000 bget_malloc.c
00007070 l     F .text	0000005c raw_malloc_return_hook.constprop.21
00009c1b l     O .rodata	00000005 __func__.5713
00009c20 l     O .rodata	00000006 __func__.5728
00009c26 l     O .rodata	00000005 __func__.5746
00009c2b l     O .rodata	00000006 __func__.5737
00009c31 l     O .rodata	00000006 __func__.5755
00009c37 l     O .rodata	00000007 __func__.5765
00009c3e l     O .rodata	00000014 __func__.5929
00009c52 l     O .rodata	0000000e __func__.5880
00009c60 l     O .rodata	00000013 __func__.5827
0000c248 l     O .data	0000005c malloc_ctx
00000000 l    df *ABS*	00000000 snprintf.c
00000000 l    df *ABS*	00000000 memcpy.c
00000000 l    df *ABS*	00000000 memmove.c
00000000 l    df *ABS*	00000000 memset.c
00000000 l    df *ABS*	00000000 strlen.c
00000000 l    df *ABS*	00000000 arm32_aeabi_ldivmod_a32.o
00000000 l    df *ABS*	00000000 arm32_aeabi_ldivmod.c
00000000 l    df *ABS*	00000000 snprintk.c
00009f17 l     O .rodata	00000011 HEXDIGITS
00009f28 l     O .rodata	00000011 hexdigits
00000000 l    df *ABS*	00000000 trace.c
00009f71 l     O .rodata	00000005 lvl_strs.5571
00000000 l    df *ABS*	00000000 mempool.c
00009f90 l     O .rodata	00000013 __func__.5626
00009fa3 l     O .rodata	0000000e __func__.5635
00000000 l    df *ABS*	00000000 consttime_memcmp.c
00000000 l    df *ABS*	00000000 memchr.c
00000000 l    df *ABS*	00000000 assert.c
00000000 l    df *ABS*	00000000 
0000c000 l     O *ABS*	00000000 _DYNAMIC
0000c080 l     O *ABS*	00000000 _GLOBAL_OFFSET_TABLE_
000031b4 g     F .text	00000040 putchar
00002ed4 g     F .text	00000018 TEE_BigIntConvertToFMM
000029c0 g     F .text	00000020 TEE_BigIntSquareMod
000022dc g     F .text	00000194 TEE_BigIntShiftRight
000004c4 g     F .text	00000018 utee_storage_obj_create
00003908 g     F .text	000000f8 mbedtls_mpi_grow
00007ffc g     F .text	00000120 __l_divmod
00000144 g     F .text	00000014 utee_return
00001248 g     F .text	00000018 TEE_Realloc
0000311c g     F .text	0000005c printf
00000158 g     F .text	00000014 utee_log
00000ddc g     F .text	00000120 TEE_InvokeTACommand
0000383c g     F .text	0000004c mbedtls_mpi_init_mempool
00004074 g     F .text	000000b4 mbedtls_mpi_write_binary
00008b78 g     F .text	00000024 vsnprintk
000048b0 g     F .text	0000004c mbedtls_mpi_sub_int
00007e70 g     F .text	0000005c memmove
00007dec g     F .text	00000034 snprintf
00002108 g     F .text	00000048 TEE_BigIntCmpS32
00003a00 g     F .text	0000013c mbedtls_mpi_shrink
00000100 g     F .text	00000010 __aeabi_unwind_cpp_pr0
000024fc g     F .text	00000038 TEE_BigIntAdd
00000198 g     F .text	00000014 utee_get_property_name_to_index
00009174 g     O .rodata	00000004 ta_heap_size
0000027c g     F .text	00000018 utee_cryp_state_alloc
0000044c g     F .text	00000018 utee_authenc_enc_final
00004a9c g     F .text	000001c8 mbedtls_mpi_read_string
0000256c g     F .text	000000b4 TEE_BigIntNeg
00000020 g       .text	00000000 __text_start
00004224 g     F .text	000000ec mbedtls_mpi_shift_r
00007d64 g     F .text	00000088 malloc_buffer_overlaps_heap
00002950 g     F .text	00000038 TEE_BigIntSubMod
000068d0 g     F .text	000002ec mbedtls_mpi_gen_prime
00003e1c g     F .text	00000034 mbedtls_mpi_get_bit
00003fbc g     F .text	000000b8 mbedtls_mpi_read_binary
00008e3c g     F .text	00000030 trace_printf
0000571c g     F .text	00000150 mbedtls_mpi_montmul
00007e44 g     F .text	0000002c memcpy
000002a8 g     F .text	00000014 utee_cryp_state_free
00002eec g     F .text	000000a4 TEE_BigIntConvertFromFMM
000012cc g     F .text	00000018 TEE_Panic
00007f3c g     F .text	00000018 __aeabi_uldivmod
00003178 g     F .text	0000003c puts
00002f90 g     F .text	00000118 TEE_BigIntComputeFMM
00007950 g     F .text	00000030 malloc_get_stats
00000328 g     F .text	00000018 utee_cipher_final
000011a0 g     F .text	0000002c TEE_GetREETime
0000c1d0 g     O .data	0000006c ta_props
00007980 g     F .text	00000048 malloc
000000d0 g     F .text	00000014 __ta_entry_c
00000390 g     F .text	00000014 utee_cryp_obj_close
00007e20 g     F .text	00000024 vsnprintf
0000c1cc g     O .data	00000004 trace_level
000020a8 g     F .text	00000060 TEE_BigIntCmp
00009160 g     O .rodata	00000004 ta_num_props
000076a8 g     F .text	000000c8 bgetr
00000434 g     F .text	00000018 utee_authenc_update_payload
00008ff0 g     F .text	00000058 mempool_free
00001ee0 g     F .text	00000094 TEE_BigIntConvertToOctetString
000005cc g     F .text	00000014 utee_cache_operation
00003f24 g     F .text	0000007c mbedtls_mpi_bitlen
00000408 g     F .text	00000018 utee_authenc_init
00002470 g     F .text	0000004c TEE_BigIntGetBit
00009178 g     O .rodata	00000003 trace_ext_prefix
000072cc g     F .text	0000008c bgetz
00001000 g     F .text	0000001c TEE_GetInstanceData
00001090 g     F .text	00000034 TEE_Wait
0000057c g     F .text	00000014 utee_storage_obj_write
000048fc g     F .text	00000168 mbedtls_mpi_mul_mpi
00000120 g     F .text	00000010 __aeabi_unwind_cpp_pr2
00001294 g     F .text	0000001c TEE_CacheFlush
00008c2c g     F .text	00000210 trace_vprintf
00000034 g     F .text	00000010 TA_DestroyEntryPoint
00003814 g     F .text	00000028 mbedtls_mpi_init
00003ec8 g     F .text	0000005c mbedtls_mpi_lsb
00009104 g     F .text	00000040 _assert_log
00002ec0 g     F .text	00000014 TEE_BigIntFMMContextSizeInU32
000013e8 g     F .text	00000088 tee_unmap
00001d70 g     F .text	0000006c _TEE_MathAPI_Init
00004758 g     F .text	00000084 mbedtls_mpi_add_mpi
00000554 g     F .text	00000014 utee_storage_next_enum
0000f2d8 g     O .bss	00008000 ta_heap
000029e0 g     F .text	00000124 TEE_BigIntInvMod
00000064 g     F .text	00000010 TA_CloseSessionEntryPoint
000047dc g     F .text	00000088 mbedtls_mpi_sub_mpi
00009048 g     F .text	0000007c consttime_memcmp
0000016c g     F .text	00000014 __utee_panic
00000294 g     F .text	00000014 utee_cryp_state_copy
00000074 g     F .text	0000005c TA_InvokeCommandEntryPoint
00007a9c g     F .text	00000030 free_wipe
00008ee8 g     F .text	000000c4 mempool_alloc
0000037c g     F .text	00000014 utee_cryp_obj_alloc
00000268 g     F .text	00000014 utee_set_ta_time
00000368 g     F .text	00000014 utee_cryp_obj_get_attr
00008fac g     F .text	00000044 mempool_calloc
000079c8 g     F .text	0000005c calloc
000011cc g     F .text	0000007c TEE_Malloc
0000022c g     F .text	00000014 utee_mask_cancellation
000003a4 g     F .text	00000014 utee_cryp_obj_reset
00000bcc g     F .text	00000028 TEE_CheckMemoryAccessRights
000172d8 g       .bss	00000000 __gprof_buf_end
00007f54 g     F .text	000000a8 __ul_divmod
00003dbc g     F .text	00000060 mbedtls_mpi_lset
00000044 g     F .text	00000020 TA_OpenSessionEntryPoint
00000540 g     F .text	00000014 utee_storage_start_enum
000004f0 g     F .text	00000014 utee_storage_obj_rename
000172d8 g       .bss	00000000 __ftrace_buf_end
0000c2c8 g     O .bss	00000004 ta_param_types
00005204 g     F .text	0000004c mbedtls_mpi_div_int
000067f4 g     F .text	000000b8 mbedtls_mpi_is_prime_ext
00002e28 g     F .text	00000054 TEE_BigIntIsProbablePrime
00004a64 g     F .text	00000038 mbedtls_mpi_mul_int
000058b0 g     F .text	0000064c mbedtls_mpi_exp_mod
00003c40 g     F .text	000000b4 mbedtls_mpi_safe_cond_assign
00000180 g     F .text	00000018 utee_get_property
00001ddc g     F .text	00000070 TEE_BigIntInit
0000101c g     F .text	00000018 TEE_MemMove
00007040 g     F .text	00000030 mbedtls_platform_zeroize
00001e4c g     F .text	00000094 TEE_BigIntConvertFromOctetString
00004310 g     F .text	000000d4 mbedtls_mpi_cmp_abs
000090c4 g     F .text	00000040 memchr
00000b5c g     F .text	00000038 TEE_UnmaskCancellation
00006bbc g     F .text	00000484 mbedtls_mpi_self_test
000004dc g     F .text	00000014 utee_storage_obj_del
000005a4 g     F .text	00000014 utee_storage_obj_seek
000044f0 g     F .text	0000004c mbedtls_mpi_cmp_int
000002d0 g     F .text	00000014 utee_hash_update
00002890 g     F .text	00000088 TEE_BigIntMod
00005304 g     F .text	000000b4 mbedtls_mpi_mod_int
000001c4 g     F .text	00000014 utee_close_ta_session
00002730 g     F .text	00000160 TEE_BigIntDiv
000172d8 g       .bss	00000000 __ftrace_buf_start
00003b3c g     F .text	000000ac mbedtls_mpi_copy
00007920 g     F .text	00000030 malloc_reset_stats
00000310 g     F .text	00000018 utee_cipher_update
00007a24 g     F .text	00000048 realloc
00003be8 g     F .text	00000058 mbedtls_mpi_swap
00008e7c g     F .text	0000006c mempool_alloc_pool
00000494 g     F .text	00000018 utee_asymm_verify
00002620 g     F .text	000000f4 TEE_BigIntMul
00004128 g     F .text	000000fc mbedtls_mpi_shift_l
000043e4 g     F .text	0000010c mbedtls_mpi_cmp_mpi
0000104c g     F .text	00000018 TEE_MemFill
00007acc g     F .text	00000128 malloc_add_pool
00008c00 g     F .text	0000002c trace_get_level
0000453c g     F .text	00000140 mbedtls_mpi_add_abs
000003f4 g     F .text	00000014 utee_cryp_random_number_generate
00002ea4 g     F .text	0000001c TEE_BigIntFMMSizeInU32
00002e7c g     F .text	00000018 TEE_BigIntInitFMM
0000047c g     F .text	00000018 utee_asymm_operate
000007f0 g     F .text	00000264 __utee_entry
00009160 g       .text	00000000 __text_end
00002b04 g     F .text	000000c4 TEE_BigIntRelativePrime
00005250 g     F .text	000000b4 mbedtls_mpi_mod_mpi
00007770 g     F .text	00000100 bpool
00000b24 g     F .text	00000038 TEE_GetCancellationFlag
00005efc g     F .text	000001b4 mbedtls_mpi_gcd
0000114c g     F .text	00000054 TEE_SetTAPersistentTime
00007ecc g     F .text	00000028 memset
000010c4 g     F .text	00000088 TEE_GetTAPersistentTime
00008e6c g     F .text	00000010 dhex_dump
00000b94 g     F .text	00000038 TEE_MaskCancellation
00000568 g     F .text	00000014 utee_storage_obj_read
000003b8 g     F .text	00000014 utee_cryp_obj_populate
00008bc8 g     F .text	00000038 trace_set_level
00000340 g     F .text	00000014 utee_cryp_obj_get_info
00000504 g     F .text	00000014 utee_storage_alloc_enum
0000052c g     F .text	00000014 utee_storage_reset_enum
00000590 g     F .text	00000014 utee_storage_obj_trunc
00001ffc g     F .text	000000ac TEE_BigIntConvertToS32
00002534 g     F .text	00000038 TEE_BigIntSub
000001f0 g     F .text	00000014 utee_get_cancellation_flag
000002bc g     F .text	00000014 utee_hash_init
000000e4 g     F .text	00000014 tahead_get_trace_level
00001370 g     F .text	00000078 tee_map_zi
0000586c g     F .text	00000044 mbedtls_mpi_montred
00001f74 g     F .text	00000088 TEE_BigIntConvertFromS32
00004864 g     F .text	0000004c mbedtls_mpi_add_int
00000354 g     F .text	00000014 utee_cryp_obj_restrict_usage
00007bf4 g     F .text	00000170 malloc_buffer_is_within_alloced
000003cc g     F .text	00000014 utee_cryp_obj_copy
00002e94 g     F .text	00000010 TEE_BigIntInitFMMContext
000003e0 g     F .text	00000014 utee_cryp_derive_key
00000464 g     F .text	00000018 utee_authenc_dec_final
00002714 g     F .text	0000001c TEE_BigIntSquare
00000020 g     F .text	00000014 TA_CreateEntryPoint
000000f8 g     F .text	00000008 __ta_entry
00008b9c g     F .text	0000002c snprintk
000056d4 g     F .text	00000048 mbedtls_mpi_montg_init
000024bc g     F .text	00000040 TEE_BigIntGetBitCount
00002988 g     F .text	00000038 TEE_BigIntMulMod
000063ac g     F .text	00000448 mbedtls_mpi_inv_mod
0000c2a8 g     O .bss	00000020 ta_params
00004c64 g     F .text	000005a0 mbedtls_mpi_div_mpi
00003fa0 g     F .text	0000001c mbedtls_mpi_size
000070cc g     F .text	00000200 bget
00003e50 g     F .text	00000078 mbedtls_mpi_set_bit
00001260 g     F .text	00000018 TEE_Free
000068ac g     F .text	00000024 mbedtls_mpi_is_prime
000012b0 g     F .text	0000001c TEE_CacheInvalidate
000002fc g     F .text	00000014 utee_cipher_init
00009144 g     F .text	0000001c _assert_break
00002918 g     F .text	00000038 TEE_BigIntAddMod
00000518 g     F .text	00000014 utee_storage_free_enum
00000420 g     F .text	00000014 utee_authenc_update_aad
00001034 g     F .text	00000018 TEE_MemCompare
0000811c g     F .text	00000a5c __vsnprintf
00000efc g     F .text	000000e4 TEE_OpenTASession
00000130 g     F .text	00000014 utee_panic
000030e0 g     F .text	00000028 trace_ext_puts
00003108 g     F .text	00000014 trace_ext_get_thread_id
00003888 g     F .text	00000080 mbedtls_mpi_free
00001278 g     F .text	0000001c TEE_CacheClean
000001ac g     F .text	00000018 utee_open_ta_session
00003cf4 g     F .text	000000c8 mbedtls_mpi_safe_cond_swap
000002e4 g     F .text	00000018 utee_hash_final
00007ef4 g     F .text	00000030 strlen
00002bc8 g     F .text	00000260 TEE_BigIntComputeExtendedGcd
00000110 g     F .text	00000010 __aeabi_unwind_cpp_pr1
000004ac g     F .text	00000018 utee_storage_obj_open
000001d8 g     F .text	00000018 utee_invoke_ta_command
00000240 g     F .text	00000014 utee_wait
00001064 g     F .text	0000002c TEE_GetSystemTime
00000000 g     O .ta_head	00000020 ta_head
00007358 g     F .text	00000350 brel
0000467c g     F .text	000000dc mbedtls_mpi_sub_abs
00000254 g     F .text	00000014 utee_get_time
000060b0 g     F .text	00000074 mbedtls_mpi_fill_random
00000fe0 g     F .text	00000020 TEE_SetInstanceData
00000218 g     F .text	00000014 utee_unmask_cancellation
00007f24 g     F .text	00000018 __aeabi_ldivmod
00000204 g     F .text	00000014 utee_check_access_rights
00005480 g     F .text	000001c0 mbedtls_mpi_write_string
000005b8 g     F .text	00000014 utee_cryp_obj_generate_key
00000af8 g     F .text	0000002c TEE_CloseTASession
000172d8 g       .bss	00000000 __gprof_buf_start
00007a6c g     F .text	00000030 free
00007870 g     F .text	000000b0 bstats
0000f2d4 g     O .bss	00000004 mbedtls_mpi_mempool



Disassembly of section .text:

00000020 <TA_CreateEntryPoint>:
TA_CreateEntryPoint():
/mnt/nvme0n1p4/soo/optee_ta/hello_world/hello_world_ta.c:38
      20:	e1a0c00d 	mov	ip, sp
/mnt/nvme0n1p4/soo/optee_ta/hello_world/hello_world_ta.c:42
      24:	e3a00000 	mov	r0, #0
/mnt/nvme0n1p4/soo/optee_ta/hello_world/hello_world_ta.c:38
      28:	e92dd800 	push	{fp, ip, lr, pc}
      2c:	e24cb004 	sub	fp, ip, #4
/mnt/nvme0n1p4/soo/optee_ta/hello_world/hello_world_ta.c:42
      30:	e89da800 	ldm	sp, {fp, sp, pc}

00000034 <TA_DestroyEntryPoint>:
TA_DestroyEntryPoint():
/mnt/nvme0n1p4/soo/optee_ta/hello_world/hello_world_ta.c:49
      34:	e1a0c00d 	mov	ip, sp
      38:	e92dd800 	push	{fp, ip, lr, pc}
      3c:	e24cb004 	sub	fp, ip, #4
      40:	e89da800 	ldm	sp, {fp, sp, pc}

00000044 <TA_OpenSessionEntryPoint>:
TA_OpenSessionEntryPoint():
/mnt/nvme0n1p4/soo/optee_ta/hello_world/hello_world_ta.c:62
      44:	e1a0c00d 	mov	ip, sp
/mnt/nvme0n1p4/soo/optee_ta/hello_world/hello_world_ta.c:70
      48:	e3500000 	cmp	r0, #0
/mnt/nvme0n1p4/soo/optee_ta/hello_world/hello_world_ta.c:85
      4c:	e59f000c 	ldr	r0, [pc, #12]	; 60 <TA_OpenSessionEntryPoint+0x1c>
      50:	03a00000 	moveq	r0, #0
/mnt/nvme0n1p4/soo/optee_ta/hello_world/hello_world_ta.c:62
      54:	e92dd800 	push	{fp, ip, lr, pc}
      58:	e24cb004 	sub	fp, ip, #4
/mnt/nvme0n1p4/soo/optee_ta/hello_world/hello_world_ta.c:85
      5c:	e89da800 	ldm	sp, {fp, sp, pc}
      60:	ffff0006 	.word	0xffff0006

00000064 <TA_CloseSessionEntryPoint>:
TA_CloseSessionEntryPoint():
/mnt/nvme0n1p4/soo/optee_ta/hello_world/hello_world_ta.c:92
      64:	e1a0c00d 	mov	ip, sp
      68:	e92dd800 	push	{fp, ip, lr, pc}
      6c:	e24cb004 	sub	fp, ip, #4
      70:	e89da800 	ldm	sp, {fp, sp, pc}

00000074 <TA_InvokeCommandEntryPoint>:
TA_InvokeCommandEntryPoint():
/mnt/nvme0n1p4/soo/optee_ta/hello_world/hello_world_ta.c:144
      74:	e1a0c00d 	mov	ip, sp
/mnt/nvme0n1p4/soo/optee_ta/hello_world/hello_world_ta.c:147
      78:	e2510000 	subs	r0, r1, #0
/mnt/nvme0n1p4/soo/optee_ta/hello_world/hello_world_ta.c:144
      7c:	e92dd800 	push	{fp, ip, lr, pc}
      80:	e24cb004 	sub	fp, ip, #4
/mnt/nvme0n1p4/soo/optee_ta/hello_world/hello_world_ta.c:147
      84:	0a000003 	beq	98 <TA_InvokeCommandEntryPoint+0x24>
      88:	e3500001 	cmp	r0, #1
      8c:	0a000007 	beq	b0 <TA_InvokeCommandEntryPoint+0x3c>
inc_value():
/mnt/nvme0n1p4/soo/optee_ta/hello_world/hello_world_ta.c:108
      90:	e59f0034 	ldr	r0, [pc, #52]	; cc <TA_InvokeCommandEntryPoint+0x58>
TA_InvokeCommandEntryPoint():
/mnt/nvme0n1p4/soo/optee_ta/hello_world/hello_world_ta.c:155
      94:	e89da800 	ldm	sp, {fp, sp, pc}
inc_value():
/mnt/nvme0n1p4/soo/optee_ta/hello_world/hello_world_ta.c:107
      98:	e3520003 	cmp	r2, #3
      9c:	1afffffb 	bne	90 <TA_InvokeCommandEntryPoint+0x1c>
/mnt/nvme0n1p4/soo/optee_ta/hello_world/hello_world_ta.c:111
      a0:	e5932000 	ldr	r2, [r3]
      a4:	e2822001 	add	r2, r2, #1
      a8:	e5832000 	str	r2, [r3]
      ac:	e89da800 	ldm	sp, {fp, sp, pc}
dec_value():
/mnt/nvme0n1p4/soo/optee_ta/hello_world/hello_world_ta.c:127
      b0:	e3520003 	cmp	r2, #3
      b4:	1afffff5 	bne	90 <TA_InvokeCommandEntryPoint+0x1c>
/mnt/nvme0n1p4/soo/optee_ta/hello_world/hello_world_ta.c:131
      b8:	e5932000 	ldr	r2, [r3]
/mnt/nvme0n1p4/soo/optee_ta/hello_world/hello_world_ta.c:134
      bc:	e3a00000 	mov	r0, #0
/mnt/nvme0n1p4/soo/optee_ta/hello_world/hello_world_ta.c:131
      c0:	e2422001 	sub	r2, r2, #1
      c4:	e5832000 	str	r2, [r3]
      c8:	e89da800 	ldm	sp, {fp, sp, pc}
      cc:	ffff0006 	.word	0xffff0006

000000d0 <__ta_entry_c>:
__ta_entry_c():
/mnt/nvme0n1p4/soo/optee_os/out/arm-plat-vexpress/export-ta_arm32/src/user_ta_header.c:47
      d0:	e1a0c00d 	mov	ip, sp
      d4:	e92dd800 	push	{fp, ip, lr, pc}
      d8:	e24cb004 	sub	fp, ip, #4
/mnt/nvme0n1p4/soo/optee_os/out/arm-plat-vexpress/export-ta_arm32/src/user_ta_header.c:48
      dc:	eb0001c3 	bl	7f0 <__utee_entry>
/mnt/nvme0n1p4/soo/optee_os/out/arm-plat-vexpress/export-ta_arm32/src/user_ta_header.c:59
      e0:	eb000017 	bl	144 <utee_return>

000000e4 <tahead_get_trace_level>:
tahead_get_trace_level():
/mnt/nvme0n1p4/soo/optee_os/out/arm-plat-vexpress/export-ta_arm32/src/user_ta_header.c:144
      e4:	e1a0c00d 	mov	ip, sp
/mnt/nvme0n1p4/soo/optee_os/out/arm-plat-vexpress/export-ta_arm32/src/user_ta_header.c:149
      e8:	e3a00001 	mov	r0, #1
/mnt/nvme0n1p4/soo/optee_os/out/arm-plat-vexpress/export-ta_arm32/src/user_ta_header.c:144
      ec:	e92dd800 	push	{fp, ip, lr, pc}
      f0:	e24cb004 	sub	fp, ip, #4
/mnt/nvme0n1p4/soo/optee_os/out/arm-plat-vexpress/export-ta_arm32/src/user_ta_header.c:149
      f4:	e89da800 	ldm	sp, {fp, sp, pc}

000000f8 <__ta_entry>:
__ta_entry():
/mnt/nvme0n1p4/soo/optee_os/out/arm-plat-vexpress/export-ta_arm32/src/ta_entry_a32.S:27
      f8:	ebfffff4 	bl	d0 <__ta_entry_c>
/mnt/nvme0n1p4/soo/optee_os/out/arm-plat-vexpress/export-ta_arm32/src/ta_entry_a32.S:32
      fc:	e320f000 	nop	{0}

00000100 <__aeabi_unwind_cpp_pr0>:
__aeabi_unwind_cpp_pr0():
     100:	e1a0c00d 	mov	ip, sp
     104:	e92dd800 	push	{fp, ip, lr, pc}
     108:	e24cb004 	sub	fp, ip, #4
     10c:	e89da800 	ldm	sp, {fp, sp, pc}

00000110 <__aeabi_unwind_cpp_pr1>:
__aeabi_unwind_cpp_pr1():
     110:	e1a0c00d 	mov	ip, sp
     114:	e92dd800 	push	{fp, ip, lr, pc}
     118:	e24cb004 	sub	fp, ip, #4
     11c:	e89da800 	ldm	sp, {fp, sp, pc}

00000120 <__aeabi_unwind_cpp_pr2>:
__aeabi_unwind_cpp_pr2():
/home/rossierd/soo.tech/soo/optee_os/lib/libutils/ext/arch/arm/aeabi_unwind.c:18
     120:	e1a0c00d 	mov	ip, sp
     124:	e92dd800 	push	{fp, ip, lr, pc}
     128:	e24cb004 	sub	fp, ip, #4
     12c:	e89da800 	ldm	sp, {fp, sp, pc}

00000130 <utee_panic>:
utee_panic():
/home/rossierd/soo.tech/soo/optee_os/lib/libutee/arch/arm/utee_syscalls_a32.S:47
     130:	e92d4fff 	push	{r0, r1, r2, r3, r4, r5, r6, r7, r8, r9, sl, fp, lr}
/home/rossierd/soo.tech/soo/optee_os/lib/libutee/arch/arm/utee_syscalls_a32.S:49
     134:	e1a0e00f 	mov	lr, pc
/home/rossierd/soo.tech/soo/optee_os/lib/libutee/arch/arm/utee_syscalls_a32.S:50
     138:	e52de004 	push	{lr}		; (str lr, [sp, #-4]!)
/home/rossierd/soo.tech/soo/optee_os/lib/libutee/arch/arm/utee_syscalls_a32.S:52
     13c:	e1a0100d 	mov	r1, sp
/home/rossierd/soo.tech/soo/optee_os/lib/libutee/arch/arm/utee_syscalls_a32.S:53
     140:	eb000009 	bl	16c <__utee_panic>

00000144 <utee_return>:
utee_return():
/home/rossierd/soo.tech/soo/optee_os/lib/libutee/arch/arm/utee_syscalls_asm.S:8
     144:	e92d40e0 	push	{r5, r6, r7, lr}
     148:	e3a07000 	mov	r7, #0
     14c:	e3a06000 	mov	r6, #0
     150:	ef000000 	svc	0x00000000
     154:	e8bd80e0 	pop	{r5, r6, r7, pc}

00000158 <utee_log>:
utee_log():
/home/rossierd/soo.tech/soo/optee_os/lib/libutee/arch/arm/utee_syscalls_asm.S:10
     158:	e92d40e0 	push	{r5, r6, r7, lr}
     15c:	e3a07001 	mov	r7, #1
     160:	e3a06000 	mov	r6, #0
     164:	ef000000 	svc	0x00000000
     168:	e8bd80e0 	pop	{r5, r6, r7, pc}

0000016c <__utee_panic>:
__utee_panic():
/home/rossierd/soo.tech/soo/optee_os/lib/libutee/arch/arm/utee_syscalls_asm.S:12
     16c:	e92d40e0 	push	{r5, r6, r7, lr}
     170:	e3a07002 	mov	r7, #2
     174:	e3a06000 	mov	r6, #0
     178:	ef000000 	svc	0x00000000
     17c:	e8bd80e0 	pop	{r5, r6, r7, pc}

00000180 <utee_get_property>:
utee_get_property():
/home/rossierd/soo.tech/soo/optee_os/lib/libutee/arch/arm/utee_syscalls_asm.S:14
     180:	e92d40e0 	push	{r5, r6, r7, lr}
     184:	e3a07003 	mov	r7, #3
     188:	e3a06003 	mov	r6, #3
     18c:	e28d5010 	add	r5, sp, #16
     190:	ef000000 	svc	0x00000000
     194:	e8bd80e0 	pop	{r5, r6, r7, pc}

00000198 <utee_get_property_name_to_index>:
utee_get_property_name_to_index():
/home/rossierd/soo.tech/soo/optee_os/lib/libutee/arch/arm/utee_syscalls_asm.S:16
     198:	e92d40e0 	push	{r5, r6, r7, lr}
     19c:	e3a07004 	mov	r7, #4
     1a0:	e3a06000 	mov	r6, #0
     1a4:	ef000000 	svc	0x00000000
     1a8:	e8bd80e0 	pop	{r5, r6, r7, pc}

000001ac <utee_open_ta_session>:
utee_open_ta_session():
/home/rossierd/soo.tech/soo/optee_os/lib/libutee/arch/arm/utee_syscalls_asm.S:19
     1ac:	e92d40e0 	push	{r5, r6, r7, lr}
     1b0:	e3a07005 	mov	r7, #5
     1b4:	e3a06001 	mov	r6, #1
     1b8:	e28d5010 	add	r5, sp, #16
     1bc:	ef000000 	svc	0x00000000
     1c0:	e8bd80e0 	pop	{r5, r6, r7, pc}

000001c4 <utee_close_ta_session>:
utee_close_ta_session():
/home/rossierd/soo.tech/soo/optee_os/lib/libutee/arch/arm/utee_syscalls_asm.S:21
     1c4:	e92d40e0 	push	{r5, r6, r7, lr}
     1c8:	e3a07006 	mov	r7, #6
     1cc:	e3a06000 	mov	r6, #0
     1d0:	ef000000 	svc	0x00000000
     1d4:	e8bd80e0 	pop	{r5, r6, r7, pc}

000001d8 <utee_invoke_ta_command>:
utee_invoke_ta_command():
/home/rossierd/soo.tech/soo/optee_os/lib/libutee/arch/arm/utee_syscalls_asm.S:23
     1d8:	e92d40e0 	push	{r5, r6, r7, lr}
     1dc:	e3a07007 	mov	r7, #7
     1e0:	e3a06001 	mov	r6, #1
     1e4:	e28d5010 	add	r5, sp, #16
     1e8:	ef000000 	svc	0x00000000
     1ec:	e8bd80e0 	pop	{r5, r6, r7, pc}

000001f0 <utee_get_cancellation_flag>:
utee_get_cancellation_flag():
/home/rossierd/soo.tech/soo/optee_os/lib/libutee/arch/arm/utee_syscalls_asm.S:25
     1f0:	e92d40e0 	push	{r5, r6, r7, lr}
     1f4:	e3a07009 	mov	r7, #9
     1f8:	e3a06000 	mov	r6, #0
     1fc:	ef000000 	svc	0x00000000
     200:	e8bd80e0 	pop	{r5, r6, r7, pc}

00000204 <utee_check_access_rights>:
utee_check_access_rights():
/home/rossierd/soo.tech/soo/optee_os/lib/libutee/arch/arm/utee_syscalls_asm.S:28
     204:	e92d40e0 	push	{r5, r6, r7, lr}
     208:	e3a07008 	mov	r7, #8
     20c:	e3a06000 	mov	r6, #0
     210:	ef000000 	svc	0x00000000
     214:	e8bd80e0 	pop	{r5, r6, r7, pc}

00000218 <utee_unmask_cancellation>:
utee_unmask_cancellation():
/home/rossierd/soo.tech/soo/optee_os/lib/libutee/arch/arm/utee_syscalls_asm.S:30
     218:	e92d40e0 	push	{r5, r6, r7, lr}
     21c:	e3a0700a 	mov	r7, #10
     220:	e3a06000 	mov	r6, #0
     224:	ef000000 	svc	0x00000000
     228:	e8bd80e0 	pop	{r5, r6, r7, pc}

0000022c <utee_mask_cancellation>:
utee_mask_cancellation():
/home/rossierd/soo.tech/soo/optee_os/lib/libutee/arch/arm/utee_syscalls_asm.S:32
     22c:	e92d40e0 	push	{r5, r6, r7, lr}
     230:	e3a0700b 	mov	r7, #11
     234:	e3a06000 	mov	r6, #0
     238:	ef000000 	svc	0x00000000
     23c:	e8bd80e0 	pop	{r5, r6, r7, pc}

00000240 <utee_wait>:
utee_wait():
/home/rossierd/soo.tech/soo/optee_os/lib/libutee/arch/arm/utee_syscalls_asm.S:34
     240:	e92d40e0 	push	{r5, r6, r7, lr}
     244:	e3a0700c 	mov	r7, #12
     248:	e3a06000 	mov	r6, #0
     24c:	ef000000 	svc	0x00000000
     250:	e8bd80e0 	pop	{r5, r6, r7, pc}

00000254 <utee_get_time>:
utee_get_time():
/home/rossierd/soo.tech/soo/optee_os/lib/libutee/arch/arm/utee_syscalls_asm.S:36
     254:	e92d40e0 	push	{r5, r6, r7, lr}
     258:	e3a0700d 	mov	r7, #13
     25c:	e3a06000 	mov	r6, #0
     260:	ef000000 	svc	0x00000000
     264:	e8bd80e0 	pop	{r5, r6, r7, pc}

00000268 <utee_set_ta_time>:
utee_set_ta_time():
/home/rossierd/soo.tech/soo/optee_os/lib/libutee/arch/arm/utee_syscalls_asm.S:38
     268:	e92d40e0 	push	{r5, r6, r7, lr}
     26c:	e3a0700e 	mov	r7, #14
     270:	e3a06000 	mov	r6, #0
     274:	ef000000 	svc	0x00000000
     278:	e8bd80e0 	pop	{r5, r6, r7, pc}

0000027c <utee_cryp_state_alloc>:
utee_cryp_state_alloc():
/home/rossierd/soo.tech/soo/optee_os/lib/libutee/arch/arm/utee_syscalls_asm.S:40
     27c:	e92d40e0 	push	{r5, r6, r7, lr}
     280:	e3a0700f 	mov	r7, #15
     284:	e3a06001 	mov	r6, #1
     288:	e28d5010 	add	r5, sp, #16
     28c:	ef000000 	svc	0x00000000
     290:	e8bd80e0 	pop	{r5, r6, r7, pc}

00000294 <utee_cryp_state_copy>:
utee_cryp_state_copy():
/home/rossierd/soo.tech/soo/optee_os/lib/libutee/arch/arm/utee_syscalls_asm.S:42
     294:	e92d40e0 	push	{r5, r6, r7, lr}
     298:	e3a07010 	mov	r7, #16
     29c:	e3a06000 	mov	r6, #0
     2a0:	ef000000 	svc	0x00000000
     2a4:	e8bd80e0 	pop	{r5, r6, r7, pc}

000002a8 <utee_cryp_state_free>:
utee_cryp_state_free():
/home/rossierd/soo.tech/soo/optee_os/lib/libutee/arch/arm/utee_syscalls_asm.S:44
     2a8:	e92d40e0 	push	{r5, r6, r7, lr}
     2ac:	e3a07011 	mov	r7, #17
     2b0:	e3a06000 	mov	r6, #0
     2b4:	ef000000 	svc	0x00000000
     2b8:	e8bd80e0 	pop	{r5, r6, r7, pc}

000002bc <utee_hash_init>:
utee_hash_init():
/home/rossierd/soo.tech/soo/optee_os/lib/libutee/arch/arm/utee_syscalls_asm.S:46
     2bc:	e92d40e0 	push	{r5, r6, r7, lr}
     2c0:	e3a07012 	mov	r7, #18
     2c4:	e3a06000 	mov	r6, #0
     2c8:	ef000000 	svc	0x00000000
     2cc:	e8bd80e0 	pop	{r5, r6, r7, pc}

000002d0 <utee_hash_update>:
utee_hash_update():
/home/rossierd/soo.tech/soo/optee_os/lib/libutee/arch/arm/utee_syscalls_asm.S:48
     2d0:	e92d40e0 	push	{r5, r6, r7, lr}
     2d4:	e3a07013 	mov	r7, #19
     2d8:	e3a06000 	mov	r6, #0
     2dc:	ef000000 	svc	0x00000000
     2e0:	e8bd80e0 	pop	{r5, r6, r7, pc}

000002e4 <utee_hash_final>:
utee_hash_final():
/home/rossierd/soo.tech/soo/optee_os/lib/libutee/arch/arm/utee_syscalls_asm.S:50
     2e4:	e92d40e0 	push	{r5, r6, r7, lr}
     2e8:	e3a07014 	mov	r7, #20
     2ec:	e3a06001 	mov	r6, #1
     2f0:	e28d5010 	add	r5, sp, #16
     2f4:	ef000000 	svc	0x00000000
     2f8:	e8bd80e0 	pop	{r5, r6, r7, pc}

000002fc <utee_cipher_init>:
utee_cipher_init():
/home/rossierd/soo.tech/soo/optee_os/lib/libutee/arch/arm/utee_syscalls_asm.S:52
     2fc:	e92d40e0 	push	{r5, r6, r7, lr}
     300:	e3a07015 	mov	r7, #21
     304:	e3a06000 	mov	r6, #0
     308:	ef000000 	svc	0x00000000
     30c:	e8bd80e0 	pop	{r5, r6, r7, pc}

00000310 <utee_cipher_update>:
utee_cipher_update():
/home/rossierd/soo.tech/soo/optee_os/lib/libutee/arch/arm/utee_syscalls_asm.S:54
     310:	e92d40e0 	push	{r5, r6, r7, lr}
     314:	e3a07016 	mov	r7, #22
     318:	e3a06001 	mov	r6, #1
     31c:	e28d5010 	add	r5, sp, #16
     320:	ef000000 	svc	0x00000000
     324:	e8bd80e0 	pop	{r5, r6, r7, pc}

00000328 <utee_cipher_final>:
utee_cipher_final():
/home/rossierd/soo.tech/soo/optee_os/lib/libutee/arch/arm/utee_syscalls_asm.S:56
     328:	e92d40e0 	push	{r5, r6, r7, lr}
     32c:	e3a07017 	mov	r7, #23
     330:	e3a06001 	mov	r6, #1
     334:	e28d5010 	add	r5, sp, #16
     338:	ef000000 	svc	0x00000000
     33c:	e8bd80e0 	pop	{r5, r6, r7, pc}

00000340 <utee_cryp_obj_get_info>:
utee_cryp_obj_get_info():
/home/rossierd/soo.tech/soo/optee_os/lib/libutee/arch/arm/utee_syscalls_asm.S:58
     340:	e92d40e0 	push	{r5, r6, r7, lr}
     344:	e3a07018 	mov	r7, #24
     348:	e3a06000 	mov	r6, #0
     34c:	ef000000 	svc	0x00000000
     350:	e8bd80e0 	pop	{r5, r6, r7, pc}

00000354 <utee_cryp_obj_restrict_usage>:
utee_cryp_obj_restrict_usage():
/home/rossierd/soo.tech/soo/optee_os/lib/libutee/arch/arm/utee_syscalls_asm.S:60
     354:	e92d40e0 	push	{r5, r6, r7, lr}
     358:	e3a07019 	mov	r7, #25
     35c:	e3a06000 	mov	r6, #0
     360:	ef000000 	svc	0x00000000
     364:	e8bd80e0 	pop	{r5, r6, r7, pc}

00000368 <utee_cryp_obj_get_attr>:
utee_cryp_obj_get_attr():
/home/rossierd/soo.tech/soo/optee_os/lib/libutee/arch/arm/utee_syscalls_asm.S:63
     368:	e92d40e0 	push	{r5, r6, r7, lr}
     36c:	e3a0701a 	mov	r7, #26
     370:	e3a06000 	mov	r6, #0
     374:	ef000000 	svc	0x00000000
     378:	e8bd80e0 	pop	{r5, r6, r7, pc}

0000037c <utee_cryp_obj_alloc>:
utee_cryp_obj_alloc():
/home/rossierd/soo.tech/soo/optee_os/lib/libutee/arch/arm/utee_syscalls_asm.S:65
     37c:	e92d40e0 	push	{r5, r6, r7, lr}
     380:	e3a0701b 	mov	r7, #27
     384:	e3a06000 	mov	r6, #0
     388:	ef000000 	svc	0x00000000
     38c:	e8bd80e0 	pop	{r5, r6, r7, pc}

00000390 <utee_cryp_obj_close>:
utee_cryp_obj_close():
/home/rossierd/soo.tech/soo/optee_os/lib/libutee/arch/arm/utee_syscalls_asm.S:67
     390:	e92d40e0 	push	{r5, r6, r7, lr}
     394:	e3a0701c 	mov	r7, #28
     398:	e3a06000 	mov	r6, #0
     39c:	ef000000 	svc	0x00000000
     3a0:	e8bd80e0 	pop	{r5, r6, r7, pc}

000003a4 <utee_cryp_obj_reset>:
utee_cryp_obj_reset():
/home/rossierd/soo.tech/soo/optee_os/lib/libutee/arch/arm/utee_syscalls_asm.S:69
     3a4:	e92d40e0 	push	{r5, r6, r7, lr}
     3a8:	e3a0701d 	mov	r7, #29
     3ac:	e3a06000 	mov	r6, #0
     3b0:	ef000000 	svc	0x00000000
     3b4:	e8bd80e0 	pop	{r5, r6, r7, pc}

000003b8 <utee_cryp_obj_populate>:
utee_cryp_obj_populate():
/home/rossierd/soo.tech/soo/optee_os/lib/libutee/arch/arm/utee_syscalls_asm.S:71
     3b8:	e92d40e0 	push	{r5, r6, r7, lr}
     3bc:	e3a0701e 	mov	r7, #30
     3c0:	e3a06000 	mov	r6, #0
     3c4:	ef000000 	svc	0x00000000
     3c8:	e8bd80e0 	pop	{r5, r6, r7, pc}

000003cc <utee_cryp_obj_copy>:
utee_cryp_obj_copy():
/home/rossierd/soo.tech/soo/optee_os/lib/libutee/arch/arm/utee_syscalls_asm.S:73
     3cc:	e92d40e0 	push	{r5, r6, r7, lr}
     3d0:	e3a0701f 	mov	r7, #31
     3d4:	e3a06000 	mov	r6, #0
     3d8:	ef000000 	svc	0x00000000
     3dc:	e8bd80e0 	pop	{r5, r6, r7, pc}

000003e0 <utee_cryp_derive_key>:
utee_cryp_derive_key():
/home/rossierd/soo.tech/soo/optee_os/lib/libutee/arch/arm/utee_syscalls_asm.S:75
     3e0:	e92d40e0 	push	{r5, r6, r7, lr}
     3e4:	e3a07020 	mov	r7, #32
     3e8:	e3a06000 	mov	r6, #0
     3ec:	ef000000 	svc	0x00000000
     3f0:	e8bd80e0 	pop	{r5, r6, r7, pc}

000003f4 <utee_cryp_random_number_generate>:
utee_cryp_random_number_generate():
/home/rossierd/soo.tech/soo/optee_os/lib/libutee/arch/arm/utee_syscalls_asm.S:77
     3f4:	e92d40e0 	push	{r5, r6, r7, lr}
     3f8:	e3a07021 	mov	r7, #33	; 0x21
     3fc:	e3a06000 	mov	r6, #0
     400:	ef000000 	svc	0x00000000
     404:	e8bd80e0 	pop	{r5, r6, r7, pc}

00000408 <utee_authenc_init>:
utee_authenc_init():
/home/rossierd/soo.tech/soo/optee_os/lib/libutee/arch/arm/utee_syscalls_asm.S:80
     408:	e92d40e0 	push	{r5, r6, r7, lr}
     40c:	e3a07022 	mov	r7, #34	; 0x22
     410:	e3a06002 	mov	r6, #2
     414:	e28d5010 	add	r5, sp, #16
     418:	ef000000 	svc	0x00000000
     41c:	e8bd80e0 	pop	{r5, r6, r7, pc}

00000420 <utee_authenc_update_aad>:
utee_authenc_update_aad():
/home/rossierd/soo.tech/soo/optee_os/lib/libutee/arch/arm/utee_syscalls_asm.S:82
     420:	e92d40e0 	push	{r5, r6, r7, lr}
     424:	e3a07023 	mov	r7, #35	; 0x23
     428:	e3a06000 	mov	r6, #0
     42c:	ef000000 	svc	0x00000000
     430:	e8bd80e0 	pop	{r5, r6, r7, pc}

00000434 <utee_authenc_update_payload>:
utee_authenc_update_payload():
/home/rossierd/soo.tech/soo/optee_os/lib/libutee/arch/arm/utee_syscalls_asm.S:84
     434:	e92d40e0 	push	{r5, r6, r7, lr}
     438:	e3a07024 	mov	r7, #36	; 0x24
     43c:	e3a06001 	mov	r6, #1
     440:	e28d5010 	add	r5, sp, #16
     444:	ef000000 	svc	0x00000000
     448:	e8bd80e0 	pop	{r5, r6, r7, pc}

0000044c <utee_authenc_enc_final>:
utee_authenc_enc_final():
/home/rossierd/soo.tech/soo/optee_os/lib/libutee/arch/arm/utee_syscalls_asm.S:87
     44c:	e92d40e0 	push	{r5, r6, r7, lr}
     450:	e3a07025 	mov	r7, #37	; 0x25
     454:	e3a06003 	mov	r6, #3
     458:	e28d5010 	add	r5, sp, #16
     45c:	ef000000 	svc	0x00000000
     460:	e8bd80e0 	pop	{r5, r6, r7, pc}

00000464 <utee_authenc_dec_final>:
utee_authenc_dec_final():
/home/rossierd/soo.tech/soo/optee_os/lib/libutee/arch/arm/utee_syscalls_asm.S:89
     464:	e92d40e0 	push	{r5, r6, r7, lr}
     468:	e3a07026 	mov	r7, #38	; 0x26
     46c:	e3a06003 	mov	r6, #3
     470:	e28d5010 	add	r5, sp, #16
     474:	ef000000 	svc	0x00000000
     478:	e8bd80e0 	pop	{r5, r6, r7, pc}

0000047c <utee_asymm_operate>:
utee_asymm_operate():
/home/rossierd/soo.tech/soo/optee_os/lib/libutee/arch/arm/utee_syscalls_asm.S:91
     47c:	e92d40e0 	push	{r5, r6, r7, lr}
     480:	e3a07027 	mov	r7, #39	; 0x27
     484:	e3a06003 	mov	r6, #3
     488:	e28d5010 	add	r5, sp, #16
     48c:	ef000000 	svc	0x00000000
     490:	e8bd80e0 	pop	{r5, r6, r7, pc}

00000494 <utee_asymm_verify>:
utee_asymm_verify():
/home/rossierd/soo.tech/soo/optee_os/lib/libutee/arch/arm/utee_syscalls_asm.S:93
     494:	e92d40e0 	push	{r5, r6, r7, lr}
     498:	e3a07028 	mov	r7, #40	; 0x28
     49c:	e3a06003 	mov	r6, #3
     4a0:	e28d5010 	add	r5, sp, #16
     4a4:	ef000000 	svc	0x00000000
     4a8:	e8bd80e0 	pop	{r5, r6, r7, pc}

000004ac <utee_storage_obj_open>:
utee_storage_obj_open():
/home/rossierd/soo.tech/soo/optee_os/lib/libutee/arch/arm/utee_syscalls_asm.S:95
     4ac:	e92d40e0 	push	{r5, r6, r7, lr}
     4b0:	e3a07029 	mov	r7, #41	; 0x29
     4b4:	e3a06001 	mov	r6, #1
     4b8:	e28d5010 	add	r5, sp, #16
     4bc:	ef000000 	svc	0x00000000
     4c0:	e8bd80e0 	pop	{r5, r6, r7, pc}

000004c4 <utee_storage_obj_create>:
utee_storage_obj_create():
/home/rossierd/soo.tech/soo/optee_os/lib/libutee/arch/arm/utee_syscalls_asm.S:97
     4c4:	e92d40e0 	push	{r5, r6, r7, lr}
     4c8:	e3a0702a 	mov	r7, #42	; 0x2a
     4cc:	e3a06004 	mov	r6, #4
     4d0:	e28d5010 	add	r5, sp, #16
     4d4:	ef000000 	svc	0x00000000
     4d8:	e8bd80e0 	pop	{r5, r6, r7, pc}

000004dc <utee_storage_obj_del>:
utee_storage_obj_del():
/home/rossierd/soo.tech/soo/optee_os/lib/libutee/arch/arm/utee_syscalls_asm.S:99
     4dc:	e92d40e0 	push	{r5, r6, r7, lr}
     4e0:	e3a0702b 	mov	r7, #43	; 0x2b
     4e4:	e3a06000 	mov	r6, #0
     4e8:	ef000000 	svc	0x00000000
     4ec:	e8bd80e0 	pop	{r5, r6, r7, pc}

000004f0 <utee_storage_obj_rename>:
utee_storage_obj_rename():
/home/rossierd/soo.tech/soo/optee_os/lib/libutee/arch/arm/utee_syscalls_asm.S:101
     4f0:	e92d40e0 	push	{r5, r6, r7, lr}
     4f4:	e3a0702c 	mov	r7, #44	; 0x2c
     4f8:	e3a06000 	mov	r6, #0
     4fc:	ef000000 	svc	0x00000000
     500:	e8bd80e0 	pop	{r5, r6, r7, pc}

00000504 <utee_storage_alloc_enum>:
utee_storage_alloc_enum():
/home/rossierd/soo.tech/soo/optee_os/lib/libutee/arch/arm/utee_syscalls_asm.S:103
     504:	e92d40e0 	push	{r5, r6, r7, lr}
     508:	e3a0702d 	mov	r7, #45	; 0x2d
     50c:	e3a06000 	mov	r6, #0
     510:	ef000000 	svc	0x00000000
     514:	e8bd80e0 	pop	{r5, r6, r7, pc}

00000518 <utee_storage_free_enum>:
utee_storage_free_enum():
/home/rossierd/soo.tech/soo/optee_os/lib/libutee/arch/arm/utee_syscalls_asm.S:105
     518:	e92d40e0 	push	{r5, r6, r7, lr}
     51c:	e3a0702e 	mov	r7, #46	; 0x2e
     520:	e3a06000 	mov	r6, #0
     524:	ef000000 	svc	0x00000000
     528:	e8bd80e0 	pop	{r5, r6, r7, pc}

0000052c <utee_storage_reset_enum>:
utee_storage_reset_enum():
/home/rossierd/soo.tech/soo/optee_os/lib/libutee/arch/arm/utee_syscalls_asm.S:107
     52c:	e92d40e0 	push	{r5, r6, r7, lr}
     530:	e3a0702f 	mov	r7, #47	; 0x2f
     534:	e3a06000 	mov	r6, #0
     538:	ef000000 	svc	0x00000000
     53c:	e8bd80e0 	pop	{r5, r6, r7, pc}

00000540 <utee_storage_start_enum>:
utee_storage_start_enum():
/home/rossierd/soo.tech/soo/optee_os/lib/libutee/arch/arm/utee_syscalls_asm.S:109
     540:	e92d40e0 	push	{r5, r6, r7, lr}
     544:	e3a07030 	mov	r7, #48	; 0x30
     548:	e3a06000 	mov	r6, #0
     54c:	ef000000 	svc	0x00000000
     550:	e8bd80e0 	pop	{r5, r6, r7, pc}

00000554 <utee_storage_next_enum>:
utee_storage_next_enum():
/home/rossierd/soo.tech/soo/optee_os/lib/libutee/arch/arm/utee_syscalls_asm.S:111
     554:	e92d40e0 	push	{r5, r6, r7, lr}
     558:	e3a07031 	mov	r7, #49	; 0x31
     55c:	e3a06000 	mov	r6, #0
     560:	ef000000 	svc	0x00000000
     564:	e8bd80e0 	pop	{r5, r6, r7, pc}

00000568 <utee_storage_obj_read>:
utee_storage_obj_read():
/home/rossierd/soo.tech/soo/optee_os/lib/libutee/arch/arm/utee_syscalls_asm.S:113
     568:	e92d40e0 	push	{r5, r6, r7, lr}
     56c:	e3a07032 	mov	r7, #50	; 0x32
     570:	e3a06000 	mov	r6, #0
     574:	ef000000 	svc	0x00000000
     578:	e8bd80e0 	pop	{r5, r6, r7, pc}

0000057c <utee_storage_obj_write>:
utee_storage_obj_write():
/home/rossierd/soo.tech/soo/optee_os/lib/libutee/arch/arm/utee_syscalls_asm.S:115
     57c:	e92d40e0 	push	{r5, r6, r7, lr}
     580:	e3a07033 	mov	r7, #51	; 0x33
     584:	e3a06000 	mov	r6, #0
     588:	ef000000 	svc	0x00000000
     58c:	e8bd80e0 	pop	{r5, r6, r7, pc}

00000590 <utee_storage_obj_trunc>:
utee_storage_obj_trunc():
/home/rossierd/soo.tech/soo/optee_os/lib/libutee/arch/arm/utee_syscalls_asm.S:117
     590:	e92d40e0 	push	{r5, r6, r7, lr}
     594:	e3a07034 	mov	r7, #52	; 0x34
     598:	e3a06000 	mov	r6, #0
     59c:	ef000000 	svc	0x00000000
     5a0:	e8bd80e0 	pop	{r5, r6, r7, pc}

000005a4 <utee_storage_obj_seek>:
utee_storage_obj_seek():
/home/rossierd/soo.tech/soo/optee_os/lib/libutee/arch/arm/utee_syscalls_asm.S:119
     5a4:	e92d40e0 	push	{r5, r6, r7, lr}
     5a8:	e3a07035 	mov	r7, #53	; 0x35
     5ac:	e3a06000 	mov	r6, #0
     5b0:	ef000000 	svc	0x00000000
     5b4:	e8bd80e0 	pop	{r5, r6, r7, pc}

000005b8 <utee_cryp_obj_generate_key>:
utee_cryp_obj_generate_key():
/home/rossierd/soo.tech/soo/optee_os/lib/libutee/arch/arm/utee_syscalls_asm.S:121
     5b8:	e92d40e0 	push	{r5, r6, r7, lr}
     5bc:	e3a07036 	mov	r7, #54	; 0x36
     5c0:	e3a06000 	mov	r6, #0
     5c4:	ef000000 	svc	0x00000000
     5c8:	e8bd80e0 	pop	{r5, r6, r7, pc}

000005cc <utee_cache_operation>:
utee_cache_operation():
/home/rossierd/soo.tech/soo/optee_os/lib/libutee/arch/arm/utee_syscalls_asm.S:124
     5cc:	e92d40e0 	push	{r5, r6, r7, lr}
     5d0:	e3a07046 	mov	r7, #70	; 0x46
     5d4:	e3a06000 	mov	r6, #0
     5d8:	ef000000 	svc	0x00000000
     5dc:	e8bd80e0 	pop	{r5, r6, r7, pc}

000005e0 <ta_header_get_session>:
ta_header_get_session():
/home/rossierd/soo.tech/soo/optee_os/lib/libutee/arch/arm/user_ta_entry.c:68
     5e0:	e59f3034 	ldr	r3, [pc, #52]	; 61c <ta_header_get_session+0x3c>
/home/rossierd/soo.tech/soo/optee_os/lib/libutee/arch/arm/user_ta_entry.c:65
     5e4:	e1a0c00d 	mov	ip, sp
     5e8:	e92dd800 	push	{fp, ip, lr, pc}
     5ec:	e24cb004 	sub	fp, ip, #4
/home/rossierd/soo.tech/soo/optee_os/lib/libutee/arch/arm/user_ta_entry.c:68
     5f0:	e08f3003 	add	r3, pc, r3
     5f4:	e5933000 	ldr	r3, [r3]
/home/rossierd/soo.tech/soo/optee_os/lib/libutee/arch/arm/user_ta_entry.c:68 (discriminator 1)
     5f8:	e3530000 	cmp	r3, #0
     5fc:	1a000001 	bne	608 <ta_header_get_session+0x28>
/home/rossierd/soo.tech/soo/optee_os/lib/libutee/arch/arm/user_ta_entry.c:73
     600:	e1a00003 	mov	r0, r3
     604:	e89da800 	ldm	sp, {fp, sp, pc}
/home/rossierd/soo.tech/soo/optee_os/lib/libutee/arch/arm/user_ta_entry.c:69
     608:	e5932000 	ldr	r2, [r3]
     60c:	e1520000 	cmp	r2, r0
     610:	0afffffa 	beq	600 <ta_header_get_session+0x20>
/home/rossierd/soo.tech/soo/optee_os/lib/libutee/arch/arm/user_ta_entry.c:68 (discriminator 2)
     614:	e5933008 	ldr	r3, [r3, #8]
     618:	eafffff6 	b	5f8 <ta_header_get_session+0x18>
     61c:	0000bc44 	.word	0x0000bc44

00000620 <to_utee_params>:
to_utee_params():
/home/rossierd/soo.tech/soo/optee_os/lib/libutee/arch/arm/user_ta_entry.c:124
     620:	e1a0c00d 	mov	ip, sp
/home/rossierd/soo.tech/soo/optee_os/lib/libutee/arch/arm/user_ta_entry.c:127
     624:	e3a03000 	mov	r3, #0
/home/rossierd/soo.tech/soo/optee_os/lib/libutee/arch/arm/user_ta_entry.c:124
     628:	e92dd870 	push	{r4, r5, r6, fp, ip, lr, pc}
     62c:	e24cb004 	sub	fp, ip, #4
     630:	e1a0e002 	mov	lr, r2
/home/rossierd/soo.tech/soo/optee_os/lib/libutee/arch/arm/user_ta_entry.c:143
     634:	e3a04000 	mov	r4, #0
     638:	e3a05000 	mov	r5, #0
/home/rossierd/soo.tech/soo/optee_os/lib/libutee/arch/arm/user_ta_entry.c:139
     63c:	e1a06003 	mov	r6, r3
/home/rossierd/soo.tech/soo/optee_os/lib/libutee/arch/arm/user_ta_entry.c:127
     640:	e880000a 	stm	r0, {r1, r3}
/home/rossierd/soo.tech/soo/optee_os/lib/libutee/arch/arm/user_ta_entry.c:129
     644:	e1a0c331 	lsr	ip, r1, r3
     648:	e20cc00f 	and	ip, ip, #15
     64c:	e24cc001 	sub	ip, ip, #1
     650:	e35c0006 	cmp	ip, #6
     654:	908ff10c 	addls	pc, pc, ip, lsl #2
     658:	ea000012 	b	6a8 <to_utee_params+0x88>
     65c:	ea000005 	b	678 <to_utee_params+0x58>
     660:	ea000004 	b	678 <to_utee_params+0x58>
     664:	ea000003 	b	678 <to_utee_params+0x58>
     668:	ea00000e 	b	6a8 <to_utee_params+0x88>
     66c:	ea000001 	b	678 <to_utee_params+0x58>
     670:	ea000000 	b	678 <to_utee_params+0x58>
     674:	eaffffff 	b	678 <to_utee_params+0x58>
/home/rossierd/soo.tech/soo/optee_os/lib/libutee/arch/arm/user_ta_entry.c:139
     678:	e792c083 	ldr	ip, [r2, r3, lsl #1]
     67c:	e580c008 	str	ip, [r0, #8]
     680:	e580600c 	str	r6, [r0, #12]
/home/rossierd/soo.tech/soo/optee_os/lib/libutee/arch/arm/user_ta_entry.c:140
     684:	e59ec004 	ldr	ip, [lr, #4]
     688:	e580c010 	str	ip, [r0, #16]
     68c:	e5806014 	str	r6, [r0, #20]
     690:	e2833004 	add	r3, r3, #4
     694:	e28ee008 	add	lr, lr, #8
/home/rossierd/soo.tech/soo/optee_os/lib/libutee/arch/arm/user_ta_entry.c:128 (discriminator 2)
     698:	e3530010 	cmp	r3, #16
     69c:	e2800010 	add	r0, r0, #16
     6a0:	1affffe7 	bne	644 <to_utee_params+0x24>
/home/rossierd/soo.tech/soo/optee_os/lib/libutee/arch/arm/user_ta_entry.c:148
     6a4:	e89da870 	ldm	sp, {r4, r5, r6, fp, sp, pc}
/home/rossierd/soo.tech/soo/optee_os/lib/libutee/arch/arm/user_ta_entry.c:143
     6a8:	e1c040f8 	strd	r4, [r0, #8]
/home/rossierd/soo.tech/soo/optee_os/lib/libutee/arch/arm/user_ta_entry.c:144
     6ac:	e1c041f0 	strd	r4, [r0, #16]
/home/rossierd/soo.tech/soo/optee_os/lib/libutee/arch/arm/user_ta_entry.c:145
     6b0:	eafffff6 	b	690 <to_utee_params+0x70>

000006b4 <from_utee_params>:
from_utee_params():
/home/rossierd/soo.tech/soo/optee_os/lib/libutee/arch/arm/user_ta_entry.c:153
     6b4:	e1a0c00d 	mov	ip, sp
/home/rossierd/soo.tech/soo/optee_os/lib/libutee/arch/arm/user_ta_entry.c:155
     6b8:	e3a03000 	mov	r3, #0
/home/rossierd/soo.tech/soo/optee_os/lib/libutee/arch/arm/user_ta_entry.c:153
     6bc:	e92dd870 	push	{r4, r5, r6, fp, ip, lr, pc}
     6c0:	e24cb004 	sub	fp, ip, #4
/home/rossierd/soo.tech/soo/optee_os/lib/libutee/arch/arm/user_ta_entry.c:155
     6c4:	e5924000 	ldr	r4, [r2]
     6c8:	e1a0e000 	mov	lr, r0
/home/rossierd/soo.tech/soo/optee_os/lib/libutee/arch/arm/user_ta_entry.c:161
     6cc:	e1a0c334 	lsr	ip, r4, r3
/home/rossierd/soo.tech/soo/optee_os/lib/libutee/arch/arm/user_ta_entry.c:158
     6d0:	e5926008 	ldr	r6, [r2, #8]
/home/rossierd/soo.tech/soo/optee_os/lib/libutee/arch/arm/user_ta_entry.c:159
     6d4:	e5925010 	ldr	r5, [r2, #16]
/home/rossierd/soo.tech/soo/optee_os/lib/libutee/arch/arm/user_ta_entry.c:161
     6d8:	e20cc00f 	and	ip, ip, #15
     6dc:	e24cc001 	sub	ip, ip, #1
     6e0:	e35c0006 	cmp	ip, #6
     6e4:	908ff10c 	addls	pc, pc, ip, lsl #2
     6e8:	ea000008 	b	710 <from_utee_params+0x5c>
     6ec:	ea000005 	b	708 <from_utee_params+0x54>
     6f0:	ea000004 	b	708 <from_utee_params+0x54>
     6f4:	ea000003 	b	708 <from_utee_params+0x54>
     6f8:	ea000004 	b	710 <from_utee_params+0x5c>
     6fc:	ea000001 	b	708 <from_utee_params+0x54>
     700:	ea000000 	b	708 <from_utee_params+0x54>
     704:	eaffffff 	b	708 <from_utee_params+0x54>
/home/rossierd/soo.tech/soo/optee_os/lib/libutee/arch/arm/user_ta_entry.c:171
     708:	e7806083 	str	r6, [r0, r3, lsl #1]
/home/rossierd/soo.tech/soo/optee_os/lib/libutee/arch/arm/user_ta_entry.c:172
     70c:	e58e5004 	str	r5, [lr, #4]
     710:	e2833004 	add	r3, r3, #4
     714:	e2822010 	add	r2, r2, #16
/home/rossierd/soo.tech/soo/optee_os/lib/libutee/arch/arm/user_ta_entry.c:157 (discriminator 2)
     718:	e3530010 	cmp	r3, #16
     71c:	e28ee008 	add	lr, lr, #8
     720:	1affffe9 	bne	6cc <from_utee_params+0x18>
/home/rossierd/soo.tech/soo/optee_os/lib/libutee/arch/arm/user_ta_entry.c:179
     724:	e3510000 	cmp	r1, #0
/home/rossierd/soo.tech/soo/optee_os/lib/libutee/arch/arm/user_ta_entry.c:180
     728:	15814000 	strne	r4, [r1]
     72c:	e89da870 	ldm	sp, {r4, r5, r6, fp, sp, pc}

00000730 <ta_header_remove_session>:
ta_header_remove_session():
/home/rossierd/soo.tech/soo/optee_os/lib/libutee/arch/arm/user_ta_entry.c:106
     730:	e59f30a4 	ldr	r3, [pc, #164]	; 7dc <ta_header_remove_session+0xac>
/home/rossierd/soo.tech/soo/optee_os/lib/libutee/arch/arm/user_ta_entry.c:102
     734:	e1a0c00d 	mov	ip, sp
     738:	e92dd830 	push	{r4, r5, fp, ip, lr, pc}
     73c:	e24cb004 	sub	fp, ip, #4
     740:	e59f4098 	ldr	r4, [pc, #152]	; 7e0 <ta_header_remove_session+0xb0>
/home/rossierd/soo.tech/soo/optee_os/lib/libutee/arch/arm/user_ta_entry.c:106
     744:	e08f3003 	add	r3, pc, r3
     748:	e5933000 	ldr	r3, [r3]
/home/rossierd/soo.tech/soo/optee_os/lib/libutee/arch/arm/user_ta_entry.c:102
     74c:	e08f4004 	add	r4, pc, r4
/home/rossierd/soo.tech/soo/optee_os/lib/libutee/arch/arm/user_ta_entry.c:106 (discriminator 1)
     750:	e3530000 	cmp	r3, #0
     754:	1a000000 	bne	75c <ta_header_remove_session+0x2c>
     758:	e89da830 	ldm	sp, {r4, r5, fp, sp, pc}
/home/rossierd/soo.tech/soo/optee_os/lib/libutee/arch/arm/user_ta_entry.c:107
     75c:	e5932000 	ldr	r2, [r3]
     760:	e1520000 	cmp	r2, r0
     764:	e5932008 	ldr	r2, [r3, #8]
     768:	1a000019 	bne	7d4 <ta_header_remove_session+0xa4>
     76c:	e593100c 	ldr	r1, [r3, #12]
/home/rossierd/soo.tech/soo/optee_os/lib/libutee/arch/arm/user_ta_entry.c:108
     770:	e3520000 	cmp	r2, #0
     774:	1582100c 	strne	r1, [r2, #12]
/home/rossierd/soo.tech/soo/optee_os/lib/libutee/arch/arm/user_ta_entry.c:108 (discriminator 2)
     778:	059f0064 	ldreq	r0, [pc, #100]	; 7e4 <ta_header_remove_session+0xb4>
     77c:	008f0000 	addeq	r0, pc, r0
     780:	05801004 	streq	r1, [r0, #4]
/home/rossierd/soo.tech/soo/optee_os/lib/libutee/arch/arm/user_ta_entry.c:108 (discriminator 4)
     784:	e593100c 	ldr	r1, [r3, #12]
/home/rossierd/soo.tech/soo/optee_os/lib/libutee/arch/arm/user_ta_entry.c:109 (discriminator 4)
     788:	e1a00003 	mov	r0, r3
/home/rossierd/soo.tech/soo/optee_os/lib/libutee/arch/arm/user_ta_entry.c:108 (discriminator 4)
     78c:	e5812000 	str	r2, [r1]
/home/rossierd/soo.tech/soo/optee_os/lib/libutee/arch/arm/user_ta_entry.c:109 (discriminator 4)
     790:	eb0002b2 	bl	1260 <TEE_Free>
/home/rossierd/soo.tech/soo/optee_os/lib/libutee/arch/arm/user_ta_entry.c:112 (discriminator 4)
     794:	e59f304c 	ldr	r3, [pc, #76]	; 7e8 <ta_header_remove_session+0xb8>
/home/rossierd/soo.tech/soo/optee_os/lib/libutee/arch/arm/user_ta_entry.c:114 (discriminator 4)
     798:	e59f204c 	ldr	r2, [pc, #76]	; 7ec <ta_header_remove_session+0xbc>
/home/rossierd/soo.tech/soo/optee_os/lib/libutee/arch/arm/user_ta_entry.c:112 (discriminator 4)
     79c:	e7943003 	ldr	r3, [r4, r3]
/home/rossierd/soo.tech/soo/optee_os/lib/libutee/arch/arm/user_ta_entry.c:114 (discriminator 4)
     7a0:	e08f2002 	add	r2, pc, r2
     7a4:	e5922000 	ldr	r2, [r2]
/home/rossierd/soo.tech/soo/optee_os/lib/libutee/arch/arm/user_ta_entry.c:112 (discriminator 4)
     7a8:	e5933014 	ldr	r3, [r3, #20]
     7ac:	e2033014 	and	r3, r3, #20
/home/rossierd/soo.tech/soo/optee_os/lib/libutee/arch/arm/user_ta_entry.c:114 (discriminator 4)
     7b0:	e2533014 	subs	r3, r3, #20
     7b4:	13a03001 	movne	r3, #1
     7b8:	e3520000 	cmp	r2, #0
     7bc:	13a03000 	movne	r3, #0
     7c0:	e3530000 	cmp	r3, #0
     7c4:	089da830 	ldmeq	sp, {r4, r5, fp, sp, pc}
/home/rossierd/soo.tech/soo/optee_os/lib/libutee/arch/arm/user_ta_entry.c:120
     7c8:	e24bd014 	sub	sp, fp, #20
     7cc:	e89d6830 	ldm	sp, {r4, r5, fp, sp, lr}
uninit_instance():
/home/rossierd/soo.tech/soo/optee_os/lib/libutee/arch/arm/user_ta_entry.c:50
     7d0:	eafffe17 	b	34 <TA_DestroyEntryPoint>
ta_header_remove_session():
/home/rossierd/soo.tech/soo/optee_os/lib/libutee/arch/arm/user_ta_entry.c:106 (discriminator 2)
     7d4:	e1a03002 	mov	r3, r2
     7d8:	eaffffdc 	b	750 <ta_header_remove_session+0x20>
     7dc:	0000baf0 	.word	0x0000baf0
     7e0:	0000b92c 	.word	0x0000b92c
     7e4:	0000bab8 	.word	0x0000bab8
     7e8:	00000034 	.word	0x00000034
     7ec:	0000ba94 	.word	0x0000ba94

000007f0 <__utee_entry>:
__utee_entry():
/home/rossierd/soo.tech/soo/optee_os/lib/libutee/arch/arm/user_ta_entry.c:248
     7f0:	e1a0c00d 	mov	ip, sp
/home/rossierd/soo.tech/soo/optee_os/lib/libutee/arch/arm/user_ta_entry.c:251
     7f4:	e3500001 	cmp	r0, #1
/home/rossierd/soo.tech/soo/optee_os/lib/libutee/arch/arm/user_ta_entry.c:248
     7f8:	e92ddff0 	push	{r4, r5, r6, r7, r8, r9, sl, fp, ip, lr, pc}
     7fc:	e1a09003 	mov	r9, r3
     800:	e59f4228 	ldr	r4, [pc, #552]	; a30 <__utee_entry+0x240>
     804:	e24cb004 	sub	fp, ip, #4
     808:	e24dd034 	sub	sp, sp, #52	; 0x34
     80c:	e59f3220 	ldr	r3, [pc, #544]	; a34 <__utee_entry+0x244>
     810:	e1a05001 	mov	r5, r1
     814:	e1a06002 	mov	r6, r2
     818:	e08f4004 	add	r4, pc, r4
     81c:	e7947003 	ldr	r7, [r4, r3]
     820:	e59f3210 	ldr	r3, [pc, #528]	; a38 <__utee_entry+0x248>
     824:	e7948003 	ldr	r8, [r4, r3]
/home/rossierd/soo.tech/soo/optee_os/lib/libutee/arch/arm/user_ta_entry.c:251
     828:	0a00005a 	beq	998 <__utee_entry+0x1a8>
     82c:	3a000005 	bcc	848 <__utee_entry+0x58>
     830:	e3500002 	cmp	r0, #2
     834:	0a000061 	beq	9c0 <__utee_entry+0x1d0>
/home/rossierd/soo.tech/soo/optee_os/lib/libutee/arch/arm/user_ta_entry.c:263
     838:	e3a00000 	mov	r0, #0
/home/rossierd/soo.tech/soo/optee_os/lib/libutee/arch/arm/user_ta_entry.c:262
     83c:	e3e04000 	mvn	r4, #0
/home/rossierd/soo.tech/soo/optee_os/lib/libutee/arch/arm/user_ta_entry.c:263
     840:	eb0002a1 	bl	12cc <TEE_Panic>
/home/rossierd/soo.tech/soo/optee_os/lib/libutee/arch/arm/user_ta_entry.c:264
     844:	ea00001f 	b	8c8 <__utee_entry+0xd8>
ta_header_add_session():
/home/rossierd/soo.tech/soo/optee_os/lib/libutee/arch/arm/user_ta_entry.c:77
     848:	e1a00001 	mov	r0, r1
     84c:	ebffff63 	bl	5e0 <ta_header_get_session>
/home/rossierd/soo.tech/soo/optee_os/lib/libutee/arch/arm/user_ta_entry.c:80
     850:	e3500000 	cmp	r0, #0
     854:	1a00002e 	bne	914 <__utee_entry+0x124>
/home/rossierd/soo.tech/soo/optee_os/lib/libutee/arch/arm/user_ta_entry.c:83
     858:	e59f31dc 	ldr	r3, [pc, #476]	; a3c <__utee_entry+0x24c>
     85c:	e08f3003 	add	r3, pc, r3
     860:	e5d32000 	ldrb	r2, [r3]
     864:	e3520000 	cmp	r2, #0
     868:	0a000006 	beq	888 <__utee_entry+0x98>
/home/rossierd/soo.tech/soo/optee_os/lib/libutee/arch/arm/user_ta_entry.c:90
     86c:	e3a01102 	mov	r1, #-2147483648	; 0x80000000
     870:	e3a00010 	mov	r0, #16
     874:	eb000254 	bl	11cc <TEE_Malloc>
/home/rossierd/soo.tech/soo/optee_os/lib/libutee/arch/arm/user_ta_entry.c:92
     878:	e3500000 	cmp	r0, #0
     87c:	1a000019 	bne	8e8 <__utee_entry+0xf8>
/home/rossierd/soo.tech/soo/optee_os/lib/libutee/arch/arm/user_ta_entry.c:93
     880:	e59f41b8 	ldr	r4, [pc, #440]	; a40 <__utee_entry+0x250>
     884:	ea00000f 	b	8c8 <__utee_entry+0xd8>
/home/rossierd/soo.tech/soo/optee_os/lib/libutee/arch/arm/user_ta_entry.c:84
     888:	e3a02001 	mov	r2, #1
     88c:	e5c32000 	strb	r2, [r3]
init_instance():
/home/rossierd/soo.tech/soo/optee_os/lib/libutee/arch/arm/user_ta_entry.c:40
     890:	ebfffe13 	bl	e4 <tahead_get_trace_level>
     894:	eb0020cb 	bl	8bc8 <trace_set_level>
/home/rossierd/soo.tech/soo/optee_os/lib/libutee/arch/arm/user_ta_entry.c:42
     898:	e59f31a4 	ldr	r3, [pc, #420]	; a44 <__utee_entry+0x254>
     89c:	e59f21a4 	ldr	r2, [pc, #420]	; a48 <__utee_entry+0x258>
     8a0:	e7943003 	ldr	r3, [r4, r3]
     8a4:	e7942002 	ldr	r2, [r4, r2]
     8a8:	e5931000 	ldr	r1, [r3]
     8ac:	e1a00002 	mov	r0, r2
     8b0:	e50b2058 	str	r2, [fp, #-88]	; 0xffffffa8
     8b4:	eb001c84 	bl	7acc <malloc_add_pool>
/home/rossierd/soo.tech/soo/optee_os/lib/libutee/arch/arm/user_ta_entry.c:43
     8b8:	eb00052c 	bl	1d70 <_TEE_MathAPI_Init>
/home/rossierd/soo.tech/soo/optee_os/lib/libutee/arch/arm/user_ta_entry.c:44
     8bc:	ebfffdd7 	bl	20 <TA_CreateEntryPoint>
ta_header_add_session():
/home/rossierd/soo.tech/soo/optee_os/lib/libutee/arch/arm/user_ta_entry.c:86
     8c0:	e2504000 	subs	r4, r0, #0
     8c4:	0affffe8 	beq	86c <__utee_entry+0x7c>
ta_header_save_params():
/home/rossierd/soo.tech/soo/optee_os/lib/libutee/arch/arm/user_ta_entry.c:56
     8c8:	e3a01000 	mov	r1, #0
/home/rossierd/soo.tech/soo/optee_os/lib/libutee/arch/arm/user_ta_entry.c:61
     8cc:	e3a02020 	mov	r2, #32
     8d0:	e1a00008 	mov	r0, r8
/home/rossierd/soo.tech/soo/optee_os/lib/libutee/arch/arm/user_ta_entry.c:56
     8d4:	e5871000 	str	r1, [r7]
/home/rossierd/soo.tech/soo/optee_os/lib/libutee/arch/arm/user_ta_entry.c:61
     8d8:	eb001d7b 	bl	7ecc <memset>
__utee_entry():
/home/rossierd/soo.tech/soo/optee_os/lib/libutee/arch/arm/user_ta_entry.c:269
     8dc:	e1a00004 	mov	r0, r4
     8e0:	e24bd028 	sub	sp, fp, #40	; 0x28
     8e4:	e89daff0 	ldm	sp, {r4, r5, r6, r7, r8, r9, sl, fp, sp, pc}
ta_header_add_session():
/home/rossierd/soo.tech/soo/optee_os/lib/libutee/arch/arm/user_ta_entry.c:95
     8e8:	e3a03000 	mov	r3, #0
/home/rossierd/soo.tech/soo/optee_os/lib/libutee/arch/arm/user_ta_entry.c:94
     8ec:	e5805000 	str	r5, [r0]
/home/rossierd/soo.tech/soo/optee_os/lib/libutee/arch/arm/user_ta_entry.c:95
     8f0:	e5803004 	str	r3, [r0, #4]
/home/rossierd/soo.tech/soo/optee_os/lib/libutee/arch/arm/user_ta_entry.c:96
     8f4:	e5803008 	str	r3, [r0, #8]
     8f8:	e59f314c 	ldr	r3, [pc, #332]	; a4c <__utee_entry+0x25c>
     8fc:	e08f3003 	add	r3, pc, r3
     900:	e5932004 	ldr	r2, [r3, #4]
     904:	e580200c 	str	r2, [r0, #12]
     908:	e5820000 	str	r0, [r2]
     90c:	e2800008 	add	r0, r0, #8
     910:	e5830004 	str	r0, [r3, #4]
entry_open_session():
/home/rossierd/soo.tech/soo/optee_os/lib/libutee/arch/arm/user_ta_entry.c:195
     914:	e1a00005 	mov	r0, r5
     918:	ebffff30 	bl	5e0 <ta_header_get_session>
/home/rossierd/soo.tech/soo/optee_os/lib/libutee/arch/arm/user_ta_entry.c:196
     91c:	e2504000 	subs	r4, r0, #0
     920:	1a000001 	bne	92c <__utee_entry+0x13c>
entry_close_session():
/home/rossierd/soo.tech/soo/optee_os/lib/libutee/arch/arm/user_ta_entry.c:217
     924:	e59f4124 	ldr	r4, [pc, #292]	; a50 <__utee_entry+0x260>
     928:	eaffffe6 	b	8c8 <__utee_entry+0xd8>
entry_open_session():
/home/rossierd/soo.tech/soo/optee_os/lib/libutee/arch/arm/user_ta_entry.c:199
     92c:	e24b904c 	sub	r9, fp, #76	; 0x4c
     930:	e1a02006 	mov	r2, r6
     934:	e24b1050 	sub	r1, fp, #80	; 0x50
     938:	e1a00009 	mov	r0, r9
     93c:	ebffff5c 	bl	6b4 <from_utee_params>
ta_header_save_params():
/home/rossierd/soo.tech/soo/optee_os/lib/libutee/arch/arm/user_ta_entry.c:59
     940:	e1a0e009 	mov	lr, r9
     944:	e1a0c008 	mov	ip, r8
entry_open_session():
/home/rossierd/soo.tech/soo/optee_os/lib/libutee/arch/arm/user_ta_entry.c:200
     948:	e51ba050 	ldr	sl, [fp, #-80]	; 0xffffffb0
ta_header_save_params():
/home/rossierd/soo.tech/soo/optee_os/lib/libutee/arch/arm/user_ta_entry.c:59
     94c:	e8be000f 	ldm	lr!, {r0, r1, r2, r3}
/home/rossierd/soo.tech/soo/optee_os/lib/libutee/arch/arm/user_ta_entry.c:56
     950:	e587a000 	str	sl, [r7]
/home/rossierd/soo.tech/soo/optee_os/lib/libutee/arch/arm/user_ta_entry.c:59
     954:	e8ac000f 	stmia	ip!, {r0, r1, r2, r3}
     958:	e89e000f 	ldm	lr, {r0, r1, r2, r3}
     95c:	e88c000f 	stm	ip, {r0, r1, r2, r3}
entry_open_session():
/home/rossierd/soo.tech/soo/optee_os/lib/libutee/arch/arm/user_ta_entry.c:202
     960:	e2842004 	add	r2, r4, #4
     964:	e1a01009 	mov	r1, r9
     968:	e1a0000a 	mov	r0, sl
     96c:	ebfffdb4 	bl	44 <TA_OpenSessionEntryPoint>
     970:	e1a04000 	mov	r4, r0
/home/rossierd/soo.tech/soo/optee_os/lib/libutee/arch/arm/user_ta_entry.c:205
     974:	e1a02009 	mov	r2, r9
     978:	e51b1050 	ldr	r1, [fp, #-80]	; 0xffffffb0
     97c:	e1a00006 	mov	r0, r6
     980:	ebffff26 	bl	620 <to_utee_params>
/home/rossierd/soo.tech/soo/optee_os/lib/libutee/arch/arm/user_ta_entry.c:207
     984:	e3540000 	cmp	r4, #0
     988:	0affffce 	beq	8c8 <__utee_entry+0xd8>
/home/rossierd/soo.tech/soo/optee_os/lib/libutee/arch/arm/user_ta_entry.c:208
     98c:	e1a00005 	mov	r0, r5
     990:	ebffff66 	bl	730 <ta_header_remove_session>
     994:	eaffffcb 	b	8c8 <__utee_entry+0xd8>
entry_close_session():
/home/rossierd/soo.tech/soo/optee_os/lib/libutee/arch/arm/user_ta_entry.c:214
     998:	e1a00001 	mov	r0, r1
     99c:	ebffff0f 	bl	5e0 <ta_header_get_session>
/home/rossierd/soo.tech/soo/optee_os/lib/libutee/arch/arm/user_ta_entry.c:216
     9a0:	e3500000 	cmp	r0, #0
     9a4:	0affffde 	beq	924 <__utee_entry+0x134>
/home/rossierd/soo.tech/soo/optee_os/lib/libutee/arch/arm/user_ta_entry.c:219
     9a8:	e5900004 	ldr	r0, [r0, #4]
/home/rossierd/soo.tech/soo/optee_os/lib/libutee/arch/arm/user_ta_entry.c:222
     9ac:	e3a04000 	mov	r4, #0
/home/rossierd/soo.tech/soo/optee_os/lib/libutee/arch/arm/user_ta_entry.c:219
     9b0:	ebfffdab 	bl	64 <TA_CloseSessionEntryPoint>
/home/rossierd/soo.tech/soo/optee_os/lib/libutee/arch/arm/user_ta_entry.c:221
     9b4:	e1a00005 	mov	r0, r5
     9b8:	ebffff5c 	bl	730 <ta_header_remove_session>
     9bc:	eaffffc1 	b	8c8 <__utee_entry+0xd8>
entry_invoke_command():
/home/rossierd/soo.tech/soo/optee_os/lib/libutee/arch/arm/user_ta_entry.c:231
     9c0:	e1a00001 	mov	r0, r1
     9c4:	ebffff05 	bl	5e0 <ta_header_get_session>
/home/rossierd/soo.tech/soo/optee_os/lib/libutee/arch/arm/user_ta_entry.c:233
     9c8:	e2504000 	subs	r4, r0, #0
     9cc:	0affffd4 	beq	924 <__utee_entry+0x134>
/home/rossierd/soo.tech/soo/optee_os/lib/libutee/arch/arm/user_ta_entry.c:236
     9d0:	e24b504c 	sub	r5, fp, #76	; 0x4c
     9d4:	e1a02006 	mov	r2, r6
     9d8:	e24b1050 	sub	r1, fp, #80	; 0x50
     9dc:	e1a00005 	mov	r0, r5
     9e0:	ebffff33 	bl	6b4 <from_utee_params>
ta_header_save_params():
/home/rossierd/soo.tech/soo/optee_os/lib/libutee/arch/arm/user_ta_entry.c:59
     9e4:	e1a0e005 	mov	lr, r5
     9e8:	e1a0c008 	mov	ip, r8
entry_invoke_command():
/home/rossierd/soo.tech/soo/optee_os/lib/libutee/arch/arm/user_ta_entry.c:237
     9ec:	e51ba050 	ldr	sl, [fp, #-80]	; 0xffffffb0
ta_header_save_params():
/home/rossierd/soo.tech/soo/optee_os/lib/libutee/arch/arm/user_ta_entry.c:59
     9f0:	e8be000f 	ldm	lr!, {r0, r1, r2, r3}
/home/rossierd/soo.tech/soo/optee_os/lib/libutee/arch/arm/user_ta_entry.c:56
     9f4:	e587a000 	str	sl, [r7]
/home/rossierd/soo.tech/soo/optee_os/lib/libutee/arch/arm/user_ta_entry.c:59
     9f8:	e8ac000f 	stmia	ip!, {r0, r1, r2, r3}
     9fc:	e89e000f 	ldm	lr, {r0, r1, r2, r3}
     a00:	e88c000f 	stm	ip, {r0, r1, r2, r3}
entry_invoke_command():
/home/rossierd/soo.tech/soo/optee_os/lib/libutee/arch/arm/user_ta_entry.c:239
     a04:	e1a01009 	mov	r1, r9
     a08:	e1a0200a 	mov	r2, sl
     a0c:	e1a03005 	mov	r3, r5
     a10:	e5940004 	ldr	r0, [r4, #4]
     a14:	ebfffd96 	bl	74 <TA_InvokeCommandEntryPoint>
     a18:	e1a04000 	mov	r4, r0
/home/rossierd/soo.tech/soo/optee_os/lib/libutee/arch/arm/user_ta_entry.c:242
     a1c:	e1a02005 	mov	r2, r5
     a20:	e51b1050 	ldr	r1, [fp, #-80]	; 0xffffffb0
     a24:	e1a00006 	mov	r0, r6
     a28:	ebfffefc 	bl	620 <to_utee_params>
     a2c:	eaffffa5 	b	8c8 <__utee_entry+0xd8>
     a30:	0000b860 	.word	0x0000b860
     a34:	00000028 	.word	0x00000028
     a38:	00000030 	.word	0x00000030
     a3c:	0000ba40 	.word	0x0000ba40
     a40:	ffff000c 	.word	0xffff000c
     a44:	0000000c 	.word	0x0000000c
     a48:	00000020 	.word	0x00000020
     a4c:	0000b938 	.word	0x0000b938
     a50:	ffff0007 	.word	0xffff0007

00000a54 <update_out_param>:
update_out_param():
/home/rossierd/soo.tech/soo/optee_os/lib/libutee/tee_api.c:115
     a54:	e1a0c00d 	mov	ip, sp
     a58:	e92ddff0 	push	{r4, r5, r6, r7, r8, r9, sl, fp, ip, lr, pc}
     a5c:	e24cb004 	sub	fp, ip, #4
     a60:	e24dd004 	sub	sp, sp, #4
     a64:	e1a08000 	mov	r8, r0
     a68:	e1a0a001 	mov	sl, r1
     a6c:	e1a05002 	mov	r5, r2
/home/rossierd/soo.tech/soo/optee_os/lib/libutee/tee_api.c:117
     a70:	e5929000 	ldr	r9, [r2]
     a74:	e1a06000 	mov	r6, r0
     a78:	e3a04000 	mov	r4, #0
/home/rossierd/soo.tech/soo/optee_os/lib/libutee/tee_api.c:123
     a7c:	e1a03439 	lsr	r3, r9, r4
/home/rossierd/soo.tech/soo/optee_os/lib/libutee/tee_api.c:121
     a80:	e5957010 	ldr	r7, [r5, #16]
/home/rossierd/soo.tech/soo/optee_os/lib/libutee/tee_api.c:123
     a84:	e203300f 	and	r3, r3, #15
     a88:	e2433002 	sub	r3, r3, #2
     a8c:	e3530005 	cmp	r3, #5
     a90:	908ff103 	addls	pc, pc, r3, lsl #2
     a94:	ea000008 	b	abc <update_out_param+0x68>
     a98:	ea000004 	b	ab0 <update_out_param+0x5c>
     a9c:	ea000003 	b	ab0 <update_out_param+0x5c>
     aa0:	ea000005 	b	abc <update_out_param+0x68>
     aa4:	ea000004 	b	abc <update_out_param+0x68>
     aa8:	ea000009 	b	ad4 <update_out_param+0x80>
     aac:	ea000008 	b	ad4 <update_out_param+0x80>
/home/rossierd/soo.tech/soo/optee_os/lib/libutee/tee_api.c:120
     ab0:	e5953008 	ldr	r3, [r5, #8]
     ab4:	e7883084 	str	r3, [r8, r4, lsl #1]
/home/rossierd/soo.tech/soo/optee_os/lib/libutee/tee_api.c:134
     ab8:	e5867004 	str	r7, [r6, #4]
     abc:	e2844004 	add	r4, r4, #4
     ac0:	e2855010 	add	r5, r5, #16
/home/rossierd/soo.tech/soo/optee_os/lib/libutee/tee_api.c:119 (discriminator 2)
     ac4:	e3540010 	cmp	r4, #16
     ac8:	e2866008 	add	r6, r6, #8
     acc:	1affffea 	bne	a7c <update_out_param+0x28>
/home/rossierd/soo.tech/soo/optee_os/lib/libutee/tee_api.c:140
     ad0:	e99daff0 	ldmib	sp, {r4, r5, r6, r7, r8, r9, sl, fp, sp, pc}
/home/rossierd/soo.tech/soo/optee_os/lib/libutee/tee_api.c:131
     ad4:	e79a1004 	ldr	r1, [sl, r4]
     ad8:	e3510000 	cmp	r1, #0
     adc:	0afffff5 	beq	ab8 <update_out_param+0x64>
/home/rossierd/soo.tech/soo/optee_os/lib/libutee/tee_api.c:133
     ae0:	e5962004 	ldr	r2, [r6, #4]
/home/rossierd/soo.tech/soo/optee_os/lib/libutee/tee_api.c:132
     ae4:	e7980084 	ldr	r0, [r8, r4, lsl #1]
     ae8:	e1570002 	cmp	r7, r2
     aec:	31a02007 	movcc	r2, r7
     af0:	eb001cd3 	bl	7e44 <memcpy>
     af4:	eaffffef 	b	ab8 <update_out_param+0x64>

00000af8 <TEE_CloseTASession>:
TEE_CloseTASession():
/home/rossierd/soo.tech/soo/optee_os/lib/libutee/tee_api.c:183
     af8:	e1a0c00d 	mov	ip, sp
/home/rossierd/soo.tech/soo/optee_os/lib/libutee/tee_api.c:184
     afc:	e3500000 	cmp	r0, #0
/home/rossierd/soo.tech/soo/optee_os/lib/libutee/tee_api.c:183
     b00:	e92dd800 	push	{fp, ip, lr, pc}
     b04:	e24cb004 	sub	fp, ip, #4
/home/rossierd/soo.tech/soo/optee_os/lib/libutee/tee_api.c:184
     b08:	089da800 	ldmeq	sp, {fp, sp, pc}
/home/rossierd/soo.tech/soo/optee_os/lib/libutee/tee_api.c:185
     b0c:	ebfffdac 	bl	1c4 <utee_close_ta_session>
/home/rossierd/soo.tech/soo/optee_os/lib/libutee/tee_api.c:187
     b10:	e3500000 	cmp	r0, #0
     b14:	089da800 	ldmeq	sp, {fp, sp, pc}
/home/rossierd/soo.tech/soo/optee_os/lib/libutee/tee_api.c:190
     b18:	e24bd00c 	sub	sp, fp, #12
     b1c:	e89d6800 	ldm	sp, {fp, sp, lr}
/home/rossierd/soo.tech/soo/optee_os/lib/libutee/tee_api.c:188
     b20:	ea0001e9 	b	12cc <TEE_Panic>

00000b24 <TEE_GetCancellationFlag>:
TEE_GetCancellationFlag():
/home/rossierd/soo.tech/soo/optee_os/lib/libutee/tee_api.c:237
     b24:	e1a0c00d 	mov	ip, sp
     b28:	e92dd800 	push	{fp, ip, lr, pc}
     b2c:	e24cb004 	sub	fp, ip, #4
     b30:	e24dd008 	sub	sp, sp, #8
/home/rossierd/soo.tech/soo/optee_os/lib/libutee/tee_api.c:239
     b34:	e24b0010 	sub	r0, fp, #16
     b38:	ebfffdac 	bl	1f0 <utee_get_cancellation_flag>
/home/rossierd/soo.tech/soo/optee_os/lib/libutee/tee_api.c:241
     b3c:	e3500000 	cmp	r0, #0
/home/rossierd/soo.tech/soo/optee_os/lib/libutee/tee_api.c:242
     b40:	13a03000 	movne	r3, #0
     b44:	150b3010 	strne	r3, [fp, #-16]
/home/rossierd/soo.tech/soo/optee_os/lib/libutee/tee_api.c:244
     b48:	e51b0010 	ldr	r0, [fp, #-16]
     b4c:	e2900000 	adds	r0, r0, #0
     b50:	13a00001 	movne	r0, #1
     b54:	e24bd00c 	sub	sp, fp, #12
     b58:	e89da800 	ldm	sp, {fp, sp, pc}

00000b5c <TEE_UnmaskCancellation>:
TEE_UnmaskCancellation():
/home/rossierd/soo.tech/soo/optee_os/lib/libutee/tee_api.c:247
     b5c:	e1a0c00d 	mov	ip, sp
     b60:	e92dd800 	push	{fp, ip, lr, pc}
     b64:	e24cb004 	sub	fp, ip, #4
     b68:	e24dd008 	sub	sp, sp, #8
/home/rossierd/soo.tech/soo/optee_os/lib/libutee/tee_api.c:249
     b6c:	e24b0010 	sub	r0, fp, #16
     b70:	ebfffda8 	bl	218 <utee_unmask_cancellation>
/home/rossierd/soo.tech/soo/optee_os/lib/libutee/tee_api.c:251
     b74:	e3500000 	cmp	r0, #0
     b78:	0a000000 	beq	b80 <TEE_UnmaskCancellation+0x24>
/home/rossierd/soo.tech/soo/optee_os/lib/libutee/tee_api.c:252
     b7c:	eb0001d2 	bl	12cc <TEE_Panic>
/home/rossierd/soo.tech/soo/optee_os/lib/libutee/tee_api.c:254
     b80:	e51b0010 	ldr	r0, [fp, #-16]
     b84:	e2900000 	adds	r0, r0, #0
     b88:	13a00001 	movne	r0, #1
     b8c:	e24bd00c 	sub	sp, fp, #12
     b90:	e89da800 	ldm	sp, {fp, sp, pc}

00000b94 <TEE_MaskCancellation>:
TEE_MaskCancellation():
/home/rossierd/soo.tech/soo/optee_os/lib/libutee/tee_api.c:257
     b94:	e1a0c00d 	mov	ip, sp
     b98:	e92dd800 	push	{fp, ip, lr, pc}
     b9c:	e24cb004 	sub	fp, ip, #4
     ba0:	e24dd008 	sub	sp, sp, #8
/home/rossierd/soo.tech/soo/optee_os/lib/libutee/tee_api.c:259
     ba4:	e24b0010 	sub	r0, fp, #16
     ba8:	ebfffd9f 	bl	22c <utee_mask_cancellation>
/home/rossierd/soo.tech/soo/optee_os/lib/libutee/tee_api.c:261
     bac:	e3500000 	cmp	r0, #0
     bb0:	0a000000 	beq	bb8 <TEE_MaskCancellation+0x24>
/home/rossierd/soo.tech/soo/optee_os/lib/libutee/tee_api.c:262
     bb4:	eb0001c4 	bl	12cc <TEE_Panic>
/home/rossierd/soo.tech/soo/optee_os/lib/libutee/tee_api.c:264
     bb8:	e51b0010 	ldr	r0, [fp, #-16]
     bbc:	e2900000 	adds	r0, r0, #0
     bc0:	13a00001 	movne	r0, #1
     bc4:	e24bd00c 	sub	sp, fp, #12
     bc8:	e89da800 	ldm	sp, {fp, sp, pc}

00000bcc <TEE_CheckMemoryAccessRights>:
TEE_CheckMemoryAccessRights():
/home/rossierd/soo.tech/soo/optee_os/lib/libutee/tee_api.c:270
     bcc:	e1a0c00d 	mov	ip, sp
/home/rossierd/soo.tech/soo/optee_os/lib/libutee/tee_api.c:273
     bd0:	e2523000 	subs	r3, r2, #0
/home/rossierd/soo.tech/soo/optee_os/lib/libutee/tee_api.c:270
     bd4:	e92dd800 	push	{fp, ip, lr, pc}
     bd8:	e24cb004 	sub	fp, ip, #4
/home/rossierd/soo.tech/soo/optee_os/lib/libutee/tee_api.c:273
     bdc:	0a000002 	beq	bec <TEE_CheckMemoryAccessRights+0x20>
/home/rossierd/soo.tech/soo/optee_os/lib/libutee/tee_api.c:289
     be0:	e24bd00c 	sub	sp, fp, #12
     be4:	e89d6800 	ldm	sp, {fp, sp, lr}
/home/rossierd/soo.tech/soo/optee_os/lib/libutee/tee_api.c:277
     be8:	eafffd85 	b	204 <utee_check_access_rights>
/home/rossierd/soo.tech/soo/optee_os/lib/libutee/tee_api.c:289
     bec:	e1a00003 	mov	r0, r3
     bf0:	e89da800 	ldm	sp, {fp, sp, pc}

00000bf4 <copy_param.constprop.1>:
copy_param():
/home/rossierd/soo.tech/soo/optee_os/lib/libutee/tee_api.c:19
     bf4:	e1a0c00d 	mov	ip, sp
     bf8:	e92ddff0 	push	{r4, r5, r6, r7, r8, r9, sl, fp, ip, lr, pc}
     bfc:	e24cb004 	sub	fp, ip, #4
     c00:	e24dd014 	sub	sp, sp, #20
     c04:	e1a0a003 	mov	sl, r3
/home/rossierd/soo.tech/soo/optee_os/lib/libutee/tee_api.c:28
     c08:	e3a05000 	mov	r5, #0
/home/rossierd/soo.tech/soo/optee_os/lib/libutee/tee_api.c:19
     c0c:	e1a04000 	mov	r4, r0
/home/rossierd/soo.tech/soo/optee_os/lib/libutee/tee_api.c:40
     c10:	e59b3004 	ldr	r3, [fp, #4]
/home/rossierd/soo.tech/soo/optee_os/lib/libutee/tee_api.c:39
     c14:	e58a5000 	str	r5, [sl]
/home/rossierd/soo.tech/soo/optee_os/lib/libutee/tee_api.c:19
     c18:	e1a09001 	mov	r9, r1
     c1c:	e1a06002 	mov	r6, r2
/home/rossierd/soo.tech/soo/optee_os/lib/libutee/tee_api.c:41
     c20:	e1a07005 	mov	r7, r5
/home/rossierd/soo.tech/soo/optee_os/lib/libutee/tee_api.c:28
     c24:	e50b5030 	str	r5, [fp, #-48]	; 0xffffffd0
/home/rossierd/soo.tech/soo/optee_os/lib/libutee/tee_api.c:40
     c28:	e5835000 	str	r5, [r3]
/home/rossierd/soo.tech/soo/optee_os/lib/libutee/tee_api.c:59
     c2c:	e3a03001 	mov	r3, #1
/home/rossierd/soo.tech/soo/optee_os/lib/libutee/tee_api.c:42
     c30:	e59b2008 	ldr	r2, [fp, #8]
     c34:	e3a01000 	mov	r1, #0
     c38:	e7821107 	str	r1, [r2, r7, lsl #2]
/home/rossierd/soo.tech/soo/optee_os/lib/libutee/tee_api.c:43
     c3c:	e1a02107 	lsl	r2, r7, #2
     c40:	e1a02239 	lsr	r2, r9, r2
     c44:	e202200f 	and	r2, r2, #15
     c48:	e2422005 	sub	r2, r2, #5
     c4c:	e3520002 	cmp	r2, #2
     c50:	8a000010 	bhi	c98 <copy_param.constprop.1+0xa4>
/home/rossierd/soo.tech/soo/optee_os/lib/libutee/tee_api.c:48
     c54:	e0862187 	add	r2, r6, r7, lsl #3
/home/rossierd/soo.tech/soo/optee_os/lib/libutee/tee_api.c:47
     c58:	e7961187 	ldr	r1, [r6, r7, lsl #3]
/home/rossierd/soo.tech/soo/optee_os/lib/libutee/tee_api.c:48
     c5c:	e5928004 	ldr	r8, [r2, #4]
/home/rossierd/soo.tech/soo/optee_os/lib/libutee/tee_api.c:58
     c60:	e3510000 	cmp	r1, #0
     c64:	13580000 	cmpne	r8, #0
     c68:	0a00000a 	beq	c98 <copy_param.constprop.1+0xa4>
/home/rossierd/soo.tech/soo/optee_os/lib/libutee/tee_api.c:59
     c6c:	e1a02008 	mov	r2, r8
     c70:	e3a00001 	mov	r0, #1
     c74:	e50b3038 	str	r3, [fp, #-56]	; 0xffffffc8
     c78:	ebffffd3 	bl	bcc <TEE_CheckMemoryAccessRights>
/home/rossierd/soo.tech/soo/optee_os/lib/libutee/tee_api.c:58
     c7c:	e3500000 	cmp	r0, #0
     c80:	e51b3038 	ldr	r3, [fp, #-56]	; 0xffffffc8
/home/rossierd/soo.tech/soo/optee_os/lib/libutee/tee_api.c:61
     c84:	02888007 	addeq	r8, r8, #7
/home/rossierd/soo.tech/soo/optee_os/lib/libutee/tee_api.c:60
     c88:	024b2030 	subeq	r2, fp, #48	; 0x30
/home/rossierd/soo.tech/soo/optee_os/lib/libutee/tee_api.c:61
     c8c:	03c88007 	biceq	r8, r8, #7
     c90:	00855008 	addeq	r5, r5, r8
/home/rossierd/soo.tech/soo/optee_os/lib/libutee/tee_api.c:60
     c94:	07c73002 	strbeq	r3, [r7, r2]
/home/rossierd/soo.tech/soo/optee_os/lib/libutee/tee_api.c:41
     c98:	e2877001 	add	r7, r7, #1
     c9c:	e3570004 	cmp	r7, #4
     ca0:	1affffe2 	bne	c30 <copy_param.constprop.1+0x3c>
/home/rossierd/soo.tech/soo/optee_os/lib/libutee/tee_api.c:69
     ca4:	e3550000 	cmp	r5, #0
/home/rossierd/soo.tech/soo/optee_os/lib/libutee/tee_api.c:25
     ca8:	01a03005 	moveq	r3, r5
/home/rossierd/soo.tech/soo/optee_os/lib/libutee/tee_api.c:69
     cac:	0a000008 	beq	cd4 <copy_param.constprop.1+0xe0>
/home/rossierd/soo.tech/soo/optee_os/lib/libutee/tee_api.c:70
     cb0:	e1a01007 	mov	r1, r7
     cb4:	e1a00005 	mov	r0, r5
     cb8:	eb0001ac 	bl	1370 <tee_map_zi>
/home/rossierd/soo.tech/soo/optee_os/lib/libutee/tee_api.c:71
     cbc:	e2503000 	subs	r3, r0, #0
/home/rossierd/soo.tech/soo/optee_os/lib/libutee/tee_api.c:74
     cc0:	159b2004 	ldrne	r2, [fp, #4]
/home/rossierd/soo.tech/soo/optee_os/lib/libutee/tee_api.c:73
     cc4:	158a3000 	strne	r3, [sl]
/home/rossierd/soo.tech/soo/optee_os/lib/libutee/tee_api.c:74
     cc8:	15825000 	strne	r5, [r2]
/home/rossierd/soo.tech/soo/optee_os/lib/libutee/tee_api.c:72
     ccc:	059f0104 	ldreq	r0, [pc, #260]	; dd8 <copy_param.constprop.1+0x1e4>
     cd0:	0a00001f 	beq	d54 <copy_param.constprop.1+0x160>
/home/rossierd/soo.tech/soo/optee_os/lib/libutee/tee_api.c:77
     cd4:	e3a05000 	mov	r5, #0
     cd8:	e2866004 	add	r6, r6, #4
     cdc:	e5849000 	str	r9, [r4]
/home/rossierd/soo.tech/soo/optee_os/lib/libutee/tee_api.c:89
     ce0:	e24ba030 	sub	sl, fp, #48	; 0x30
/home/rossierd/soo.tech/soo/optee_os/lib/libutee/tee_api.c:77
     ce4:	e5845004 	str	r5, [r4, #4]
/home/rossierd/soo.tech/soo/optee_os/lib/libutee/tee_api.c:79
     ce8:	e1a02105 	lsl	r2, r5, #2
     cec:	e1a02239 	lsr	r2, r9, r2
     cf0:	e202200f 	and	r2, r2, #15
     cf4:	e2421001 	sub	r1, r2, #1
     cf8:	e3510006 	cmp	r1, #6
     cfc:	908ff101 	addls	pc, pc, r1, lsl #2
     d00:	ea00002f 	b	dc4 <copy_param.constprop.1+0x1d0>
     d04:	ea000005 	b	d20 <copy_param.constprop.1+0x12c>
     d08:	ea00002d 	b	dc4 <copy_param.constprop.1+0x1d0>
     d0c:	ea000003 	b	d20 <copy_param.constprop.1+0x12c>
     d10:	ea00002b 	b	dc4 <copy_param.constprop.1+0x1d0>
     d14:	ea000010 	b	d5c <copy_param.constprop.1+0x168>
     d18:	ea00000f 	b	d5c <copy_param.constprop.1+0x168>
     d1c:	ea00000e 	b	d5c <copy_param.constprop.1+0x168>
/home/rossierd/soo.tech/soo/optee_os/lib/libutee/tee_api.c:82
     d20:	e5161004 	ldr	r1, [r6, #-4]
     d24:	e3a02000 	mov	r2, #0
     d28:	e5841008 	str	r1, [r4, #8]
     d2c:	e584200c 	str	r2, [r4, #12]
/home/rossierd/soo.tech/soo/optee_os/lib/libutee/tee_api.c:83
     d30:	e5961000 	ldr	r1, [r6]
     d34:	e5841010 	str	r1, [r4, #16]
     d38:	e5842014 	str	r2, [r4, #20]
/home/rossierd/soo.tech/soo/optee_os/lib/libutee/tee_api.c:78
     d3c:	e2855001 	add	r5, r5, #1
     d40:	e2844010 	add	r4, r4, #16
     d44:	e3550004 	cmp	r5, #4
     d48:	e2866008 	add	r6, r6, #8
     d4c:	1affffe5 	bne	ce8 <copy_param.constprop.1+0xf4>
/home/rossierd/soo.tech/soo/optee_os/lib/libutee/tee_api.c:109
     d50:	e3a00000 	mov	r0, #0
/home/rossierd/soo.tech/soo/optee_os/lib/libutee/tee_api.c:110
     d54:	e24bd028 	sub	sp, fp, #40	; 0x28
     d58:	e89daff0 	ldm	sp, {r4, r5, r6, r7, r8, r9, sl, fp, sp, pc}
/home/rossierd/soo.tech/soo/optee_os/lib/libutee/tee_api.c:89
     d5c:	e7d5100a 	ldrb	r1, [r5, sl]
/home/rossierd/soo.tech/soo/optee_os/lib/libutee/tee_api.c:88
     d60:	e5968000 	ldr	r8, [r6]
/home/rossierd/soo.tech/soo/optee_os/lib/libutee/tee_api.c:89
     d64:	e3510000 	cmp	r1, #0
/home/rossierd/soo.tech/soo/optee_os/lib/libutee/tee_api.c:97
     d68:	01a07003 	moveq	r7, r3
     d6c:	05162004 	ldreq	r2, [r6, #-4]
/home/rossierd/soo.tech/soo/optee_os/lib/libutee/tee_api.c:89
     d70:	0a00000c 	beq	da8 <copy_param.constprop.1+0x1b4>
/home/rossierd/soo.tech/soo/optee_os/lib/libutee/tee_api.c:91
     d74:	e59b1008 	ldr	r1, [fp, #8]
/home/rossierd/soo.tech/soo/optee_os/lib/libutee/tee_api.c:92
     d78:	e2887007 	add	r7, r8, #7
/home/rossierd/soo.tech/soo/optee_os/lib/libutee/tee_api.c:93
     d7c:	e3520006 	cmp	r2, #6
/home/rossierd/soo.tech/soo/optee_os/lib/libutee/tee_api.c:92
     d80:	e3c77007 	bic	r7, r7, #7
     d84:	e0837007 	add	r7, r3, r7
/home/rossierd/soo.tech/soo/optee_os/lib/libutee/tee_api.c:91
     d88:	e7813105 	str	r3, [r1, r5, lsl #2]
/home/rossierd/soo.tech/soo/optee_os/lib/libutee/tee_api.c:93
     d8c:	0a000004 	beq	da4 <copy_param.constprop.1+0x1b0>
/home/rossierd/soo.tech/soo/optee_os/lib/libutee/tee_api.c:95
     d90:	e1a00003 	mov	r0, r3
     d94:	e1a02008 	mov	r2, r8
     d98:	e5161004 	ldr	r1, [r6, #-4]
     d9c:	eb001c28 	bl	7e44 <memcpy>
     da0:	e1a03000 	mov	r3, r0
/home/rossierd/soo.tech/soo/optee_os/lib/libutee/tee_api.c:93
     da4:	e1a02003 	mov	r2, r3
/home/rossierd/soo.tech/soo/optee_os/lib/libutee/tee_api.c:99
     da8:	e3a03000 	mov	r3, #0
     dac:	e5842008 	str	r2, [r4, #8]
     db0:	e584300c 	str	r3, [r4, #12]
/home/rossierd/soo.tech/soo/optee_os/lib/libutee/tee_api.c:100
     db4:	e5848010 	str	r8, [r4, #16]
     db8:	e5843014 	str	r3, [r4, #20]
     dbc:	e1a03007 	mov	r3, r7
     dc0:	eaffffdd 	b	d3c <copy_param.constprop.1+0x148>
/home/rossierd/soo.tech/soo/optee_os/lib/libutee/tee_api.c:103
     dc4:	e3a00000 	mov	r0, #0
     dc8:	e3a01000 	mov	r1, #0
     dcc:	e1c400f8 	strd	r0, [r4, #8]
/home/rossierd/soo.tech/soo/optee_os/lib/libutee/tee_api.c:104
     dd0:	e1c401f0 	strd	r0, [r4, #16]
     dd4:	eaffffd8 	b	d3c <copy_param.constprop.1+0x148>
     dd8:	ffff000c 	.word	0xffff000c

00000ddc <TEE_InvokeTACommand>:
TEE_InvokeTACommand():
/home/rossierd/soo.tech/soo/optee_os/lib/libutee/tee_api.c:197
     ddc:	e1a0c00d 	mov	ip, sp
     de0:	e92ddff0 	push	{r4, r5, r6, r7, r8, r9, sl, fp, ip, lr, pc}
     de4:	e24cb004 	sub	fp, ip, #4
     de8:	e24dd074 	sub	sp, sp, #116	; 0x74
     dec:	e1a09001 	mov	r9, r1
     df0:	e1a01003 	mov	r1, r3
/home/rossierd/soo.tech/soo/optee_os/lib/libutee/tee_api.c:199
     df4:	e3a03003 	mov	r3, #3
     df8:	e50b3090 	str	r3, [fp, #-144]	; 0xffffff70
/home/rossierd/soo.tech/soo/optee_os/lib/libutee/tee_api.c:201
     dfc:	e3a03000 	mov	r3, #0
/home/rossierd/soo.tech/soo/optee_os/lib/libutee/tee_api.c:197
     e00:	e1a0a002 	mov	sl, r2
/home/rossierd/soo.tech/soo/optee_os/lib/libutee/tee_api.c:203
     e04:	e3a02000 	mov	r2, #0
     e08:	e24b5084 	sub	r5, fp, #132	; 0x84
/home/rossierd/soo.tech/soo/optee_os/lib/libutee/tee_api.c:197
     e0c:	e59b7008 	ldr	r7, [fp, #8]
/home/rossierd/soo.tech/soo/optee_os/lib/libutee/tee_api.c:201
     e10:	e50b308c 	str	r3, [fp, #-140]	; 0xffffff74
/home/rossierd/soo.tech/soo/optee_os/lib/libutee/tee_api.c:205
     e14:	e24b6074 	sub	r6, fp, #116	; 0x74
/home/rossierd/soo.tech/soo/optee_os/lib/libutee/tee_api.c:197
     e18:	e1a08000 	mov	r8, r0
/home/rossierd/soo.tech/soo/optee_os/lib/libutee/tee_api.c:202
     e1c:	e50b3088 	str	r3, [fp, #-136]	; 0xffffff78
/home/rossierd/soo.tech/soo/optee_os/lib/libutee/tee_api.c:203
     e20:	e3a03000 	mov	r3, #0
/home/rossierd/soo.tech/soo/optee_os/lib/libutee/tee_api.c:205
     e24:	e1a00006 	mov	r0, r6
     e28:	e58d5004 	str	r5, [sp, #4]
/home/rossierd/soo.tech/soo/optee_os/lib/libutee/tee_api.c:203
     e2c:	e14b28f4 	strd	r2, [fp, #-132]	; 0xffffff7c
     e30:	e14b27fc 	strd	r2, [fp, #-124]	; 0xffffff84
/home/rossierd/soo.tech/soo/optee_os/lib/libutee/tee_api.c:205
     e34:	e24b3088 	sub	r3, fp, #136	; 0x88
     e38:	e59b2004 	ldr	r2, [fp, #4]
     e3c:	e58d3000 	str	r3, [sp]
     e40:	e24b308c 	sub	r3, fp, #140	; 0x8c
     e44:	ebffff6a 	bl	bf4 <copy_param.constprop.1>
/home/rossierd/soo.tech/soo/optee_os/lib/libutee/tee_api.c:206
     e48:	e2504000 	subs	r4, r0, #0
     e4c:	1a000013 	bne	ea0 <TEE_InvokeTACommand+0xc4>
/home/rossierd/soo.tech/soo/optee_os/lib/libutee/tee_api.c:208
     e50:	e24b3090 	sub	r3, fp, #144	; 0x90
     e54:	e1a0200a 	mov	r2, sl
     e58:	e1a01009 	mov	r1, r9
     e5c:	e1a00008 	mov	r0, r8
     e60:	e58d3000 	str	r3, [sp]
     e64:	e1a03006 	mov	r3, r6
     e68:	ebfffcda 	bl	1d8 <utee_invoke_ta_command>
     e6c:	e1a04000 	mov	r4, r0
/home/rossierd/soo.tech/soo/optee_os/lib/libutee/tee_api.c:211
     e70:	e1a02006 	mov	r2, r6
     e74:	e59b0004 	ldr	r0, [fp, #4]
     e78:	e1a01005 	mov	r1, r5
     e7c:	ebfffef4 	bl	a54 <update_out_param>
/home/rossierd/soo.tech/soo/optee_os/lib/libutee/tee_api.c:212
     e80:	e51b008c 	ldr	r0, [fp, #-140]	; 0xffffff74
     e84:	e3500000 	cmp	r0, #0
     e88:	0a000004 	beq	ea0 <TEE_InvokeTACommand+0xc4>
/home/rossierd/soo.tech/soo/optee_os/lib/libutee/tee_api.c:213
     e8c:	e51b1088 	ldr	r1, [fp, #-136]	; 0xffffff78
     e90:	eb000154 	bl	13e8 <tee_unmap>
/home/rossierd/soo.tech/soo/optee_os/lib/libutee/tee_api.c:215
     e94:	e3500000 	cmp	r0, #0
     e98:	0a000000 	beq	ea0 <TEE_InvokeTACommand+0xc4>
/home/rossierd/soo.tech/soo/optee_os/lib/libutee/tee_api.c:216
     e9c:	eb00010a 	bl	12cc <TEE_Panic>
     ea0:	e51b3090 	ldr	r3, [fp, #-144]	; 0xffffff70
/home/rossierd/soo.tech/soo/optee_os/lib/libutee/tee_api.c:220
     ea4:	e3570000 	cmp	r7, #0
/home/rossierd/soo.tech/soo/optee_os/lib/libutee/tee_api.c:221
     ea8:	15873000 	strne	r3, [r7]
/home/rossierd/soo.tech/soo/optee_os/lib/libutee/tee_api.c:223
     eac:	e3530004 	cmp	r3, #4
     eb0:	0a00000c 	beq	ee8 <TEE_InvokeTACommand+0x10c>
/home/rossierd/soo.tech/soo/optee_os/lib/libutee/tee_api.c:226
     eb4:	e59f3038 	ldr	r3, [pc, #56]	; ef4 <TEE_InvokeTACommand+0x118>
/home/rossierd/soo.tech/soo/optee_os/lib/libutee/tee_api.c:227
     eb8:	e59f2038 	ldr	r2, [pc, #56]	; ef8 <TEE_InvokeTACommand+0x11c>
/home/rossierd/soo.tech/soo/optee_os/lib/libutee/tee_api.c:226
     ebc:	e3540000 	cmp	r4, #0
     ec0:	11540003 	cmpne	r4, r3
     ec4:	13a03001 	movne	r3, #1
     ec8:	03a03000 	moveq	r3, #0
/home/rossierd/soo.tech/soo/optee_os/lib/libutee/tee_api.c:227
     ecc:	e1540002 	cmp	r4, r2
     ed0:	03a03000 	moveq	r3, #0
     ed4:	12033001 	andne	r3, r3, #1
     ed8:	e3530000 	cmp	r3, #0
     edc:	0a000001 	beq	ee8 <TEE_InvokeTACommand+0x10c>
/home/rossierd/soo.tech/soo/optee_os/lib/libutee/tee_api.c:229
     ee0:	e1a00004 	mov	r0, r4
     ee4:	eb0000f8 	bl	12cc <TEE_Panic>
/home/rossierd/soo.tech/soo/optee_os/lib/libutee/tee_api.c:232
     ee8:	e1a00004 	mov	r0, r4
     eec:	e24bd028 	sub	sp, fp, #40	; 0x28
     ef0:	e89daff0 	ldm	sp, {r4, r5, r6, r7, r8, r9, sl, fp, sp, pc}
     ef4:	ffff000c 	.word	0xffff000c
     ef8:	ffff3024 	.word	0xffff3024

00000efc <TEE_OpenTASession>:
TEE_OpenTASession():
/home/rossierd/soo.tech/soo/optee_os/lib/libutee/tee_api.c:148
     efc:	e1a0c00d 	mov	ip, sp
     f00:	e92ddbf0 	push	{r4, r5, r6, r7, r8, r9, fp, ip, lr, pc}
     f04:	e24cb004 	sub	fp, ip, #4
     f08:	e24dd070 	sub	sp, sp, #112	; 0x70
     f0c:	e1a07003 	mov	r7, r3
/home/rossierd/soo.tech/soo/optee_os/lib/libutee/tee_api.c:151
     f10:	e3a03000 	mov	r3, #0
/home/rossierd/soo.tech/soo/optee_os/lib/libutee/tee_api.c:148
     f14:	e1a09001 	mov	r9, r1
     f18:	e1a01002 	mov	r1, r2
/home/rossierd/soo.tech/soo/optee_os/lib/libutee/tee_api.c:151
     f1c:	e50b3088 	str	r3, [fp, #-136]	; 0xffffff78
/home/rossierd/soo.tech/soo/optee_os/lib/libutee/tee_api.c:154
     f20:	e3a02000 	mov	r2, #0
/home/rossierd/soo.tech/soo/optee_os/lib/libutee/tee_api.c:152
     f24:	e50b3084 	str	r3, [fp, #-132]	; 0xffffff7c
/home/rossierd/soo.tech/soo/optee_os/lib/libutee/tee_api.c:154
     f28:	e24b507c 	sub	r5, fp, #124	; 0x7c
/home/rossierd/soo.tech/soo/optee_os/lib/libutee/tee_api.c:156
     f2c:	e24b606c 	sub	r6, fp, #108	; 0x6c
/home/rossierd/soo.tech/soo/optee_os/lib/libutee/tee_api.c:153
     f30:	e50b3080 	str	r3, [fp, #-128]	; 0xffffff80
/home/rossierd/soo.tech/soo/optee_os/lib/libutee/tee_api.c:154
     f34:	e3a03000 	mov	r3, #0
/home/rossierd/soo.tech/soo/optee_os/lib/libutee/tee_api.c:148
     f38:	e1a08000 	mov	r8, r0
/home/rossierd/soo.tech/soo/optee_os/lib/libutee/tee_api.c:156
     f3c:	e58d5004 	str	r5, [sp, #4]
     f40:	e1a00006 	mov	r0, r6
/home/rossierd/soo.tech/soo/optee_os/lib/libutee/tee_api.c:154
     f44:	e14b27fc 	strd	r2, [fp, #-124]	; 0xffffff84
     f48:	e14b27f4 	strd	r2, [fp, #-116]	; 0xffffff8c
/home/rossierd/soo.tech/soo/optee_os/lib/libutee/tee_api.c:156
     f4c:	e24b3080 	sub	r3, fp, #128	; 0x80
     f50:	e1a02007 	mov	r2, r7
     f54:	e58d3000 	str	r3, [sp]
     f58:	e24b3084 	sub	r3, fp, #132	; 0x84
     f5c:	ebffff24 	bl	bf4 <copy_param.constprop.1>
/home/rossierd/soo.tech/soo/optee_os/lib/libutee/tee_api.c:157
     f60:	e2504000 	subs	r4, r0, #0
     f64:	1a000015 	bne	fc0 <TEE_OpenTASession+0xc4>
/home/rossierd/soo.tech/soo/optee_os/lib/libutee/tee_api.c:159
     f68:	e59b3008 	ldr	r3, [fp, #8]
     f6c:	e1a02006 	mov	r2, r6
     f70:	e1a01009 	mov	r1, r9
     f74:	e1a00008 	mov	r0, r8
     f78:	e58d3000 	str	r3, [sp]
     f7c:	e24b3088 	sub	r3, fp, #136	; 0x88
     f80:	ebfffc89 	bl	1ac <utee_open_ta_session>
     f84:	e1a04000 	mov	r4, r0
/home/rossierd/soo.tech/soo/optee_os/lib/libutee/tee_api.c:161
     f88:	e1a02006 	mov	r2, r6
     f8c:	e1a00007 	mov	r0, r7
     f90:	e1a01005 	mov	r1, r5
     f94:	ebfffeae 	bl	a54 <update_out_param>
/home/rossierd/soo.tech/soo/optee_os/lib/libutee/tee_api.c:162
     f98:	e51b0084 	ldr	r0, [fp, #-132]	; 0xffffff7c
     f9c:	e3500000 	cmp	r0, #0
     fa0:	0a000004 	beq	fb8 <TEE_OpenTASession+0xbc>
/home/rossierd/soo.tech/soo/optee_os/lib/libutee/tee_api.c:163
     fa4:	e51b1080 	ldr	r1, [fp, #-128]	; 0xffffff80
     fa8:	eb00010e 	bl	13e8 <tee_unmap>
/home/rossierd/soo.tech/soo/optee_os/lib/libutee/tee_api.c:165
     fac:	e3500000 	cmp	r0, #0
     fb0:	0a000000 	beq	fb8 <TEE_OpenTASession+0xbc>
/home/rossierd/soo.tech/soo/optee_os/lib/libutee/tee_api.c:166
     fb4:	eb0000c4 	bl	12cc <TEE_Panic>
/home/rossierd/soo.tech/soo/optee_os/lib/libutee/tee_api.c:175
     fb8:	e3540000 	cmp	r4, #0
     fbc:	0a000001 	beq	fc8 <TEE_OpenTASession+0xcc>
/home/rossierd/soo.tech/soo/optee_os/lib/libutee/tee_api.c:176
     fc0:	e3a03000 	mov	r3, #0
     fc4:	e50b3088 	str	r3, [fp, #-136]	; 0xffffff78
/home/rossierd/soo.tech/soo/optee_os/lib/libutee/tee_api.c:178
     fc8:	e51b2088 	ldr	r2, [fp, #-136]	; 0xffffff78
/home/rossierd/soo.tech/soo/optee_os/lib/libutee/tee_api.c:180
     fcc:	e1a00004 	mov	r0, r4
/home/rossierd/soo.tech/soo/optee_os/lib/libutee/tee_api.c:178
     fd0:	e59b3004 	ldr	r3, [fp, #4]
     fd4:	e5832000 	str	r2, [r3]
/home/rossierd/soo.tech/soo/optee_os/lib/libutee/tee_api.c:180
     fd8:	e24bd024 	sub	sp, fp, #36	; 0x24
     fdc:	e89dabf0 	ldm	sp, {r4, r5, r6, r7, r8, r9, fp, sp, pc}

00000fe0 <TEE_SetInstanceData>:
TEE_SetInstanceData():
/home/rossierd/soo.tech/soo/optee_os/lib/libutee/tee_api.c:293
     fe0:	e59f3014 	ldr	r3, [pc, #20]	; ffc <TEE_SetInstanceData+0x1c>
/home/rossierd/soo.tech/soo/optee_os/lib/libutee/tee_api.c:292
     fe4:	e1a0c00d 	mov	ip, sp
     fe8:	e92dd800 	push	{fp, ip, lr, pc}
     fec:	e24cb004 	sub	fp, ip, #4
/home/rossierd/soo.tech/soo/optee_os/lib/libutee/tee_api.c:293
     ff0:	e08f3003 	add	r3, pc, r3
     ff4:	e5830000 	str	r0, [r3]
     ff8:	e89da800 	ldm	sp, {fp, sp, pc}
     ffc:	0000b2d4 	.word	0x0000b2d4

00001000 <TEE_GetInstanceData>:
TEE_GetInstanceData():
/home/rossierd/soo.tech/soo/optee_os/lib/libutee/tee_api.c:299
    1000:	e59f3010 	ldr	r3, [pc, #16]	; 1018 <TEE_GetInstanceData+0x18>
/home/rossierd/soo.tech/soo/optee_os/lib/libutee/tee_api.c:297
    1004:	e1a0c00d 	mov	ip, sp
    1008:	e92dd800 	push	{fp, ip, lr, pc}
    100c:	e24cb004 	sub	fp, ip, #4
/home/rossierd/soo.tech/soo/optee_os/lib/libutee/tee_api.c:299
    1010:	e79f0003 	ldr	r0, [pc, r3]
    1014:	e89da800 	ldm	sp, {fp, sp, pc}
    1018:	0000b2b4 	.word	0x0000b2b4

0000101c <TEE_MemMove>:
TEE_MemMove():
/home/rossierd/soo.tech/soo/optee_os/lib/libutee/tee_api.c:302
    101c:	e1a0c00d 	mov	ip, sp
    1020:	e92dd800 	push	{fp, ip, lr, pc}
    1024:	e24cb004 	sub	fp, ip, #4
/home/rossierd/soo.tech/soo/optee_os/lib/libutee/tee_api.c:304
    1028:	e24bd00c 	sub	sp, fp, #12
    102c:	e89d6800 	ldm	sp, {fp, sp, lr}
/home/rossierd/soo.tech/soo/optee_os/lib/libutee/tee_api.c:303
    1030:	ea001b8e 	b	7e70 <memmove>

00001034 <TEE_MemCompare>:
TEE_MemCompare():
/home/rossierd/soo.tech/soo/optee_os/lib/libutee/tee_api.c:307
    1034:	e1a0c00d 	mov	ip, sp
    1038:	e92dd800 	push	{fp, ip, lr, pc}
    103c:	e24cb004 	sub	fp, ip, #4
/home/rossierd/soo.tech/soo/optee_os/lib/libutee/tee_api.c:309
    1040:	e24bd00c 	sub	sp, fp, #12
    1044:	e89d6800 	ldm	sp, {fp, sp, lr}
/home/rossierd/soo.tech/soo/optee_os/lib/libutee/tee_api.c:308
    1048:	ea001ffe 	b	9048 <consttime_memcmp>

0000104c <TEE_MemFill>:
TEE_MemFill():
/home/rossierd/soo.tech/soo/optee_os/lib/libutee/tee_api.c:312
    104c:	e1a0c00d 	mov	ip, sp
    1050:	e92dd800 	push	{fp, ip, lr, pc}
    1054:	e24cb004 	sub	fp, ip, #4
/home/rossierd/soo.tech/soo/optee_os/lib/libutee/tee_api.c:314
    1058:	e24bd00c 	sub	sp, fp, #12
    105c:	e89d6800 	ldm	sp, {fp, sp, lr}
/home/rossierd/soo.tech/soo/optee_os/lib/libutee/tee_api.c:313
    1060:	ea001b99 	b	7ecc <memset>

00001064 <TEE_GetSystemTime>:
TEE_GetSystemTime():
/home/rossierd/soo.tech/soo/optee_os/lib/libutee/tee_api.c:319
    1064:	e1a0c00d 	mov	ip, sp
/home/rossierd/soo.tech/soo/optee_os/lib/libutee/tee_api.c:320
    1068:	e1a01000 	mov	r1, r0
    106c:	e3a00000 	mov	r0, #0
/home/rossierd/soo.tech/soo/optee_os/lib/libutee/tee_api.c:319
    1070:	e92dd800 	push	{fp, ip, lr, pc}
    1074:	e24cb004 	sub	fp, ip, #4
/home/rossierd/soo.tech/soo/optee_os/lib/libutee/tee_api.c:320
    1078:	ebfffc75 	bl	254 <utee_get_time>
/home/rossierd/soo.tech/soo/optee_os/lib/libutee/tee_api.c:322
    107c:	e3500000 	cmp	r0, #0
    1080:	089da800 	ldmeq	sp, {fp, sp, pc}
/home/rossierd/soo.tech/soo/optee_os/lib/libutee/tee_api.c:324
    1084:	e24bd00c 	sub	sp, fp, #12
    1088:	e89d6800 	ldm	sp, {fp, sp, lr}
/home/rossierd/soo.tech/soo/optee_os/lib/libutee/tee_api.c:323
    108c:	ea00008e 	b	12cc <TEE_Panic>

00001090 <TEE_Wait>:
TEE_Wait():
/home/rossierd/soo.tech/soo/optee_os/lib/libutee/tee_api.c:327
    1090:	e1a0c00d 	mov	ip, sp
    1094:	e92dd830 	push	{r4, r5, fp, ip, lr, pc}
    1098:	e24cb004 	sub	fp, ip, #4
/home/rossierd/soo.tech/soo/optee_os/lib/libutee/tee_api.c:328
    109c:	ebfffc67 	bl	240 <utee_wait>
/home/rossierd/soo.tech/soo/optee_os/lib/libutee/tee_api.c:330
    10a0:	e59f3018 	ldr	r3, [pc, #24]	; 10c0 <TEE_Wait+0x30>
    10a4:	e1a04000 	mov	r4, r0
    10a8:	e3500000 	cmp	r0, #0
    10ac:	11500003 	cmpne	r0, r3
    10b0:	0a000000 	beq	10b8 <TEE_Wait+0x28>
/home/rossierd/soo.tech/soo/optee_os/lib/libutee/tee_api.c:331
    10b4:	eb000084 	bl	12cc <TEE_Panic>
/home/rossierd/soo.tech/soo/optee_os/lib/libutee/tee_api.c:334
    10b8:	e1a00004 	mov	r0, r4
    10bc:	e89da830 	ldm	sp, {r4, r5, fp, sp, pc}
    10c0:	ffff0002 	.word	0xffff0002

000010c4 <TEE_GetTAPersistentTime>:
TEE_GetTAPersistentTime():
/home/rossierd/soo.tech/soo/optee_os/lib/libutee/tee_api.c:337
    10c4:	e1a0c00d 	mov	ip, sp
/home/rossierd/soo.tech/soo/optee_os/lib/libutee/tee_api.c:340
    10c8:	e1a01000 	mov	r1, r0
/home/rossierd/soo.tech/soo/optee_os/lib/libutee/tee_api.c:337
    10cc:	e92dd830 	push	{r4, r5, fp, ip, lr, pc}
    10d0:	e1a05000 	mov	r5, r0
    10d4:	e24cb004 	sub	fp, ip, #4
/home/rossierd/soo.tech/soo/optee_os/lib/libutee/tee_api.c:340
    10d8:	e3a00001 	mov	r0, #1
    10dc:	ebfffc5c 	bl	254 <utee_get_time>
/home/rossierd/soo.tech/soo/optee_os/lib/libutee/tee_api.c:342
    10e0:	e59f305c 	ldr	r3, [pc, #92]	; 1144 <TEE_GetTAPersistentTime+0x80>
    10e4:	e2902000 	adds	r2, r0, #0
    10e8:	e1a04000 	mov	r4, r0
    10ec:	13a02001 	movne	r2, #1
    10f0:	e0503003 	subs	r3, r0, r3
    10f4:	13a03001 	movne	r3, #1
    10f8:	e1120003 	tst	r2, r3
/home/rossierd/soo.tech/soo/optee_os/lib/libutee/tee_api.c:343
    10fc:	13a01000 	movne	r1, #0
    1100:	15851000 	strne	r1, [r5]
/home/rossierd/soo.tech/soo/optee_os/lib/libutee/tee_api.c:344
    1104:	15851004 	strne	r1, [r5, #4]
/home/rossierd/soo.tech/soo/optee_os/lib/libutee/tee_api.c:348
    1108:	e2801a0b 	add	r1, r0, #45056	; 0xb000
/home/rossierd/soo.tech/soo/optee_os/lib/libutee/tee_api.c:347
    110c:	e3510001 	cmp	r1, #1
    1110:	93a02000 	movls	r2, #0
    1114:	82022001 	andhi	r2, r2, #1
    1118:	e3520000 	cmp	r2, #0
    111c:	0a000006 	beq	113c <TEE_GetTAPersistentTime+0x78>
/home/rossierd/soo.tech/soo/optee_os/lib/libutee/tee_api.c:350
    1120:	e59f2020 	ldr	r2, [pc, #32]	; 1148 <TEE_GetTAPersistentTime+0x84>
    1124:	e1500002 	cmp	r0, r2
    1128:	03a03000 	moveq	r3, #0
    112c:	12033001 	andne	r3, r3, #1
    1130:	e3530000 	cmp	r3, #0
    1134:	0a000000 	beq	113c <TEE_GetTAPersistentTime+0x78>
/home/rossierd/soo.tech/soo/optee_os/lib/libutee/tee_api.c:352
    1138:	eb000063 	bl	12cc <TEE_Panic>
/home/rossierd/soo.tech/soo/optee_os/lib/libutee/tee_api.c:355
    113c:	e1a00004 	mov	r0, r4
    1140:	e89da830 	ldm	sp, {r4, r5, fp, sp, pc}
    1144:	ffff300f 	.word	0xffff300f
    1148:	ffff000c 	.word	0xffff000c

0000114c <TEE_SetTAPersistentTime>:
TEE_SetTAPersistentTime():
/home/rossierd/soo.tech/soo/optee_os/lib/libutee/tee_api.c:358
    114c:	e1a0c00d 	mov	ip, sp
    1150:	e92dd830 	push	{r4, r5, fp, ip, lr, pc}
    1154:	e24cb004 	sub	fp, ip, #4
/home/rossierd/soo.tech/soo/optee_os/lib/libutee/tee_api.c:361
    1158:	ebfffc42 	bl	268 <utee_set_ta_time>
/home/rossierd/soo.tech/soo/optee_os/lib/libutee/tee_api.c:363
    115c:	e59f3034 	ldr	r3, [pc, #52]	; 1198 <TEE_SetTAPersistentTime+0x4c>
    1160:	e1a04000 	mov	r4, r0
/home/rossierd/soo.tech/soo/optee_os/lib/libutee/tee_api.c:364
    1164:	e59f2030 	ldr	r2, [pc, #48]	; 119c <TEE_SetTAPersistentTime+0x50>
/home/rossierd/soo.tech/soo/optee_os/lib/libutee/tee_api.c:363
    1168:	e3500000 	cmp	r0, #0
    116c:	11500003 	cmpne	r0, r3
    1170:	13a03001 	movne	r3, #1
    1174:	03a03000 	moveq	r3, #0
/home/rossierd/soo.tech/soo/optee_os/lib/libutee/tee_api.c:364
    1178:	e1500002 	cmp	r0, r2
    117c:	03a03000 	moveq	r3, #0
    1180:	12033001 	andne	r3, r3, #1
    1184:	e3530000 	cmp	r3, #0
    1188:	0a000000 	beq	1190 <TEE_SetTAPersistentTime+0x44>
/home/rossierd/soo.tech/soo/optee_os/lib/libutee/tee_api.c:366
    118c:	eb00004e 	bl	12cc <TEE_Panic>
/home/rossierd/soo.tech/soo/optee_os/lib/libutee/tee_api.c:369
    1190:	e1a00004 	mov	r0, r4
    1194:	e89da830 	ldm	sp, {r4, r5, fp, sp, pc}
    1198:	ffff000c 	.word	0xffff000c
    119c:	ffff3041 	.word	0xffff3041

000011a0 <TEE_GetREETime>:
TEE_GetREETime():
/home/rossierd/soo.tech/soo/optee_os/lib/libutee/tee_api.c:372
    11a0:	e1a0c00d 	mov	ip, sp
/home/rossierd/soo.tech/soo/optee_os/lib/libutee/tee_api.c:373
    11a4:	e1a01000 	mov	r1, r0
    11a8:	e3a00002 	mov	r0, #2
/home/rossierd/soo.tech/soo/optee_os/lib/libutee/tee_api.c:372
    11ac:	e92dd800 	push	{fp, ip, lr, pc}
    11b0:	e24cb004 	sub	fp, ip, #4
/home/rossierd/soo.tech/soo/optee_os/lib/libutee/tee_api.c:373
    11b4:	ebfffc26 	bl	254 <utee_get_time>
/home/rossierd/soo.tech/soo/optee_os/lib/libutee/tee_api.c:375
    11b8:	e3500000 	cmp	r0, #0
    11bc:	089da800 	ldmeq	sp, {fp, sp, pc}
/home/rossierd/soo.tech/soo/optee_os/lib/libutee/tee_api.c:377
    11c0:	e24bd00c 	sub	sp, fp, #12
    11c4:	e89d6800 	ldm	sp, {fp, sp, lr}
/home/rossierd/soo.tech/soo/optee_os/lib/libutee/tee_api.c:376
    11c8:	ea00003f 	b	12cc <TEE_Panic>

000011cc <TEE_Malloc>:
TEE_Malloc():
/home/rossierd/soo.tech/soo/optee_os/lib/libutee/tee_api.c:380
    11cc:	e1a0c00d 	mov	ip, sp
/home/rossierd/soo.tech/soo/optee_os/lib/libutee/tee_api.c:381
    11d0:	e3510000 	cmp	r1, #0
/home/rossierd/soo.tech/soo/optee_os/lib/libutee/tee_api.c:380
    11d4:	e92dd800 	push	{fp, ip, lr, pc}
    11d8:	e24cb004 	sub	fp, ip, #4
    11dc:	e24dd008 	sub	sp, sp, #8
/home/rossierd/soo.tech/soo/optee_os/lib/libutee/tee_api.c:381
    11e0:	1a000004 	bne	11f8 <TEE_Malloc+0x2c>
/home/rossierd/soo.tech/soo/optee_os/lib/libutee/tee_api.c:382
    11e4:	e1a01000 	mov	r1, r0
    11e8:	e3a00001 	mov	r0, #1
/home/rossierd/soo.tech/soo/optee_os/lib/libutee/tee_api.c:389
    11ec:	e24bd00c 	sub	sp, fp, #12
    11f0:	e89d6800 	ldm	sp, {fp, sp, lr}
/home/rossierd/soo.tech/soo/optee_os/lib/libutee/tee_api.c:382
    11f4:	ea0019f3 	b	79c8 <calloc>
/home/rossierd/soo.tech/soo/optee_os/lib/libutee/tee_api.c:383
    11f8:	e3510102 	cmp	r1, #-2147483648	; 0x80000000
    11fc:	1a000002 	bne	120c <TEE_Malloc+0x40>
/home/rossierd/soo.tech/soo/optee_os/lib/libutee/tee_api.c:389
    1200:	e24bd00c 	sub	sp, fp, #12
    1204:	e89d6800 	ldm	sp, {fp, sp, lr}
/home/rossierd/soo.tech/soo/optee_os/lib/libutee/tee_api.c:384
    1208:	ea0019dc 	b	7980 <malloc>
/home/rossierd/soo.tech/soo/optee_os/lib/libutee/tee_api.c:386
    120c:	e59f302c 	ldr	r3, [pc, #44]	; 1240 <TEE_Malloc+0x74>
    1210:	e58d1004 	str	r1, [sp, #4]
    1214:	e3001182 	movw	r1, #386	; 0x182
    1218:	e59f0024 	ldr	r0, [pc, #36]	; 1244 <TEE_Malloc+0x78>
    121c:	e08f3003 	add	r3, pc, r3
    1220:	e08f0000 	add	r0, pc, r0
    1224:	e58d3000 	str	r3, [sp]
    1228:	e3a03001 	mov	r3, #1
    122c:	e1a02003 	mov	r2, r3
    1230:	eb001f01 	bl	8e3c <trace_printf>
/home/rossierd/soo.tech/soo/optee_os/lib/libutee/tee_api.c:389
    1234:	e3a00000 	mov	r0, #0
    1238:	e24bd00c 	sub	sp, fp, #12
    123c:	e89da800 	ldm	sp, {fp, sp, pc}
    1240:	0000836b 	.word	0x0000836b
    1244:	0000835c 	.word	0x0000835c

00001248 <TEE_Realloc>:
TEE_Realloc():
/home/rossierd/soo.tech/soo/optee_os/lib/libutee/tee_api.c:392
    1248:	e1a0c00d 	mov	ip, sp
    124c:	e92dd800 	push	{fp, ip, lr, pc}
    1250:	e24cb004 	sub	fp, ip, #4
/home/rossierd/soo.tech/soo/optee_os/lib/libutee/tee_api.c:394
    1254:	e24bd00c 	sub	sp, fp, #12
    1258:	e89d6800 	ldm	sp, {fp, sp, lr}
/home/rossierd/soo.tech/soo/optee_os/lib/libutee/tee_api.c:393
    125c:	ea0019f0 	b	7a24 <realloc>

00001260 <TEE_Free>:
TEE_Free():
/home/rossierd/soo.tech/soo/optee_os/lib/libutee/tee_api.c:397
    1260:	e1a0c00d 	mov	ip, sp
    1264:	e92dd800 	push	{fp, ip, lr, pc}
    1268:	e24cb004 	sub	fp, ip, #4
/home/rossierd/soo.tech/soo/optee_os/lib/libutee/tee_api.c:399
    126c:	e24bd00c 	sub	sp, fp, #12
    1270:	e89d6800 	ldm	sp, {fp, sp, lr}
/home/rossierd/soo.tech/soo/optee_os/lib/libutee/tee_api.c:398
    1274:	ea0019fc 	b	7a6c <free>

00001278 <TEE_CacheClean>:
TEE_CacheClean():
/home/rossierd/soo.tech/soo/optee_os/lib/libutee/tee_api.c:403
    1278:	e1a0c00d 	mov	ip, sp
/home/rossierd/soo.tech/soo/optee_os/lib/libutee/tee_api.c:404
    127c:	e3a02000 	mov	r2, #0
/home/rossierd/soo.tech/soo/optee_os/lib/libutee/tee_api.c:403
    1280:	e92dd800 	push	{fp, ip, lr, pc}
    1284:	e24cb004 	sub	fp, ip, #4
/home/rossierd/soo.tech/soo/optee_os/lib/libutee/tee_api.c:405
    1288:	e24bd00c 	sub	sp, fp, #12
    128c:	e89d6800 	ldm	sp, {fp, sp, lr}
/home/rossierd/soo.tech/soo/optee_os/lib/libutee/tee_api.c:404
    1290:	eafffccd 	b	5cc <utee_cache_operation>

00001294 <TEE_CacheFlush>:
TEE_CacheFlush():
/home/rossierd/soo.tech/soo/optee_os/lib/libutee/tee_api.c:407
    1294:	e1a0c00d 	mov	ip, sp
/home/rossierd/soo.tech/soo/optee_os/lib/libutee/tee_api.c:408
    1298:	e3a02001 	mov	r2, #1
/home/rossierd/soo.tech/soo/optee_os/lib/libutee/tee_api.c:407
    129c:	e92dd800 	push	{fp, ip, lr, pc}
    12a0:	e24cb004 	sub	fp, ip, #4
/home/rossierd/soo.tech/soo/optee_os/lib/libutee/tee_api.c:409
    12a4:	e24bd00c 	sub	sp, fp, #12
    12a8:	e89d6800 	ldm	sp, {fp, sp, lr}
/home/rossierd/soo.tech/soo/optee_os/lib/libutee/tee_api.c:408
    12ac:	eafffcc6 	b	5cc <utee_cache_operation>

000012b0 <TEE_CacheInvalidate>:
TEE_CacheInvalidate():
/home/rossierd/soo.tech/soo/optee_os/lib/libutee/tee_api.c:412
    12b0:	e1a0c00d 	mov	ip, sp
/home/rossierd/soo.tech/soo/optee_os/lib/libutee/tee_api.c:413
    12b4:	e3a02002 	mov	r2, #2
/home/rossierd/soo.tech/soo/optee_os/lib/libutee/tee_api.c:412
    12b8:	e92dd800 	push	{fp, ip, lr, pc}
    12bc:	e24cb004 	sub	fp, ip, #4
/home/rossierd/soo.tech/soo/optee_os/lib/libutee/tee_api.c:414
    12c0:	e24bd00c 	sub	sp, fp, #12
    12c4:	e89d6800 	ldm	sp, {fp, sp, lr}
/home/rossierd/soo.tech/soo/optee_os/lib/libutee/tee_api.c:413
    12c8:	eafffcbf 	b	5cc <utee_cache_operation>

000012cc <TEE_Panic>:
TEE_Panic():
/home/rossierd/soo.tech/soo/optee_os/lib/libutee/tee_api_panic.c:11
    12cc:	e1a0c00d 	mov	ip, sp
    12d0:	e92dd800 	push	{fp, ip, lr, pc}
    12d4:	e24cb004 	sub	fp, ip, #4
/home/rossierd/soo.tech/soo/optee_os/lib/libutee/tee_api_panic.c:13
    12d8:	e24bd00c 	sub	sp, fp, #12
    12dc:	e89d6800 	ldm	sp, {fp, sp, lr}
/home/rossierd/soo.tech/soo/optee_os/lib/libutee/tee_api_panic.c:12
    12e0:	eafffb92 	b	130 <utee_panic>

000012e4 <invoke_system_pta>:
invoke_system_pta():
/home/rossierd/soo.tech/soo/optee_os/lib/libutee/tee_system_pta.c:15
    12e4:	e1a0c00d 	mov	ip, sp
    12e8:	e92dd870 	push	{r4, r5, r6, fp, ip, lr, pc}
    12ec:	e1a06002 	mov	r6, r2
/home/rossierd/soo.tech/soo/optee_os/lib/libutee/tee_system_pta.c:19
    12f0:	e59f206c 	ldr	r2, [pc, #108]	; 1364 <invoke_system_pta+0x80>
/home/rossierd/soo.tech/soo/optee_os/lib/libutee/tee_system_pta.c:15
    12f4:	e24cb004 	sub	fp, ip, #4
    12f8:	e24dd00c 	sub	sp, sp, #12
    12fc:	e1a04000 	mov	r4, r0
    1300:	e1a05001 	mov	r5, r1
/home/rossierd/soo.tech/soo/optee_os/lib/libutee/tee_system_pta.c:19
    1304:	e08f2002 	add	r2, pc, r2
    1308:	e5923000 	ldr	r3, [r2]
    130c:	e3530000 	cmp	r3, #0
    1310:	0a00000a 	beq	1340 <invoke_system_pta+0x5c>
/home/rossierd/soo.tech/soo/optee_os/lib/libutee/tee_system_pta.c:27
    1314:	e59f004c 	ldr	r0, [pc, #76]	; 1368 <invoke_system_pta+0x84>
    1318:	e3a01000 	mov	r1, #0
    131c:	e58d6000 	str	r6, [sp]
    1320:	e1a03005 	mov	r3, r5
    1324:	e1a02004 	mov	r2, r4
    1328:	e58d1004 	str	r1, [sp, #4]
    132c:	e08f0000 	add	r0, pc, r0
    1330:	e5900000 	ldr	r0, [r0]
    1334:	ebfffea8 	bl	ddc <TEE_InvokeTACommand>
/home/rossierd/soo.tech/soo/optee_os/lib/libutee/tee_system_pta.c:28
    1338:	e24bd018 	sub	sp, fp, #24
    133c:	e89da870 	ldm	sp, {r4, r5, r6, fp, sp, pc}
/home/rossierd/soo.tech/soo/optee_os/lib/libutee/tee_system_pta.c:20
    1340:	e59f0024 	ldr	r0, [pc, #36]	; 136c <invoke_system_pta+0x88>
    1344:	e88d000c 	stm	sp, {r2, r3}
    1348:	e1a01003 	mov	r1, r3
    134c:	e1a02003 	mov	r2, r3
    1350:	e08f0000 	add	r0, pc, r0
    1354:	ebfffee8 	bl	efc <TEE_OpenTASession>
/home/rossierd/soo.tech/soo/optee_os/lib/libutee/tee_system_pta.c:23
    1358:	e3500000 	cmp	r0, #0
    135c:	0affffec 	beq	1314 <invoke_system_pta+0x30>
    1360:	eafffff4 	b	1338 <invoke_system_pta+0x54>
    1364:	0000afc4 	.word	0x0000afc4
    1368:	0000af9c 	.word	0x0000af9c
    136c:	00007e24 	.word	0x00007e24

00001370 <tee_map_zi>:
tee_map_zi():
/home/rossierd/soo.tech/soo/optee_os/lib/libutee/tee_system_pta.c:31
    1370:	e1a0c00d 	mov	ip, sp
/home/rossierd/soo.tech/soo/optee_os/lib/libutee/tee_system_pta.c:36
    1374:	e3a02020 	mov	r2, #32
/home/rossierd/soo.tech/soo/optee_os/lib/libutee/tee_system_pta.c:31
    1378:	e92dd870 	push	{r4, r5, r6, fp, ip, lr, pc}
    137c:	e24cb004 	sub	fp, ip, #4
    1380:	e24dd024 	sub	sp, sp, #36	; 0x24
/home/rossierd/soo.tech/soo/optee_os/lib/libutee/tee_system_pta.c:36
    1384:	e24b403c 	sub	r4, fp, #60	; 0x3c
/home/rossierd/soo.tech/soo/optee_os/lib/libutee/tee_system_pta.c:31
    1388:	e1a06000 	mov	r6, r0
    138c:	e1a05001 	mov	r5, r1
/home/rossierd/soo.tech/soo/optee_os/lib/libutee/tee_system_pta.c:36
    1390:	e3a01000 	mov	r1, #0
    1394:	e1a00004 	mov	r0, r4
    1398:	eb001acb 	bl	7ecc <memset>
/home/rossierd/soo.tech/soo/optee_os/lib/libutee/tee_system_pta.c:42
    139c:	e3550000 	cmp	r5, #0
/home/rossierd/soo.tech/soo/optee_os/lib/libutee/tee_system_pta.c:39
    13a0:	e50b603c 	str	r6, [fp, #-60]	; 0xffffffc4
/home/rossierd/soo.tech/soo/optee_os/lib/libutee/tee_system_pta.c:42
    13a4:	0a000003 	beq	13b8 <tee_map_zi+0x48>
    13a8:	e3550004 	cmp	r5, #4
    13ac:	1a00000a 	bne	13dc <tee_map_zi+0x6c>
/home/rossierd/soo.tech/soo/optee_os/lib/libutee/tee_system_pta.c:46
    13b0:	e3a03001 	mov	r3, #1
    13b4:	e50b3038 	str	r3, [fp, #-56]	; 0xffffffc8
/home/rossierd/soo.tech/soo/optee_os/lib/libutee/tee_system_pta.c:52
    13b8:	e1a02004 	mov	r2, r4
    13bc:	e3001131 	movw	r1, #305	; 0x131
    13c0:	e3a00002 	mov	r0, #2
    13c4:	ebffffc6 	bl	12e4 <invoke_system_pta>
/home/rossierd/soo.tech/soo/optee_os/lib/libutee/tee_system_pta.c:53
    13c8:	e3500000 	cmp	r0, #0
reg_pair_to_64():
/home/rossierd/soo.tech/soo/optee_os/lib/libutils/ext/include/util.h:131
    13cc:	01a03000 	moveq	r3, r0
tee_map_zi():
/home/rossierd/soo.tech/soo/optee_os/lib/libutee/tee_system_pta.c:56
    13d0:	051b0030 	ldreq	r0, [fp, #-48]	; 0xffffffd0
    13d4:	01800003 	orreq	r0, r0, r3
/home/rossierd/soo.tech/soo/optee_os/lib/libutee/tee_system_pta.c:53
    13d8:	0a000000 	beq	13e0 <tee_map_zi+0x70>
/home/rossierd/soo.tech/soo/optee_os/lib/libutee/tee_system_pta.c:54
    13dc:	e3a00000 	mov	r0, #0
/home/rossierd/soo.tech/soo/optee_os/lib/libutee/tee_system_pta.c:58
    13e0:	e24bd018 	sub	sp, fp, #24
    13e4:	e89da870 	ldm	sp, {r4, r5, r6, fp, sp, pc}

000013e8 <tee_unmap>:
tee_unmap():
/home/rossierd/soo.tech/soo/optee_os/lib/libutee/tee_system_pta.c:61
    13e8:	e1a0c00d 	mov	ip, sp
/home/rossierd/soo.tech/soo/optee_os/lib/libutee/tee_system_pta.c:67
    13ec:	e3a02020 	mov	r2, #32
/home/rossierd/soo.tech/soo/optee_os/lib/libutee/tee_system_pta.c:61
    13f0:	e92dd870 	push	{r4, r5, r6, fp, ip, lr, pc}
    13f4:	e24cb004 	sub	fp, ip, #4
    13f8:	e24dd034 	sub	sp, sp, #52	; 0x34
/home/rossierd/soo.tech/soo/optee_os/lib/libutee/tee_system_pta.c:67
    13fc:	e24b403c 	sub	r4, fp, #60	; 0x3c
/home/rossierd/soo.tech/soo/optee_os/lib/libutee/tee_system_pta.c:61
    1400:	e1a05000 	mov	r5, r0
    1404:	e1a06001 	mov	r6, r1
/home/rossierd/soo.tech/soo/optee_os/lib/libutee/tee_system_pta.c:67
    1408:	e1a00004 	mov	r0, r4
    140c:	e3a01000 	mov	r1, #0
    1410:	eb001aad 	bl	7ecc <memset>
/home/rossierd/soo.tech/soo/optee_os/lib/libutee/tee_system_pta.c:72
    1414:	e1a02004 	mov	r2, r4
    1418:	e3a01011 	mov	r1, #17
/home/rossierd/soo.tech/soo/optee_os/lib/libutee/tee_system_pta.c:69
    141c:	e50b603c 	str	r6, [fp, #-60]	; 0xffffffc4
/home/rossierd/soo.tech/soo/optee_os/lib/libutee/tee_system_pta.c:72
    1420:	e3a00003 	mov	r0, #3
reg_pair_from_64():
/home/rossierd/soo.tech/soo/optee_os/lib/libutils/ext/include/util.h:138
    1424:	e50b5030 	str	r5, [fp, #-48]	; 0xffffffd0
tee_unmap():
/home/rossierd/soo.tech/soo/optee_os/lib/libutee/tee_system_pta.c:72
    1428:	ebffffad 	bl	12e4 <invoke_system_pta>
/home/rossierd/soo.tech/soo/optee_os/lib/libutee/tee_system_pta.c:73
    142c:	e2504000 	subs	r4, r0, #0
    1430:	0a000009 	beq	145c <tee_unmap+0x74>
/home/rossierd/soo.tech/soo/optee_os/lib/libutee/tee_system_pta.c:74
    1434:	e59f302c 	ldr	r3, [pc, #44]	; 1468 <tee_unmap+0x80>
    1438:	e3a0104a 	mov	r1, #74	; 0x4a
    143c:	e59f0028 	ldr	r0, [pc, #40]	; 146c <tee_unmap+0x84>
    1440:	e08f3003 	add	r3, pc, r3
    1444:	e08f0000 	add	r0, pc, r0
    1448:	e88d0068 	stm	sp, {r3, r5, r6}
    144c:	e3a03001 	mov	r3, #1
    1450:	e2800010 	add	r0, r0, #16
    1454:	e1a02003 	mov	r2, r3
    1458:	eb001e77 	bl	8e3c <trace_printf>
/home/rossierd/soo.tech/soo/optee_os/lib/libutee/tee_system_pta.c:77
    145c:	e1a00004 	mov	r0, r4
    1460:	e24bd018 	sub	sp, fp, #24
    1464:	e89da870 	ldm	sp, {r4, r5, r6, fp, sp, pc}
    1468:	00008158 	.word	0x00008158
    146c:	00007d30 	.word	0x00007d30

00001470 <mpi_panic>:
mpi_panic():
/home/rossierd/soo.tech/soo/optee_os/lib/libutee/tee_api_arith_mpi.c:30
    1470:	e1a03002 	mov	r3, r2
    1474:	e1a02001 	mov	r2, r1
    1478:	e1a01000 	mov	r1, r0
    147c:	e59f001c 	ldr	r0, [pc, #28]	; 14a0 <mpi_panic+0x30>
/home/rossierd/soo.tech/soo/optee_os/lib/libutee/tee_api_arith_mpi.c:29
    1480:	e1a0c00d 	mov	ip, sp
    1484:	e92dd800 	push	{fp, ip, lr, pc}
    1488:	e24cb004 	sub	fp, ip, #4
/home/rossierd/soo.tech/soo/optee_os/lib/libutee/tee_api_arith_mpi.c:30
    148c:	e08f0000 	add	r0, pc, r0
    1490:	eb000721 	bl	311c <printf>
/home/rossierd/soo.tech/soo/optee_os/lib/libutee/tee_api_arith_mpi.c:31
    1494:	e59f0008 	ldr	r0, [pc, #8]	; 14a4 <mpi_panic+0x34>
    1498:	ebffff8b 	bl	12cc <TEE_Panic>
    149c:	eafffffe 	b	149c <mpi_panic+0x2c>
    14a0:	00008293 	.word	0x00008293
    14a4:	00b16127 	.word	0x00b16127

000014a8 <get_mpi>:
get_mpi():
/home/rossierd/soo.tech/soo/optee_os/lib/libutee/tee_api_arith_mpi.c:86
    14a8:	e1a0c00d 	mov	ip, sp
    14ac:	e92dd8f0 	push	{r4, r5, r6, r7, fp, ip, lr, pc}
    14b0:	e1a04001 	mov	r4, r1
    14b4:	e24cb004 	sub	fp, ip, #4
    14b8:	e1a05000 	mov	r5, r0
/home/rossierd/soo.tech/soo/optee_os/lib/libutee/tee_api_arith_mpi.c:101
    14bc:	eb0008de 	bl	383c <mbedtls_mpi_init_mempool>
/home/rossierd/soo.tech/soo/optee_os/lib/libutee/tee_api_arith_mpi.c:103
    14c0:	e3540000 	cmp	r4, #0
/home/rossierd/soo.tech/soo/optee_os/lib/libutee/tee_api_arith_mpi.c:105
    14c4:	12847008 	addne	r7, r4, #8
/home/rossierd/soo.tech/soo/optee_os/lib/libutee/tee_api_arith_mpi.c:106
    14c8:	11d410b6 	ldrhne	r1, [r4, #6]
/home/rossierd/soo.tech/soo/optee_os/lib/libutee/tee_api_arith_mpi.c:103
    14cc:	1a000001 	bne	14d8 <get_mpi+0x30>
    14d0:	e89da8f0 	ldm	sp, {r4, r5, r6, r7, fp, sp, pc}
/home/rossierd/soo.tech/soo/optee_os/lib/libutee/tee_api_arith_mpi.c:110
    14d4:	e2411001 	sub	r1, r1, #1
/home/rossierd/soo.tech/soo/optee_os/lib/libutee/tee_api_arith_mpi.c:109
    14d8:	e3510000 	cmp	r1, #0
    14dc:	e1a06101 	lsl	r6, r1, #2
    14e0:	0a000003 	beq	14f4 <get_mpi+0x4c>
/home/rossierd/soo.tech/soo/optee_os/lib/libutee/tee_api_arith_mpi.c:109 (discriminator 1)
    14e4:	e0843006 	add	r3, r4, r6
    14e8:	e5933004 	ldr	r3, [r3, #4]
    14ec:	e3530000 	cmp	r3, #0
    14f0:	0afffff7 	beq	14d4 <get_mpi+0x2c>
/home/rossierd/soo.tech/soo/optee_os/lib/libutee/tee_api_arith_mpi.c:112
    14f4:	e1a00005 	mov	r0, r5
    14f8:	eb000902 	bl	3908 <mbedtls_mpi_grow>
    14fc:	e2502000 	subs	r2, r0, #0
    1500:	0a000003 	beq	1514 <get_mpi+0x6c>
/home/rossierd/soo.tech/soo/optee_os/lib/libutee/tee_api_arith_mpi.c:112 (discriminator 1)
    1504:	e59f0028 	ldr	r0, [pc, #40]	; 1534 <get_mpi+0x8c>
    1508:	e3a01070 	mov	r1, #112	; 0x70
    150c:	e08f0000 	add	r0, pc, r0
    1510:	ebffffd6 	bl	1470 <mpi_panic>
/home/rossierd/soo.tech/soo/optee_os/lib/libutee/tee_api_arith_mpi.c:113
    1514:	e5943000 	ldr	r3, [r4]
/home/rossierd/soo.tech/soo/optee_os/lib/libutee/tee_api_arith_mpi.c:114
    1518:	e1a02006 	mov	r2, r6
    151c:	e1a01007 	mov	r1, r7
    1520:	e5950008 	ldr	r0, [r5, #8]
/home/rossierd/soo.tech/soo/optee_os/lib/libutee/tee_api_arith_mpi.c:113
    1524:	e1c530b0 	strh	r3, [r5]
/home/rossierd/soo.tech/soo/optee_os/lib/libutee/tee_api_arith_mpi.c:116
    1528:	e24bd01c 	sub	sp, fp, #28
    152c:	e89d68f0 	ldm	sp, {r4, r5, r6, r7, fp, sp, lr}
/home/rossierd/soo.tech/soo/optee_os/lib/libutee/tee_api_arith_mpi.c:114
    1530:	ea001a43 	b	7e44 <memcpy>
    1534:	000080b6 	.word	0x000080b6

00001538 <copy_mpi_to_bigint>:
copy_mpi_to_bigint():
/home/rossierd/soo.tech/soo/optee_os/lib/libutee/tee_api_arith_mpi.c:63
    1538:	e5903004 	ldr	r3, [r0, #4]
/home/rossierd/soo.tech/soo/optee_os/lib/libutee/tee_api_arith_mpi.c:61
    153c:	e1a0c00d 	mov	ip, sp
    1540:	e92dd800 	push	{fp, ip, lr, pc}
    1544:	e24cb004 	sub	fp, ip, #4
    1548:	e1a0c000 	mov	ip, r0
    154c:	e2432107 	sub	r2, r3, #-1073741823	; 0xc0000001
    1550:	e1a02102 	lsl	r2, r2, #2
/home/rossierd/soo.tech/soo/optee_os/lib/libutee/tee_api_arith_mpi.c:66
    1554:	e1a00002 	mov	r0, r2
    1558:	e3530000 	cmp	r3, #0
    155c:	0a000004 	beq	1574 <copy_mpi_to_bigint+0x3c>
/home/rossierd/soo.tech/soo/optee_os/lib/libutee/tee_api_arith_mpi.c:66 (discriminator 1)
    1560:	e59ce008 	ldr	lr, [ip, #8]
    1564:	e79ee000 	ldr	lr, [lr, r0]
    1568:	e2400004 	sub	r0, r0, #4
    156c:	e35e0000 	cmp	lr, #0
    1570:	0a00000b 	beq	15a4 <copy_mpi_to_bigint+0x6c>
/home/rossierd/soo.tech/soo/optee_os/lib/libutee/tee_api_arith_mpi.c:69
    1574:	e1d100b4 	ldrh	r0, [r1, #4]
    1578:	e1500003 	cmp	r0, r3
    157c:	3a00000a 	bcc	15ac <copy_mpi_to_bigint+0x74>
/home/rossierd/soo.tech/soo/optee_os/lib/libutee/tee_api_arith_mpi.c:72
    1580:	e1c130b6 	strh	r3, [r1, #6]
/home/rossierd/soo.tech/soo/optee_os/lib/libutee/tee_api_arith_mpi.c:73
    1584:	e1dc30f0 	ldrsh	r3, [ip]
    1588:	e1a00001 	mov	r0, r1
/home/rossierd/soo.tech/soo/optee_os/lib/libutee/tee_api_arith_mpi.c:74
    158c:	e2822004 	add	r2, r2, #4
    1590:	e59c1008 	ldr	r1, [ip, #8]
/home/rossierd/soo.tech/soo/optee_os/lib/libutee/tee_api_arith_mpi.c:73
    1594:	e4803008 	str	r3, [r0], #8
/home/rossierd/soo.tech/soo/optee_os/lib/libutee/tee_api_arith_mpi.c:74
    1598:	eb001a29 	bl	7e44 <memcpy>
/home/rossierd/soo.tech/soo/optee_os/lib/libutee/tee_api_arith_mpi.c:76
    159c:	e3a00000 	mov	r0, #0
    15a0:	e89da800 	ldm	sp, {fp, sp, pc}
/home/rossierd/soo.tech/soo/optee_os/lib/libutee/tee_api_arith_mpi.c:67
    15a4:	e2433001 	sub	r3, r3, #1
    15a8:	eaffffea 	b	1558 <copy_mpi_to_bigint+0x20>
/home/rossierd/soo.tech/soo/optee_os/lib/libutee/tee_api_arith_mpi.c:70
    15ac:	e59f0000 	ldr	r0, [pc]	; 15b4 <copy_mpi_to_bigint+0x7c>
/home/rossierd/soo.tech/soo/optee_os/lib/libutee/tee_api_arith_mpi.c:77
    15b0:	e89da800 	ldm	sp, {fp, sp, pc}
    15b4:	ffff300f 	.word	0xffff300f

000015b8 <bigint_binary>:
bigint_binary():
/home/rossierd/soo.tech/soo/optee_os/lib/libutee/tee_api_arith_mpi.c:321
    15b8:	e1a0c00d 	mov	ip, sp
    15bc:	e92ddff0 	push	{r4, r5, r6, r7, r8, r9, sl, fp, ip, lr, pc}
    15c0:	e24cb004 	sub	fp, ip, #4
    15c4:	e24dd034 	sub	sp, sp, #52	; 0x34
/home/rossierd/soo.tech/soo/optee_os/lib/libutee/tee_api_arith_mpi.c:328
    15c8:	e24b4050 	sub	r4, fp, #80	; 0x50
/home/rossierd/soo.tech/soo/optee_os/lib/libutee/tee_api_arith_mpi.c:321
    15cc:	e1a07000 	mov	r7, r0
    15d0:	e1a05001 	mov	r5, r1
/home/rossierd/soo.tech/soo/optee_os/lib/libutee/tee_api_arith_mpi.c:328
    15d4:	e1a01000 	mov	r1, r0
    15d8:	e1a00004 	mov	r0, r4
/home/rossierd/soo.tech/soo/optee_os/lib/libutee/tee_api_arith_mpi.c:321
    15dc:	e50b3058 	str	r3, [fp, #-88]	; 0xffffffa8
    15e0:	e1a0a002 	mov	sl, r2
    15e4:	e24b9044 	sub	r9, fp, #68	; 0x44
/home/rossierd/soo.tech/soo/optee_os/lib/libutee/tee_api_arith_mpi.c:328
    15e8:	ebffffae 	bl	14a8 <get_mpi>
/home/rossierd/soo.tech/soo/optee_os/lib/libutee/tee_api_arith_mpi.c:330
    15ec:	e1570005 	cmp	r7, r5
/home/rossierd/soo.tech/soo/optee_os/lib/libutee/tee_api_arith_mpi.c:331
    15f0:	01a06004 	moveq	r6, r4
/home/rossierd/soo.tech/soo/optee_os/lib/libutee/tee_api_arith_mpi.c:330
    15f4:	0a000003 	beq	1608 <bigint_binary+0x50>
/home/rossierd/soo.tech/soo/optee_os/lib/libutee/tee_api_arith_mpi.c:333
    15f8:	e1a01005 	mov	r1, r5
    15fc:	e1a00009 	mov	r0, r9
/home/rossierd/soo.tech/soo/optee_os/lib/libutee/tee_api_arith_mpi.c:325
    1600:	e1a06009 	mov	r6, r9
/home/rossierd/soo.tech/soo/optee_os/lib/libutee/tee_api_arith_mpi.c:333
    1604:	ebffffa7 	bl	14a8 <get_mpi>
/home/rossierd/soo.tech/soo/optee_os/lib/libutee/tee_api_arith_mpi.c:335
    1608:	e157000a 	cmp	r7, sl
    160c:	e24b8038 	sub	r8, fp, #56	; 0x38
/home/rossierd/soo.tech/soo/optee_os/lib/libutee/tee_api_arith_mpi.c:336
    1610:	01a05004 	moveq	r5, r4
/home/rossierd/soo.tech/soo/optee_os/lib/libutee/tee_api_arith_mpi.c:335
    1614:	0a000006 	beq	1634 <bigint_binary+0x7c>
/home/rossierd/soo.tech/soo/optee_os/lib/libutee/tee_api_arith_mpi.c:337
    1618:	e155000a 	cmp	r5, sl
/home/rossierd/soo.tech/soo/optee_os/lib/libutee/tee_api_arith_mpi.c:338
    161c:	01a05006 	moveq	r5, r6
/home/rossierd/soo.tech/soo/optee_os/lib/libutee/tee_api_arith_mpi.c:337
    1620:	0a000003 	beq	1634 <bigint_binary+0x7c>
/home/rossierd/soo.tech/soo/optee_os/lib/libutee/tee_api_arith_mpi.c:340
    1624:	e1a0100a 	mov	r1, sl
    1628:	e1a00008 	mov	r0, r8
/home/rossierd/soo.tech/soo/optee_os/lib/libutee/tee_api_arith_mpi.c:326
    162c:	e1a05008 	mov	r5, r8
/home/rossierd/soo.tech/soo/optee_os/lib/libutee/tee_api_arith_mpi.c:340
    1630:	ebffff9c 	bl	14a8 <get_mpi>
/home/rossierd/soo.tech/soo/optee_os/lib/libutee/tee_api_arith_mpi.c:342
    1634:	e1a02005 	mov	r2, r5
    1638:	e1a01006 	mov	r1, r6
    163c:	e51b3058 	ldr	r3, [fp, #-88]	; 0xffffffa8
    1640:	e1a00004 	mov	r0, r4
    1644:	e12fff33 	blx	r3
    1648:	e2502000 	subs	r2, r0, #0
    164c:	0a000004 	beq	1664 <bigint_binary+0xac>
/home/rossierd/soo.tech/soo/optee_os/lib/libutee/tee_api_arith_mpi.c:342 (discriminator 1)
    1650:	e59f005c 	ldr	r0, [pc, #92]	; 16b4 <bigint_binary+0xfc>
    1654:	e3001156 	movw	r1, #342	; 0x156
    1658:	e08f0000 	add	r0, pc, r0
/home/rossierd/soo.tech/soo/optee_os/lib/libutee/tee_api_arith_mpi.c:344 (discriminator 1)
    165c:	e2800008 	add	r0, r0, #8
    1660:	ebffff82 	bl	1470 <mpi_panic>
/home/rossierd/soo.tech/soo/optee_os/lib/libutee/tee_api_arith_mpi.c:344
    1664:	e1a01007 	mov	r1, r7
    1668:	e1a00004 	mov	r0, r4
    166c:	ebffffb1 	bl	1538 <copy_mpi_to_bigint>
    1670:	e2502000 	subs	r2, r0, #0
/home/rossierd/soo.tech/soo/optee_os/lib/libutee/tee_api_arith_mpi.c:344 (discriminator 1)
    1674:	159f003c 	ldrne	r0, [pc, #60]	; 16b8 <bigint_binary+0x100>
    1678:	13a01f56 	movne	r1, #344	; 0x158
    167c:	108f0000 	addne	r0, pc, r0
    1680:	1afffff5 	bne	165c <bigint_binary+0xa4>
/home/rossierd/soo.tech/soo/optee_os/lib/libutee/tee_api_arith_mpi.c:345
    1684:	e1a00004 	mov	r0, r4
    1688:	eb00087e 	bl	3888 <mbedtls_mpi_free>
/home/rossierd/soo.tech/soo/optee_os/lib/libutee/tee_api_arith_mpi.c:346
    168c:	e1560009 	cmp	r6, r9
    1690:	1a000001 	bne	169c <bigint_binary+0xe4>
/home/rossierd/soo.tech/soo/optee_os/lib/libutee/tee_api_arith_mpi.c:347
    1694:	e1a00006 	mov	r0, r6
    1698:	eb00087a 	bl	3888 <mbedtls_mpi_free>
/home/rossierd/soo.tech/soo/optee_os/lib/libutee/tee_api_arith_mpi.c:348
    169c:	e1550008 	cmp	r5, r8
    16a0:	1a000001 	bne	16ac <bigint_binary+0xf4>
/home/rossierd/soo.tech/soo/optee_os/lib/libutee/tee_api_arith_mpi.c:349
    16a4:	e1a00005 	mov	r0, r5
    16a8:	eb000876 	bl	3888 <mbedtls_mpi_free>
/home/rossierd/soo.tech/soo/optee_os/lib/libutee/tee_api_arith_mpi.c:350
    16ac:	e24bd028 	sub	sp, fp, #40	; 0x28
    16b0:	e89daff0 	ldm	sp, {r4, r5, r6, r7, r8, r9, sl, fp, sp, pc}
    16b4:	00007f6a 	.word	0x00007f6a
    16b8:	00007f46 	.word	0x00007f46

000016bc <mpi_is_odd>:
mpi_is_odd():
/home/rossierd/soo.tech/soo/optee_os/lib/libutee/tee_api_arith_mpi.c:590
    16bc:	e1a0c00d 	mov	ip, sp
/home/rossierd/soo.tech/soo/optee_os/lib/libutee/tee_api_arith_mpi.c:591
    16c0:	e3a01000 	mov	r1, #0
/home/rossierd/soo.tech/soo/optee_os/lib/libutee/tee_api_arith_mpi.c:590
    16c4:	e92dd800 	push	{fp, ip, lr, pc}
    16c8:	e24cb004 	sub	fp, ip, #4
/home/rossierd/soo.tech/soo/optee_os/lib/libutee/tee_api_arith_mpi.c:591
    16cc:	eb0009d2 	bl	3e1c <mbedtls_mpi_get_bit>
/home/rossierd/soo.tech/soo/optee_os/lib/libutee/tee_api_arith_mpi.c:592
    16d0:	e2900000 	adds	r0, r0, #0
    16d4:	13a00001 	movne	r0, #1
    16d8:	e89da800 	ldm	sp, {fp, sp, pc}

000016dc <rng_read>:
rng_read():
/home/rossierd/soo.tech/soo/optee_os/lib/libutee/tee_api_arith_mpi.c:757
    16dc:	e1a0c00d 	mov	ip, sp
    16e0:	e1a00001 	mov	r0, r1
/home/rossierd/soo.tech/soo/optee_os/lib/libutee/tee_api_arith_mpi.c:758
    16e4:	e1a01002 	mov	r1, r2
/home/rossierd/soo.tech/soo/optee_os/lib/libutee/tee_api_arith_mpi.c:757
    16e8:	e92dd800 	push	{fp, ip, lr, pc}
    16ec:	e24cb004 	sub	fp, ip, #4
/home/rossierd/soo.tech/soo/optee_os/lib/libutee/tee_api_arith_mpi.c:758
    16f0:	ebfffb3f 	bl	3f4 <utee_cryp_random_number_generate>
    16f4:	e3500000 	cmp	r0, #0
/home/rossierd/soo.tech/soo/optee_os/lib/libutee/tee_api_arith_mpi.c:761
    16f8:	13e00001 	mvnne	r0, #1
    16fc:	03a00000 	moveq	r0, #0
    1700:	e89da800 	ldm	sp, {fp, sp, pc}

00001704 <mpi_egcd>:
mpi_egcd():
/home/rossierd/soo.tech/soo/optee_os/lib/libutee/tee_api_arith_mpi.c:605
    1704:	e1a0c00d 	mov	ip, sp
    1708:	e92ddff0 	push	{r4, r5, r6, r7, r8, r9, sl, fp, ip, lr, pc}
    170c:	e24cb004 	sub	fp, ip, #4
    1710:	e24dd06c 	sub	sp, sp, #108	; 0x6c
get_mpi():
/home/rossierd/soo.tech/soo/optee_os/lib/libutee/tee_api_arith_mpi.c:101
    1714:	e24b7080 	sub	r7, fp, #128	; 0x80
mpi_egcd():
/home/rossierd/soo.tech/soo/optee_os/lib/libutee/tee_api_arith_mpi.c:605
    1718:	e1a08000 	mov	r8, r0
get_mpi():
/home/rossierd/soo.tech/soo/optee_os/lib/libutee/tee_api_arith_mpi.c:101
    171c:	e24b6074 	sub	r6, fp, #116	; 0x74
    1720:	e1a00007 	mov	r0, r7
mpi_egcd():
/home/rossierd/soo.tech/soo/optee_os/lib/libutee/tee_api_arith_mpi.c:605
    1724:	e50b2094 	str	r2, [fp, #-148]	; 0xffffff6c
    1728:	e1a0a003 	mov	sl, r3
    172c:	e50b1090 	str	r1, [fp, #-144]	; 0xffffff70
get_mpi():
/home/rossierd/soo.tech/soo/optee_os/lib/libutee/tee_api_arith_mpi.c:101
    1730:	e24b5068 	sub	r5, fp, #104	; 0x68
    1734:	e24b405c 	sub	r4, fp, #92	; 0x5c
    1738:	eb00083f 	bl	383c <mbedtls_mpi_init_mempool>
    173c:	e1a00006 	mov	r0, r6
    1740:	e24b9050 	sub	r9, fp, #80	; 0x50
    1744:	eb00083c 	bl	383c <mbedtls_mpi_init_mempool>
    1748:	e1a00005 	mov	r0, r5
    174c:	eb00083a 	bl	383c <mbedtls_mpi_init_mempool>
    1750:	e1a00004 	mov	r0, r4
    1754:	eb000838 	bl	383c <mbedtls_mpi_init_mempool>
    1758:	e1a00009 	mov	r0, r9
    175c:	eb000836 	bl	383c <mbedtls_mpi_init_mempool>
    1760:	e24b3044 	sub	r3, fp, #68	; 0x44
    1764:	e1a00003 	mov	r0, r3
    1768:	e50b3088 	str	r3, [fp, #-136]	; 0xffffff78
    176c:	eb000832 	bl	383c <mbedtls_mpi_init_mempool>
    1770:	e24b0038 	sub	r0, fp, #56	; 0x38
    1774:	eb000830 	bl	383c <mbedtls_mpi_init_mempool>
mpi_egcd():
/home/rossierd/soo.tech/soo/optee_os/lib/libutee/tee_api_arith_mpi.c:624
    1778:	e3a01000 	mov	r1, #0
    177c:	e59b0004 	ldr	r0, [fp, #4]
    1780:	eb000b5a 	bl	44f0 <mbedtls_mpi_cmp_int>
    1784:	e3500000 	cmp	r0, #0
    1788:	1a00001a 	bne	17f8 <mpi_egcd+0xf4>
/home/rossierd/soo.tech/soo/optee_os/lib/libutee/tee_api_arith_mpi.c:625
    178c:	e3a01001 	mov	r1, #1
    1790:	e51b0090 	ldr	r0, [fp, #-144]	; 0xffffff70
    1794:	eb000988 	bl	3dbc <mbedtls_mpi_lset>
    1798:	e2502000 	subs	r2, r0, #0
    179c:	0a000004 	beq	17b4 <mpi_egcd+0xb0>
/home/rossierd/soo.tech/soo/optee_os/lib/libutee/tee_api_arith_mpi.c:625 (discriminator 1)
    17a0:	e59f0548 	ldr	r0, [pc, #1352]	; 1cf0 <mpi_egcd+0x5ec>
    17a4:	e3001271 	movw	r1, #625	; 0x271
    17a8:	e08f0000 	add	r0, pc, r0
/home/rossierd/soo.tech/soo/optee_os/lib/libutee/tee_api_arith_mpi.c:626 (discriminator 1)
    17ac:	e2800016 	add	r0, r0, #22
    17b0:	ebffff2e 	bl	1470 <mpi_panic>
/home/rossierd/soo.tech/soo/optee_os/lib/libutee/tee_api_arith_mpi.c:626
    17b4:	e1a01002 	mov	r1, r2
    17b8:	e51b0094 	ldr	r0, [fp, #-148]	; 0xffffff6c
    17bc:	eb00097e 	bl	3dbc <mbedtls_mpi_lset>
    17c0:	e2502000 	subs	r2, r0, #0
/home/rossierd/soo.tech/soo/optee_os/lib/libutee/tee_api_arith_mpi.c:626 (discriminator 1)
    17c4:	159f0528 	ldrne	r0, [pc, #1320]	; 1cf4 <mpi_egcd+0x5f0>
    17c8:	13001272 	movwne	r1, #626	; 0x272
    17cc:	108f0000 	addne	r0, pc, r0
    17d0:	1afffff5 	bne	17ac <mpi_egcd+0xa8>
/home/rossierd/soo.tech/soo/optee_os/lib/libutee/tee_api_arith_mpi.c:627
    17d4:	e1a0100a 	mov	r1, sl
    17d8:	e1a00008 	mov	r0, r8
    17dc:	eb0008d6 	bl	3b3c <mbedtls_mpi_copy>
    17e0:	e2502000 	subs	r2, r0, #0
    17e4:	0a000131 	beq	1cb0 <mpi_egcd+0x5ac>
/home/rossierd/soo.tech/soo/optee_os/lib/libutee/tee_api_arith_mpi.c:627 (discriminator 1)
    17e8:	e59f0508 	ldr	r0, [pc, #1288]	; 1cf8 <mpi_egcd+0x5f4>
    17ec:	e3001273 	movw	r1, #627	; 0x273
    17f0:	e08f0000 	add	r0, pc, r0
    17f4:	eaffffec 	b	17ac <mpi_egcd+0xa8>
/home/rossierd/soo.tech/soo/optee_os/lib/libutee/tee_api_arith_mpi.c:631
    17f8:	e1a0100a 	mov	r1, sl
    17fc:	e1a00009 	mov	r0, r9
    1800:	eb0008cd 	bl	3b3c <mbedtls_mpi_copy>
    1804:	e2502000 	subs	r2, r0, #0
/home/rossierd/soo.tech/soo/optee_os/lib/libutee/tee_api_arith_mpi.c:631 (discriminator 1)
    1808:	159f04ec 	ldrne	r0, [pc, #1260]	; 1cfc <mpi_egcd+0x5f8>
    180c:	13001277 	movwne	r1, #631	; 0x277
    1810:	108f0000 	addne	r0, pc, r0
    1814:	1affffe4 	bne	17ac <mpi_egcd+0xa8>
/home/rossierd/soo.tech/soo/optee_os/lib/libutee/tee_api_arith_mpi.c:632
    1818:	e51b0088 	ldr	r0, [fp, #-136]	; 0xffffff78
    181c:	e59b1004 	ldr	r1, [fp, #4]
    1820:	eb0008c5 	bl	3b3c <mbedtls_mpi_copy>
    1824:	e2502000 	subs	r2, r0, #0
    1828:	050b208c 	streq	r2, [fp, #-140]	; 0xffffff74
    182c:	0a00000b 	beq	1860 <mpi_egcd+0x15c>
/home/rossierd/soo.tech/soo/optee_os/lib/libutee/tee_api_arith_mpi.c:632 (discriminator 1)
    1830:	e59f04c8 	ldr	r0, [pc, #1224]	; 1d00 <mpi_egcd+0x5fc>
    1834:	e3a01f9e 	mov	r1, #632	; 0x278
    1838:	e08f0000 	add	r0, pc, r0
    183c:	eaffffda 	b	17ac <mpi_egcd+0xa8>
/home/rossierd/soo.tech/soo/optee_os/lib/libutee/tee_api_arith_mpi.c:638
    1840:	e3a01001 	mov	r1, #1
    1844:	e51b0088 	ldr	r0, [fp, #-136]	; 0xffffff78
    1848:	eb000a75 	bl	4224 <mbedtls_mpi_shift_r>
    184c:	e2502000 	subs	r2, r0, #0
/home/rossierd/soo.tech/soo/optee_os/lib/libutee/tee_api_arith_mpi.c:638 (discriminator 1)
    1850:	159f04ac 	ldrne	r0, [pc, #1196]	; 1d04 <mpi_egcd+0x600>
    1854:	1300127e 	movwne	r1, #638	; 0x27e
    1858:	108f0000 	addne	r0, pc, r0
    185c:	1affffd2 	bne	17ac <mpi_egcd+0xa8>
mpi_is_even():
/home/rossierd/soo.tech/soo/optee_os/lib/libutee/tee_api_arith_mpi.c:596
    1860:	e1a00009 	mov	r0, r9
    1864:	ebffff94 	bl	16bc <mpi_is_odd>
mpi_egcd():
/home/rossierd/soo.tech/soo/optee_os/lib/libutee/tee_api_arith_mpi.c:635
    1868:	e3500000 	cmp	r0, #0
    186c:	0a000009 	beq	1898 <mpi_egcd+0x194>
/home/rossierd/soo.tech/soo/optee_os/lib/libutee/tee_api_arith_mpi.c:641
    1870:	e24ba038 	sub	sl, fp, #56	; 0x38
    1874:	e1a01009 	mov	r1, r9
    1878:	e1a0000a 	mov	r0, sl
    187c:	eb0008ae 	bl	3b3c <mbedtls_mpi_copy>
    1880:	e2502000 	subs	r2, r0, #0
    1884:	0a000013 	beq	18d8 <mpi_egcd+0x1d4>
/home/rossierd/soo.tech/soo/optee_os/lib/libutee/tee_api_arith_mpi.c:641 (discriminator 1)
    1888:	e59f0478 	ldr	r0, [pc, #1144]	; 1d08 <mpi_egcd+0x604>
    188c:	e3001281 	movw	r1, #641	; 0x281
    1890:	e08f0000 	add	r0, pc, r0
    1894:	eaffffc4 	b	17ac <mpi_egcd+0xa8>
mpi_is_even():
/home/rossierd/soo.tech/soo/optee_os/lib/libutee/tee_api_arith_mpi.c:596
    1898:	e51b0088 	ldr	r0, [fp, #-136]	; 0xffffff78
    189c:	ebffff86 	bl	16bc <mpi_is_odd>
mpi_egcd():
/home/rossierd/soo.tech/soo/optee_os/lib/libutee/tee_api_arith_mpi.c:635
    18a0:	e3500000 	cmp	r0, #0
    18a4:	1afffff1 	bne	1870 <mpi_egcd+0x16c>
/home/rossierd/soo.tech/soo/optee_os/lib/libutee/tee_api_arith_mpi.c:636
    18a8:	e51b308c 	ldr	r3, [fp, #-140]	; 0xffffff74
/home/rossierd/soo.tech/soo/optee_os/lib/libutee/tee_api_arith_mpi.c:637
    18ac:	e3a01001 	mov	r1, #1
    18b0:	e1a00009 	mov	r0, r9
/home/rossierd/soo.tech/soo/optee_os/lib/libutee/tee_api_arith_mpi.c:636
    18b4:	e2833001 	add	r3, r3, #1
    18b8:	e50b308c 	str	r3, [fp, #-140]	; 0xffffff74
/home/rossierd/soo.tech/soo/optee_os/lib/libutee/tee_api_arith_mpi.c:637
    18bc:	eb000a58 	bl	4224 <mbedtls_mpi_shift_r>
    18c0:	e2502000 	subs	r2, r0, #0
    18c4:	0affffdd 	beq	1840 <mpi_egcd+0x13c>
/home/rossierd/soo.tech/soo/optee_os/lib/libutee/tee_api_arith_mpi.c:637 (discriminator 1)
    18c8:	e59f043c 	ldr	r0, [pc, #1084]	; 1d0c <mpi_egcd+0x608>
    18cc:	e300127d 	movw	r1, #637	; 0x27d
    18d0:	e08f0000 	add	r0, pc, r0
    18d4:	eaffffb4 	b	17ac <mpi_egcd+0xa8>
/home/rossierd/soo.tech/soo/optee_os/lib/libutee/tee_api_arith_mpi.c:642
    18d8:	e1a00008 	mov	r0, r8
    18dc:	e51b1088 	ldr	r1, [fp, #-136]	; 0xffffff78
    18e0:	eb000895 	bl	3b3c <mbedtls_mpi_copy>
    18e4:	e2502000 	subs	r2, r0, #0
/home/rossierd/soo.tech/soo/optee_os/lib/libutee/tee_api_arith_mpi.c:642 (discriminator 1)
    18e8:	159f0420 	ldrne	r0, [pc, #1056]	; 1d10 <mpi_egcd+0x60c>
    18ec:	13001282 	movwne	r1, #642	; 0x282
    18f0:	108f0000 	addne	r0, pc, r0
    18f4:	1affffac 	bne	17ac <mpi_egcd+0xa8>
/home/rossierd/soo.tech/soo/optee_os/lib/libutee/tee_api_arith_mpi.c:643
    18f8:	e3a01001 	mov	r1, #1
    18fc:	e1a00007 	mov	r0, r7
    1900:	eb00092d 	bl	3dbc <mbedtls_mpi_lset>
    1904:	e2502000 	subs	r2, r0, #0
/home/rossierd/soo.tech/soo/optee_os/lib/libutee/tee_api_arith_mpi.c:643 (discriminator 1)
    1908:	159f0404 	ldrne	r0, [pc, #1028]	; 1d14 <mpi_egcd+0x610>
    190c:	13001283 	movwne	r1, #643	; 0x283
    1910:	108f0000 	addne	r0, pc, r0
    1914:	1affffa4 	bne	17ac <mpi_egcd+0xa8>
/home/rossierd/soo.tech/soo/optee_os/lib/libutee/tee_api_arith_mpi.c:644
    1918:	e1a01002 	mov	r1, r2
    191c:	e1a00006 	mov	r0, r6
    1920:	eb000925 	bl	3dbc <mbedtls_mpi_lset>
    1924:	e2502000 	subs	r2, r0, #0
/home/rossierd/soo.tech/soo/optee_os/lib/libutee/tee_api_arith_mpi.c:644 (discriminator 1)
    1928:	159f03e8 	ldrne	r0, [pc, #1000]	; 1d18 <mpi_egcd+0x614>
    192c:	13a01fa1 	movne	r1, #644	; 0x284
    1930:	108f0000 	addne	r0, pc, r0
    1934:	1affff9c 	bne	17ac <mpi_egcd+0xa8>
/home/rossierd/soo.tech/soo/optee_os/lib/libutee/tee_api_arith_mpi.c:645
    1938:	e1a01002 	mov	r1, r2
    193c:	e1a00005 	mov	r0, r5
    1940:	eb00091d 	bl	3dbc <mbedtls_mpi_lset>
    1944:	e2502000 	subs	r2, r0, #0
/home/rossierd/soo.tech/soo/optee_os/lib/libutee/tee_api_arith_mpi.c:645 (discriminator 1)
    1948:	159f03cc 	ldrne	r0, [pc, #972]	; 1d1c <mpi_egcd+0x618>
    194c:	13001285 	movwne	r1, #645	; 0x285
    1950:	108f0000 	addne	r0, pc, r0
    1954:	1affff94 	bne	17ac <mpi_egcd+0xa8>
/home/rossierd/soo.tech/soo/optee_os/lib/libutee/tee_api_arith_mpi.c:646
    1958:	e3a01001 	mov	r1, #1
    195c:	e1a00004 	mov	r0, r4
    1960:	eb000915 	bl	3dbc <mbedtls_mpi_lset>
    1964:	e2502000 	subs	r2, r0, #0
    1968:	0a0000b3 	beq	1c3c <mpi_egcd+0x538>
/home/rossierd/soo.tech/soo/optee_os/lib/libutee/tee_api_arith_mpi.c:646 (discriminator 1)
    196c:	e59f03ac 	ldr	r0, [pc, #940]	; 1d20 <mpi_egcd+0x61c>
    1970:	e3001286 	movw	r1, #646	; 0x286
    1974:	e08f0000 	add	r0, pc, r0
    1978:	eaffff8b 	b	17ac <mpi_egcd+0xa8>
/home/rossierd/soo.tech/soo/optee_os/lib/libutee/tee_api_arith_mpi.c:650
    197c:	e3a01001 	mov	r1, #1
    1980:	e1a0000a 	mov	r0, sl
    1984:	eb000a26 	bl	4224 <mbedtls_mpi_shift_r>
    1988:	e2502000 	subs	r2, r0, #0
/home/rossierd/soo.tech/soo/optee_os/lib/libutee/tee_api_arith_mpi.c:650 (discriminator 1)
    198c:	159f0390 	ldrne	r0, [pc, #912]	; 1d24 <mpi_egcd+0x620>
    1990:	1300128a 	movwne	r1, #650	; 0x28a
    1994:	108f0000 	addne	r0, pc, r0
    1998:	1affff83 	bne	17ac <mpi_egcd+0xa8>
/home/rossierd/soo.tech/soo/optee_os/lib/libutee/tee_api_arith_mpi.c:651
    199c:	e1a00007 	mov	r0, r7
    19a0:	ebffff45 	bl	16bc <mpi_is_odd>
    19a4:	e3500000 	cmp	r0, #0
    19a8:	0a000009 	beq	19d4 <mpi_egcd+0x2d0>
/home/rossierd/soo.tech/soo/optee_os/lib/libutee/tee_api_arith_mpi.c:652
    19ac:	e51b2088 	ldr	r2, [fp, #-136]	; 0xffffff78
    19b0:	e1a01007 	mov	r1, r7
    19b4:	e1a00007 	mov	r0, r7
    19b8:	eb000b66 	bl	4758 <mbedtls_mpi_add_mpi>
    19bc:	e2502000 	subs	r2, r0, #0
    19c0:	0a000010 	beq	1a08 <mpi_egcd+0x304>
/home/rossierd/soo.tech/soo/optee_os/lib/libutee/tee_api_arith_mpi.c:652 (discriminator 1)
    19c4:	e59f035c 	ldr	r0, [pc, #860]	; 1d28 <mpi_egcd+0x624>
    19c8:	e3a01fa3 	mov	r1, #652	; 0x28c
    19cc:	e08f0000 	add	r0, pc, r0
    19d0:	eaffff75 	b	17ac <mpi_egcd+0xa8>
/home/rossierd/soo.tech/soo/optee_os/lib/libutee/tee_api_arith_mpi.c:651 (discriminator 1)
    19d4:	e1a00006 	mov	r0, r6
    19d8:	ebffff37 	bl	16bc <mpi_is_odd>
    19dc:	e3500000 	cmp	r0, #0
    19e0:	1afffff1 	bne	19ac <mpi_egcd+0x2a8>
/home/rossierd/soo.tech/soo/optee_os/lib/libutee/tee_api_arith_mpi.c:655
    19e4:	e3a01001 	mov	r1, #1
    19e8:	e1a00007 	mov	r0, r7
    19ec:	eb000a0c 	bl	4224 <mbedtls_mpi_shift_r>
    19f0:	e2502000 	subs	r2, r0, #0
    19f4:	0a00000d 	beq	1a30 <mpi_egcd+0x32c>
/home/rossierd/soo.tech/soo/optee_os/lib/libutee/tee_api_arith_mpi.c:655 (discriminator 1)
    19f8:	e59f032c 	ldr	r0, [pc, #812]	; 1d2c <mpi_egcd+0x628>
    19fc:	e300128f 	movw	r1, #655	; 0x28f
    1a00:	e08f0000 	add	r0, pc, r0
    1a04:	eaffff68 	b	17ac <mpi_egcd+0xa8>
/home/rossierd/soo.tech/soo/optee_os/lib/libutee/tee_api_arith_mpi.c:653
    1a08:	e1a02009 	mov	r2, r9
    1a0c:	e1a01006 	mov	r1, r6
    1a10:	e1a00006 	mov	r0, r6
    1a14:	eb000b70 	bl	47dc <mbedtls_mpi_sub_mpi>
    1a18:	e2502000 	subs	r2, r0, #0
    1a1c:	0afffff0 	beq	19e4 <mpi_egcd+0x2e0>
/home/rossierd/soo.tech/soo/optee_os/lib/libutee/tee_api_arith_mpi.c:653 (discriminator 1)
    1a20:	e59f0308 	ldr	r0, [pc, #776]	; 1d30 <mpi_egcd+0x62c>
    1a24:	e300128d 	movw	r1, #653	; 0x28d
    1a28:	e08f0000 	add	r0, pc, r0
    1a2c:	eaffff5e 	b	17ac <mpi_egcd+0xa8>
/home/rossierd/soo.tech/soo/optee_os/lib/libutee/tee_api_arith_mpi.c:656
    1a30:	e3a01001 	mov	r1, #1
    1a34:	e1a00006 	mov	r0, r6
    1a38:	eb0009f9 	bl	4224 <mbedtls_mpi_shift_r>
    1a3c:	e2502000 	subs	r2, r0, #0
/home/rossierd/soo.tech/soo/optee_os/lib/libutee/tee_api_arith_mpi.c:656 (discriminator 1)
    1a40:	159f02ec 	ldrne	r0, [pc, #748]	; 1d34 <mpi_egcd+0x630>
    1a44:	13a01e29 	movne	r1, #656	; 0x290
    1a48:	108f0000 	addne	r0, pc, r0
    1a4c:	1affff56 	bne	17ac <mpi_egcd+0xa8>
mpi_is_even():
/home/rossierd/soo.tech/soo/optee_os/lib/libutee/tee_api_arith_mpi.c:596
    1a50:	e1a0000a 	mov	r0, sl
    1a54:	ebffff18 	bl	16bc <mpi_is_odd>
mpi_egcd():
/home/rossierd/soo.tech/soo/optee_os/lib/libutee/tee_api_arith_mpi.c:649
    1a58:	e3500000 	cmp	r0, #0
    1a5c:	0affffc6 	beq	197c <mpi_egcd+0x278>
mpi_is_even():
/home/rossierd/soo.tech/soo/optee_os/lib/libutee/tee_api_arith_mpi.c:596
    1a60:	e1a00008 	mov	r0, r8
    1a64:	ebffff14 	bl	16bc <mpi_is_odd>
mpi_egcd():
/home/rossierd/soo.tech/soo/optee_os/lib/libutee/tee_api_arith_mpi.c:659
    1a68:	e3500000 	cmp	r0, #0
    1a6c:	0a00000e 	beq	1aac <mpi_egcd+0x3a8>
/home/rossierd/soo.tech/soo/optee_os/lib/libutee/tee_api_arith_mpi.c:670
    1a70:	e1a01008 	mov	r1, r8
    1a74:	e1a0000a 	mov	r0, sl
    1a78:	eb000a59 	bl	43e4 <mbedtls_mpi_cmp_mpi>
    1a7c:	e3500000 	cmp	r0, #0
    1a80:	ba000052 	blt	1bd0 <mpi_egcd+0x4cc>
/home/rossierd/soo.tech/soo/optee_os/lib/libutee/tee_api_arith_mpi.c:671
    1a84:	e1a02008 	mov	r2, r8
    1a88:	e1a0100a 	mov	r1, sl
    1a8c:	e1a0000a 	mov	r0, sl
    1a90:	eb000b51 	bl	47dc <mbedtls_mpi_sub_mpi>
    1a94:	e2502000 	subs	r2, r0, #0
    1a98:	0a000039 	beq	1b84 <mpi_egcd+0x480>
/home/rossierd/soo.tech/soo/optee_os/lib/libutee/tee_api_arith_mpi.c:671 (discriminator 1)
    1a9c:	e59f0294 	ldr	r0, [pc, #660]	; 1d38 <mpi_egcd+0x634>
    1aa0:	e300129f 	movw	r1, #671	; 0x29f
    1aa4:	e08f0000 	add	r0, pc, r0
    1aa8:	eaffff3f 	b	17ac <mpi_egcd+0xa8>
/home/rossierd/soo.tech/soo/optee_os/lib/libutee/tee_api_arith_mpi.c:660
    1aac:	e3a01001 	mov	r1, #1
    1ab0:	e1a00008 	mov	r0, r8
    1ab4:	eb0009da 	bl	4224 <mbedtls_mpi_shift_r>
    1ab8:	e2502000 	subs	r2, r0, #0
/home/rossierd/soo.tech/soo/optee_os/lib/libutee/tee_api_arith_mpi.c:660 (discriminator 1)
    1abc:	159f0278 	ldrne	r0, [pc, #632]	; 1d3c <mpi_egcd+0x638>
    1ac0:	13a01fa5 	movne	r1, #660	; 0x294
    1ac4:	108f0000 	addne	r0, pc, r0
    1ac8:	1affff37 	bne	17ac <mpi_egcd+0xa8>
/home/rossierd/soo.tech/soo/optee_os/lib/libutee/tee_api_arith_mpi.c:661
    1acc:	e1a00005 	mov	r0, r5
    1ad0:	ebfffef9 	bl	16bc <mpi_is_odd>
    1ad4:	e3500000 	cmp	r0, #0
    1ad8:	0a000009 	beq	1b04 <mpi_egcd+0x400>
/home/rossierd/soo.tech/soo/optee_os/lib/libutee/tee_api_arith_mpi.c:662
    1adc:	e51b2088 	ldr	r2, [fp, #-136]	; 0xffffff78
    1ae0:	e1a01005 	mov	r1, r5
    1ae4:	e1a00005 	mov	r0, r5
    1ae8:	eb000b1a 	bl	4758 <mbedtls_mpi_add_mpi>
    1aec:	e2502000 	subs	r2, r0, #0
    1af0:	0a000010 	beq	1b38 <mpi_egcd+0x434>
/home/rossierd/soo.tech/soo/optee_os/lib/libutee/tee_api_arith_mpi.c:662 (discriminator 1)
    1af4:	e59f0244 	ldr	r0, [pc, #580]	; 1d40 <mpi_egcd+0x63c>
    1af8:	e3001296 	movw	r1, #662	; 0x296
    1afc:	e08f0000 	add	r0, pc, r0
    1b00:	eaffff29 	b	17ac <mpi_egcd+0xa8>
/home/rossierd/soo.tech/soo/optee_os/lib/libutee/tee_api_arith_mpi.c:661 (discriminator 1)
    1b04:	e1a00004 	mov	r0, r4
    1b08:	ebfffeeb 	bl	16bc <mpi_is_odd>
    1b0c:	e3500000 	cmp	r0, #0
    1b10:	1afffff1 	bne	1adc <mpi_egcd+0x3d8>
/home/rossierd/soo.tech/soo/optee_os/lib/libutee/tee_api_arith_mpi.c:665
    1b14:	e3a01001 	mov	r1, #1
    1b18:	e1a00005 	mov	r0, r5
    1b1c:	eb0009c0 	bl	4224 <mbedtls_mpi_shift_r>
    1b20:	e2502000 	subs	r2, r0, #0
    1b24:	0a00000d 	beq	1b60 <mpi_egcd+0x45c>
/home/rossierd/soo.tech/soo/optee_os/lib/libutee/tee_api_arith_mpi.c:665 (discriminator 1)
    1b28:	e59f0214 	ldr	r0, [pc, #532]	; 1d44 <mpi_egcd+0x640>
    1b2c:	e3001299 	movw	r1, #665	; 0x299
    1b30:	e08f0000 	add	r0, pc, r0
    1b34:	eaffff1c 	b	17ac <mpi_egcd+0xa8>
/home/rossierd/soo.tech/soo/optee_os/lib/libutee/tee_api_arith_mpi.c:663
    1b38:	e1a02009 	mov	r2, r9
    1b3c:	e1a01004 	mov	r1, r4
    1b40:	e1a00004 	mov	r0, r4
    1b44:	eb000b24 	bl	47dc <mbedtls_mpi_sub_mpi>
    1b48:	e2502000 	subs	r2, r0, #0
    1b4c:	0afffff0 	beq	1b14 <mpi_egcd+0x410>
/home/rossierd/soo.tech/soo/optee_os/lib/libutee/tee_api_arith_mpi.c:663 (discriminator 1)
    1b50:	e59f01f0 	ldr	r0, [pc, #496]	; 1d48 <mpi_egcd+0x644>
    1b54:	e3001297 	movw	r1, #663	; 0x297
    1b58:	e08f0000 	add	r0, pc, r0
    1b5c:	eaffff12 	b	17ac <mpi_egcd+0xa8>
/home/rossierd/soo.tech/soo/optee_os/lib/libutee/tee_api_arith_mpi.c:666
    1b60:	e3a01001 	mov	r1, #1
    1b64:	e1a00004 	mov	r0, r4
    1b68:	eb0009ad 	bl	4224 <mbedtls_mpi_shift_r>
    1b6c:	e2502000 	subs	r2, r0, #0
    1b70:	0affffba 	beq	1a60 <mpi_egcd+0x35c>
/home/rossierd/soo.tech/soo/optee_os/lib/libutee/tee_api_arith_mpi.c:666 (discriminator 1)
    1b74:	e59f01d0 	ldr	r0, [pc, #464]	; 1d4c <mpi_egcd+0x648>
    1b78:	e300129a 	movw	r1, #666	; 0x29a
    1b7c:	e08f0000 	add	r0, pc, r0
    1b80:	eaffff09 	b	17ac <mpi_egcd+0xa8>
/home/rossierd/soo.tech/soo/optee_os/lib/libutee/tee_api_arith_mpi.c:672
    1b84:	e1a02005 	mov	r2, r5
    1b88:	e1a01007 	mov	r1, r7
    1b8c:	e1a00007 	mov	r0, r7
    1b90:	eb000b11 	bl	47dc <mbedtls_mpi_sub_mpi>
    1b94:	e2502000 	subs	r2, r0, #0
/home/rossierd/soo.tech/soo/optee_os/lib/libutee/tee_api_arith_mpi.c:672 (discriminator 1)
    1b98:	159f01b0 	ldrne	r0, [pc, #432]	; 1d50 <mpi_egcd+0x64c>
    1b9c:	13a01e2a 	movne	r1, #672	; 0x2a0
    1ba0:	108f0000 	addne	r0, pc, r0
    1ba4:	1affff00 	bne	17ac <mpi_egcd+0xa8>
/home/rossierd/soo.tech/soo/optee_os/lib/libutee/tee_api_arith_mpi.c:673
    1ba8:	e1a02004 	mov	r2, r4
    1bac:	e1a01006 	mov	r1, r6
    1bb0:	e1a00006 	mov	r0, r6
    1bb4:	eb000b08 	bl	47dc <mbedtls_mpi_sub_mpi>
    1bb8:	e2502000 	subs	r2, r0, #0
    1bbc:	0a00001e 	beq	1c3c <mpi_egcd+0x538>
/home/rossierd/soo.tech/soo/optee_os/lib/libutee/tee_api_arith_mpi.c:673 (discriminator 1)
    1bc0:	e59f018c 	ldr	r0, [pc, #396]	; 1d54 <mpi_egcd+0x650>
    1bc4:	e30012a1 	movw	r1, #673	; 0x2a1
    1bc8:	e08f0000 	add	r0, pc, r0
    1bcc:	eafffef6 	b	17ac <mpi_egcd+0xa8>
/home/rossierd/soo.tech/soo/optee_os/lib/libutee/tee_api_arith_mpi.c:675
    1bd0:	e1a0200a 	mov	r2, sl
    1bd4:	e1a01008 	mov	r1, r8
    1bd8:	e1a00008 	mov	r0, r8
    1bdc:	eb000afe 	bl	47dc <mbedtls_mpi_sub_mpi>
    1be0:	e2502000 	subs	r2, r0, #0
/home/rossierd/soo.tech/soo/optee_os/lib/libutee/tee_api_arith_mpi.c:675 (discriminator 1)
    1be4:	159f016c 	ldrne	r0, [pc, #364]	; 1d58 <mpi_egcd+0x654>
    1be8:	130012a3 	movwne	r1, #675	; 0x2a3
    1bec:	108f0000 	addne	r0, pc, r0
    1bf0:	1afffeed 	bne	17ac <mpi_egcd+0xa8>
/home/rossierd/soo.tech/soo/optee_os/lib/libutee/tee_api_arith_mpi.c:676
    1bf4:	e1a02007 	mov	r2, r7
    1bf8:	e1a01005 	mov	r1, r5
    1bfc:	e1a00005 	mov	r0, r5
    1c00:	eb000af5 	bl	47dc <mbedtls_mpi_sub_mpi>
    1c04:	e2502000 	subs	r2, r0, #0
/home/rossierd/soo.tech/soo/optee_os/lib/libutee/tee_api_arith_mpi.c:676 (discriminator 1)
    1c08:	159f014c 	ldrne	r0, [pc, #332]	; 1d5c <mpi_egcd+0x658>
    1c0c:	13a01fa9 	movne	r1, #676	; 0x2a4
    1c10:	108f0000 	addne	r0, pc, r0
    1c14:	1afffee4 	bne	17ac <mpi_egcd+0xa8>
/home/rossierd/soo.tech/soo/optee_os/lib/libutee/tee_api_arith_mpi.c:677
    1c18:	e1a02006 	mov	r2, r6
    1c1c:	e1a01004 	mov	r1, r4
    1c20:	e1a00004 	mov	r0, r4
    1c24:	eb000aec 	bl	47dc <mbedtls_mpi_sub_mpi>
    1c28:	e2502000 	subs	r2, r0, #0
/home/rossierd/soo.tech/soo/optee_os/lib/libutee/tee_api_arith_mpi.c:677 (discriminator 1)
    1c2c:	159f012c 	ldrne	r0, [pc, #300]	; 1d60 <mpi_egcd+0x65c>
    1c30:	130012a5 	movwne	r1, #677	; 0x2a5
    1c34:	108f0000 	addne	r0, pc, r0
    1c38:	1afffedb 	bne	17ac <mpi_egcd+0xa8>
/home/rossierd/soo.tech/soo/optee_os/lib/libutee/tee_api_arith_mpi.c:648
    1c3c:	e3a01000 	mov	r1, #0
    1c40:	e1a0000a 	mov	r0, sl
    1c44:	eb000a29 	bl	44f0 <mbedtls_mpi_cmp_int>
    1c48:	e3500000 	cmp	r0, #0
    1c4c:	1affff7f 	bne	1a50 <mpi_egcd+0x34c>
/home/rossierd/soo.tech/soo/optee_os/lib/libutee/tee_api_arith_mpi.c:681
    1c50:	e1a01005 	mov	r1, r5
    1c54:	e51b0090 	ldr	r0, [fp, #-144]	; 0xffffff70
    1c58:	eb0007b7 	bl	3b3c <mbedtls_mpi_copy>
    1c5c:	e2502000 	subs	r2, r0, #0
/home/rossierd/soo.tech/soo/optee_os/lib/libutee/tee_api_arith_mpi.c:681 (discriminator 1)
    1c60:	159f00fc 	ldrne	r0, [pc, #252]	; 1d64 <mpi_egcd+0x660>
    1c64:	130012a9 	movwne	r1, #681	; 0x2a9
    1c68:	108f0000 	addne	r0, pc, r0
    1c6c:	1afffece 	bne	17ac <mpi_egcd+0xa8>
/home/rossierd/soo.tech/soo/optee_os/lib/libutee/tee_api_arith_mpi.c:682
    1c70:	e1a01004 	mov	r1, r4
    1c74:	e51b0094 	ldr	r0, [fp, #-148]	; 0xffffff6c
    1c78:	eb0007af 	bl	3b3c <mbedtls_mpi_copy>
    1c7c:	e2502000 	subs	r2, r0, #0
/home/rossierd/soo.tech/soo/optee_os/lib/libutee/tee_api_arith_mpi.c:682 (discriminator 1)
    1c80:	159f00e0 	ldrne	r0, [pc, #224]	; 1d68 <mpi_egcd+0x664>
    1c84:	130012aa 	movwne	r1, #682	; 0x2aa
    1c88:	108f0000 	addne	r0, pc, r0
    1c8c:	1afffec6 	bne	17ac <mpi_egcd+0xa8>
/home/rossierd/soo.tech/soo/optee_os/lib/libutee/tee_api_arith_mpi.c:683
    1c90:	e1a00008 	mov	r0, r8
    1c94:	e51b108c 	ldr	r1, [fp, #-140]	; 0xffffff74
    1c98:	eb000922 	bl	4128 <mbedtls_mpi_shift_l>
    1c9c:	e2502000 	subs	r2, r0, #0
/home/rossierd/soo.tech/soo/optee_os/lib/libutee/tee_api_arith_mpi.c:683 (discriminator 1)
    1ca0:	159f00c4 	ldrne	r0, [pc, #196]	; 1d6c <mpi_egcd+0x668>
    1ca4:	130012ab 	movwne	r1, #683	; 0x2ab
    1ca8:	108f0000 	addne	r0, pc, r0
    1cac:	1afffebe 	bne	17ac <mpi_egcd+0xa8>
/home/rossierd/soo.tech/soo/optee_os/lib/libutee/tee_api_arith_mpi.c:686
    1cb0:	e1a00007 	mov	r0, r7
    1cb4:	eb0006f3 	bl	3888 <mbedtls_mpi_free>
/home/rossierd/soo.tech/soo/optee_os/lib/libutee/tee_api_arith_mpi.c:687
    1cb8:	e1a00006 	mov	r0, r6
    1cbc:	eb0006f1 	bl	3888 <mbedtls_mpi_free>
/home/rossierd/soo.tech/soo/optee_os/lib/libutee/tee_api_arith_mpi.c:688
    1cc0:	e1a00005 	mov	r0, r5
    1cc4:	eb0006ef 	bl	3888 <mbedtls_mpi_free>
/home/rossierd/soo.tech/soo/optee_os/lib/libutee/tee_api_arith_mpi.c:689
    1cc8:	e1a00004 	mov	r0, r4
    1ccc:	eb0006ed 	bl	3888 <mbedtls_mpi_free>
/home/rossierd/soo.tech/soo/optee_os/lib/libutee/tee_api_arith_mpi.c:690
    1cd0:	e1a00009 	mov	r0, r9
    1cd4:	eb0006eb 	bl	3888 <mbedtls_mpi_free>
/home/rossierd/soo.tech/soo/optee_os/lib/libutee/tee_api_arith_mpi.c:691
    1cd8:	e51b0088 	ldr	r0, [fp, #-136]	; 0xffffff78
    1cdc:	eb0006e9 	bl	3888 <mbedtls_mpi_free>
/home/rossierd/soo.tech/soo/optee_os/lib/libutee/tee_api_arith_mpi.c:692
    1ce0:	e24b0038 	sub	r0, fp, #56	; 0x38
    1ce4:	eb0006e7 	bl	3888 <mbedtls_mpi_free>
/home/rossierd/soo.tech/soo/optee_os/lib/libutee/tee_api_arith_mpi.c:693
    1ce8:	e24bd028 	sub	sp, fp, #40	; 0x28
    1cec:	e89daff0 	ldm	sp, {r4, r5, r6, r7, r8, r9, sl, fp, sp, pc}
    1cf0:	00007e1a 	.word	0x00007e1a
    1cf4:	00007df6 	.word	0x00007df6
    1cf8:	00007dd2 	.word	0x00007dd2
    1cfc:	00007db2 	.word	0x00007db2
    1d00:	00007d8a 	.word	0x00007d8a
    1d04:	00007d6a 	.word	0x00007d6a
    1d08:	00007d32 	.word	0x00007d32
    1d0c:	00007cf2 	.word	0x00007cf2
    1d10:	00007cd2 	.word	0x00007cd2
    1d14:	00007cb2 	.word	0x00007cb2
    1d18:	00007c92 	.word	0x00007c92
    1d1c:	00007c72 	.word	0x00007c72
    1d20:	00007c4e 	.word	0x00007c4e
    1d24:	00007c2e 	.word	0x00007c2e
    1d28:	00007bf6 	.word	0x00007bf6
    1d2c:	00007bc2 	.word	0x00007bc2
    1d30:	00007b9a 	.word	0x00007b9a
    1d34:	00007b7a 	.word	0x00007b7a
    1d38:	00007b1e 	.word	0x00007b1e
    1d3c:	00007afe 	.word	0x00007afe
    1d40:	00007ac6 	.word	0x00007ac6
    1d44:	00007a92 	.word	0x00007a92
    1d48:	00007a6a 	.word	0x00007a6a
    1d4c:	00007a46 	.word	0x00007a46
    1d50:	00007a22 	.word	0x00007a22
    1d54:	000079fa 	.word	0x000079fa
    1d58:	000079d6 	.word	0x000079d6
    1d5c:	000079b2 	.word	0x000079b2
    1d60:	0000798e 	.word	0x0000798e
    1d64:	0000795a 	.word	0x0000795a
    1d68:	0000793a 	.word	0x0000793a
    1d6c:	0000791a 	.word	0x0000791a

00001d70 <_TEE_MathAPI_Init>:
_TEE_MathAPI_Init():
/home/rossierd/soo.tech/soo/optee_os/lib/libutee/tee_api_arith_mpi.c:47
    1d70:	e59f0050 	ldr	r0, [pc, #80]	; 1dc8 <_TEE_MathAPI_Init+0x58>
/home/rossierd/soo.tech/soo/optee_os/lib/libutee/tee_api_arith_mpi.c:44
    1d74:	e1a0c00d 	mov	ip, sp
/home/rossierd/soo.tech/soo/optee_os/lib/libutee/tee_api_arith_mpi.c:47
    1d78:	e3a02000 	mov	r2, #0
    1d7c:	e3a01a03 	mov	r1, #12288	; 0x3000
/home/rossierd/soo.tech/soo/optee_os/lib/libutee/tee_api_arith_mpi.c:44
    1d80:	e92dd830 	push	{r4, r5, fp, ip, lr, pc}
    1d84:	e24cb004 	sub	fp, ip, #4
    1d88:	e59f403c 	ldr	r4, [pc, #60]	; 1dcc <_TEE_MathAPI_Init+0x5c>
/home/rossierd/soo.tech/soo/optee_os/lib/libutee/tee_api_arith_mpi.c:47
    1d8c:	e08f0000 	add	r0, pc, r0
    1d90:	eb001c39 	bl	8e7c <mempool_alloc_pool>
    1d94:	e59f3034 	ldr	r3, [pc, #52]	; 1dd0 <_TEE_MathAPI_Init+0x60>
/home/rossierd/soo.tech/soo/optee_os/lib/libutee/tee_api_arith_mpi.c:48
    1d98:	e3500000 	cmp	r0, #0
/home/rossierd/soo.tech/soo/optee_os/lib/libutee/tee_api_arith_mpi.c:44
    1d9c:	e08f4004 	add	r4, pc, r4
/home/rossierd/soo.tech/soo/optee_os/lib/libutee/tee_api_arith_mpi.c:47
    1da0:	e7943003 	ldr	r3, [r4, r3]
    1da4:	e5830000 	str	r0, [r3]
/home/rossierd/soo.tech/soo/optee_os/lib/libutee/tee_api_arith_mpi.c:48
    1da8:	189da830 	ldmne	sp, {r4, r5, fp, sp, pc}
/home/rossierd/soo.tech/soo/optee_os/lib/libutee/tee_api_arith_mpi.c:49
    1dac:	e59f0020 	ldr	r0, [pc, #32]	; 1dd4 <_TEE_MathAPI_Init+0x64>
    1db0:	e3a01031 	mov	r1, #49	; 0x31
    1db4:	e59f201c 	ldr	r2, [pc, #28]	; 1dd8 <_TEE_MathAPI_Init+0x68>
    1db8:	e08f0000 	add	r0, pc, r0
    1dbc:	e08f2002 	add	r2, pc, r2
    1dc0:	e280001f 	add	r0, r0, #31
    1dc4:	eb0004b7 	bl	30a8 <api_panic>
    1dc8:	0000a540 	.word	0x0000a540
    1dcc:	0000a2dc 	.word	0x0000a2dc
    1dd0:	00000038 	.word	0x00000038
    1dd4:	0000780a 	.word	0x0000780a
    1dd8:	00007988 	.word	0x00007988

00001ddc <TEE_BigIntInit>:
TEE_BigIntInit():
/home/rossierd/soo.tech/soo/optee_os/lib/libutee/tee_api_arith_mpi.c:120
    1ddc:	e281201f 	add	r2, r1, #31
/home/rossierd/soo.tech/soo/optee_os/lib/libutee/tee_api_arith_mpi.c:119
    1de0:	e1a0c00d 	mov	ip, sp
/home/rossierd/soo.tech/soo/optee_os/lib/libutee/tee_api_arith_mpi.c:120
    1de4:	e1a022a2 	lsr	r2, r2, #5
/home/rossierd/soo.tech/soo/optee_os/lib/libutee/tee_api_arith_mpi.c:119
    1de8:	e92dd830 	push	{r4, r5, fp, ip, lr, pc}
    1dec:	e1a04001 	mov	r4, r1
/home/rossierd/soo.tech/soo/optee_os/lib/libutee/tee_api_arith_mpi.c:120
    1df0:	e2822002 	add	r2, r2, #2
/home/rossierd/soo.tech/soo/optee_os/lib/libutee/tee_api_arith_mpi.c:119
    1df4:	e24cb004 	sub	fp, ip, #4
/home/rossierd/soo.tech/soo/optee_os/lib/libutee/tee_api_arith_mpi.c:120
    1df8:	e1a02102 	lsl	r2, r2, #2
    1dfc:	e3a01000 	mov	r1, #0
/home/rossierd/soo.tech/soo/optee_os/lib/libutee/tee_api_arith_mpi.c:119
    1e00:	e1a05000 	mov	r5, r0
/home/rossierd/soo.tech/soo/optee_os/lib/libutee/tee_api_arith_mpi.c:120
    1e04:	eb001830 	bl	7ecc <memset>
/home/rossierd/soo.tech/soo/optee_os/lib/libutee/tee_api_arith_mpi.c:125
    1e08:	e3a03001 	mov	r3, #1
/home/rossierd/soo.tech/soo/optee_os/lib/libutee/tee_api_arith_mpi.c:126
    1e0c:	e2444002 	sub	r4, r4, #2
/home/rossierd/soo.tech/soo/optee_os/lib/libutee/tee_api_arith_mpi.c:125
    1e10:	e5853000 	str	r3, [r5]
/home/rossierd/soo.tech/soo/optee_os/lib/libutee/tee_api_arith_mpi.c:126
    1e14:	e3023710 	movw	r3, #10000	; 0x2710
    1e18:	e1540003 	cmp	r4, r3
    1e1c:	9a000006 	bls	1e3c <TEE_BigIntInit+0x60>
/home/rossierd/soo.tech/soo/optee_os/lib/libutee/tee_api_arith_mpi.c:127
    1e20:	e59f001c 	ldr	r0, [pc, #28]	; 1e44 <TEE_BigIntInit+0x68>
    1e24:	e3a0107f 	mov	r1, #127	; 0x7f
    1e28:	e59f2018 	ldr	r2, [pc, #24]	; 1e48 <TEE_BigIntInit+0x6c>
    1e2c:	e08f0000 	add	r0, pc, r0
    1e30:	e08f2002 	add	r2, pc, r2
    1e34:	e2800031 	add	r0, r0, #49	; 0x31
    1e38:	eb00049a 	bl	30a8 <api_panic>
/home/rossierd/soo.tech/soo/optee_os/lib/libutee/tee_api_arith_mpi.c:128
    1e3c:	e1c540b4 	strh	r4, [r5, #4]
    1e40:	e89da830 	ldm	sp, {r4, r5, fp, sp, pc}
    1e44:	00007796 	.word	0x00007796
    1e48:	00007935 	.word	0x00007935

00001e4c <TEE_BigIntConvertFromOctetString>:
TEE_BigIntConvertFromOctetString():
/home/rossierd/soo.tech/soo/optee_os/lib/libutee/tee_api_arith_mpi.c:134
    1e4c:	e1a0c00d 	mov	ip, sp
    1e50:	e92dd9f0 	push	{r4, r5, r6, r7, r8, fp, ip, lr, pc}
    1e54:	e24cb004 	sub	fp, ip, #4
    1e58:	e24dd014 	sub	sp, sp, #20
get_mpi():
/home/rossierd/soo.tech/soo/optee_os/lib/libutee/tee_api_arith_mpi.c:101
    1e5c:	e24b5030 	sub	r5, fp, #48	; 0x30
TEE_BigIntConvertFromOctetString():
/home/rossierd/soo.tech/soo/optee_os/lib/libutee/tee_api_arith_mpi.c:134
    1e60:	e1a04001 	mov	r4, r1
    1e64:	e1a08002 	mov	r8, r2
    1e68:	e1a07000 	mov	r7, r0
get_mpi():
/home/rossierd/soo.tech/soo/optee_os/lib/libutee/tee_api_arith_mpi.c:101
    1e6c:	e1a00005 	mov	r0, r5
TEE_BigIntConvertFromOctetString():
/home/rossierd/soo.tech/soo/optee_os/lib/libutee/tee_api_arith_mpi.c:134
    1e70:	e1a06003 	mov	r6, r3
get_mpi():
/home/rossierd/soo.tech/soo/optee_os/lib/libutee/tee_api_arith_mpi.c:101
    1e74:	eb000670 	bl	383c <mbedtls_mpi_init_mempool>
TEE_BigIntConvertFromOctetString():
/home/rossierd/soo.tech/soo/optee_os/lib/libutee/tee_api_arith_mpi.c:140
    1e78:	e1a01004 	mov	r1, r4
    1e7c:	e1a02008 	mov	r2, r8
    1e80:	e1a00005 	mov	r0, r5
    1e84:	eb00084c 	bl	3fbc <mbedtls_mpi_read_binary>
    1e88:	e2504000 	subs	r4, r0, #0
    1e8c:	1a00000e 	bne	1ecc <TEE_BigIntConvertFromOctetString+0x80>
/home/rossierd/soo.tech/soo/optee_os/lib/libutee/tee_api_arith_mpi.c:145
    1e90:	e3560000 	cmp	r6, #0
    1e94:	aa000003 	bge	1ea8 <TEE_BigIntConvertFromOctetString+0x5c>
/home/rossierd/soo.tech/soo/optee_os/lib/libutee/tee_api_arith_mpi.c:146
    1e98:	e3e03000 	mvn	r3, #0
/home/rossierd/soo.tech/soo/optee_os/lib/libutee/tee_api_arith_mpi.c:148
    1e9c:	e3540000 	cmp	r4, #0
/home/rossierd/soo.tech/soo/optee_os/lib/libutee/tee_api_arith_mpi.c:146
    1ea0:	e14b33b0 	strh	r3, [fp, #-48]	; 0xffffffd0
/home/rossierd/soo.tech/soo/optee_os/lib/libutee/tee_api_arith_mpi.c:148
    1ea4:	1a000003 	bne	1eb8 <TEE_BigIntConvertFromOctetString+0x6c>
/home/rossierd/soo.tech/soo/optee_os/lib/libutee/tee_api_arith_mpi.c:149
    1ea8:	e1a01007 	mov	r1, r7
    1eac:	e1a00005 	mov	r0, r5
    1eb0:	ebfffda0 	bl	1538 <copy_mpi_to_bigint>
    1eb4:	e1a04000 	mov	r4, r0
/home/rossierd/soo.tech/soo/optee_os/lib/libutee/tee_api_arith_mpi.c:151
    1eb8:	e1a00005 	mov	r0, r5
    1ebc:	eb000671 	bl	3888 <mbedtls_mpi_free>
/home/rossierd/soo.tech/soo/optee_os/lib/libutee/tee_api_arith_mpi.c:154
    1ec0:	e1a00004 	mov	r0, r4
    1ec4:	e24bd020 	sub	sp, fp, #32
    1ec8:	e89da9f0 	ldm	sp, {r4, r5, r6, r7, r8, fp, sp, pc}
/home/rossierd/soo.tech/soo/optee_os/lib/libutee/tee_api_arith_mpi.c:145
    1ecc:	e3560000 	cmp	r6, #0
/home/rossierd/soo.tech/soo/optee_os/lib/libutee/tee_api_arith_mpi.c:141
    1ed0:	e59f4004 	ldr	r4, [pc, #4]	; 1edc <TEE_BigIntConvertFromOctetString+0x90>
/home/rossierd/soo.tech/soo/optee_os/lib/libutee/tee_api_arith_mpi.c:145
    1ed4:	aafffff7 	bge	1eb8 <TEE_BigIntConvertFromOctetString+0x6c>
    1ed8:	eaffffee 	b	1e98 <TEE_BigIntConvertFromOctetString+0x4c>
    1edc:	ffff300f 	.word	0xffff300f

00001ee0 <TEE_BigIntConvertToOctetString>:
TEE_BigIntConvertToOctetString():
/home/rossierd/soo.tech/soo/optee_os/lib/libutee/tee_api_arith_mpi.c:158
    1ee0:	e1a0c00d 	mov	ip, sp
    1ee4:	e92dd8f0 	push	{r4, r5, r6, r7, fp, ip, lr, pc}
    1ee8:	e24cb004 	sub	fp, ip, #4
    1eec:	e24dd010 	sub	sp, sp, #16
/home/rossierd/soo.tech/soo/optee_os/lib/libutee/tee_api_arith_mpi.c:163
    1ef0:	e24b5028 	sub	r5, fp, #40	; 0x28
/home/rossierd/soo.tech/soo/optee_os/lib/libutee/tee_api_arith_mpi.c:158
    1ef4:	e1a04000 	mov	r4, r0
    1ef8:	e1a07001 	mov	r7, r1
/home/rossierd/soo.tech/soo/optee_os/lib/libutee/tee_api_arith_mpi.c:163
    1efc:	e1a00005 	mov	r0, r5
    1f00:	e1a01002 	mov	r1, r2
    1f04:	ebfffd67 	bl	14a8 <get_mpi>
/home/rossierd/soo.tech/soo/optee_os/lib/libutee/tee_api_arith_mpi.c:165
    1f08:	e1a00005 	mov	r0, r5
    1f0c:	eb000823 	bl	3fa0 <mbedtls_mpi_size>
/home/rossierd/soo.tech/soo/optee_os/lib/libutee/tee_api_arith_mpi.c:166
    1f10:	e5973000 	ldr	r3, [r7]
/home/rossierd/soo.tech/soo/optee_os/lib/libutee/tee_api_arith_mpi.c:165
    1f14:	e1a06000 	mov	r6, r0
/home/rossierd/soo.tech/soo/optee_os/lib/libutee/tee_api_arith_mpi.c:166
    1f18:	e1500003 	cmp	r0, r3
/home/rossierd/soo.tech/soo/optee_os/lib/libutee/tee_api_arith_mpi.c:169
    1f1c:	859f4048 	ldrhi	r4, [pc, #72]	; 1f6c <TEE_BigIntConvertToOctetString+0x8c>
/home/rossierd/soo.tech/soo/optee_os/lib/libutee/tee_api_arith_mpi.c:166
    1f20:	8a00000b 	bhi	1f54 <TEE_BigIntConvertToOctetString+0x74>
/home/rossierd/soo.tech/soo/optee_os/lib/libutee/tee_api_arith_mpi.c:167
    1f24:	e1a02000 	mov	r2, r0
    1f28:	e1a01004 	mov	r1, r4
    1f2c:	e1a00005 	mov	r0, r5
    1f30:	eb00084f 	bl	4074 <mbedtls_mpi_write_binary>
    1f34:	e2502000 	subs	r2, r0, #0
/home/rossierd/soo.tech/soo/optee_os/lib/libutee/tee_api_arith_mpi.c:159
    1f38:	01a04002 	moveq	r4, r2
/home/rossierd/soo.tech/soo/optee_os/lib/libutee/tee_api_arith_mpi.c:167
    1f3c:	0a000004 	beq	1f54 <TEE_BigIntConvertToOctetString+0x74>
/home/rossierd/soo.tech/soo/optee_os/lib/libutee/tee_api_arith_mpi.c:167 (discriminator 1)
    1f40:	e59f0028 	ldr	r0, [pc, #40]	; 1f70 <TEE_BigIntConvertToOctetString+0x90>
    1f44:	e3a010a7 	mov	r1, #167	; 0xa7
    1f48:	e08f0000 	add	r0, pc, r0
    1f4c:	e2800040 	add	r0, r0, #64	; 0x40
    1f50:	ebfffd46 	bl	1470 <mpi_panic>
/home/rossierd/soo.tech/soo/optee_os/lib/libutee/tee_api_arith_mpi.c:173
    1f54:	e1a00005 	mov	r0, r5
/home/rossierd/soo.tech/soo/optee_os/lib/libutee/tee_api_arith_mpi.c:171
    1f58:	e5876000 	str	r6, [r7]
/home/rossierd/soo.tech/soo/optee_os/lib/libutee/tee_api_arith_mpi.c:173
    1f5c:	eb000649 	bl	3888 <mbedtls_mpi_free>
/home/rossierd/soo.tech/soo/optee_os/lib/libutee/tee_api_arith_mpi.c:176
    1f60:	e1a00004 	mov	r0, r4
    1f64:	e24bd01c 	sub	sp, fp, #28
    1f68:	e89da8f0 	ldm	sp, {r4, r5, r6, r7, fp, sp, pc}
    1f6c:	ffff0010 	.word	0xffff0010
    1f70:	0000767a 	.word	0x0000767a

00001f74 <TEE_BigIntConvertFromS32>:
TEE_BigIntConvertFromS32():
/home/rossierd/soo.tech/soo/optee_os/lib/libutee/tee_api_arith_mpi.c:179
    1f74:	e1a0c00d 	mov	ip, sp
    1f78:	e92dd870 	push	{r4, r5, r6, fp, ip, lr, pc}
    1f7c:	e24cb004 	sub	fp, ip, #4
    1f80:	e24dd014 	sub	sp, sp, #20
/home/rossierd/soo.tech/soo/optee_os/lib/libutee/tee_api_arith_mpi.c:182
    1f84:	e24b4028 	sub	r4, fp, #40	; 0x28
/home/rossierd/soo.tech/soo/optee_os/lib/libutee/tee_api_arith_mpi.c:179
    1f88:	e1a06001 	mov	r6, r1
    1f8c:	e1a05000 	mov	r5, r0
/home/rossierd/soo.tech/soo/optee_os/lib/libutee/tee_api_arith_mpi.c:182
    1f90:	e1a01000 	mov	r1, r0
    1f94:	e1a00004 	mov	r0, r4
    1f98:	ebfffd42 	bl	14a8 <get_mpi>
/home/rossierd/soo.tech/soo/optee_os/lib/libutee/tee_api_arith_mpi.c:184
    1f9c:	e1a01006 	mov	r1, r6
    1fa0:	e1a00004 	mov	r0, r4
    1fa4:	eb000784 	bl	3dbc <mbedtls_mpi_lset>
    1fa8:	e2502000 	subs	r2, r0, #0
    1fac:	0a000004 	beq	1fc4 <TEE_BigIntConvertFromS32+0x50>
/home/rossierd/soo.tech/soo/optee_os/lib/libutee/tee_api_arith_mpi.c:184 (discriminator 1)
    1fb0:	e59f003c 	ldr	r0, [pc, #60]	; 1ff4 <TEE_BigIntConvertFromS32+0x80>
    1fb4:	e3a010b8 	mov	r1, #184	; 0xb8
    1fb8:	e08f0000 	add	r0, pc, r0
/home/rossierd/soo.tech/soo/optee_os/lib/libutee/tee_api_arith_mpi.c:186 (discriminator 1)
    1fbc:	e280005f 	add	r0, r0, #95	; 0x5f
    1fc0:	ebfffd2a 	bl	1470 <mpi_panic>
/home/rossierd/soo.tech/soo/optee_os/lib/libutee/tee_api_arith_mpi.c:186
    1fc4:	e1a01005 	mov	r1, r5
    1fc8:	e1a00004 	mov	r0, r4
    1fcc:	ebfffd59 	bl	1538 <copy_mpi_to_bigint>
    1fd0:	e2502000 	subs	r2, r0, #0
/home/rossierd/soo.tech/soo/optee_os/lib/libutee/tee_api_arith_mpi.c:186 (discriminator 1)
    1fd4:	159f001c 	ldrne	r0, [pc, #28]	; 1ff8 <TEE_BigIntConvertFromS32+0x84>
    1fd8:	13a010ba 	movne	r1, #186	; 0xba
    1fdc:	108f0000 	addne	r0, pc, r0
    1fe0:	1afffff5 	bne	1fbc <TEE_BigIntConvertFromS32+0x48>
/home/rossierd/soo.tech/soo/optee_os/lib/libutee/tee_api_arith_mpi.c:187
    1fe4:	e1a00004 	mov	r0, r4
    1fe8:	eb000626 	bl	3888 <mbedtls_mpi_free>
/home/rossierd/soo.tech/soo/optee_os/lib/libutee/tee_api_arith_mpi.c:188
    1fec:	e24bd018 	sub	sp, fp, #24
    1ff0:	e89da870 	ldm	sp, {r4, r5, r6, fp, sp, pc}
    1ff4:	0000760a 	.word	0x0000760a
    1ff8:	000075e6 	.word	0x000075e6

00001ffc <TEE_BigIntConvertToS32>:
TEE_BigIntConvertToS32():
/home/rossierd/soo.tech/soo/optee_os/lib/libutee/tee_api_arith_mpi.c:191
    1ffc:	e1a0c00d 	mov	ip, sp
    2000:	e92dd830 	push	{r4, r5, fp, ip, lr, pc}
    2004:	e24cb004 	sub	fp, ip, #4
    2008:	e24dd010 	sub	sp, sp, #16
/home/rossierd/soo.tech/soo/optee_os/lib/libutee/tee_api_arith_mpi.c:196
    200c:	e24b4020 	sub	r4, fp, #32
/home/rossierd/soo.tech/soo/optee_os/lib/libutee/tee_api_arith_mpi.c:191
    2010:	e1a05000 	mov	r5, r0
/home/rossierd/soo.tech/soo/optee_os/lib/libutee/tee_api_arith_mpi.c:196
    2014:	e1a00004 	mov	r0, r4
    2018:	ebfffd22 	bl	14a8 <get_mpi>
/home/rossierd/soo.tech/soo/optee_os/lib/libutee/tee_api_arith_mpi.c:198
    201c:	e3a02004 	mov	r2, #4
    2020:	e24b1024 	sub	r1, fp, #36	; 0x24
    2024:	e1a00004 	mov	r0, r4
    2028:	eb000811 	bl	4074 <mbedtls_mpi_write_binary>
    202c:	e3500000 	cmp	r0, #0
    2030:	1a000019 	bne	209c <TEE_BigIntConvertToS32+0xa0>
/home/rossierd/soo.tech/soo/optee_os/lib/libutee/tee_api_arith_mpi.c:203
    2034:	e15b32f0 	ldrsh	r3, [fp, #-32]	; 0xffffffe0
    2038:	e3530000 	cmp	r3, #0
    203c:	e51b3024 	ldr	r3, [fp, #-36]	; 0xffffffdc
/home/rossierd/soo.tech/soo/optee_os/lib/libutee/tee_api_arith_mpi.c:204
    2040:	e6bf3f33 	rev	r3, r3
/home/rossierd/soo.tech/soo/optee_os/lib/libutee/tee_api_arith_mpi.c:203
    2044:	da000008 	ble	206c <TEE_BigIntConvertToS32+0x70>
/home/rossierd/soo.tech/soo/optee_os/lib/libutee/tee_api_arith_mpi.c:204
    2048:	e3530000 	cmp	r3, #0
    204c:	e5853000 	str	r3, [r5]
    2050:	ba000011 	blt	209c <TEE_BigIntConvertToS32+0xa0>
/home/rossierd/soo.tech/soo/optee_os/lib/libutee/tee_api_arith_mpi.c:192
    2054:	e3a05000 	mov	r5, #0
/home/rossierd/soo.tech/soo/optee_os/lib/libutee/tee_api_arith_mpi.c:212
    2058:	e1a00004 	mov	r0, r4
    205c:	eb000609 	bl	3888 <mbedtls_mpi_free>
/home/rossierd/soo.tech/soo/optee_os/lib/libutee/tee_api_arith_mpi.c:215
    2060:	e1a00005 	mov	r0, r5
    2064:	e24bd014 	sub	sp, fp, #20
    2068:	e89da830 	ldm	sp, {r4, r5, fp, sp, pc}
/home/rossierd/soo.tech/soo/optee_os/lib/libutee/tee_api_arith_mpi.c:207
    206c:	e3530000 	cmp	r3, #0
    2070:	e2632000 	rsb	r2, r3, #0
    2074:	0a000003 	beq	2088 <TEE_BigIntConvertToS32+0x8c>
    2078:	e3520000 	cmp	r2, #0
    207c:	ba000003 	blt	2090 <TEE_BigIntConvertToS32+0x94>
    2080:	e3a00001 	mov	r0, #1
    2084:	ea000001 	b	2090 <TEE_BigIntConvertToS32+0x94>
    2088:	e3520000 	cmp	r2, #0
    208c:	bafffffb 	blt	2080 <TEE_BigIntConvertToS32+0x84>
    2090:	e3500000 	cmp	r0, #0
    2094:	e5852000 	str	r2, [r5]
    2098:	0affffed 	beq	2054 <TEE_BigIntConvertToS32+0x58>
/home/rossierd/soo.tech/soo/optee_os/lib/libutee/tee_api_arith_mpi.c:205
    209c:	e59f5000 	ldr	r5, [pc]	; 20a4 <TEE_BigIntConvertToS32+0xa8>
    20a0:	eaffffec 	b	2058 <TEE_BigIntConvertToS32+0x5c>
    20a4:	ffff300f 	.word	0xffff300f

000020a8 <TEE_BigIntCmp>:
TEE_BigIntCmp():
/home/rossierd/soo.tech/soo/optee_os/lib/libutee/tee_api_arith_mpi.c:218
    20a8:	e1a0c00d 	mov	ip, sp
    20ac:	e92dd870 	push	{r4, r5, r6, fp, ip, lr, pc}
    20b0:	e24cb004 	sub	fp, ip, #4
    20b4:	e24dd01c 	sub	sp, sp, #28
/home/rossierd/soo.tech/soo/optee_os/lib/libutee/tee_api_arith_mpi.c:223
    20b8:	e24b5034 	sub	r5, fp, #52	; 0x34
/home/rossierd/soo.tech/soo/optee_os/lib/libutee/tee_api_arith_mpi.c:218
    20bc:	e1a04001 	mov	r4, r1
/home/rossierd/soo.tech/soo/optee_os/lib/libutee/tee_api_arith_mpi.c:223
    20c0:	e1a01000 	mov	r1, r0
    20c4:	e1a00005 	mov	r0, r5
    20c8:	ebfffcf6 	bl	14a8 <get_mpi>
/home/rossierd/soo.tech/soo/optee_os/lib/libutee/tee_api_arith_mpi.c:224
    20cc:	e1a01004 	mov	r1, r4
    20d0:	e24b4028 	sub	r4, fp, #40	; 0x28
    20d4:	e1a00004 	mov	r0, r4
    20d8:	ebfffcf2 	bl	14a8 <get_mpi>
/home/rossierd/soo.tech/soo/optee_os/lib/libutee/tee_api_arith_mpi.c:226
    20dc:	e1a01004 	mov	r1, r4
    20e0:	e1a00005 	mov	r0, r5
    20e4:	eb0008be 	bl	43e4 <mbedtls_mpi_cmp_mpi>
    20e8:	e1a06000 	mov	r6, r0
/home/rossierd/soo.tech/soo/optee_os/lib/libutee/tee_api_arith_mpi.c:228
    20ec:	e1a00005 	mov	r0, r5
    20f0:	eb0005e4 	bl	3888 <mbedtls_mpi_free>
/home/rossierd/soo.tech/soo/optee_os/lib/libutee/tee_api_arith_mpi.c:229
    20f4:	e1a00004 	mov	r0, r4
    20f8:	eb0005e2 	bl	3888 <mbedtls_mpi_free>
/home/rossierd/soo.tech/soo/optee_os/lib/libutee/tee_api_arith_mpi.c:232
    20fc:	e1a00006 	mov	r0, r6
    2100:	e24bd018 	sub	sp, fp, #24
    2104:	e89da870 	ldm	sp, {r4, r5, r6, fp, sp, pc}

00002108 <TEE_BigIntCmpS32>:
TEE_BigIntCmpS32():
/home/rossierd/soo.tech/soo/optee_os/lib/libutee/tee_api_arith_mpi.c:235
    2108:	e1a0c00d 	mov	ip, sp
    210c:	e92dd830 	push	{r4, r5, fp, ip, lr, pc}
    2110:	e24cb004 	sub	fp, ip, #4
    2114:	e24dd010 	sub	sp, sp, #16
/home/rossierd/soo.tech/soo/optee_os/lib/libutee/tee_api_arith_mpi.c:239
    2118:	e24b4020 	sub	r4, fp, #32
/home/rossierd/soo.tech/soo/optee_os/lib/libutee/tee_api_arith_mpi.c:235
    211c:	e1a05001 	mov	r5, r1
/home/rossierd/soo.tech/soo/optee_os/lib/libutee/tee_api_arith_mpi.c:239
    2120:	e1a01000 	mov	r1, r0
    2124:	e1a00004 	mov	r0, r4
    2128:	ebfffcde 	bl	14a8 <get_mpi>
/home/rossierd/soo.tech/soo/optee_os/lib/libutee/tee_api_arith_mpi.c:241
    212c:	e1a01005 	mov	r1, r5
    2130:	e1a00004 	mov	r0, r4
    2134:	eb0008ed 	bl	44f0 <mbedtls_mpi_cmp_int>
    2138:	e1a05000 	mov	r5, r0
/home/rossierd/soo.tech/soo/optee_os/lib/libutee/tee_api_arith_mpi.c:243
    213c:	e1a00004 	mov	r0, r4
    2140:	eb0005d0 	bl	3888 <mbedtls_mpi_free>
/home/rossierd/soo.tech/soo/optee_os/lib/libutee/tee_api_arith_mpi.c:246
    2144:	e1a00005 	mov	r0, r5
    2148:	e24bd014 	sub	sp, fp, #20
    214c:	e89da830 	ldm	sp, {r4, r5, fp, sp, pc}

00002150 <bigint_binary_mod>:
bigint_binary_mod():
/home/rossierd/soo.tech/soo/optee_os/lib/libutee/tee_api_arith_mpi.c:356
    2150:	e1a0c00d 	mov	ip, sp
    2154:	e92ddff0 	push	{r4, r5, r6, r7, r8, r9, sl, fp, ip, lr, pc}
    2158:	e24cb004 	sub	fp, ip, #4
    215c:	e24dd04c 	sub	sp, sp, #76	; 0x4c
    2160:	e1a08000 	mov	r8, r0
    2164:	e1a07001 	mov	r7, r1
/home/rossierd/soo.tech/soo/optee_os/lib/libutee/tee_api_arith_mpi.c:357
    2168:	e1a00003 	mov	r0, r3
    216c:	e3a01002 	mov	r1, #2
/home/rossierd/soo.tech/soo/optee_os/lib/libutee/tee_api_arith_mpi.c:356
    2170:	e1a05002 	mov	r5, r2
    2174:	e1a06003 	mov	r6, r3
/home/rossierd/soo.tech/soo/optee_os/lib/libutee/tee_api_arith_mpi.c:357
    2178:	ebffffe2 	bl	2108 <TEE_BigIntCmpS32>
    217c:	e3500000 	cmp	r0, #0
    2180:	aa000006 	bge	21a0 <bigint_binary_mod+0x50>
/home/rossierd/soo.tech/soo/optee_os/lib/libutee/tee_api_arith_mpi.c:358
    2184:	e59f013c 	ldr	r0, [pc, #316]	; 22c8 <bigint_binary_mod+0x178>
    2188:	e3001166 	movw	r1, #358	; 0x166
    218c:	e59f2138 	ldr	r2, [pc, #312]	; 22cc <bigint_binary_mod+0x17c>
    2190:	e08f0000 	add	r0, pc, r0
    2194:	e08f2002 	add	r2, pc, r2
    2198:	e2800078 	add	r0, r0, #120	; 0x78
    219c:	eb0003c1 	bl	30a8 <api_panic>
/home/rossierd/soo.tech/soo/optee_os/lib/libutee/tee_api_arith_mpi.c:368
    21a0:	e24b4068 	sub	r4, fp, #104	; 0x68
    21a4:	e1a01008 	mov	r1, r8
    21a8:	e1a00004 	mov	r0, r4
    21ac:	e24ba05c 	sub	sl, fp, #92	; 0x5c
    21b0:	ebfffcbc 	bl	14a8 <get_mpi>
/home/rossierd/soo.tech/soo/optee_os/lib/libutee/tee_api_arith_mpi.c:369
    21b4:	e24b3044 	sub	r3, fp, #68	; 0x44
    21b8:	e1a01006 	mov	r1, r6
    21bc:	e1a00003 	mov	r0, r3
    21c0:	e50b3070 	str	r3, [fp, #-112]	; 0xffffff90
    21c4:	ebfffcb7 	bl	14a8 <get_mpi>
/home/rossierd/soo.tech/soo/optee_os/lib/libutee/tee_api_arith_mpi.c:371
    21c8:	e1580007 	cmp	r8, r7
/home/rossierd/soo.tech/soo/optee_os/lib/libutee/tee_api_arith_mpi.c:372
    21cc:	01a06004 	moveq	r6, r4
/home/rossierd/soo.tech/soo/optee_os/lib/libutee/tee_api_arith_mpi.c:371
    21d0:	0a000003 	beq	21e4 <bigint_binary_mod+0x94>
/home/rossierd/soo.tech/soo/optee_os/lib/libutee/tee_api_arith_mpi.c:374
    21d4:	e1a01007 	mov	r1, r7
    21d8:	e1a0000a 	mov	r0, sl
/home/rossierd/soo.tech/soo/optee_os/lib/libutee/tee_api_arith_mpi.c:364
    21dc:	e1a0600a 	mov	r6, sl
/home/rossierd/soo.tech/soo/optee_os/lib/libutee/tee_api_arith_mpi.c:374
    21e0:	ebfffcb0 	bl	14a8 <get_mpi>
/home/rossierd/soo.tech/soo/optee_os/lib/libutee/tee_api_arith_mpi.c:376
    21e4:	e1580005 	cmp	r8, r5
    21e8:	e24b9050 	sub	r9, fp, #80	; 0x50
/home/rossierd/soo.tech/soo/optee_os/lib/libutee/tee_api_arith_mpi.c:377
    21ec:	01a05004 	moveq	r5, r4
/home/rossierd/soo.tech/soo/optee_os/lib/libutee/tee_api_arith_mpi.c:376
    21f0:	0a000006 	beq	2210 <bigint_binary_mod+0xc0>
/home/rossierd/soo.tech/soo/optee_os/lib/libutee/tee_api_arith_mpi.c:378
    21f4:	e1570005 	cmp	r7, r5
/home/rossierd/soo.tech/soo/optee_os/lib/libutee/tee_api_arith_mpi.c:379
    21f8:	01a05006 	moveq	r5, r6
/home/rossierd/soo.tech/soo/optee_os/lib/libutee/tee_api_arith_mpi.c:378
    21fc:	0a000003 	beq	2210 <bigint_binary_mod+0xc0>
/home/rossierd/soo.tech/soo/optee_os/lib/libutee/tee_api_arith_mpi.c:381
    2200:	e1a01005 	mov	r1, r5
    2204:	e1a00009 	mov	r0, r9
/home/rossierd/soo.tech/soo/optee_os/lib/libutee/tee_api_arith_mpi.c:365
    2208:	e1a05009 	mov	r5, r9
/home/rossierd/soo.tech/soo/optee_os/lib/libutee/tee_api_arith_mpi.c:381
    220c:	ebfffca5 	bl	14a8 <get_mpi>
get_mpi():
/home/rossierd/soo.tech/soo/optee_os/lib/libutee/tee_api_arith_mpi.c:101
    2210:	e24b7038 	sub	r7, fp, #56	; 0x38
    2214:	e1a00007 	mov	r0, r7
    2218:	eb000587 	bl	383c <mbedtls_mpi_init_mempool>
bigint_binary_mod():
/home/rossierd/soo.tech/soo/optee_os/lib/libutee/tee_api_arith_mpi.c:385
    221c:	e1a02005 	mov	r2, r5
    2220:	e1a01006 	mov	r1, r6
    2224:	e59b3004 	ldr	r3, [fp, #4]
    2228:	e1a00007 	mov	r0, r7
    222c:	e12fff33 	blx	r3
    2230:	e2502000 	subs	r2, r0, #0
    2234:	0a000004 	beq	224c <bigint_binary_mod+0xfc>
/home/rossierd/soo.tech/soo/optee_os/lib/libutee/tee_api_arith_mpi.c:385 (discriminator 1)
    2238:	e59f0090 	ldr	r0, [pc, #144]	; 22d0 <bigint_binary_mod+0x180>
    223c:	e3001181 	movw	r1, #385	; 0x181
    2240:	e08f0000 	add	r0, pc, r0
/home/rossierd/soo.tech/soo/optee_os/lib/libutee/tee_api_arith_mpi.c:386 (discriminator 1)
    2244:	e2800078 	add	r0, r0, #120	; 0x78
    2248:	ebfffc88 	bl	1470 <mpi_panic>
/home/rossierd/soo.tech/soo/optee_os/lib/libutee/tee_api_arith_mpi.c:386
    224c:	e51b2070 	ldr	r2, [fp, #-112]	; 0xffffff90
    2250:	e1a01007 	mov	r1, r7
    2254:	e1a00004 	mov	r0, r4
    2258:	eb000bfc 	bl	5250 <mbedtls_mpi_mod_mpi>
    225c:	e2502000 	subs	r2, r0, #0
/home/rossierd/soo.tech/soo/optee_os/lib/libutee/tee_api_arith_mpi.c:386 (discriminator 1)
    2260:	159f006c 	ldrne	r0, [pc, #108]	; 22d4 <bigint_binary_mod+0x184>
    2264:	13001182 	movwne	r1, #386	; 0x182
    2268:	108f0000 	addne	r0, pc, r0
    226c:	1afffff4 	bne	2244 <bigint_binary_mod+0xf4>
/home/rossierd/soo.tech/soo/optee_os/lib/libutee/tee_api_arith_mpi.c:388
    2270:	e1a01008 	mov	r1, r8
    2274:	e1a00004 	mov	r0, r4
    2278:	ebfffcae 	bl	1538 <copy_mpi_to_bigint>
    227c:	e2502000 	subs	r2, r0, #0
/home/rossierd/soo.tech/soo/optee_os/lib/libutee/tee_api_arith_mpi.c:388 (discriminator 1)
    2280:	159f0050 	ldrne	r0, [pc, #80]	; 22d8 <bigint_binary_mod+0x188>
    2284:	13a01f61 	movne	r1, #388	; 0x184
    2288:	108f0000 	addne	r0, pc, r0
    228c:	1affffec 	bne	2244 <bigint_binary_mod+0xf4>
/home/rossierd/soo.tech/soo/optee_os/lib/libutee/tee_api_arith_mpi.c:389
    2290:	e1a00004 	mov	r0, r4
    2294:	eb00057b 	bl	3888 <mbedtls_mpi_free>
/home/rossierd/soo.tech/soo/optee_os/lib/libutee/tee_api_arith_mpi.c:390
    2298:	e156000a 	cmp	r6, sl
    229c:	1a000001 	bne	22a8 <bigint_binary_mod+0x158>
/home/rossierd/soo.tech/soo/optee_os/lib/libutee/tee_api_arith_mpi.c:391
    22a0:	e1a00006 	mov	r0, r6
    22a4:	eb000577 	bl	3888 <mbedtls_mpi_free>
/home/rossierd/soo.tech/soo/optee_os/lib/libutee/tee_api_arith_mpi.c:392
    22a8:	e1550009 	cmp	r5, r9
    22ac:	1a000001 	bne	22b8 <bigint_binary_mod+0x168>
/home/rossierd/soo.tech/soo/optee_os/lib/libutee/tee_api_arith_mpi.c:393
    22b0:	e1a00005 	mov	r0, r5
    22b4:	eb000573 	bl	3888 <mbedtls_mpi_free>
/home/rossierd/soo.tech/soo/optee_os/lib/libutee/tee_api_arith_mpi.c:394
    22b8:	e1a00007 	mov	r0, r7
    22bc:	eb000571 	bl	3888 <mbedtls_mpi_free>
/home/rossierd/soo.tech/soo/optee_os/lib/libutee/tee_api_arith_mpi.c:395
    22c0:	e24bd028 	sub	sp, fp, #40	; 0x28
    22c4:	e89daff0 	ldm	sp, {r4, r5, r6, r7, r8, r9, sl, fp, sp, pc}
    22c8:	00007432 	.word	0x00007432
    22cc:	000075e2 	.word	0x000075e2
    22d0:	00007382 	.word	0x00007382
    22d4:	0000735a 	.word	0x0000735a
    22d8:	0000733a 	.word	0x0000733a

000022dc <TEE_BigIntShiftRight>:
TEE_BigIntShiftRight():
/home/rossierd/soo.tech/soo/optee_os/lib/libutee/tee_api_arith_mpi.c:249
    22dc:	e1a0c00d 	mov	ip, sp
    22e0:	e92dd9f0 	push	{r4, r5, r6, r7, r8, fp, ip, lr, pc}
    22e4:	e24cb004 	sub	fp, ip, #4
    22e8:	e24dd02c 	sub	sp, sp, #44	; 0x2c
/home/rossierd/soo.tech/soo/optee_os/lib/libutee/tee_api_arith_mpi.c:253
    22ec:	e24b4048 	sub	r4, fp, #72	; 0x48
/home/rossierd/soo.tech/soo/optee_os/lib/libutee/tee_api_arith_mpi.c:249
    22f0:	e1a07000 	mov	r7, r0
    22f4:	e1a06001 	mov	r6, r1
/home/rossierd/soo.tech/soo/optee_os/lib/libutee/tee_api_arith_mpi.c:253
    22f8:	e1a01000 	mov	r1, r0
    22fc:	e1a00004 	mov	r0, r4
/home/rossierd/soo.tech/soo/optee_os/lib/libutee/tee_api_arith_mpi.c:249
    2300:	e1a08002 	mov	r8, r2
/home/rossierd/soo.tech/soo/optee_os/lib/libutee/tee_api_arith_mpi.c:253
    2304:	ebfffc67 	bl	14a8 <get_mpi>
/home/rossierd/soo.tech/soo/optee_os/lib/libutee/tee_api_arith_mpi.c:255
    2308:	e1570006 	cmp	r7, r6
    230c:	1a000009 	bne	2338 <TEE_BigIntShiftRight+0x5c>
/home/rossierd/soo.tech/soo/optee_os/lib/libutee/tee_api_arith_mpi.c:256
    2310:	e1a01008 	mov	r1, r8
    2314:	e1a00004 	mov	r0, r4
    2318:	eb0007c1 	bl	4224 <mbedtls_mpi_shift_r>
    231c:	e2502000 	subs	r2, r0, #0
    2320:	0a00003f 	beq	2424 <TEE_BigIntShiftRight+0x148>
/home/rossierd/soo.tech/soo/optee_os/lib/libutee/tee_api_arith_mpi.c:256 (discriminator 1)
    2324:	e59f0128 	ldr	r0, [pc, #296]	; 2454 <TEE_BigIntShiftRight+0x178>
    2328:	e3a01c01 	mov	r1, #256	; 0x100
    232c:	e08f0000 	add	r0, pc, r0
/home/rossierd/soo.tech/soo/optee_os/lib/libutee/tee_api_arith_mpi.c:263 (discriminator 1)
    2330:	e280008a 	add	r0, r0, #138	; 0x8a
    2334:	ebfffc4d 	bl	1470 <mpi_panic>
/home/rossierd/soo.tech/soo/optee_os/lib/libutee/tee_api_arith_mpi.c:260
    2338:	e24b503c 	sub	r5, fp, #60	; 0x3c
    233c:	e1a01006 	mov	r1, r6
    2340:	e1a00005 	mov	r0, r5
    2344:	ebfffc57 	bl	14a8 <get_mpi>
/home/rossierd/soo.tech/soo/optee_os/lib/libutee/tee_api_arith_mpi.c:262
    2348:	e1a00004 	mov	r0, r4
    234c:	eb000713 	bl	3fa0 <mbedtls_mpi_size>
    2350:	e1a06000 	mov	r6, r0
    2354:	e1a00005 	mov	r0, r5
    2358:	eb000710 	bl	3fa0 <mbedtls_mpi_size>
    235c:	e1560000 	cmp	r6, r0
    2360:	3a000010 	bcc	23a8 <TEE_BigIntShiftRight+0xcc>
/home/rossierd/soo.tech/soo/optee_os/lib/libutee/tee_api_arith_mpi.c:263
    2364:	e1a01005 	mov	r1, r5
    2368:	e1a00004 	mov	r0, r4
    236c:	eb0005f2 	bl	3b3c <mbedtls_mpi_copy>
    2370:	e2502000 	subs	r2, r0, #0
/home/rossierd/soo.tech/soo/optee_os/lib/libutee/tee_api_arith_mpi.c:263 (discriminator 1)
    2374:	159f00dc 	ldrne	r0, [pc, #220]	; 2458 <TEE_BigIntShiftRight+0x17c>
    2378:	13001107 	movwne	r1, #263	; 0x107
    237c:	108f0000 	addne	r0, pc, r0
    2380:	1affffea 	bne	2330 <TEE_BigIntShiftRight+0x54>
/home/rossierd/soo.tech/soo/optee_os/lib/libutee/tee_api_arith_mpi.c:264
    2384:	e1a01008 	mov	r1, r8
    2388:	e1a00004 	mov	r0, r4
    238c:	eb0007a4 	bl	4224 <mbedtls_mpi_shift_r>
    2390:	e2502000 	subs	r2, r0, #0
    2394:	0a000020 	beq	241c <TEE_BigIntShiftRight+0x140>
/home/rossierd/soo.tech/soo/optee_os/lib/libutee/tee_api_arith_mpi.c:264 (discriminator 1)
    2398:	e59f00bc 	ldr	r0, [pc, #188]	; 245c <TEE_BigIntShiftRight+0x180>
    239c:	e3a01f42 	mov	r1, #264	; 0x108
    23a0:	e08f0000 	add	r0, pc, r0
    23a4:	eaffffe1 	b	2330 <TEE_BigIntShiftRight+0x54>
get_mpi():
/home/rossierd/soo.tech/soo/optee_os/lib/libutee/tee_api_arith_mpi.c:101
    23a8:	e24b6030 	sub	r6, fp, #48	; 0x30
    23ac:	e1a00006 	mov	r0, r6
    23b0:	eb000521 	bl	383c <mbedtls_mpi_init_mempool>
TEE_BigIntShiftRight():
/home/rossierd/soo.tech/soo/optee_os/lib/libutee/tee_api_arith_mpi.c:275
    23b4:	e1a01005 	mov	r1, r5
    23b8:	e1a00006 	mov	r0, r6
    23bc:	eb0005de 	bl	3b3c <mbedtls_mpi_copy>
    23c0:	e2502000 	subs	r2, r0, #0
/home/rossierd/soo.tech/soo/optee_os/lib/libutee/tee_api_arith_mpi.c:275 (discriminator 1)
    23c4:	159f0094 	ldrne	r0, [pc, #148]	; 2460 <TEE_BigIntShiftRight+0x184>
    23c8:	13001113 	movwne	r1, #275	; 0x113
    23cc:	108f0000 	addne	r0, pc, r0
    23d0:	1affffd6 	bne	2330 <TEE_BigIntShiftRight+0x54>
/home/rossierd/soo.tech/soo/optee_os/lib/libutee/tee_api_arith_mpi.c:276
    23d4:	e1a01008 	mov	r1, r8
    23d8:	e1a00006 	mov	r0, r6
    23dc:	eb000790 	bl	4224 <mbedtls_mpi_shift_r>
    23e0:	e2502000 	subs	r2, r0, #0
/home/rossierd/soo.tech/soo/optee_os/lib/libutee/tee_api_arith_mpi.c:276 (discriminator 1)
    23e4:	159f0078 	ldrne	r0, [pc, #120]	; 2464 <TEE_BigIntShiftRight+0x188>
    23e8:	13a01f45 	movne	r1, #276	; 0x114
    23ec:	108f0000 	addne	r0, pc, r0
    23f0:	1affffce 	bne	2330 <TEE_BigIntShiftRight+0x54>
/home/rossierd/soo.tech/soo/optee_os/lib/libutee/tee_api_arith_mpi.c:277
    23f4:	e1a01006 	mov	r1, r6
    23f8:	e1a00004 	mov	r0, r4
    23fc:	eb0005ce 	bl	3b3c <mbedtls_mpi_copy>
    2400:	e2502000 	subs	r2, r0, #0
/home/rossierd/soo.tech/soo/optee_os/lib/libutee/tee_api_arith_mpi.c:277 (discriminator 1)
    2404:	159f005c 	ldrne	r0, [pc, #92]	; 2468 <TEE_BigIntShiftRight+0x18c>
    2408:	13001115 	movwne	r1, #277	; 0x115
    240c:	108f0000 	addne	r0, pc, r0
    2410:	1affffc6 	bne	2330 <TEE_BigIntShiftRight+0x54>
/home/rossierd/soo.tech/soo/optee_os/lib/libutee/tee_api_arith_mpi.c:279
    2414:	e1a00006 	mov	r0, r6
    2418:	eb00051a 	bl	3888 <mbedtls_mpi_free>
/home/rossierd/soo.tech/soo/optee_os/lib/libutee/tee_api_arith_mpi.c:282
    241c:	e1a00005 	mov	r0, r5
    2420:	eb000518 	bl	3888 <mbedtls_mpi_free>
/home/rossierd/soo.tech/soo/optee_os/lib/libutee/tee_api_arith_mpi.c:285
    2424:	e1a01007 	mov	r1, r7
    2428:	e1a00004 	mov	r0, r4
    242c:	ebfffc41 	bl	1538 <copy_mpi_to_bigint>
    2430:	e2502000 	subs	r2, r0, #0
/home/rossierd/soo.tech/soo/optee_os/lib/libutee/tee_api_arith_mpi.c:285 (discriminator 1)
    2434:	159f0030 	ldrne	r0, [pc, #48]	; 246c <TEE_BigIntShiftRight+0x190>
    2438:	1300111d 	movwne	r1, #285	; 0x11d
    243c:	108f0000 	addne	r0, pc, r0
    2440:	1affffba 	bne	2330 <TEE_BigIntShiftRight+0x54>
/home/rossierd/soo.tech/soo/optee_os/lib/libutee/tee_api_arith_mpi.c:286
    2444:	e1a00004 	mov	r0, r4
    2448:	eb00050e 	bl	3888 <mbedtls_mpi_free>
/home/rossierd/soo.tech/soo/optee_os/lib/libutee/tee_api_arith_mpi.c:287
    244c:	e24bd020 	sub	sp, fp, #32
    2450:	e89da9f0 	ldm	sp, {r4, r5, r6, r7, r8, fp, sp, pc}
    2454:	00007296 	.word	0x00007296
    2458:	00007246 	.word	0x00007246
    245c:	00007222 	.word	0x00007222
    2460:	000071f6 	.word	0x000071f6
    2464:	000071d6 	.word	0x000071d6
    2468:	000071b6 	.word	0x000071b6
    246c:	00007186 	.word	0x00007186

00002470 <TEE_BigIntGetBit>:
TEE_BigIntGetBit():
/home/rossierd/soo.tech/soo/optee_os/lib/libutee/tee_api_arith_mpi.c:290
    2470:	e1a0c00d 	mov	ip, sp
    2474:	e92dd830 	push	{r4, r5, fp, ip, lr, pc}
    2478:	e24cb004 	sub	fp, ip, #4
    247c:	e24dd010 	sub	sp, sp, #16
/home/rossierd/soo.tech/soo/optee_os/lib/libutee/tee_api_arith_mpi.c:294
    2480:	e24b4020 	sub	r4, fp, #32
/home/rossierd/soo.tech/soo/optee_os/lib/libutee/tee_api_arith_mpi.c:290
    2484:	e1a05001 	mov	r5, r1
/home/rossierd/soo.tech/soo/optee_os/lib/libutee/tee_api_arith_mpi.c:294
    2488:	e1a01000 	mov	r1, r0
    248c:	e1a00004 	mov	r0, r4
    2490:	ebfffc04 	bl	14a8 <get_mpi>
/home/rossierd/soo.tech/soo/optee_os/lib/libutee/tee_api_arith_mpi.c:296
    2494:	e1a01005 	mov	r1, r5
    2498:	e1a00004 	mov	r0, r4
    249c:	eb00065e 	bl	3e1c <mbedtls_mpi_get_bit>
    24a0:	e1a05000 	mov	r5, r0
/home/rossierd/soo.tech/soo/optee_os/lib/libutee/tee_api_arith_mpi.c:298
    24a4:	e1a00004 	mov	r0, r4
    24a8:	eb0004f6 	bl	3888 <mbedtls_mpi_free>
/home/rossierd/soo.tech/soo/optee_os/lib/libutee/tee_api_arith_mpi.c:301
    24ac:	e2950000 	adds	r0, r5, #0
    24b0:	13a00001 	movne	r0, #1
    24b4:	e24bd014 	sub	sp, fp, #20
    24b8:	e89da830 	ldm	sp, {r4, r5, fp, sp, pc}

000024bc <TEE_BigIntGetBitCount>:
TEE_BigIntGetBitCount():
/home/rossierd/soo.tech/soo/optee_os/lib/libutee/tee_api_arith_mpi.c:304
    24bc:	e1a0c00d 	mov	ip, sp
/home/rossierd/soo.tech/soo/optee_os/lib/libutee/tee_api_arith_mpi.c:308
    24c0:	e1a01000 	mov	r1, r0
/home/rossierd/soo.tech/soo/optee_os/lib/libutee/tee_api_arith_mpi.c:304
    24c4:	e92dd830 	push	{r4, r5, fp, ip, lr, pc}
    24c8:	e24cb004 	sub	fp, ip, #4
    24cc:	e24dd010 	sub	sp, sp, #16
/home/rossierd/soo.tech/soo/optee_os/lib/libutee/tee_api_arith_mpi.c:308
    24d0:	e24b4020 	sub	r4, fp, #32
    24d4:	e1a00004 	mov	r0, r4
    24d8:	ebfffbf2 	bl	14a8 <get_mpi>
/home/rossierd/soo.tech/soo/optee_os/lib/libutee/tee_api_arith_mpi.c:310
    24dc:	e1a00004 	mov	r0, r4
    24e0:	eb00068f 	bl	3f24 <mbedtls_mpi_bitlen>
    24e4:	e1a05000 	mov	r5, r0
/home/rossierd/soo.tech/soo/optee_os/lib/libutee/tee_api_arith_mpi.c:312
    24e8:	e1a00004 	mov	r0, r4
    24ec:	eb0004e5 	bl	3888 <mbedtls_mpi_free>
/home/rossierd/soo.tech/soo/optee_os/lib/libutee/tee_api_arith_mpi.c:315
    24f0:	e1a00005 	mov	r0, r5
    24f4:	e24bd014 	sub	sp, fp, #20
    24f8:	e89da830 	ldm	sp, {r4, r5, fp, sp, pc}

000024fc <TEE_BigIntAdd>:
TEE_BigIntAdd():
/home/rossierd/soo.tech/soo/optee_os/lib/libutee/tee_api_arith_mpi.c:399
    24fc:	e1a0c00d 	mov	ip, sp
    2500:	e59f3024 	ldr	r3, [pc, #36]	; 252c <TEE_BigIntAdd+0x30>
    2504:	e92dd800 	push	{fp, ip, lr, pc}
    2508:	e24cb004 	sub	fp, ip, #4
/home/rossierd/soo.tech/soo/optee_os/lib/libutee/tee_api_arith_mpi.c:400
    250c:	e59fc01c 	ldr	ip, [pc, #28]	; 2530 <TEE_BigIntAdd+0x34>
/home/rossierd/soo.tech/soo/optee_os/lib/libutee/tee_api_arith_mpi.c:399
    2510:	e24dd008 	sub	sp, sp, #8
    2514:	e08f3003 	add	r3, pc, r3
/home/rossierd/soo.tech/soo/optee_os/lib/libutee/tee_api_arith_mpi.c:400
    2518:	e793300c 	ldr	r3, [r3, ip]
    251c:	e50b3010 	str	r3, [fp, #-16]
/home/rossierd/soo.tech/soo/optee_os/lib/libutee/tee_api_arith_mpi.c:401
    2520:	e24bd00c 	sub	sp, fp, #12
    2524:	e89d6800 	ldm	sp, {fp, sp, lr}
/home/rossierd/soo.tech/soo/optee_os/lib/libutee/tee_api_arith_mpi.c:400
    2528:	eafffc22 	b	15b8 <bigint_binary>
    252c:	00009b64 	.word	0x00009b64
    2530:	0000001c 	.word	0x0000001c

00002534 <TEE_BigIntSub>:
TEE_BigIntSub():
/home/rossierd/soo.tech/soo/optee_os/lib/libutee/tee_api_arith_mpi.c:405
    2534:	e1a0c00d 	mov	ip, sp
    2538:	e59f3024 	ldr	r3, [pc, #36]	; 2564 <TEE_BigIntSub+0x30>
    253c:	e92dd800 	push	{fp, ip, lr, pc}
    2540:	e24cb004 	sub	fp, ip, #4
/home/rossierd/soo.tech/soo/optee_os/lib/libutee/tee_api_arith_mpi.c:406
    2544:	e59fc01c 	ldr	ip, [pc, #28]	; 2568 <TEE_BigIntSub+0x34>
/home/rossierd/soo.tech/soo/optee_os/lib/libutee/tee_api_arith_mpi.c:405
    2548:	e24dd008 	sub	sp, sp, #8
    254c:	e08f3003 	add	r3, pc, r3
/home/rossierd/soo.tech/soo/optee_os/lib/libutee/tee_api_arith_mpi.c:406
    2550:	e793300c 	ldr	r3, [r3, ip]
    2554:	e50b3010 	str	r3, [fp, #-16]
/home/rossierd/soo.tech/soo/optee_os/lib/libutee/tee_api_arith_mpi.c:407
    2558:	e24bd00c 	sub	sp, fp, #12
    255c:	e89d6800 	ldm	sp, {fp, sp, lr}
/home/rossierd/soo.tech/soo/optee_os/lib/libutee/tee_api_arith_mpi.c:406
    2560:	eafffc14 	b	15b8 <bigint_binary>
    2564:	00009b2c 	.word	0x00009b2c
    2568:	00000024 	.word	0x00000024

0000256c <TEE_BigIntNeg>:
TEE_BigIntNeg():
/home/rossierd/soo.tech/soo/optee_os/lib/libutee/tee_api_arith_mpi.c:410
    256c:	e1a0c00d 	mov	ip, sp
    2570:	e92dd8f0 	push	{r4, r5, r6, r7, fp, ip, lr, pc}
    2574:	e24cb004 	sub	fp, ip, #4
    2578:	e24dd018 	sub	sp, sp, #24
/home/rossierd/soo.tech/soo/optee_os/lib/libutee/tee_api_arith_mpi.c:413
    257c:	e24b4034 	sub	r4, fp, #52	; 0x34
/home/rossierd/soo.tech/soo/optee_os/lib/libutee/tee_api_arith_mpi.c:410
    2580:	e1a05000 	mov	r5, r0
    2584:	e1a07001 	mov	r7, r1
/home/rossierd/soo.tech/soo/optee_os/lib/libutee/tee_api_arith_mpi.c:413
    2588:	e1a01000 	mov	r1, r0
    258c:	e1a00004 	mov	r0, r4
    2590:	ebfffbc4 	bl	14a8 <get_mpi>
/home/rossierd/soo.tech/soo/optee_os/lib/libutee/tee_api_arith_mpi.c:415
    2594:	e1550007 	cmp	r5, r7
    2598:	0a00000f 	beq	25dc <TEE_BigIntNeg+0x70>
/home/rossierd/soo.tech/soo/optee_os/lib/libutee/tee_api_arith_mpi.c:418
    259c:	e24b6028 	sub	r6, fp, #40	; 0x28
    25a0:	e1a01007 	mov	r1, r7
    25a4:	e1a00006 	mov	r0, r6
    25a8:	ebfffbbe 	bl	14a8 <get_mpi>
/home/rossierd/soo.tech/soo/optee_os/lib/libutee/tee_api_arith_mpi.c:420
    25ac:	e1a01006 	mov	r1, r6
    25b0:	e1a00004 	mov	r0, r4
    25b4:	eb000560 	bl	3b3c <mbedtls_mpi_copy>
    25b8:	e2502000 	subs	r2, r0, #0
    25bc:	0a000004 	beq	25d4 <TEE_BigIntNeg+0x68>
/home/rossierd/soo.tech/soo/optee_os/lib/libutee/tee_api_arith_mpi.c:420 (discriminator 1)
    25c0:	e59f0050 	ldr	r0, [pc, #80]	; 2618 <TEE_BigIntNeg+0xac>
    25c4:	e3a01f69 	mov	r1, #420	; 0x1a4
    25c8:	e08f0000 	add	r0, pc, r0
/home/rossierd/soo.tech/soo/optee_os/lib/libutee/tee_api_arith_mpi.c:427 (discriminator 1)
    25cc:	e280009f 	add	r0, r0, #159	; 0x9f
    25d0:	ebfffba6 	bl	1470 <mpi_panic>
/home/rossierd/soo.tech/soo/optee_os/lib/libutee/tee_api_arith_mpi.c:422
    25d4:	e1a00006 	mov	r0, r6
    25d8:	eb0004aa 	bl	3888 <mbedtls_mpi_free>
/home/rossierd/soo.tech/soo/optee_os/lib/libutee/tee_api_arith_mpi.c:425
    25dc:	e15b33b4 	ldrh	r3, [fp, #-52]	; 0xffffffcc
/home/rossierd/soo.tech/soo/optee_os/lib/libutee/tee_api_arith_mpi.c:427
    25e0:	e1a01005 	mov	r1, r5
    25e4:	e1a00004 	mov	r0, r4
/home/rossierd/soo.tech/soo/optee_os/lib/libutee/tee_api_arith_mpi.c:425
    25e8:	e2633000 	rsb	r3, r3, #0
    25ec:	e14b33b4 	strh	r3, [fp, #-52]	; 0xffffffcc
/home/rossierd/soo.tech/soo/optee_os/lib/libutee/tee_api_arith_mpi.c:427
    25f0:	ebfffbd0 	bl	1538 <copy_mpi_to_bigint>
    25f4:	e2502000 	subs	r2, r0, #0
/home/rossierd/soo.tech/soo/optee_os/lib/libutee/tee_api_arith_mpi.c:427 (discriminator 1)
    25f8:	159f001c 	ldrne	r0, [pc, #28]	; 261c <TEE_BigIntNeg+0xb0>
    25fc:	130011ab 	movwne	r1, #427	; 0x1ab
    2600:	108f0000 	addne	r0, pc, r0
    2604:	1afffff0 	bne	25cc <TEE_BigIntNeg+0x60>
/home/rossierd/soo.tech/soo/optee_os/lib/libutee/tee_api_arith_mpi.c:428
    2608:	e1a00004 	mov	r0, r4
    260c:	eb00049d 	bl	3888 <mbedtls_mpi_free>
/home/rossierd/soo.tech/soo/optee_os/lib/libutee/tee_api_arith_mpi.c:429
    2610:	e24bd01c 	sub	sp, fp, #28
    2614:	e89da8f0 	ldm	sp, {r4, r5, r6, r7, fp, sp, pc}
    2618:	00006ffa 	.word	0x00006ffa
    261c:	00006fc2 	.word	0x00006fc2

00002620 <TEE_BigIntMul>:
TEE_BigIntMul():
/home/rossierd/soo.tech/soo/optee_os/lib/libutee/tee_api_arith_mpi.c:433
    2620:	e1a0c00d 	mov	ip, sp
    2624:	e92ddff0 	push	{r4, r5, r6, r7, r8, r9, sl, fp, ip, lr, pc}
    2628:	e24cb004 	sub	fp, ip, #4
    262c:	e24dd01c 	sub	sp, sp, #28
    2630:	e1a0a000 	mov	sl, r0
    2634:	e59f70c8 	ldr	r7, [pc, #200]	; 2704 <TEE_BigIntMul+0xe4>
/home/rossierd/soo.tech/soo/optee_os/lib/libutee/tee_api_arith_mpi.c:434
    2638:	e1a00001 	mov	r0, r1
/home/rossierd/soo.tech/soo/optee_os/lib/libutee/tee_api_arith_mpi.c:433
    263c:	e1a09002 	mov	r9, r2
    2640:	e1a08001 	mov	r8, r1
/home/rossierd/soo.tech/soo/optee_os/lib/libutee/tee_api_arith_mpi.c:437
    2644:	e24b6038 	sub	r6, fp, #56	; 0x38
/home/rossierd/soo.tech/soo/optee_os/lib/libutee/tee_api_arith_mpi.c:434
    2648:	ebffff9b 	bl	24bc <TEE_BigIntGetBitCount>
    264c:	e1a04000 	mov	r4, r0
/home/rossierd/soo.tech/soo/optee_os/lib/libutee/tee_api_arith_mpi.c:435
    2650:	e1a00009 	mov	r0, r9
    2654:	ebffff98 	bl	24bc <TEE_BigIntGetBitCount>
/home/rossierd/soo.tech/soo/optee_os/lib/libutee/tee_api_arith_mpi.c:436
    2658:	e284301f 	add	r3, r4, #31
    265c:	e280401f 	add	r4, r0, #31
    2660:	e1a042a4 	lsr	r4, r4, #5
/home/rossierd/soo.tech/soo/optee_os/lib/libutee/tee_api_arith_mpi.c:433
    2664:	e08f7007 	add	r7, pc, r7
/home/rossierd/soo.tech/soo/optee_os/lib/libutee/tee_api_arith_mpi.c:436
    2668:	e08442a3 	add	r4, r4, r3, lsr #5
/home/rossierd/soo.tech/soo/optee_os/lib/libutee/tee_api_arith_mpi.c:437
    266c:	e3a03000 	mov	r3, #0
    2670:	e5863004 	str	r3, [r6, #4]
/home/rossierd/soo.tech/soo/optee_os/lib/libutee/tee_api_arith_mpi.c:436
    2674:	e2844004 	add	r4, r4, #4
/home/rossierd/soo.tech/soo/optee_os/lib/libutee/tee_api_arith_mpi.c:437
    2678:	e5863008 	str	r3, [r6, #8]
/home/rossierd/soo.tech/soo/optee_os/lib/libutee/tee_api_arith_mpi.c:440
    267c:	e1a01104 	lsl	r1, r4, #2
/home/rossierd/soo.tech/soo/optee_os/lib/libutee/tee_api_arith_mpi.c:437
    2680:	e50b3038 	str	r3, [fp, #-56]	; 0xffffffc8
/home/rossierd/soo.tech/soo/optee_os/lib/libutee/tee_api_arith_mpi.c:440
    2684:	e59f307c 	ldr	r3, [pc, #124]	; 2708 <TEE_BigIntMul+0xe8>
    2688:	e7973003 	ldr	r3, [r7, r3]
    268c:	e5930000 	ldr	r0, [r3]
    2690:	e50b3040 	str	r3, [fp, #-64]	; 0xffffffc0
    2694:	eb001a13 	bl	8ee8 <mempool_alloc>
/home/rossierd/soo.tech/soo/optee_os/lib/libutee/tee_api_arith_mpi.c:441
    2698:	e2505000 	subs	r5, r0, #0
    269c:	1a000001 	bne	26a8 <TEE_BigIntMul+0x88>
/home/rossierd/soo.tech/soo/optee_os/lib/libutee/tee_api_arith_mpi.c:442
    26a0:	e59f0064 	ldr	r0, [pc, #100]	; 270c <TEE_BigIntMul+0xec>
    26a4:	ebfffb08 	bl	12cc <TEE_Panic>
/home/rossierd/soo.tech/soo/optee_os/lib/libutee/tee_api_arith_mpi.c:444
    26a8:	e1a01004 	mov	r1, r4
    26ac:	e1a00005 	mov	r0, r5
    26b0:	ebfffdc9 	bl	1ddc <TEE_BigIntInit>
/home/rossierd/soo.tech/soo/optee_os/lib/libutee/tee_api_arith_mpi.c:445
    26b4:	e1a00006 	mov	r0, r6
    26b8:	e3a01003 	mov	r1, #3
    26bc:	ebfffdc6 	bl	1ddc <TEE_BigIntInit>
/home/rossierd/soo.tech/soo/optee_os/lib/libutee/tee_api_arith_mpi.c:447
    26c0:	e59f3048 	ldr	r3, [pc, #72]	; 2710 <TEE_BigIntMul+0xf0>
    26c4:	e1a02009 	mov	r2, r9
    26c8:	e1a01008 	mov	r1, r8
    26cc:	e1a00005 	mov	r0, r5
    26d0:	e7973003 	ldr	r3, [r7, r3]
    26d4:	e50b3044 	str	r3, [fp, #-68]	; 0xffffffbc
    26d8:	ebfffbb6 	bl	15b8 <bigint_binary>
/home/rossierd/soo.tech/soo/optee_os/lib/libutee/tee_api_arith_mpi.c:449
    26dc:	e1a02006 	mov	r2, r6
    26e0:	e1a01005 	mov	r1, r5
    26e4:	e1a0000a 	mov	r0, sl
    26e8:	ebffff83 	bl	24fc <TEE_BigIntAdd>
/home/rossierd/soo.tech/soo/optee_os/lib/libutee/tee_api_arith_mpi.c:451
    26ec:	e51b3040 	ldr	r3, [fp, #-64]	; 0xffffffc0
    26f0:	e1a01005 	mov	r1, r5
    26f4:	e5930000 	ldr	r0, [r3]
    26f8:	eb001a3c 	bl	8ff0 <mempool_free>
/home/rossierd/soo.tech/soo/optee_os/lib/libutee/tee_api_arith_mpi.c:452
    26fc:	e24bd028 	sub	sp, fp, #40	; 0x28
    2700:	e89daff0 	ldm	sp, {r4, r5, r6, r7, r8, r9, sl, fp, sp, pc}
    2704:	00009a14 	.word	0x00009a14
    2708:	00000038 	.word	0x00000038
    270c:	ffff000c 	.word	0xffff000c
    2710:	00000018 	.word	0x00000018

00002714 <TEE_BigIntSquare>:
TEE_BigIntSquare():
/home/rossierd/soo.tech/soo/optee_os/lib/libutee/tee_api_arith_mpi.c:455
    2714:	e1a0c00d 	mov	ip, sp
/home/rossierd/soo.tech/soo/optee_os/lib/libutee/tee_api_arith_mpi.c:456
    2718:	e1a02001 	mov	r2, r1
/home/rossierd/soo.tech/soo/optee_os/lib/libutee/tee_api_arith_mpi.c:455
    271c:	e92dd800 	push	{fp, ip, lr, pc}
    2720:	e24cb004 	sub	fp, ip, #4
/home/rossierd/soo.tech/soo/optee_os/lib/libutee/tee_api_arith_mpi.c:457
    2724:	e24bd00c 	sub	sp, fp, #12
    2728:	e89d6800 	ldm	sp, {fp, sp, lr}
/home/rossierd/soo.tech/soo/optee_os/lib/libutee/tee_api_arith_mpi.c:456
    272c:	eaffffbb 	b	2620 <TEE_BigIntMul>

00002730 <TEE_BigIntDiv>:
TEE_BigIntDiv():
/home/rossierd/soo.tech/soo/optee_os/lib/libutee/tee_api_arith_mpi.c:461
    2730:	e1a0c00d 	mov	ip, sp
    2734:	e92ddff0 	push	{r4, r5, r6, r7, r8, r9, sl, fp, ip, lr, pc}
    2738:	e24cb004 	sub	fp, ip, #4
    273c:	e24dd03c 	sub	sp, sp, #60	; 0x3c
/home/rossierd/soo.tech/soo/optee_os/lib/libutee/tee_api_arith_mpi.c:469
    2740:	e24b705c 	sub	r7, fp, #92	; 0x5c
/home/rossierd/soo.tech/soo/optee_os/lib/libutee/tee_api_arith_mpi.c:461
    2744:	e1a09000 	mov	r9, r0
    2748:	e1a08001 	mov	r8, r1
/home/rossierd/soo.tech/soo/optee_os/lib/libutee/tee_api_arith_mpi.c:469
    274c:	e1a01000 	mov	r1, r0
/home/rossierd/soo.tech/soo/optee_os/lib/libutee/tee_api_arith_mpi.c:470
    2750:	e24b6050 	sub	r6, fp, #80	; 0x50
/home/rossierd/soo.tech/soo/optee_os/lib/libutee/tee_api_arith_mpi.c:461
    2754:	e50b2060 	str	r2, [fp, #-96]	; 0xffffffa0
/home/rossierd/soo.tech/soo/optee_os/lib/libutee/tee_api_arith_mpi.c:469
    2758:	e1a00007 	mov	r0, r7
/home/rossierd/soo.tech/soo/optee_os/lib/libutee/tee_api_arith_mpi.c:461
    275c:	e1a04003 	mov	r4, r3
/home/rossierd/soo.tech/soo/optee_os/lib/libutee/tee_api_arith_mpi.c:469
    2760:	ebfffb50 	bl	14a8 <get_mpi>
/home/rossierd/soo.tech/soo/optee_os/lib/libutee/tee_api_arith_mpi.c:470
    2764:	e1a01008 	mov	r1, r8
    2768:	e1a00006 	mov	r0, r6
    276c:	ebfffb4d 	bl	14a8 <get_mpi>
/home/rossierd/soo.tech/soo/optee_os/lib/libutee/tee_api_arith_mpi.c:472
    2770:	e51b2060 	ldr	r2, [fp, #-96]	; 0xffffffa0
    2774:	e24ba044 	sub	sl, fp, #68	; 0x44
    2778:	e1590002 	cmp	r9, r2
/home/rossierd/soo.tech/soo/optee_os/lib/libutee/tee_api_arith_mpi.c:473
    277c:	01a05007 	moveq	r5, r7
/home/rossierd/soo.tech/soo/optee_os/lib/libutee/tee_api_arith_mpi.c:472
    2780:	0a000007 	beq	27a4 <TEE_BigIntDiv+0x74>
/home/rossierd/soo.tech/soo/optee_os/lib/libutee/tee_api_arith_mpi.c:474
    2784:	e1580002 	cmp	r8, r2
/home/rossierd/soo.tech/soo/optee_os/lib/libutee/tee_api_arith_mpi.c:475
    2788:	01a05006 	moveq	r5, r6
/home/rossierd/soo.tech/soo/optee_os/lib/libutee/tee_api_arith_mpi.c:474
    278c:	0a000004 	beq	27a4 <TEE_BigIntDiv+0x74>
/home/rossierd/soo.tech/soo/optee_os/lib/libutee/tee_api_arith_mpi.c:477
    2790:	e1a01002 	mov	r1, r2
    2794:	e1a0000a 	mov	r0, sl
    2798:	ebfffb42 	bl	14a8 <get_mpi>
    279c:	e51b2060 	ldr	r2, [fp, #-96]	; 0xffffffa0
/home/rossierd/soo.tech/soo/optee_os/lib/libutee/tee_api_arith_mpi.c:466
    27a0:	e1a0500a 	mov	r5, sl
/home/rossierd/soo.tech/soo/optee_os/lib/libutee/tee_api_arith_mpi.c:479
    27a4:	e1590004 	cmp	r9, r4
/home/rossierd/soo.tech/soo/optee_os/lib/libutee/tee_api_arith_mpi.c:480
    27a8:	01a04007 	moveq	r4, r7
/home/rossierd/soo.tech/soo/optee_os/lib/libutee/tee_api_arith_mpi.c:479
    27ac:	0a000009 	beq	27d8 <TEE_BigIntDiv+0xa8>
/home/rossierd/soo.tech/soo/optee_os/lib/libutee/tee_api_arith_mpi.c:481
    27b0:	e1580004 	cmp	r8, r4
/home/rossierd/soo.tech/soo/optee_os/lib/libutee/tee_api_arith_mpi.c:482
    27b4:	01a04006 	moveq	r4, r6
/home/rossierd/soo.tech/soo/optee_os/lib/libutee/tee_api_arith_mpi.c:481
    27b8:	0a000006 	beq	27d8 <TEE_BigIntDiv+0xa8>
/home/rossierd/soo.tech/soo/optee_os/lib/libutee/tee_api_arith_mpi.c:483
    27bc:	e1520004 	cmp	r2, r4
/home/rossierd/soo.tech/soo/optee_os/lib/libutee/tee_api_arith_mpi.c:484
    27c0:	01a04005 	moveq	r4, r5
/home/rossierd/soo.tech/soo/optee_os/lib/libutee/tee_api_arith_mpi.c:483
    27c4:	0a000003 	beq	27d8 <TEE_BigIntDiv+0xa8>
/home/rossierd/soo.tech/soo/optee_os/lib/libutee/tee_api_arith_mpi.c:486
    27c8:	e1a01004 	mov	r1, r4
    27cc:	e24b4038 	sub	r4, fp, #56	; 0x38
    27d0:	e1a00004 	mov	r0, r4
    27d4:	ebfffb33 	bl	14a8 <get_mpi>
/home/rossierd/soo.tech/soo/optee_os/lib/libutee/tee_api_arith_mpi.c:488
    27d8:	e1a02005 	mov	r2, r5
    27dc:	e1a03004 	mov	r3, r4
    27e0:	e1a01006 	mov	r1, r6
    27e4:	e1a00007 	mov	r0, r7
    27e8:	eb00091d 	bl	4c64 <mbedtls_mpi_div_mpi>
    27ec:	e2502000 	subs	r2, r0, #0
    27f0:	0a000004 	beq	2808 <TEE_BigIntDiv+0xd8>
/home/rossierd/soo.tech/soo/optee_os/lib/libutee/tee_api_arith_mpi.c:488 (discriminator 1)
    27f4:	e59f0088 	ldr	r0, [pc, #136]	; 2884 <TEE_BigIntDiv+0x154>
    27f8:	e3a01f7a 	mov	r1, #488	; 0x1e8
    27fc:	e08f0000 	add	r0, pc, r0
/home/rossierd/soo.tech/soo/optee_os/lib/libutee/tee_api_arith_mpi.c:490 (discriminator 1)
    2800:	e28000ad 	add	r0, r0, #173	; 0xad
    2804:	ebfffb19 	bl	1470 <mpi_panic>
/home/rossierd/soo.tech/soo/optee_os/lib/libutee/tee_api_arith_mpi.c:490
    2808:	e1a01009 	mov	r1, r9
    280c:	e1a00007 	mov	r0, r7
    2810:	ebfffb48 	bl	1538 <copy_mpi_to_bigint>
    2814:	e2502000 	subs	r2, r0, #0
/home/rossierd/soo.tech/soo/optee_os/lib/libutee/tee_api_arith_mpi.c:490 (discriminator 1)
    2818:	159f0068 	ldrne	r0, [pc, #104]	; 2888 <TEE_BigIntDiv+0x158>
    281c:	130011ea 	movwne	r1, #490	; 0x1ea
    2820:	108f0000 	addne	r0, pc, r0
    2824:	1afffff5 	bne	2800 <TEE_BigIntDiv+0xd0>
/home/rossierd/soo.tech/soo/optee_os/lib/libutee/tee_api_arith_mpi.c:491
    2828:	e1a01008 	mov	r1, r8
    282c:	e1a00006 	mov	r0, r6
    2830:	ebfffb40 	bl	1538 <copy_mpi_to_bigint>
    2834:	e2502000 	subs	r2, r0, #0
/home/rossierd/soo.tech/soo/optee_os/lib/libutee/tee_api_arith_mpi.c:491 (discriminator 1)
    2838:	159f004c 	ldrne	r0, [pc, #76]	; 288c <TEE_BigIntDiv+0x15c>
    283c:	130011eb 	movwne	r1, #491	; 0x1eb
    2840:	108f0000 	addne	r0, pc, r0
    2844:	1affffed 	bne	2800 <TEE_BigIntDiv+0xd0>
/home/rossierd/soo.tech/soo/optee_os/lib/libutee/tee_api_arith_mpi.c:492
    2848:	e1a00007 	mov	r0, r7
    284c:	eb00040d 	bl	3888 <mbedtls_mpi_free>
/home/rossierd/soo.tech/soo/optee_os/lib/libutee/tee_api_arith_mpi.c:493
    2850:	e1a00006 	mov	r0, r6
    2854:	eb00040b 	bl	3888 <mbedtls_mpi_free>
/home/rossierd/soo.tech/soo/optee_os/lib/libutee/tee_api_arith_mpi.c:494
    2858:	e155000a 	cmp	r5, sl
    285c:	1a000001 	bne	2868 <TEE_BigIntDiv+0x138>
/home/rossierd/soo.tech/soo/optee_os/lib/libutee/tee_api_arith_mpi.c:495
    2860:	e1a00005 	mov	r0, r5
    2864:	eb000407 	bl	3888 <mbedtls_mpi_free>
/home/rossierd/soo.tech/soo/optee_os/lib/libutee/tee_api_arith_mpi.c:496
    2868:	e24b3038 	sub	r3, fp, #56	; 0x38
    286c:	e1540003 	cmp	r4, r3
    2870:	1a000001 	bne	287c <TEE_BigIntDiv+0x14c>
/home/rossierd/soo.tech/soo/optee_os/lib/libutee/tee_api_arith_mpi.c:497
    2874:	e1a00004 	mov	r0, r4
    2878:	eb000402 	bl	3888 <mbedtls_mpi_free>
/home/rossierd/soo.tech/soo/optee_os/lib/libutee/tee_api_arith_mpi.c:498
    287c:	e24bd028 	sub	sp, fp, #40	; 0x28
    2880:	e89daff0 	ldm	sp, {r4, r5, r6, r7, r8, r9, sl, fp, sp, pc}
    2884:	00006dc6 	.word	0x00006dc6
    2888:	00006da2 	.word	0x00006da2
    288c:	00006d82 	.word	0x00006d82

00002890 <TEE_BigIntMod>:
TEE_BigIntMod():
/home/rossierd/soo.tech/soo/optee_os/lib/libutee/tee_api_arith_mpi.c:501
    2890:	e1a0c00d 	mov	ip, sp
    2894:	e92dd8f0 	push	{r4, r5, r6, r7, fp, ip, lr, pc}
    2898:	e24cb004 	sub	fp, ip, #4
    289c:	e24dd008 	sub	sp, sp, #8
    28a0:	e1a06000 	mov	r6, r0
    28a4:	e59f505c 	ldr	r5, [pc, #92]	; 2908 <TEE_BigIntMod+0x78>
    28a8:	e1a07001 	mov	r7, r1
/home/rossierd/soo.tech/soo/optee_os/lib/libutee/tee_api_arith_mpi.c:502
    28ac:	e1a00002 	mov	r0, r2
    28b0:	e3a01002 	mov	r1, #2
/home/rossierd/soo.tech/soo/optee_os/lib/libutee/tee_api_arith_mpi.c:501
    28b4:	e1a04002 	mov	r4, r2
/home/rossierd/soo.tech/soo/optee_os/lib/libutee/tee_api_arith_mpi.c:502
    28b8:	ebfffe12 	bl	2108 <TEE_BigIntCmpS32>
    28bc:	e3500000 	cmp	r0, #0
/home/rossierd/soo.tech/soo/optee_os/lib/libutee/tee_api_arith_mpi.c:501
    28c0:	e08f5005 	add	r5, pc, r5
/home/rossierd/soo.tech/soo/optee_os/lib/libutee/tee_api_arith_mpi.c:502
    28c4:	aa000006 	bge	28e4 <TEE_BigIntMod+0x54>
/home/rossierd/soo.tech/soo/optee_os/lib/libutee/tee_api_arith_mpi.c:503
    28c8:	e59f003c 	ldr	r0, [pc, #60]	; 290c <TEE_BigIntMod+0x7c>
    28cc:	e30011f7 	movw	r1, #503	; 0x1f7
    28d0:	e59f2038 	ldr	r2, [pc, #56]	; 2910 <TEE_BigIntMod+0x80>
    28d4:	e08f0000 	add	r0, pc, r0
    28d8:	e08f2002 	add	r2, pc, r2
    28dc:	e28000bb 	add	r0, r0, #187	; 0xbb
    28e0:	eb0001f0 	bl	30a8 <api_panic>
/home/rossierd/soo.tech/soo/optee_os/lib/libutee/tee_api_arith_mpi.c:505
    28e4:	e59f3028 	ldr	r3, [pc, #40]	; 2914 <TEE_BigIntMod+0x84>
    28e8:	e1a02004 	mov	r2, r4
    28ec:	e1a01007 	mov	r1, r7
    28f0:	e1a00006 	mov	r0, r6
    28f4:	e7953003 	ldr	r3, [r5, r3]
    28f8:	e50b3020 	str	r3, [fp, #-32]	; 0xffffffe0
/home/rossierd/soo.tech/soo/optee_os/lib/libutee/tee_api_arith_mpi.c:506
    28fc:	e24bd01c 	sub	sp, fp, #28
    2900:	e89d68f0 	ldm	sp, {r4, r5, r6, r7, fp, sp, lr}
/home/rossierd/soo.tech/soo/optee_os/lib/libutee/tee_api_arith_mpi.c:505
    2904:	eafffb2b 	b	15b8 <bigint_binary>
    2908:	000097b8 	.word	0x000097b8
    290c:	00006cee 	.word	0x00006cee
    2910:	00006e9e 	.word	0x00006e9e
    2914:	0000002c 	.word	0x0000002c

00002918 <TEE_BigIntAddMod>:
TEE_BigIntAddMod():
/home/rossierd/soo.tech/soo/optee_os/lib/libutee/tee_api_arith_mpi.c:510
    2918:	e1a0c00d 	mov	ip, sp
    291c:	e92dd800 	push	{fp, ip, lr, pc}
    2920:	e24cb004 	sub	fp, ip, #4
    2924:	e59fc01c 	ldr	ip, [pc, #28]	; 2948 <TEE_BigIntAddMod+0x30>
    2928:	e24dd008 	sub	sp, sp, #8
/home/rossierd/soo.tech/soo/optee_os/lib/libutee/tee_api_arith_mpi.c:511
    292c:	e59fe018 	ldr	lr, [pc, #24]	; 294c <TEE_BigIntAddMod+0x34>
/home/rossierd/soo.tech/soo/optee_os/lib/libutee/tee_api_arith_mpi.c:510
    2930:	e08fc00c 	add	ip, pc, ip
/home/rossierd/soo.tech/soo/optee_os/lib/libutee/tee_api_arith_mpi.c:511
    2934:	e79cc00e 	ldr	ip, [ip, lr]
    2938:	e58dc000 	str	ip, [sp]
    293c:	ebfffe03 	bl	2150 <bigint_binary_mod>
/home/rossierd/soo.tech/soo/optee_os/lib/libutee/tee_api_arith_mpi.c:512
    2940:	e24bd00c 	sub	sp, fp, #12
    2944:	e89da800 	ldm	sp, {fp, sp, pc}
    2948:	00009748 	.word	0x00009748
    294c:	0000001c 	.word	0x0000001c

00002950 <TEE_BigIntSubMod>:
TEE_BigIntSubMod():
/home/rossierd/soo.tech/soo/optee_os/lib/libutee/tee_api_arith_mpi.c:516
    2950:	e1a0c00d 	mov	ip, sp
    2954:	e92dd800 	push	{fp, ip, lr, pc}
    2958:	e24cb004 	sub	fp, ip, #4
    295c:	e59fc01c 	ldr	ip, [pc, #28]	; 2980 <TEE_BigIntSubMod+0x30>
    2960:	e24dd008 	sub	sp, sp, #8
/home/rossierd/soo.tech/soo/optee_os/lib/libutee/tee_api_arith_mpi.c:517
    2964:	e59fe018 	ldr	lr, [pc, #24]	; 2984 <TEE_BigIntSubMod+0x34>
/home/rossierd/soo.tech/soo/optee_os/lib/libutee/tee_api_arith_mpi.c:516
    2968:	e08fc00c 	add	ip, pc, ip
/home/rossierd/soo.tech/soo/optee_os/lib/libutee/tee_api_arith_mpi.c:517
    296c:	e79cc00e 	ldr	ip, [ip, lr]
    2970:	e58dc000 	str	ip, [sp]
    2974:	ebfffdf5 	bl	2150 <bigint_binary_mod>
/home/rossierd/soo.tech/soo/optee_os/lib/libutee/tee_api_arith_mpi.c:518
    2978:	e24bd00c 	sub	sp, fp, #12
    297c:	e89da800 	ldm	sp, {fp, sp, pc}
    2980:	00009710 	.word	0x00009710
    2984:	00000024 	.word	0x00000024

00002988 <TEE_BigIntMulMod>:
TEE_BigIntMulMod():
/home/rossierd/soo.tech/soo/optee_os/lib/libutee/tee_api_arith_mpi.c:522
    2988:	e1a0c00d 	mov	ip, sp
    298c:	e92dd800 	push	{fp, ip, lr, pc}
    2990:	e24cb004 	sub	fp, ip, #4
    2994:	e59fc01c 	ldr	ip, [pc, #28]	; 29b8 <TEE_BigIntMulMod+0x30>
    2998:	e24dd008 	sub	sp, sp, #8
/home/rossierd/soo.tech/soo/optee_os/lib/libutee/tee_api_arith_mpi.c:523
    299c:	e59fe018 	ldr	lr, [pc, #24]	; 29bc <TEE_BigIntMulMod+0x34>
/home/rossierd/soo.tech/soo/optee_os/lib/libutee/tee_api_arith_mpi.c:522
    29a0:	e08fc00c 	add	ip, pc, ip
/home/rossierd/soo.tech/soo/optee_os/lib/libutee/tee_api_arith_mpi.c:523
    29a4:	e79cc00e 	ldr	ip, [ip, lr]
    29a8:	e58dc000 	str	ip, [sp]
    29ac:	ebfffde7 	bl	2150 <bigint_binary_mod>
/home/rossierd/soo.tech/soo/optee_os/lib/libutee/tee_api_arith_mpi.c:524
    29b0:	e24bd00c 	sub	sp, fp, #12
    29b4:	e89da800 	ldm	sp, {fp, sp, pc}
    29b8:	000096d8 	.word	0x000096d8
    29bc:	00000018 	.word	0x00000018

000029c0 <TEE_BigIntSquareMod>:
TEE_BigIntSquareMod():
/home/rossierd/soo.tech/soo/optee_os/lib/libutee/tee_api_arith_mpi.c:528
    29c0:	e1a0c00d 	mov	ip, sp
/home/rossierd/soo.tech/soo/optee_os/lib/libutee/tee_api_arith_mpi.c:529
    29c4:	e1a03002 	mov	r3, r2
    29c8:	e1a02001 	mov	r2, r1
/home/rossierd/soo.tech/soo/optee_os/lib/libutee/tee_api_arith_mpi.c:528
    29cc:	e92dd800 	push	{fp, ip, lr, pc}
    29d0:	e24cb004 	sub	fp, ip, #4
/home/rossierd/soo.tech/soo/optee_os/lib/libutee/tee_api_arith_mpi.c:530
    29d4:	e24bd00c 	sub	sp, fp, #12
    29d8:	e89d6800 	ldm	sp, {fp, sp, lr}
/home/rossierd/soo.tech/soo/optee_os/lib/libutee/tee_api_arith_mpi.c:529
    29dc:	eaffffe9 	b	2988 <TEE_BigIntMulMod>

000029e0 <TEE_BigIntInvMod>:
TEE_BigIntInvMod():
/home/rossierd/soo.tech/soo/optee_os/lib/libutee/tee_api_arith_mpi.c:534
    29e0:	e1a0c00d 	mov	ip, sp
    29e4:	e92dd9f0 	push	{r4, r5, r6, r7, r8, fp, ip, lr, pc}
    29e8:	e24cb004 	sub	fp, ip, #4
    29ec:	e24dd02c 	sub	sp, sp, #44	; 0x2c
    29f0:	e1a08000 	mov	r8, r0
    29f4:	e1a05001 	mov	r5, r1
/home/rossierd/soo.tech/soo/optee_os/lib/libutee/tee_api_arith_mpi.c:535
    29f8:	e1a00002 	mov	r0, r2
    29fc:	e3a01002 	mov	r1, #2
/home/rossierd/soo.tech/soo/optee_os/lib/libutee/tee_api_arith_mpi.c:534
    2a00:	e1a06002 	mov	r6, r2
/home/rossierd/soo.tech/soo/optee_os/lib/libutee/tee_api_arith_mpi.c:535
    2a04:	ebfffdbf 	bl	2108 <TEE_BigIntCmpS32>
    2a08:	e3500000 	cmp	r0, #0
    2a0c:	aa000006 	bge	2a2c <TEE_BigIntInvMod+0x4c>
/home/rossierd/soo.tech/soo/optee_os/lib/libutee/tee_api_arith_mpi.c:536
    2a10:	e59f00dc 	ldr	r0, [pc, #220]	; 2af4 <TEE_BigIntInvMod+0x114>
    2a14:	e3a01f86 	mov	r1, #536	; 0x218
    2a18:	e59f20d8 	ldr	r2, [pc, #216]	; 2af8 <TEE_BigIntInvMod+0x118>
    2a1c:	e08f0000 	add	r0, pc, r0
    2a20:	e08f2002 	add	r2, pc, r2
    2a24:	e28000c9 	add	r0, r0, #201	; 0xc9
    2a28:	eb00019e 	bl	30a8 <api_panic>
/home/rossierd/soo.tech/soo/optee_os/lib/libutee/tee_api_arith_mpi.c:535 (discriminator 1)
    2a2c:	e3a01000 	mov	r1, #0
    2a30:	e1a00005 	mov	r0, r5
    2a34:	ebfffdb3 	bl	2108 <TEE_BigIntCmpS32>
    2a38:	e3500000 	cmp	r0, #0
    2a3c:	0afffff3 	beq	2a10 <TEE_BigIntInvMod+0x30>
/home/rossierd/soo.tech/soo/optee_os/lib/libutee/tee_api_arith_mpi.c:543
    2a40:	e24b4048 	sub	r4, fp, #72	; 0x48
    2a44:	e1a01008 	mov	r1, r8
    2a48:	e1a00004 	mov	r0, r4
/home/rossierd/soo.tech/soo/optee_os/lib/libutee/tee_api_arith_mpi.c:544
    2a4c:	e24b7030 	sub	r7, fp, #48	; 0x30
/home/rossierd/soo.tech/soo/optee_os/lib/libutee/tee_api_arith_mpi.c:543
    2a50:	ebfffa94 	bl	14a8 <get_mpi>
/home/rossierd/soo.tech/soo/optee_os/lib/libutee/tee_api_arith_mpi.c:544
    2a54:	e1a01006 	mov	r1, r6
    2a58:	e1a00007 	mov	r0, r7
    2a5c:	ebfffa91 	bl	14a8 <get_mpi>
/home/rossierd/soo.tech/soo/optee_os/lib/libutee/tee_api_arith_mpi.c:546
    2a60:	e1550008 	cmp	r5, r8
    2a64:	e24b603c 	sub	r6, fp, #60	; 0x3c
/home/rossierd/soo.tech/soo/optee_os/lib/libutee/tee_api_arith_mpi.c:547
    2a68:	01a05004 	moveq	r5, r4
/home/rossierd/soo.tech/soo/optee_os/lib/libutee/tee_api_arith_mpi.c:546
    2a6c:	0a000003 	beq	2a80 <TEE_BigIntInvMod+0xa0>
/home/rossierd/soo.tech/soo/optee_os/lib/libutee/tee_api_arith_mpi.c:549
    2a70:	e1a01005 	mov	r1, r5
    2a74:	e1a00006 	mov	r0, r6
/home/rossierd/soo.tech/soo/optee_os/lib/libutee/tee_api_arith_mpi.c:541
    2a78:	e1a05006 	mov	r5, r6
/home/rossierd/soo.tech/soo/optee_os/lib/libutee/tee_api_arith_mpi.c:549
    2a7c:	ebfffa89 	bl	14a8 <get_mpi>
/home/rossierd/soo.tech/soo/optee_os/lib/libutee/tee_api_arith_mpi.c:551
    2a80:	e1a02007 	mov	r2, r7
    2a84:	e1a01005 	mov	r1, r5
    2a88:	e1a00004 	mov	r0, r4
    2a8c:	eb000e46 	bl	63ac <mbedtls_mpi_inv_mod>
    2a90:	e2502000 	subs	r2, r0, #0
    2a94:	0a000004 	beq	2aac <TEE_BigIntInvMod+0xcc>
/home/rossierd/soo.tech/soo/optee_os/lib/libutee/tee_api_arith_mpi.c:551 (discriminator 1)
    2a98:	e59f005c 	ldr	r0, [pc, #92]	; 2afc <TEE_BigIntInvMod+0x11c>
    2a9c:	e3001227 	movw	r1, #551	; 0x227
    2aa0:	e08f0000 	add	r0, pc, r0
/home/rossierd/soo.tech/soo/optee_os/lib/libutee/tee_api_arith_mpi.c:553 (discriminator 1)
    2aa4:	e28000c9 	add	r0, r0, #201	; 0xc9
    2aa8:	ebfffa70 	bl	1470 <mpi_panic>
/home/rossierd/soo.tech/soo/optee_os/lib/libutee/tee_api_arith_mpi.c:553
    2aac:	e1a01008 	mov	r1, r8
    2ab0:	e1a00004 	mov	r0, r4
    2ab4:	ebfffa9f 	bl	1538 <copy_mpi_to_bigint>
    2ab8:	e2502000 	subs	r2, r0, #0
/home/rossierd/soo.tech/soo/optee_os/lib/libutee/tee_api_arith_mpi.c:553 (discriminator 1)
    2abc:	159f003c 	ldrne	r0, [pc, #60]	; 2b00 <TEE_BigIntInvMod+0x120>
    2ac0:	13001229 	movwne	r1, #553	; 0x229
    2ac4:	108f0000 	addne	r0, pc, r0
    2ac8:	1afffff5 	bne	2aa4 <TEE_BigIntInvMod+0xc4>
/home/rossierd/soo.tech/soo/optee_os/lib/libutee/tee_api_arith_mpi.c:554
    2acc:	e1a00004 	mov	r0, r4
    2ad0:	eb00036c 	bl	3888 <mbedtls_mpi_free>
/home/rossierd/soo.tech/soo/optee_os/lib/libutee/tee_api_arith_mpi.c:555
    2ad4:	e1a00007 	mov	r0, r7
    2ad8:	eb00036a 	bl	3888 <mbedtls_mpi_free>
/home/rossierd/soo.tech/soo/optee_os/lib/libutee/tee_api_arith_mpi.c:556
    2adc:	e1550006 	cmp	r5, r6
    2ae0:	1a000001 	bne	2aec <TEE_BigIntInvMod+0x10c>
/home/rossierd/soo.tech/soo/optee_os/lib/libutee/tee_api_arith_mpi.c:557
    2ae4:	e1a00005 	mov	r0, r5
    2ae8:	eb000366 	bl	3888 <mbedtls_mpi_free>
/home/rossierd/soo.tech/soo/optee_os/lib/libutee/tee_api_arith_mpi.c:558
    2aec:	e24bd020 	sub	sp, fp, #32
    2af0:	e89da9f0 	ldm	sp, {r4, r5, r6, r7, r8, fp, sp, pc}
    2af4:	00006ba6 	.word	0x00006ba6
    2af8:	00006d6b 	.word	0x00006d6b
    2afc:	00006b22 	.word	0x00006b22
    2b00:	00006afe 	.word	0x00006afe

00002b04 <TEE_BigIntRelativePrime>:
TEE_BigIntRelativePrime():
/home/rossierd/soo.tech/soo/optee_os/lib/libutee/tee_api_arith_mpi.c:561
    2b04:	e1a0c00d 	mov	ip, sp
    2b08:	e92dd9f0 	push	{r4, r5, r6, r7, r8, fp, ip, lr, pc}
    2b0c:	e24cb004 	sub	fp, ip, #4
    2b10:	e24dd02c 	sub	sp, sp, #44	; 0x2c
/home/rossierd/soo.tech/soo/optee_os/lib/libutee/tee_api_arith_mpi.c:568
    2b14:	e24b5048 	sub	r5, fp, #72	; 0x48
/home/rossierd/soo.tech/soo/optee_os/lib/libutee/tee_api_arith_mpi.c:561
    2b18:	e1a04000 	mov	r4, r0
    2b1c:	e1a06001 	mov	r6, r1
/home/rossierd/soo.tech/soo/optee_os/lib/libutee/tee_api_arith_mpi.c:568
    2b20:	e1a01000 	mov	r1, r0
    2b24:	e1a00005 	mov	r0, r5
    2b28:	ebfffa5e 	bl	14a8 <get_mpi>
/home/rossierd/soo.tech/soo/optee_os/lib/libutee/tee_api_arith_mpi.c:570
    2b2c:	e1540006 	cmp	r4, r6
    2b30:	e24b403c 	sub	r4, fp, #60	; 0x3c
/home/rossierd/soo.tech/soo/optee_os/lib/libutee/tee_api_arith_mpi.c:571
    2b34:	01a08005 	moveq	r8, r5
/home/rossierd/soo.tech/soo/optee_os/lib/libutee/tee_api_arith_mpi.c:570
    2b38:	0a000003 	beq	2b4c <TEE_BigIntRelativePrime+0x48>
/home/rossierd/soo.tech/soo/optee_os/lib/libutee/tee_api_arith_mpi.c:573
    2b3c:	e1a01006 	mov	r1, r6
    2b40:	e1a00004 	mov	r0, r4
/home/rossierd/soo.tech/soo/optee_os/lib/libutee/tee_api_arith_mpi.c:565
    2b44:	e1a08004 	mov	r8, r4
/home/rossierd/soo.tech/soo/optee_os/lib/libutee/tee_api_arith_mpi.c:573
    2b48:	ebfffa56 	bl	14a8 <get_mpi>
get_mpi():
/home/rossierd/soo.tech/soo/optee_os/lib/libutee/tee_api_arith_mpi.c:101
    2b4c:	e24b6030 	sub	r6, fp, #48	; 0x30
    2b50:	e1a00006 	mov	r0, r6
    2b54:	eb000338 	bl	383c <mbedtls_mpi_init_mempool>
TEE_BigIntRelativePrime():
/home/rossierd/soo.tech/soo/optee_os/lib/libutee/tee_api_arith_mpi.c:577
    2b58:	e1a02004 	mov	r2, r4
    2b5c:	e1a01005 	mov	r1, r5
    2b60:	e1a00006 	mov	r0, r6
    2b64:	eb000ce4 	bl	5efc <mbedtls_mpi_gcd>
    2b68:	e2502000 	subs	r2, r0, #0
    2b6c:	0a000004 	beq	2b84 <TEE_BigIntRelativePrime+0x80>
/home/rossierd/soo.tech/soo/optee_os/lib/libutee/tee_api_arith_mpi.c:577 (discriminator 1)
    2b70:	e59f004c 	ldr	r0, [pc, #76]	; 2bc4 <TEE_BigIntRelativePrime+0xc0>
    2b74:	e3001241 	movw	r1, #577	; 0x241
    2b78:	e08f0000 	add	r0, pc, r0
    2b7c:	e28000da 	add	r0, r0, #218	; 0xda
    2b80:	ebfffa3a 	bl	1470 <mpi_panic>
/home/rossierd/soo.tech/soo/optee_os/lib/libutee/tee_api_arith_mpi.c:579
    2b84:	e3a01001 	mov	r1, #1
    2b88:	e1a00006 	mov	r0, r6
    2b8c:	eb000657 	bl	44f0 <mbedtls_mpi_cmp_int>
    2b90:	e16f7f10 	clz	r7, r0
/home/rossierd/soo.tech/soo/optee_os/lib/libutee/tee_api_arith_mpi.c:581
    2b94:	e1a00006 	mov	r0, r6
    2b98:	eb00033a 	bl	3888 <mbedtls_mpi_free>
/home/rossierd/soo.tech/soo/optee_os/lib/libutee/tee_api_arith_mpi.c:582
    2b9c:	e1a00005 	mov	r0, r5
/home/rossierd/soo.tech/soo/optee_os/lib/libutee/tee_api_arith_mpi.c:579
    2ba0:	e1a072a7 	lsr	r7, r7, #5
/home/rossierd/soo.tech/soo/optee_os/lib/libutee/tee_api_arith_mpi.c:582
    2ba4:	eb000337 	bl	3888 <mbedtls_mpi_free>
/home/rossierd/soo.tech/soo/optee_os/lib/libutee/tee_api_arith_mpi.c:583
    2ba8:	e1580004 	cmp	r8, r4
    2bac:	1a000001 	bne	2bb8 <TEE_BigIntRelativePrime+0xb4>
/home/rossierd/soo.tech/soo/optee_os/lib/libutee/tee_api_arith_mpi.c:584
    2bb0:	e1a00008 	mov	r0, r8
    2bb4:	eb000333 	bl	3888 <mbedtls_mpi_free>
/home/rossierd/soo.tech/soo/optee_os/lib/libutee/tee_api_arith_mpi.c:587
    2bb8:	e1a00007 	mov	r0, r7
    2bbc:	e24bd020 	sub	sp, fp, #32
    2bc0:	e89da9f0 	ldm	sp, {r4, r5, r6, r7, r8, fp, sp, pc}
    2bc4:	00006a4a 	.word	0x00006a4a

00002bc8 <TEE_BigIntComputeExtendedGcd>:
TEE_BigIntComputeExtendedGcd():
/home/rossierd/soo.tech/soo/optee_os/lib/libutee/tee_api_arith_mpi.c:698
    2bc8:	e1a0c00d 	mov	ip, sp
    2bcc:	e92ddff0 	push	{r4, r5, r6, r7, r8, r9, sl, fp, ip, lr, pc}
    2bd0:	e24cb004 	sub	fp, ip, #4
    2bd4:	e24dd05c 	sub	sp, sp, #92	; 0x5c
/home/rossierd/soo.tech/soo/optee_os/lib/libutee/tee_api_arith_mpi.c:704
    2bd8:	e24b6068 	sub	r6, fp, #104	; 0x68
/home/rossierd/soo.tech/soo/optee_os/lib/libutee/tee_api_arith_mpi.c:698
    2bdc:	e1a07003 	mov	r7, r3
/home/rossierd/soo.tech/soo/optee_os/lib/libutee/tee_api_arith_mpi.c:705
    2be0:	e24b505c 	sub	r5, fp, #92	; 0x5c
/home/rossierd/soo.tech/soo/optee_os/lib/libutee/tee_api_arith_mpi.c:698
    2be4:	e59b4004 	ldr	r4, [fp, #4]
    2be8:	e50b0070 	str	r0, [fp, #-112]	; 0xffffff90
    2bec:	e1a0a001 	mov	sl, r1
/home/rossierd/soo.tech/soo/optee_os/lib/libutee/tee_api_arith_mpi.c:704
    2bf0:	e1a01000 	mov	r1, r0
    2bf4:	e1a00006 	mov	r0, r6
/home/rossierd/soo.tech/soo/optee_os/lib/libutee/tee_api_arith_mpi.c:698
    2bf8:	e1a09002 	mov	r9, r2
/home/rossierd/soo.tech/soo/optee_os/lib/libutee/tee_api_arith_mpi.c:704
    2bfc:	ebfffa29 	bl	14a8 <get_mpi>
/home/rossierd/soo.tech/soo/optee_os/lib/libutee/tee_api_arith_mpi.c:705
    2c00:	e1a01007 	mov	r1, r7
    2c04:	e1a00005 	mov	r0, r5
    2c08:	ebfffa26 	bl	14a8 <get_mpi>
/home/rossierd/soo.tech/soo/optee_os/lib/libutee/tee_api_arith_mpi.c:707
    2c0c:	e1570004 	cmp	r7, r4
/home/rossierd/soo.tech/soo/optee_os/lib/libutee/tee_api_arith_mpi.c:708
    2c10:	01a04005 	moveq	r4, r5
/home/rossierd/soo.tech/soo/optee_os/lib/libutee/tee_api_arith_mpi.c:707
    2c14:	0a000003 	beq	2c28 <TEE_BigIntComputeExtendedGcd+0x60>
/home/rossierd/soo.tech/soo/optee_os/lib/libutee/tee_api_arith_mpi.c:710
    2c18:	e1a01004 	mov	r1, r4
    2c1c:	e24b4050 	sub	r4, fp, #80	; 0x50
    2c20:	e1a00004 	mov	r0, r4
    2c24:	ebfffa1f 	bl	14a8 <get_mpi>
/home/rossierd/soo.tech/soo/optee_os/lib/libutee/tee_api_arith_mpi.c:712
    2c28:	e35a0000 	cmp	sl, #0
    2c2c:	03590000 	cmpeq	r9, #0
    2c30:	1a00000d 	bne	2c6c <TEE_BigIntComputeExtendedGcd+0xa4>
/home/rossierd/soo.tech/soo/optee_os/lib/libutee/tee_api_arith_mpi.c:713
    2c34:	e51b3070 	ldr	r3, [fp, #-112]	; 0xffffff90
    2c38:	e3530000 	cmp	r3, #0
    2c3c:	0a00005f 	beq	2dc0 <TEE_BigIntComputeExtendedGcd+0x1f8>
/home/rossierd/soo.tech/soo/optee_os/lib/libutee/tee_api_arith_mpi.c:714
    2c40:	e1a02004 	mov	r2, r4
    2c44:	e1a01005 	mov	r1, r5
    2c48:	e1a00006 	mov	r0, r6
    2c4c:	eb000caa 	bl	5efc <mbedtls_mpi_gcd>
    2c50:	e2502000 	subs	r2, r0, #0
    2c54:	0a000059 	beq	2dc0 <TEE_BigIntComputeExtendedGcd+0x1f8>
/home/rossierd/soo.tech/soo/optee_os/lib/libutee/tee_api_arith_mpi.c:714 (discriminator 1)
    2c58:	e59f01ac 	ldr	r0, [pc, #428]	; 2e0c <TEE_BigIntComputeExtendedGcd+0x244>
    2c5c:	e30012cb 	movw	r1, #715	; 0x2cb
    2c60:	e08f0000 	add	r0, pc, r0
/home/rossierd/soo.tech/soo/optee_os/lib/libutee/tee_api_arith_mpi.c:731 (discriminator 1)
    2c64:	e28000f2 	add	r0, r0, #242	; 0xf2
    2c68:	ebfffa00 	bl	1470 <mpi_panic>
/home/rossierd/soo.tech/soo/optee_os/lib/libutee/tee_api_arith_mpi.c:719
    2c6c:	e15b35dc 	ldrsb	r3, [fp, #-92]	; 0xffffffa4
/home/rossierd/soo.tech/soo/optee_os/lib/libutee/tee_api_arith_mpi.c:726
    2c70:	e24b8044 	sub	r8, fp, #68	; 0x44
    2c74:	e1a0100a 	mov	r1, sl
    2c78:	e1a00008 	mov	r0, r8
/home/rossierd/soo.tech/soo/optee_os/lib/libutee/tee_api_arith_mpi.c:727
    2c7c:	e24b7038 	sub	r7, fp, #56	; 0x38
/home/rossierd/soo.tech/soo/optee_os/lib/libutee/tee_api_arith_mpi.c:719
    2c80:	e50b3074 	str	r3, [fp, #-116]	; 0xffffff8c
/home/rossierd/soo.tech/soo/optee_os/lib/libutee/tee_api_arith_mpi.c:720
    2c84:	e1d430d0 	ldrsb	r3, [r4]
    2c88:	e50b3078 	str	r3, [fp, #-120]	; 0xffffff88
/home/rossierd/soo.tech/soo/optee_os/lib/libutee/tee_api_arith_mpi.c:723
    2c8c:	e3a03001 	mov	r3, #1
/home/rossierd/soo.tech/soo/optee_os/lib/libutee/tee_api_arith_mpi.c:724
    2c90:	e50b307c 	str	r3, [fp, #-124]	; 0xffffff84
/home/rossierd/soo.tech/soo/optee_os/lib/libutee/tee_api_arith_mpi.c:723
    2c94:	e14b35bc 	strh	r3, [fp, #-92]	; 0xffffffa4
/home/rossierd/soo.tech/soo/optee_os/lib/libutee/tee_api_arith_mpi.c:724
    2c98:	e1c430b0 	strh	r3, [r4]
/home/rossierd/soo.tech/soo/optee_os/lib/libutee/tee_api_arith_mpi.c:726
    2c9c:	ebfffa01 	bl	14a8 <get_mpi>
/home/rossierd/soo.tech/soo/optee_os/lib/libutee/tee_api_arith_mpi.c:727
    2ca0:	e1a01009 	mov	r1, r9
    2ca4:	e1a00007 	mov	r0, r7
    2ca8:	ebfff9fe 	bl	14a8 <get_mpi>
/home/rossierd/soo.tech/soo/optee_os/lib/libutee/tee_api_arith_mpi.c:729
    2cac:	e1a01004 	mov	r1, r4
    2cb0:	e1a00005 	mov	r0, r5
    2cb4:	eb000595 	bl	4310 <mbedtls_mpi_cmp_abs>
/home/rossierd/soo.tech/soo/optee_os/lib/libutee/tee_api_arith_mpi.c:730
    2cb8:	e3500000 	cmp	r0, #0
    2cbc:	1a000019 	bne	2d28 <TEE_BigIntComputeExtendedGcd+0x160>
/home/rossierd/soo.tech/soo/optee_os/lib/libutee/tee_api_arith_mpi.c:731
    2cc0:	e1a01005 	mov	r1, r5
    2cc4:	e1a00006 	mov	r0, r6
    2cc8:	eb00039b 	bl	3b3c <mbedtls_mpi_copy>
    2ccc:	e2502000 	subs	r2, r0, #0
    2cd0:	e51b307c 	ldr	r3, [fp, #-124]	; 0xffffff84
/home/rossierd/soo.tech/soo/optee_os/lib/libutee/tee_api_arith_mpi.c:731 (discriminator 1)
    2cd4:	159f0134 	ldrne	r0, [pc, #308]	; 2e10 <TEE_BigIntComputeExtendedGcd+0x248>
    2cd8:	130012db 	movwne	r1, #731	; 0x2db
    2cdc:	108f0000 	addne	r0, pc, r0
    2ce0:	1affffdf 	bne	2c64 <TEE_BigIntComputeExtendedGcd+0x9c>
/home/rossierd/soo.tech/soo/optee_os/lib/libutee/tee_api_arith_mpi.c:732
    2ce4:	e1a01003 	mov	r1, r3
    2ce8:	e1a00008 	mov	r0, r8
    2cec:	eb000432 	bl	3dbc <mbedtls_mpi_lset>
    2cf0:	e2502000 	subs	r2, r0, #0
/home/rossierd/soo.tech/soo/optee_os/lib/libutee/tee_api_arith_mpi.c:732 (discriminator 1)
    2cf4:	159f0118 	ldrne	r0, [pc, #280]	; 2e14 <TEE_BigIntComputeExtendedGcd+0x24c>
    2cf8:	13a01fb7 	movne	r1, #732	; 0x2dc
    2cfc:	108f0000 	addne	r0, pc, r0
    2d00:	1affffd7 	bne	2c64 <TEE_BigIntComputeExtendedGcd+0x9c>
/home/rossierd/soo.tech/soo/optee_os/lib/libutee/tee_api_arith_mpi.c:733
    2d04:	e1a01002 	mov	r1, r2
    2d08:	e1a00007 	mov	r0, r7
    2d0c:	eb00042a 	bl	3dbc <mbedtls_mpi_lset>
    2d10:	e2502000 	subs	r2, r0, #0
    2d14:	0a00000d 	beq	2d50 <TEE_BigIntComputeExtendedGcd+0x188>
/home/rossierd/soo.tech/soo/optee_os/lib/libutee/tee_api_arith_mpi.c:733 (discriminator 1)
    2d18:	e59f00f8 	ldr	r0, [pc, #248]	; 2e18 <TEE_BigIntComputeExtendedGcd+0x250>
    2d1c:	e30012dd 	movw	r1, #733	; 0x2dd
    2d20:	e08f0000 	add	r0, pc, r0
    2d24:	eaffffce 	b	2c64 <TEE_BigIntComputeExtendedGcd+0x9c>
/home/rossierd/soo.tech/soo/optee_os/lib/libutee/tee_api_arith_mpi.c:735
    2d28:	c1a03005 	movgt	r3, r5
    2d2c:	c1a02007 	movgt	r2, r7
    2d30:	c58d4000 	strgt	r4, [sp]
    2d34:	c1a01008 	movgt	r1, r8
/home/rossierd/soo.tech/soo/optee_os/lib/libutee/tee_api_arith_mpi.c:737
    2d38:	d1a03004 	movle	r3, r4
    2d3c:	d58d5000 	strle	r5, [sp]
    2d40:	d1a02008 	movle	r2, r8
    2d44:	d1a01007 	movle	r1, r7
    2d48:	e1a00006 	mov	r0, r6
    2d4c:	ebfffa6c 	bl	1704 <mpi_egcd>
/home/rossierd/soo.tech/soo/optee_os/lib/libutee/tee_api_arith_mpi.c:740
    2d50:	e15b34b4 	ldrh	r3, [fp, #-68]	; 0xffffffbc
/home/rossierd/soo.tech/soo/optee_os/lib/libutee/tee_api_arith_mpi.c:743
    2d54:	e1a0100a 	mov	r1, sl
    2d58:	e1a00008 	mov	r0, r8
/home/rossierd/soo.tech/soo/optee_os/lib/libutee/tee_api_arith_mpi.c:740
    2d5c:	e15b27b4 	ldrh	r2, [fp, #-116]	; 0xffffff8c
    2d60:	e1630283 	smulbb	r3, r3, r2
/home/rossierd/soo.tech/soo/optee_os/lib/libutee/tee_api_arith_mpi.c:741
    2d64:	e15b27b8 	ldrh	r2, [fp, #-120]	; 0xffffff88
/home/rossierd/soo.tech/soo/optee_os/lib/libutee/tee_api_arith_mpi.c:740
    2d68:	e14b34b4 	strh	r3, [fp, #-68]	; 0xffffffbc
/home/rossierd/soo.tech/soo/optee_os/lib/libutee/tee_api_arith_mpi.c:741
    2d6c:	e15b33b8 	ldrh	r3, [fp, #-56]	; 0xffffffc8
    2d70:	e1630283 	smulbb	r3, r3, r2
    2d74:	e14b33b8 	strh	r3, [fp, #-56]	; 0xffffffc8
/home/rossierd/soo.tech/soo/optee_os/lib/libutee/tee_api_arith_mpi.c:743
    2d78:	ebfff9ee 	bl	1538 <copy_mpi_to_bigint>
    2d7c:	e2502000 	subs	r2, r0, #0
/home/rossierd/soo.tech/soo/optee_os/lib/libutee/tee_api_arith_mpi.c:743 (discriminator 1)
    2d80:	159f0094 	ldrne	r0, [pc, #148]	; 2e1c <TEE_BigIntComputeExtendedGcd+0x254>
    2d84:	130012e7 	movwne	r1, #743	; 0x2e7
    2d88:	108f0000 	addne	r0, pc, r0
    2d8c:	1affffb4 	bne	2c64 <TEE_BigIntComputeExtendedGcd+0x9c>
/home/rossierd/soo.tech/soo/optee_os/lib/libutee/tee_api_arith_mpi.c:744
    2d90:	e1a01009 	mov	r1, r9
    2d94:	e1a00007 	mov	r0, r7
    2d98:	ebfff9e6 	bl	1538 <copy_mpi_to_bigint>
    2d9c:	e2502000 	subs	r2, r0, #0
/home/rossierd/soo.tech/soo/optee_os/lib/libutee/tee_api_arith_mpi.c:744 (discriminator 1)
    2da0:	159f0078 	ldrne	r0, [pc, #120]	; 2e20 <TEE_BigIntComputeExtendedGcd+0x258>
    2da4:	13a01fba 	movne	r1, #744	; 0x2e8
    2da8:	108f0000 	addne	r0, pc, r0
    2dac:	1affffac 	bne	2c64 <TEE_BigIntComputeExtendedGcd+0x9c>
/home/rossierd/soo.tech/soo/optee_os/lib/libutee/tee_api_arith_mpi.c:745
    2db0:	e1a00008 	mov	r0, r8
    2db4:	eb0002b3 	bl	3888 <mbedtls_mpi_free>
/home/rossierd/soo.tech/soo/optee_os/lib/libutee/tee_api_arith_mpi.c:746
    2db8:	e1a00007 	mov	r0, r7
    2dbc:	eb0002b1 	bl	3888 <mbedtls_mpi_free>
/home/rossierd/soo.tech/soo/optee_os/lib/libutee/tee_api_arith_mpi.c:749
    2dc0:	e1a00006 	mov	r0, r6
    2dc4:	e51b1070 	ldr	r1, [fp, #-112]	; 0xffffff90
    2dc8:	ebfff9da 	bl	1538 <copy_mpi_to_bigint>
    2dcc:	e2502000 	subs	r2, r0, #0
/home/rossierd/soo.tech/soo/optee_os/lib/libutee/tee_api_arith_mpi.c:749 (discriminator 1)
    2dd0:	159f004c 	ldrne	r0, [pc, #76]	; 2e24 <TEE_BigIntComputeExtendedGcd+0x25c>
    2dd4:	130012ed 	movwne	r1, #749	; 0x2ed
    2dd8:	108f0000 	addne	r0, pc, r0
    2ddc:	1affffa0 	bne	2c64 <TEE_BigIntComputeExtendedGcd+0x9c>
/home/rossierd/soo.tech/soo/optee_os/lib/libutee/tee_api_arith_mpi.c:750
    2de0:	e1a00006 	mov	r0, r6
    2de4:	eb0002a7 	bl	3888 <mbedtls_mpi_free>
/home/rossierd/soo.tech/soo/optee_os/lib/libutee/tee_api_arith_mpi.c:751
    2de8:	e1a00005 	mov	r0, r5
    2dec:	eb0002a5 	bl	3888 <mbedtls_mpi_free>
/home/rossierd/soo.tech/soo/optee_os/lib/libutee/tee_api_arith_mpi.c:752
    2df0:	e24b3050 	sub	r3, fp, #80	; 0x50
    2df4:	e1540003 	cmp	r4, r3
    2df8:	1a000001 	bne	2e04 <TEE_BigIntComputeExtendedGcd+0x23c>
/home/rossierd/soo.tech/soo/optee_os/lib/libutee/tee_api_arith_mpi.c:753
    2dfc:	e1a00004 	mov	r0, r4
    2e00:	eb0002a0 	bl	3888 <mbedtls_mpi_free>
/home/rossierd/soo.tech/soo/optee_os/lib/libutee/tee_api_arith_mpi.c:754
    2e04:	e24bd028 	sub	sp, fp, #40	; 0x28
    2e08:	e89daff0 	ldm	sp, {r4, r5, r6, r7, r8, r9, sl, fp, sp, pc}
    2e0c:	00006962 	.word	0x00006962
    2e10:	000068e6 	.word	0x000068e6
    2e14:	000068c6 	.word	0x000068c6
    2e18:	000068a2 	.word	0x000068a2
    2e1c:	0000683a 	.word	0x0000683a
    2e20:	0000681a 	.word	0x0000681a
    2e24:	000067ea 	.word	0x000067ea

00002e28 <TEE_BigIntIsProbablePrime>:
TEE_BigIntIsProbablePrime():
/home/rossierd/soo.tech/soo/optee_os/lib/libutee/tee_api_arith_mpi.c:765
    2e28:	e1a0c00d 	mov	ip, sp
/home/rossierd/soo.tech/soo/optee_os/lib/libutee/tee_api_arith_mpi.c:769
    2e2c:	e1a01000 	mov	r1, r0
/home/rossierd/soo.tech/soo/optee_os/lib/libutee/tee_api_arith_mpi.c:765
    2e30:	e92dd830 	push	{r4, r5, fp, ip, lr, pc}
    2e34:	e24cb004 	sub	fp, ip, #4
    2e38:	e24dd010 	sub	sp, sp, #16
/home/rossierd/soo.tech/soo/optee_os/lib/libutee/tee_api_arith_mpi.c:769
    2e3c:	e24b4020 	sub	r4, fp, #32
    2e40:	e1a00004 	mov	r0, r4
    2e44:	ebfff997 	bl	14a8 <get_mpi>
/home/rossierd/soo.tech/soo/optee_os/lib/libutee/tee_api_arith_mpi.c:771
    2e48:	e59f1028 	ldr	r1, [pc, #40]	; 2e78 <TEE_BigIntIsProbablePrime+0x50>
    2e4c:	e3a02000 	mov	r2, #0
    2e50:	e1a00004 	mov	r0, r4
    2e54:	e08f1001 	add	r1, pc, r1
    2e58:	eb000e93 	bl	68ac <mbedtls_mpi_is_prime>
    2e5c:	e1a05000 	mov	r5, r0
/home/rossierd/soo.tech/soo/optee_os/lib/libutee/tee_api_arith_mpi.c:773
    2e60:	e1a00004 	mov	r0, r4
    2e64:	eb000287 	bl	3888 <mbedtls_mpi_free>
/home/rossierd/soo.tech/soo/optee_os/lib/libutee/tee_api_arith_mpi.c:779
    2e68:	e16f0f15 	clz	r0, r5
    2e6c:	e1a002a0 	lsr	r0, r0, #5
    2e70:	e24bd014 	sub	sp, fp, #20
    2e74:	e89da830 	ldm	sp, {r4, r5, fp, sp, pc}
    2e78:	ffffe880 	.word	0xffffe880

00002e7c <TEE_BigIntInitFMM>:
TEE_BigIntInitFMM():
/home/rossierd/soo.tech/soo/optee_os/lib/libutee/tee_api_arith_mpi.c:790
    2e7c:	e1a0c00d 	mov	ip, sp
    2e80:	e92dd800 	push	{fp, ip, lr, pc}
    2e84:	e24cb004 	sub	fp, ip, #4
/home/rossierd/soo.tech/soo/optee_os/lib/libutee/tee_api_arith_mpi.c:792
    2e88:	e24bd00c 	sub	sp, fp, #12
    2e8c:	e89d6800 	ldm	sp, {fp, sp, lr}
/home/rossierd/soo.tech/soo/optee_os/lib/libutee/tee_api_arith_mpi.c:791
    2e90:	eafffbd1 	b	1ddc <TEE_BigIntInit>

00002e94 <TEE_BigIntInitFMMContext>:
TEE_BigIntInitFMMContext():
/home/rossierd/soo.tech/soo/optee_os/lib/libutee/tee_api_arith_mpi.c:797
    2e94:	e1a0c00d 	mov	ip, sp
    2e98:	e92dd800 	push	{fp, ip, lr, pc}
    2e9c:	e24cb004 	sub	fp, ip, #4
    2ea0:	e89da800 	ldm	sp, {fp, sp, pc}

00002ea4 <TEE_BigIntFMMSizeInU32>:
TEE_BigIntFMMSizeInU32():
/home/rossierd/soo.tech/soo/optee_os/lib/libutee/tee_api_arith_mpi.c:802
    2ea4:	e280001f 	add	r0, r0, #31
/home/rossierd/soo.tech/soo/optee_os/lib/libutee/tee_api_arith_mpi.c:801
    2ea8:	e1a0c00d 	mov	ip, sp
/home/rossierd/soo.tech/soo/optee_os/lib/libutee/tee_api_arith_mpi.c:802
    2eac:	e1a002a0 	lsr	r0, r0, #5
/home/rossierd/soo.tech/soo/optee_os/lib/libutee/tee_api_arith_mpi.c:801
    2eb0:	e92dd800 	push	{fp, ip, lr, pc}
    2eb4:	e24cb004 	sub	fp, ip, #4
/home/rossierd/soo.tech/soo/optee_os/lib/libutee/tee_api_arith_mpi.c:803
    2eb8:	e2800002 	add	r0, r0, #2
    2ebc:	e89da800 	ldm	sp, {fp, sp, pc}

00002ec0 <TEE_BigIntFMMContextSizeInU32>:
TEE_BigIntFMMContextSizeInU32():
/home/rossierd/soo.tech/soo/optee_os/lib/libutee/tee_api_arith_mpi.c:806
    2ec0:	e1a0c00d 	mov	ip, sp
/home/rossierd/soo.tech/soo/optee_os/lib/libutee/tee_api_arith_mpi.c:809
    2ec4:	e3a00001 	mov	r0, #1
/home/rossierd/soo.tech/soo/optee_os/lib/libutee/tee_api_arith_mpi.c:806
    2ec8:	e92dd800 	push	{fp, ip, lr, pc}
    2ecc:	e24cb004 	sub	fp, ip, #4
/home/rossierd/soo.tech/soo/optee_os/lib/libutee/tee_api_arith_mpi.c:809
    2ed0:	e89da800 	ldm	sp, {fp, sp, pc}

00002ed4 <TEE_BigIntConvertToFMM>:
TEE_BigIntConvertToFMM():
/home/rossierd/soo.tech/soo/optee_os/lib/libutee/tee_api_arith_mpi.c:814
    2ed4:	e1a0c00d 	mov	ip, sp
    2ed8:	e92dd800 	push	{fp, ip, lr, pc}
    2edc:	e24cb004 	sub	fp, ip, #4
/home/rossierd/soo.tech/soo/optee_os/lib/libutee/tee_api_arith_mpi.c:816
    2ee0:	e24bd00c 	sub	sp, fp, #12
    2ee4:	e89d6800 	ldm	sp, {fp, sp, lr}
/home/rossierd/soo.tech/soo/optee_os/lib/libutee/tee_api_arith_mpi.c:815
    2ee8:	eafffe68 	b	2890 <TEE_BigIntMod>

00002eec <TEE_BigIntConvertFromFMM>:
TEE_BigIntConvertFromFMM():
/home/rossierd/soo.tech/soo/optee_os/lib/libutee/tee_api_arith_mpi.c:821
    2eec:	e1a0c00d 	mov	ip, sp
    2ef0:	e92dd8f0 	push	{r4, r5, r6, r7, fp, ip, lr, pc}
    2ef4:	e24cb004 	sub	fp, ip, #4
    2ef8:	e24dd018 	sub	sp, sp, #24
/home/rossierd/soo.tech/soo/optee_os/lib/libutee/tee_api_arith_mpi.c:825
    2efc:	e24b4034 	sub	r4, fp, #52	; 0x34
/home/rossierd/soo.tech/soo/optee_os/lib/libutee/tee_api_arith_mpi.c:821
    2f00:	e1a07001 	mov	r7, r1
/home/rossierd/soo.tech/soo/optee_os/lib/libutee/tee_api_arith_mpi.c:826
    2f04:	e24b5028 	sub	r5, fp, #40	; 0x28
/home/rossierd/soo.tech/soo/optee_os/lib/libutee/tee_api_arith_mpi.c:825
    2f08:	e1a01000 	mov	r1, r0
/home/rossierd/soo.tech/soo/optee_os/lib/libutee/tee_api_arith_mpi.c:821
    2f0c:	e1a06000 	mov	r6, r0
/home/rossierd/soo.tech/soo/optee_os/lib/libutee/tee_api_arith_mpi.c:825
    2f10:	e1a00004 	mov	r0, r4
    2f14:	ebfff963 	bl	14a8 <get_mpi>
/home/rossierd/soo.tech/soo/optee_os/lib/libutee/tee_api_arith_mpi.c:826
    2f18:	e1a01007 	mov	r1, r7
    2f1c:	e1a00005 	mov	r0, r5
    2f20:	ebfff960 	bl	14a8 <get_mpi>
/home/rossierd/soo.tech/soo/optee_os/lib/libutee/tee_api_arith_mpi.c:828
    2f24:	e1a01005 	mov	r1, r5
    2f28:	e1a00004 	mov	r0, r4
    2f2c:	eb000302 	bl	3b3c <mbedtls_mpi_copy>
    2f30:	e2502000 	subs	r2, r0, #0
    2f34:	0a000005 	beq	2f50 <TEE_BigIntConvertFromFMM+0x64>
/home/rossierd/soo.tech/soo/optee_os/lib/libutee/tee_api_arith_mpi.c:828 (discriminator 1)
    2f38:	e59f0048 	ldr	r0, [pc, #72]	; 2f88 <TEE_BigIntConvertFromFMM+0x9c>
    2f3c:	e3a01fcf 	mov	r1, #828	; 0x33c
    2f40:	e08f0000 	add	r0, pc, r0
/home/rossierd/soo.tech/soo/optee_os/lib/libutee/tee_api_arith_mpi.c:830 (discriminator 1)
    2f44:	e2800f43 	add	r0, r0, #268	; 0x10c
    2f48:	e2800003 	add	r0, r0, #3
    2f4c:	ebfff947 	bl	1470 <mpi_panic>
/home/rossierd/soo.tech/soo/optee_os/lib/libutee/tee_api_arith_mpi.c:830
    2f50:	e1a01006 	mov	r1, r6
    2f54:	e1a00004 	mov	r0, r4
    2f58:	ebfff976 	bl	1538 <copy_mpi_to_bigint>
    2f5c:	e2502000 	subs	r2, r0, #0
/home/rossierd/soo.tech/soo/optee_os/lib/libutee/tee_api_arith_mpi.c:830 (discriminator 1)
    2f60:	159f0024 	ldrne	r0, [pc, #36]	; 2f8c <TEE_BigIntConvertFromFMM+0xa0>
    2f64:	1300133e 	movwne	r1, #830	; 0x33e
    2f68:	108f0000 	addne	r0, pc, r0
    2f6c:	1afffff4 	bne	2f44 <TEE_BigIntConvertFromFMM+0x58>
/home/rossierd/soo.tech/soo/optee_os/lib/libutee/tee_api_arith_mpi.c:831
    2f70:	e1a00004 	mov	r0, r4
    2f74:	eb000243 	bl	3888 <mbedtls_mpi_free>
/home/rossierd/soo.tech/soo/optee_os/lib/libutee/tee_api_arith_mpi.c:832
    2f78:	e1a00005 	mov	r0, r5
    2f7c:	eb000241 	bl	3888 <mbedtls_mpi_free>
/home/rossierd/soo.tech/soo/optee_os/lib/libutee/tee_api_arith_mpi.c:833
    2f80:	e24bd01c 	sub	sp, fp, #28
    2f84:	e89da8f0 	ldm	sp, {r4, r5, r6, r7, fp, sp, pc}
    2f88:	00006682 	.word	0x00006682
    2f8c:	0000665a 	.word	0x0000665a

00002f90 <TEE_BigIntComputeFMM>:
TEE_BigIntComputeFMM():
/home/rossierd/soo.tech/soo/optee_os/lib/libutee/tee_api_arith_mpi.c:838
    2f90:	e1a0c00d 	mov	ip, sp
    2f94:	e92ddbf0 	push	{r4, r5, r6, r7, r8, r9, fp, ip, lr, pc}
    2f98:	e24cb004 	sub	fp, ip, #4
    2f9c:	e24dd040 	sub	sp, sp, #64	; 0x40
/home/rossierd/soo.tech/soo/optee_os/lib/libutee/tee_api_arith_mpi.c:845
    2fa0:	e24b4060 	sub	r4, fp, #96	; 0x60
/home/rossierd/soo.tech/soo/optee_os/lib/libutee/tee_api_arith_mpi.c:838
    2fa4:	e1a07001 	mov	r7, r1
/home/rossierd/soo.tech/soo/optee_os/lib/libutee/tee_api_arith_mpi.c:846
    2fa8:	e24b6054 	sub	r6, fp, #84	; 0x54
/home/rossierd/soo.tech/soo/optee_os/lib/libutee/tee_api_arith_mpi.c:845
    2fac:	e1a01000 	mov	r1, r0
/home/rossierd/soo.tech/soo/optee_os/lib/libutee/tee_api_arith_mpi.c:838
    2fb0:	e1a09000 	mov	r9, r0
/home/rossierd/soo.tech/soo/optee_os/lib/libutee/tee_api_arith_mpi.c:845
    2fb4:	e1a00004 	mov	r0, r4
/home/rossierd/soo.tech/soo/optee_os/lib/libutee/tee_api_arith_mpi.c:838
    2fb8:	e1a08002 	mov	r8, r2
    2fbc:	e1a05003 	mov	r5, r3
/home/rossierd/soo.tech/soo/optee_os/lib/libutee/tee_api_arith_mpi.c:845
    2fc0:	ebfff938 	bl	14a8 <get_mpi>
/home/rossierd/soo.tech/soo/optee_os/lib/libutee/tee_api_arith_mpi.c:846
    2fc4:	e1a01007 	mov	r1, r7
    2fc8:	e1a00006 	mov	r0, r6
/home/rossierd/soo.tech/soo/optee_os/lib/libutee/tee_api_arith_mpi.c:847
    2fcc:	e24b7048 	sub	r7, fp, #72	; 0x48
/home/rossierd/soo.tech/soo/optee_os/lib/libutee/tee_api_arith_mpi.c:846
    2fd0:	ebfff934 	bl	14a8 <get_mpi>
/home/rossierd/soo.tech/soo/optee_os/lib/libutee/tee_api_arith_mpi.c:847
    2fd4:	e1a01008 	mov	r1, r8
    2fd8:	e1a00007 	mov	r0, r7
/home/rossierd/soo.tech/soo/optee_os/lib/libutee/tee_api_arith_mpi.c:848
    2fdc:	e24b803c 	sub	r8, fp, #60	; 0x3c
/home/rossierd/soo.tech/soo/optee_os/lib/libutee/tee_api_arith_mpi.c:847
    2fe0:	ebfff930 	bl	14a8 <get_mpi>
/home/rossierd/soo.tech/soo/optee_os/lib/libutee/tee_api_arith_mpi.c:848
    2fe4:	e1a01005 	mov	r1, r5
    2fe8:	e1a00008 	mov	r0, r8
get_mpi():
/home/rossierd/soo.tech/soo/optee_os/lib/libutee/tee_api_arith_mpi.c:101
    2fec:	e24b5030 	sub	r5, fp, #48	; 0x30
TEE_BigIntComputeFMM():
/home/rossierd/soo.tech/soo/optee_os/lib/libutee/tee_api_arith_mpi.c:848
    2ff0:	ebfff92c 	bl	14a8 <get_mpi>
get_mpi():
/home/rossierd/soo.tech/soo/optee_os/lib/libutee/tee_api_arith_mpi.c:101
    2ff4:	e1a00005 	mov	r0, r5
    2ff8:	eb00020f 	bl	383c <mbedtls_mpi_init_mempool>
TEE_BigIntComputeFMM():
/home/rossierd/soo.tech/soo/optee_os/lib/libutee/tee_api_arith_mpi.c:851
    2ffc:	e1a02007 	mov	r2, r7
    3000:	e1a01006 	mov	r1, r6
    3004:	e1a00005 	mov	r0, r5
    3008:	eb00063b 	bl	48fc <mbedtls_mpi_mul_mpi>
    300c:	e2502000 	subs	r2, r0, #0
    3010:	0a000004 	beq	3028 <TEE_BigIntComputeFMM+0x98>
/home/rossierd/soo.tech/soo/optee_os/lib/libutee/tee_api_arith_mpi.c:851 (discriminator 1)
    3014:	e59f0080 	ldr	r0, [pc, #128]	; 309c <TEE_BigIntComputeFMM+0x10c>
    3018:	e3001353 	movw	r1, #851	; 0x353
    301c:	e08f0000 	add	r0, pc, r0
/home/rossierd/soo.tech/soo/optee_os/lib/libutee/tee_api_arith_mpi.c:852 (discriminator 1)
    3020:	e2800f4a 	add	r0, r0, #296	; 0x128
    3024:	ebfff911 	bl	1470 <mpi_panic>
/home/rossierd/soo.tech/soo/optee_os/lib/libutee/tee_api_arith_mpi.c:852
    3028:	e1a02008 	mov	r2, r8
    302c:	e1a01005 	mov	r1, r5
    3030:	e1a00004 	mov	r0, r4
    3034:	eb000885 	bl	5250 <mbedtls_mpi_mod_mpi>
    3038:	e2502000 	subs	r2, r0, #0
/home/rossierd/soo.tech/soo/optee_os/lib/libutee/tee_api_arith_mpi.c:852 (discriminator 1)
    303c:	159f005c 	ldrne	r0, [pc, #92]	; 30a0 <TEE_BigIntComputeFMM+0x110>
    3040:	13a01fd5 	movne	r1, #852	; 0x354
    3044:	108f0000 	addne	r0, pc, r0
    3048:	1afffff4 	bne	3020 <TEE_BigIntComputeFMM+0x90>
/home/rossierd/soo.tech/soo/optee_os/lib/libutee/tee_api_arith_mpi.c:854
    304c:	e1a00005 	mov	r0, r5
    3050:	eb00020c 	bl	3888 <mbedtls_mpi_free>
/home/rossierd/soo.tech/soo/optee_os/lib/libutee/tee_api_arith_mpi.c:855
    3054:	e1a00008 	mov	r0, r8
    3058:	eb00020a 	bl	3888 <mbedtls_mpi_free>
/home/rossierd/soo.tech/soo/optee_os/lib/libutee/tee_api_arith_mpi.c:856
    305c:	e1a00007 	mov	r0, r7
    3060:	eb000208 	bl	3888 <mbedtls_mpi_free>
/home/rossierd/soo.tech/soo/optee_os/lib/libutee/tee_api_arith_mpi.c:857
    3064:	e1a00006 	mov	r0, r6
    3068:	eb000206 	bl	3888 <mbedtls_mpi_free>
/home/rossierd/soo.tech/soo/optee_os/lib/libutee/tee_api_arith_mpi.c:858
    306c:	e1a01009 	mov	r1, r9
    3070:	e1a00004 	mov	r0, r4
    3074:	ebfff92f 	bl	1538 <copy_mpi_to_bigint>
    3078:	e2502000 	subs	r2, r0, #0
/home/rossierd/soo.tech/soo/optee_os/lib/libutee/tee_api_arith_mpi.c:858 (discriminator 1)
    307c:	159f0020 	ldrne	r0, [pc, #32]	; 30a4 <TEE_BigIntComputeFMM+0x114>
    3080:	1300135a 	movwne	r1, #858	; 0x35a
    3084:	108f0000 	addne	r0, pc, r0
    3088:	1affffe4 	bne	3020 <TEE_BigIntComputeFMM+0x90>
/home/rossierd/soo.tech/soo/optee_os/lib/libutee/tee_api_arith_mpi.c:859
    308c:	e1a00004 	mov	r0, r4
    3090:	eb0001fc 	bl	3888 <mbedtls_mpi_free>
/home/rossierd/soo.tech/soo/optee_os/lib/libutee/tee_api_arith_mpi.c:860
    3094:	e24bd024 	sub	sp, fp, #36	; 0x24
    3098:	e89dabf0 	ldm	sp, {r4, r5, r6, r7, r8, r9, fp, sp, pc}
    309c:	000065a6 	.word	0x000065a6
    30a0:	0000657e 	.word	0x0000657e
    30a4:	0000653e 	.word	0x0000653e

000030a8 <api_panic>:
api_panic():
/home/rossierd/soo.tech/soo/optee_os/lib/libutee/tee_api_arith_mpi.c:20
    30a8:	e1a03002 	mov	r3, r2
    30ac:	e1a02001 	mov	r2, r1
    30b0:	e1a01000 	mov	r1, r0
    30b4:	e59f001c 	ldr	r0, [pc, #28]	; 30d8 <api_panic+0x30>
/home/rossierd/soo.tech/soo/optee_os/lib/libutee/tee_api_arith_mpi.c:19
    30b8:	e1a0c00d 	mov	ip, sp
    30bc:	e92dd800 	push	{fp, ip, lr, pc}
    30c0:	e24cb004 	sub	fp, ip, #4
/home/rossierd/soo.tech/soo/optee_os/lib/libutee/tee_api_arith_mpi.c:20
    30c4:	e08f0000 	add	r0, pc, r0
    30c8:	eb000013 	bl	311c <printf>
/home/rossierd/soo.tech/soo/optee_os/lib/libutee/tee_api_arith_mpi.c:21
    30cc:	e59f0008 	ldr	r0, [pc, #8]	; 30dc <api_panic+0x34>
    30d0:	ebfff87d 	bl	12cc <TEE_Panic>
    30d4:	eafffffe 	b	30d4 <api_panic+0x2c>
    30d8:	0000663b 	.word	0x0000663b
    30dc:	00b16127 	.word	0x00b16127

000030e0 <trace_ext_puts>:
trace_ext_puts():
/home/rossierd/soo.tech/soo/optee_os/lib/libutee/trace_ext.c:17
    30e0:	e1a0c00d 	mov	ip, sp
    30e4:	e92dd830 	push	{r4, r5, fp, ip, lr, pc}
    30e8:	e24cb004 	sub	fp, ip, #4
    30ec:	e1a04000 	mov	r4, r0
/home/rossierd/soo.tech/soo/optee_os/lib/libutee/trace_ext.c:18
    30f0:	eb00137f 	bl	7ef4 <strlen>
    30f4:	e1a01000 	mov	r1, r0
    30f8:	e1a00004 	mov	r0, r4
/home/rossierd/soo.tech/soo/optee_os/lib/libutee/trace_ext.c:19
    30fc:	e24bd014 	sub	sp, fp, #20
    3100:	e89d6830 	ldm	sp, {r4, r5, fp, sp, lr}
/home/rossierd/soo.tech/soo/optee_os/lib/libutee/trace_ext.c:18
    3104:	eafff413 	b	158 <utee_log>

00003108 <trace_ext_get_thread_id>:
trace_ext_get_thread_id():
/home/rossierd/soo.tech/soo/optee_os/lib/libutee/trace_ext.c:22
    3108:	e1a0c00d 	mov	ip, sp
/home/rossierd/soo.tech/soo/optee_os/lib/libutee/trace_ext.c:24
    310c:	e3e00000 	mvn	r0, #0
/home/rossierd/soo.tech/soo/optee_os/lib/libutee/trace_ext.c:22
    3110:	e92dd800 	push	{fp, ip, lr, pc}
    3114:	e24cb004 	sub	fp, ip, #4
/home/rossierd/soo.tech/soo/optee_os/lib/libutee/trace_ext.c:24
    3118:	e89da800 	ldm	sp, {fp, sp, pc}

0000311c <printf>:
printf():
/home/rossierd/soo.tech/soo/optee_os/lib/libutee/trace_ext.c:32
    311c:	e1a0c00d 	mov	ip, sp
    3120:	e92d000f 	push	{r0, r1, r2, r3}
    3124:	e92dd830 	push	{r4, r5, fp, ip, lr, pc}
    3128:	e24cb014 	sub	fp, ip, #20
    312c:	e24ddf42 	sub	sp, sp, #264	; 0x108
/home/rossierd/soo.tech/soo/optee_os/lib/libutee/trace_ext.c:37
    3130:	eb0016b2 	bl	8c00 <trace_get_level>
    3134:	e3500000 	cmp	r0, #0
/home/rossierd/soo.tech/soo/optee_os/lib/libutee/trace_ext.c:38
    3138:	d3a04000 	movle	r4, #0
/home/rossierd/soo.tech/soo/optee_os/lib/libutee/trace_ext.c:37
    313c:	da00000a 	ble	316c <printf+0x50>
/home/rossierd/soo.tech/soo/optee_os/lib/libutee/trace_ext.c:40
    3140:	e28b3008 	add	r3, fp, #8
/home/rossierd/soo.tech/soo/optee_os/lib/libutee/trace_ext.c:41
    3144:	e24b5f45 	sub	r5, fp, #276	; 0x114
    3148:	e59b2004 	ldr	r2, [fp, #4]
    314c:	e3a01c01 	mov	r1, #256	; 0x100
    3150:	e1a00005 	mov	r0, r5
/home/rossierd/soo.tech/soo/optee_os/lib/libutee/trace_ext.c:40
    3154:	e50b3118 	str	r3, [fp, #-280]	; 0xfffffee8
/home/rossierd/soo.tech/soo/optee_os/lib/libutee/trace_ext.c:41
    3158:	eb001330 	bl	7e20 <vsnprintf>
/home/rossierd/soo.tech/soo/optee_os/lib/libutee/trace_ext.c:44
    315c:	e2504000 	subs	r4, r0, #0
    3160:	ba000001 	blt	316c <printf+0x50>
/home/rossierd/soo.tech/soo/optee_os/lib/libutee/trace_ext.c:47
    3164:	e1a00005 	mov	r0, r5
    3168:	ebffffdc 	bl	30e0 <trace_ext_puts>
/home/rossierd/soo.tech/soo/optee_os/lib/libutee/trace_ext.c:50
    316c:	e1a00004 	mov	r0, r4
    3170:	e24bd014 	sub	sp, fp, #20
    3174:	e89da830 	ldm	sp, {r4, r5, fp, sp, pc}

00003178 <puts>:
puts():
/home/rossierd/soo.tech/soo/optee_os/lib/libutee/trace_ext.c:53
    3178:	e1a0c00d 	mov	ip, sp
    317c:	e92dd830 	push	{r4, r5, fp, ip, lr, pc}
    3180:	e24cb004 	sub	fp, ip, #4
    3184:	e1a04000 	mov	r4, r0
/home/rossierd/soo.tech/soo/optee_os/lib/libutee/trace_ext.c:54
    3188:	eb00169c 	bl	8c00 <trace_get_level>
    318c:	e3500000 	cmp	r0, #0
    3190:	da000004 	ble	31a8 <puts+0x30>
/home/rossierd/soo.tech/soo/optee_os/lib/libutee/trace_ext.c:55
    3194:	e1a00004 	mov	r0, r4
    3198:	ebffffd0 	bl	30e0 <trace_ext_puts>
/home/rossierd/soo.tech/soo/optee_os/lib/libutee/trace_ext.c:56
    319c:	e59f000c 	ldr	r0, [pc, #12]	; 31b0 <puts+0x38>
    31a0:	e08f0000 	add	r0, pc, r0
    31a4:	ebffffcd 	bl	30e0 <trace_ext_puts>
/home/rossierd/soo.tech/soo/optee_os/lib/libutee/trace_ext.c:59
    31a8:	e3a00001 	mov	r0, #1
    31ac:	e89da830 	ldm	sp, {r4, r5, fp, sp, pc}
    31b0:	00006a71 	.word	0x00006a71

000031b4 <putchar>:
putchar():
/home/rossierd/soo.tech/soo/optee_os/lib/libutee/trace_ext.c:62
    31b4:	e1a0c00d 	mov	ip, sp
/home/rossierd/soo.tech/soo/optee_os/lib/libutee/trace_ext.c:63
    31b8:	e3a03000 	mov	r3, #0
/home/rossierd/soo.tech/soo/optee_os/lib/libutee/trace_ext.c:62
    31bc:	e92dd810 	push	{r4, fp, ip, lr, pc}
    31c0:	e24cb004 	sub	fp, ip, #4
    31c4:	e24dd00c 	sub	sp, sp, #12
    31c8:	e1a04000 	mov	r4, r0
/home/rossierd/soo.tech/soo/optee_os/lib/libutee/trace_ext.c:63
    31cc:	e54b0018 	strb	r0, [fp, #-24]	; 0xffffffe8
    31d0:	e54b3017 	strb	r3, [fp, #-23]	; 0xffffffe9
/home/rossierd/soo.tech/soo/optee_os/lib/libutee/trace_ext.c:65
    31d4:	eb001689 	bl	8c00 <trace_get_level>
    31d8:	e3500000 	cmp	r0, #0
    31dc:	da000001 	ble	31e8 <putchar+0x34>
/home/rossierd/soo.tech/soo/optee_os/lib/libutee/trace_ext.c:66
    31e0:	e24b0018 	sub	r0, fp, #24
    31e4:	ebffffbd 	bl	30e0 <trace_ext_puts>
/home/rossierd/soo.tech/soo/optee_os/lib/libutee/trace_ext.c:73
    31e8:	e6ef0074 	uxtb	r0, r4
    31ec:	e24bd010 	sub	sp, fp, #16
    31f0:	e89da810 	ldm	sp, {r4, fp, sp, pc}

000031f4 <mpi_get_digit>:
mpi_get_digit():
/home/rossierd/soo.tech/soo/optee_os/lib/libmbedtls/mbedtls/library/bignum.c:489
    31f4:	e1a0c00d 	mov	ip, sp
/home/rossierd/soo.tech/soo/optee_os/lib/libmbedtls/mbedtls/library/bignum.c:492
    31f8:	e2423030 	sub	r3, r2, #48	; 0x30
/home/rossierd/soo.tech/soo/optee_os/lib/libmbedtls/mbedtls/library/bignum.c:489
    31fc:	e92dd800 	push	{fp, ip, lr, pc}
    3200:	e24cb004 	sub	fp, ip, #4
/home/rossierd/soo.tech/soo/optee_os/lib/libmbedtls/mbedtls/library/bignum.c:492
    3204:	e6efc073 	uxtb	ip, r3
    3208:	e35c0009 	cmp	ip, #9
/home/rossierd/soo.tech/soo/optee_os/lib/libmbedtls/mbedtls/library/bignum.c:490
    320c:	83a030ff 	movhi	r3, #255	; 0xff
/home/rossierd/soo.tech/soo/optee_os/lib/libmbedtls/mbedtls/library/bignum.c:492
    3210:	e5803000 	str	r3, [r0]
/home/rossierd/soo.tech/soo/optee_os/lib/libmbedtls/mbedtls/library/bignum.c:493
    3214:	e2423041 	sub	r3, r2, #65	; 0x41
    3218:	e3530005 	cmp	r3, #5
    321c:	92423037 	subls	r3, r2, #55	; 0x37
    3220:	95803000 	strls	r3, [r0]
/home/rossierd/soo.tech/soo/optee_os/lib/libmbedtls/mbedtls/library/bignum.c:494
    3224:	e2423061 	sub	r3, r2, #97	; 0x61
    3228:	e3530005 	cmp	r3, #5
    322c:	92422057 	subls	r2, r2, #87	; 0x57
    3230:	95802000 	strls	r2, [r0]
/home/rossierd/soo.tech/soo/optee_os/lib/libmbedtls/mbedtls/library/bignum.c:496
    3234:	e5903000 	ldr	r3, [r0]
    3238:	e1530001 	cmp	r3, r1
/home/rossierd/soo.tech/soo/optee_os/lib/libmbedtls/mbedtls/library/bignum.c:500
    323c:	23e00005 	mvncs	r0, #5
    3240:	33a00000 	movcc	r0, #0
    3244:	e89da800 	ldm	sp, {fp, sp, pc}

00003248 <mpi_sub_hlp>:
mpi_sub_hlp():
/home/rossierd/soo.tech/soo/optee_os/lib/libmbedtls/mbedtls/library/bignum.c:1085
    3248:	e1a0c00d 	mov	ip, sp
/home/rossierd/soo.tech/soo/optee_os/lib/libmbedtls/mbedtls/library/bignum.c:1089
    324c:	e3a03000 	mov	r3, #0
/home/rossierd/soo.tech/soo/optee_os/lib/libmbedtls/mbedtls/library/bignum.c:1085
    3250:	e92dd8f0 	push	{r4, r5, r6, r7, fp, ip, lr, pc}
    3254:	e24cb004 	sub	fp, ip, #4
/home/rossierd/soo.tech/soo/optee_os/lib/libmbedtls/mbedtls/library/bignum.c:1089
    3258:	e1a04002 	mov	r4, r2
    325c:	e1a0c003 	mov	ip, r3
/home/rossierd/soo.tech/soo/optee_os/lib/libmbedtls/mbedtls/library/bignum.c:1089 (discriminator 1)
    3260:	e15c0000 	cmp	ip, r0
    3264:	1a000003 	bne	3278 <mpi_sub_hlp+0x30>
    3268:	e082210c 	add	r2, r2, ip, lsl #2
/home/rossierd/soo.tech/soo/optee_os/lib/libmbedtls/mbedtls/library/bignum.c:1095
    326c:	e3530000 	cmp	r3, #0
    3270:	1a00000e 	bne	32b0 <mpi_sub_hlp+0x68>
/home/rossierd/soo.tech/soo/optee_os/lib/libmbedtls/mbedtls/library/bignum.c:1100
    3274:	e89da8f0 	ldm	sp, {r4, r5, r6, r7, fp, sp, pc}
/home/rossierd/soo.tech/soo/optee_os/lib/libmbedtls/mbedtls/library/bignum.c:1091 (discriminator 3)
    3278:	e5946000 	ldr	r6, [r4]
    327c:	e046e003 	sub	lr, r6, r3
    3280:	e584e000 	str	lr, [r4]
/home/rossierd/soo.tech/soo/optee_os/lib/libmbedtls/mbedtls/library/bignum.c:1092 (discriminator 3)
    3284:	e791510c 	ldr	r5, [r1, ip, lsl #2]
/home/rossierd/soo.tech/soo/optee_os/lib/libmbedtls/mbedtls/library/bignum.c:1089 (discriminator 3)
    3288:	e28cc001 	add	ip, ip, #1
/home/rossierd/soo.tech/soo/optee_os/lib/libmbedtls/mbedtls/library/bignum.c:1092 (discriminator 3)
    328c:	e15e0005 	cmp	lr, r5
    3290:	e04ee005 	sub	lr, lr, r5
    3294:	23a07000 	movcs	r7, #0
    3298:	33a07001 	movcc	r7, #1
    329c:	e1530006 	cmp	r3, r6
    32a0:	91a03007 	movls	r3, r7
    32a4:	82873001 	addhi	r3, r7, #1
    32a8:	e484e004 	str	lr, [r4], #4
    32ac:	eaffffeb 	b	3260 <mpi_sub_hlp+0x18>
/home/rossierd/soo.tech/soo/optee_os/lib/libmbedtls/mbedtls/library/bignum.c:1097
    32b0:	e5921000 	ldr	r1, [r2]
    32b4:	e0410003 	sub	r0, r1, r3
/home/rossierd/soo.tech/soo/optee_os/lib/libmbedtls/mbedtls/library/bignum.c:1098
    32b8:	e1530001 	cmp	r3, r1
    32bc:	93a03000 	movls	r3, #0
    32c0:	83a03001 	movhi	r3, #1
/home/rossierd/soo.tech/soo/optee_os/lib/libmbedtls/mbedtls/library/bignum.c:1097
    32c4:	e4820004 	str	r0, [r2], #4
    32c8:	eaffffe7 	b	326c <mpi_sub_hlp+0x24>

000032cc <mpi_mul_hlp>:
mpi_mul_hlp():
/home/rossierd/soo.tech/soo/optee_os/lib/libmbedtls/mbedtls/library/bignum.c:1266
    32cc:	e1a0c00d 	mov	ip, sp
    32d0:	e92ddbf0 	push	{r4, r5, r6, r7, r8, r9, fp, ip, lr, pc}
    32d4:	e24cb004 	sub	fp, ip, #4
    32d8:	e1a0e001 	mov	lr, r1
    32dc:	e1a0c002 	mov	ip, r2
/home/rossierd/soo.tech/soo/optee_os/lib/libmbedtls/mbedtls/library/bignum.c:1284
    32e0:	e1a06000 	mov	r6, r0
/home/rossierd/soo.tech/soo/optee_os/lib/libmbedtls/mbedtls/library/bignum.c:1267
    32e4:	e3a07000 	mov	r7, #0
/home/rossierd/soo.tech/soo/optee_os/lib/libmbedtls/mbedtls/library/bignum.c:1284 (discriminator 1)
    32e8:	e356000f 	cmp	r6, #15
    32ec:	e28ee040 	add	lr, lr, #64	; 0x40
    32f0:	e28cc040 	add	ip, ip, #64	; 0x40
    32f4:	8a000077 	bhi	34d8 <mpi_mul_hlp+0x20c>
    32f8:	e1a06220 	lsr	r6, r0, #4
    32fc:	e0400206 	sub	r0, r0, r6, lsl #4
    3300:	e1a0c306 	lsl	ip, r6, #6
/home/rossierd/soo.tech/soo/optee_os/lib/libmbedtls/mbedtls/library/bignum.c:1299
    3304:	e3500007 	cmp	r0, #7
    3308:	e081e00c 	add	lr, r1, ip
    330c:	e082c00c 	add	ip, r2, ip
    3310:	9a00005f 	bls	3494 <mpi_mul_hlp+0x1c8>
/home/rossierd/soo.tech/soo/optee_os/lib/libmbedtls/mbedtls/library/bignum.c:1302
    3314:	e7914306 	ldr	r4, [r1, r6, lsl #6]
    3318:	e3a01000 	mov	r1, #0
    331c:	e0854493 	umull	r4, r5, r3, r4
    3320:	e0977004 	adds	r7, r7, r4
    3324:	e7924306 	ldr	r4, [r2, r6, lsl #6]
    3328:	23a08001 	movcs	r8, #1
    332c:	33a08000 	movcc	r8, #0
    3330:	e0888005 	add	r8, r8, r5
    3334:	e0977004 	adds	r7, r7, r4
    3338:	23a01001 	movcs	r1, #1
    333c:	e7827306 	str	r7, [r2, r6, lsl #6]
    3340:	e59e4004 	ldr	r4, [lr, #4]
    3344:	e0812008 	add	r2, r1, r8
    3348:	e0854493 	umull	r4, r5, r3, r4
    334c:	e0922004 	adds	r2, r2, r4
    3350:	e59c4004 	ldr	r4, [ip, #4]
    3354:	23a01001 	movcs	r1, #1
    3358:	33a01000 	movcc	r1, #0
    335c:	e0816005 	add	r6, r1, r5
    3360:	e3a01000 	mov	r1, #0
    3364:	e0922004 	adds	r2, r2, r4
    3368:	23a01001 	movcs	r1, #1
    336c:	e58c2004 	str	r2, [ip, #4]
/home/rossierd/soo.tech/soo/optee_os/lib/libmbedtls/mbedtls/library/bignum.c:1303
    3370:	e59e4008 	ldr	r4, [lr, #8]
/home/rossierd/soo.tech/soo/optee_os/lib/libmbedtls/mbedtls/library/bignum.c:1302
    3374:	e0811006 	add	r1, r1, r6
/home/rossierd/soo.tech/soo/optee_os/lib/libmbedtls/mbedtls/library/bignum.c:1303
    3378:	e0854493 	umull	r4, r5, r3, r4
    337c:	e0911004 	adds	r1, r1, r4
    3380:	e59c4008 	ldr	r4, [ip, #8]
    3384:	23a02001 	movcs	r2, #1
    3388:	33a02000 	movcc	r2, #0
    338c:	e0826005 	add	r6, r2, r5
    3390:	e3a02000 	mov	r2, #0
    3394:	e0911004 	adds	r1, r1, r4
    3398:	23a02001 	movcs	r2, #1
    339c:	e58c1008 	str	r1, [ip, #8]
    33a0:	e59e400c 	ldr	r4, [lr, #12]
    33a4:	e0822006 	add	r2, r2, r6
    33a8:	e0854493 	umull	r4, r5, r3, r4
    33ac:	e0922004 	adds	r2, r2, r4
    33b0:	e59c400c 	ldr	r4, [ip, #12]
    33b4:	23a01001 	movcs	r1, #1
    33b8:	33a01000 	movcc	r1, #0
    33bc:	e0816005 	add	r6, r1, r5
    33c0:	e3a01000 	mov	r1, #0
    33c4:	e0922004 	adds	r2, r2, r4
    33c8:	23a01001 	movcs	r1, #1
    33cc:	e58c200c 	str	r2, [ip, #12]
/home/rossierd/soo.tech/soo/optee_os/lib/libmbedtls/mbedtls/library/bignum.c:1305
    33d0:	e59e4010 	ldr	r4, [lr, #16]
/home/rossierd/soo.tech/soo/optee_os/lib/libmbedtls/mbedtls/library/bignum.c:1303
    33d4:	e0811006 	add	r1, r1, r6
/home/rossierd/soo.tech/soo/optee_os/lib/libmbedtls/mbedtls/library/bignum.c:1305
    33d8:	e0854493 	umull	r4, r5, r3, r4
    33dc:	e0911004 	adds	r1, r1, r4
    33e0:	e59c4010 	ldr	r4, [ip, #16]
    33e4:	23a02001 	movcs	r2, #1
    33e8:	33a02000 	movcc	r2, #0
    33ec:	e0826005 	add	r6, r2, r5
    33f0:	e3a02000 	mov	r2, #0
    33f4:	e0911004 	adds	r1, r1, r4
    33f8:	23a02001 	movcs	r2, #1
    33fc:	e58c1010 	str	r1, [ip, #16]
    3400:	e59e4014 	ldr	r4, [lr, #20]
    3404:	e0822006 	add	r2, r2, r6
    3408:	e0854493 	umull	r4, r5, r3, r4
    340c:	e0922004 	adds	r2, r2, r4
    3410:	e59c4014 	ldr	r4, [ip, #20]
    3414:	23a01001 	movcs	r1, #1
    3418:	33a01000 	movcc	r1, #0
    341c:	e0816005 	add	r6, r1, r5
    3420:	e3a01000 	mov	r1, #0
    3424:	e0922004 	adds	r2, r2, r4
    3428:	23a01001 	movcs	r1, #1
    342c:	e58c2014 	str	r2, [ip, #20]
/home/rossierd/soo.tech/soo/optee_os/lib/libmbedtls/mbedtls/library/bignum.c:1306
    3430:	e59e4018 	ldr	r4, [lr, #24]
/home/rossierd/soo.tech/soo/optee_os/lib/libmbedtls/mbedtls/library/bignum.c:1305
    3434:	e0811006 	add	r1, r1, r6
/home/rossierd/soo.tech/soo/optee_os/lib/libmbedtls/mbedtls/library/bignum.c:1306
    3438:	e0854493 	umull	r4, r5, r3, r4
    343c:	e0911004 	adds	r1, r1, r4
    3440:	e59c4018 	ldr	r4, [ip, #24]
    3444:	23a02001 	movcs	r2, #1
    3448:	33a02000 	movcc	r2, #0
    344c:	e0826005 	add	r6, r2, r5
    3450:	e3a02000 	mov	r2, #0
    3454:	e0911004 	adds	r1, r1, r4
    3458:	23a02001 	movcs	r2, #1
    345c:	e58c1018 	str	r1, [ip, #24]
    3460:	e59e401c 	ldr	r4, [lr, #28]
    3464:	e0822006 	add	r2, r2, r6
    3468:	e0854493 	umull	r4, r5, r3, r4
    346c:	e0922004 	adds	r2, r2, r4
    3470:	e59c401c 	ldr	r4, [ip, #28]
    3474:	23a07001 	movcs	r7, #1
    3478:	33a07000 	movcc	r7, #0
    347c:	e0871005 	add	r1, r7, r5
    3480:	e3a07000 	mov	r7, #0
    3484:	e0922004 	adds	r2, r2, r4
    3488:	23a07001 	movcs	r7, #1
    348c:	e0877001 	add	r7, r7, r1
    3490:	e58c201c 	str	r2, [ip, #28]
    3494:	e1a021a0 	lsr	r2, r0, #3
    3498:	e1a01282 	lsl	r1, r2, #5
    349c:	e0400182 	sub	r0, r0, r2, lsl #3
    34a0:	e08cc001 	add	ip, ip, r1
    34a4:	e08ee001 	add	lr, lr, r1
    34a8:	e08c0100 	add	r0, ip, r0, lsl #2
/home/rossierd/soo.tech/soo/optee_os/lib/libmbedtls/mbedtls/library/bignum.c:1310 (discriminator 1)
    34ac:	e15c0000 	cmp	ip, r0
    34b0:	1a0000ca 	bne	37e0 <mpi_mul_hlp+0x514>
    34b4:	e5903000 	ldr	r3, [r0]
    34b8:	e3a02000 	mov	r2, #0
    34bc:	e0977003 	adds	r7, r7, r3
    34c0:	23a02001 	movcs	r2, #1
/home/rossierd/soo.tech/soo/optee_os/lib/libmbedtls/mbedtls/library/bignum.c:1323 (discriminator 1)
    34c4:	e3520000 	cmp	r2, #0
/home/rossierd/soo.tech/soo/optee_os/lib/libmbedtls/mbedtls/library/bignum.c:1321 (discriminator 1)
    34c8:	e4807004 	str	r7, [r0], #4
    34cc:	e3a07001 	mov	r7, #1
/home/rossierd/soo.tech/soo/optee_os/lib/libmbedtls/mbedtls/library/bignum.c:1323 (discriminator 1)
    34d0:	1afffff7 	bne	34b4 <mpi_mul_hlp+0x1e8>
/home/rossierd/soo.tech/soo/optee_os/lib/libmbedtls/mbedtls/library/bignum.c:1324
    34d4:	e89dabf0 	ldm	sp, {r4, r5, r6, r7, r8, r9, fp, sp, pc}
/home/rossierd/soo.tech/soo/optee_os/lib/libmbedtls/mbedtls/library/bignum.c:1287 (discriminator 2)
    34d8:	e51e4040 	ldr	r4, [lr, #-64]	; 0xffffffc0
    34dc:	e3a08000 	mov	r8, #0
/home/rossierd/soo.tech/soo/optee_os/lib/libmbedtls/mbedtls/library/bignum.c:1284 (discriminator 2)
    34e0:	e2466010 	sub	r6, r6, #16
/home/rossierd/soo.tech/soo/optee_os/lib/libmbedtls/mbedtls/library/bignum.c:1287 (discriminator 2)
    34e4:	e0854493 	umull	r4, r5, r3, r4
    34e8:	e0977004 	adds	r7, r7, r4
    34ec:	e51c4040 	ldr	r4, [ip, #-64]	; 0xffffffc0
    34f0:	23a09001 	movcs	r9, #1
    34f4:	33a09000 	movcc	r9, #0
    34f8:	e0899005 	add	r9, r9, r5
    34fc:	e0977004 	adds	r7, r7, r4
    3500:	23a08001 	movcs	r8, #1
    3504:	e50c7040 	str	r7, [ip, #-64]	; 0xffffffc0
    3508:	e51e403c 	ldr	r4, [lr, #-60]	; 0xffffffc4
    350c:	e0887009 	add	r7, r8, r9
    3510:	e0854493 	umull	r4, r5, r3, r4
    3514:	e0974004 	adds	r4, r7, r4
    3518:	23a08001 	movcs	r8, #1
    351c:	33a08000 	movcc	r8, #0
    3520:	e0887005 	add	r7, r8, r5
    3524:	e51c503c 	ldr	r5, [ip, #-60]	; 0xffffffc4
    3528:	e3a08000 	mov	r8, #0
    352c:	e0944005 	adds	r4, r4, r5
    3530:	23a08001 	movcs	r8, #1
    3534:	e50c403c 	str	r4, [ip, #-60]	; 0xffffffc4
/home/rossierd/soo.tech/soo/optee_os/lib/libmbedtls/mbedtls/library/bignum.c:1288 (discriminator 2)
    3538:	e51e4038 	ldr	r4, [lr, #-56]	; 0xffffffc8
/home/rossierd/soo.tech/soo/optee_os/lib/libmbedtls/mbedtls/library/bignum.c:1287 (discriminator 2)
    353c:	e0888007 	add	r8, r8, r7
/home/rossierd/soo.tech/soo/optee_os/lib/libmbedtls/mbedtls/library/bignum.c:1288 (discriminator 2)
    3540:	e0854493 	umull	r4, r5, r3, r4
    3544:	e0988004 	adds	r8, r8, r4
    3548:	e51c4038 	ldr	r4, [ip, #-56]	; 0xffffffc8
    354c:	23a07001 	movcs	r7, #1
    3550:	33a07000 	movcc	r7, #0
    3554:	e0879005 	add	r9, r7, r5
    3558:	e3a07000 	mov	r7, #0
    355c:	e0988004 	adds	r8, r8, r4
    3560:	23a07001 	movcs	r7, #1
    3564:	e50c8038 	str	r8, [ip, #-56]	; 0xffffffc8
    3568:	e51e4034 	ldr	r4, [lr, #-52]	; 0xffffffcc
    356c:	e0877009 	add	r7, r7, r9
    3570:	e0854493 	umull	r4, r5, r3, r4
    3574:	e0974004 	adds	r4, r7, r4
    3578:	23a08001 	movcs	r8, #1
    357c:	33a08000 	movcc	r8, #0
    3580:	e0887005 	add	r7, r8, r5
    3584:	e51c5034 	ldr	r5, [ip, #-52]	; 0xffffffcc
    3588:	e3a08000 	mov	r8, #0
    358c:	e0944005 	adds	r4, r4, r5
    3590:	23a08001 	movcs	r8, #1
    3594:	e50c4034 	str	r4, [ip, #-52]	; 0xffffffcc
/home/rossierd/soo.tech/soo/optee_os/lib/libmbedtls/mbedtls/library/bignum.c:1289 (discriminator 2)
    3598:	e51e4030 	ldr	r4, [lr, #-48]	; 0xffffffd0
/home/rossierd/soo.tech/soo/optee_os/lib/libmbedtls/mbedtls/library/bignum.c:1288 (discriminator 2)
    359c:	e0888007 	add	r8, r8, r7
/home/rossierd/soo.tech/soo/optee_os/lib/libmbedtls/mbedtls/library/bignum.c:1289 (discriminator 2)
    35a0:	e0854493 	umull	r4, r5, r3, r4
    35a4:	e0988004 	adds	r8, r8, r4
    35a8:	e51c4030 	ldr	r4, [ip, #-48]	; 0xffffffd0
    35ac:	23a07001 	movcs	r7, #1
    35b0:	33a07000 	movcc	r7, #0
    35b4:	e0879005 	add	r9, r7, r5
    35b8:	e3a07000 	mov	r7, #0
    35bc:	e0988004 	adds	r8, r8, r4
    35c0:	23a07001 	movcs	r7, #1
    35c4:	e50c8030 	str	r8, [ip, #-48]	; 0xffffffd0
    35c8:	e51e402c 	ldr	r4, [lr, #-44]	; 0xffffffd4
    35cc:	e0877009 	add	r7, r7, r9
    35d0:	e0854493 	umull	r4, r5, r3, r4
    35d4:	e0974004 	adds	r4, r7, r4
    35d8:	23a08001 	movcs	r8, #1
    35dc:	33a08000 	movcc	r8, #0
    35e0:	e0887005 	add	r7, r8, r5
    35e4:	e51c502c 	ldr	r5, [ip, #-44]	; 0xffffffd4
    35e8:	e3a08000 	mov	r8, #0
    35ec:	e0944005 	adds	r4, r4, r5
    35f0:	23a08001 	movcs	r8, #1
    35f4:	e50c402c 	str	r4, [ip, #-44]	; 0xffffffd4
/home/rossierd/soo.tech/soo/optee_os/lib/libmbedtls/mbedtls/library/bignum.c:1290 (discriminator 2)
    35f8:	e51e4028 	ldr	r4, [lr, #-40]	; 0xffffffd8
/home/rossierd/soo.tech/soo/optee_os/lib/libmbedtls/mbedtls/library/bignum.c:1289 (discriminator 2)
    35fc:	e0888007 	add	r8, r8, r7
/home/rossierd/soo.tech/soo/optee_os/lib/libmbedtls/mbedtls/library/bignum.c:1290 (discriminator 2)
    3600:	e0854493 	umull	r4, r5, r3, r4
    3604:	e0988004 	adds	r8, r8, r4
    3608:	e51c4028 	ldr	r4, [ip, #-40]	; 0xffffffd8
    360c:	23a07001 	movcs	r7, #1
    3610:	33a07000 	movcc	r7, #0
    3614:	e0879005 	add	r9, r7, r5
    3618:	e3a07000 	mov	r7, #0
    361c:	e0988004 	adds	r8, r8, r4
    3620:	23a07001 	movcs	r7, #1
    3624:	e50c8028 	str	r8, [ip, #-40]	; 0xffffffd8
    3628:	e51e4024 	ldr	r4, [lr, #-36]	; 0xffffffdc
    362c:	e0877009 	add	r7, r7, r9
    3630:	e0854493 	umull	r4, r5, r3, r4
    3634:	e0974004 	adds	r4, r7, r4
    3638:	23a08001 	movcs	r8, #1
    363c:	33a08000 	movcc	r8, #0
    3640:	e0887005 	add	r7, r8, r5
    3644:	e51c5024 	ldr	r5, [ip, #-36]	; 0xffffffdc
    3648:	e3a08000 	mov	r8, #0
    364c:	e0944005 	adds	r4, r4, r5
    3650:	23a08001 	movcs	r8, #1
    3654:	e50c4024 	str	r4, [ip, #-36]	; 0xffffffdc
/home/rossierd/soo.tech/soo/optee_os/lib/libmbedtls/mbedtls/library/bignum.c:1292 (discriminator 2)
    3658:	e51e4020 	ldr	r4, [lr, #-32]	; 0xffffffe0
/home/rossierd/soo.tech/soo/optee_os/lib/libmbedtls/mbedtls/library/bignum.c:1290 (discriminator 2)
    365c:	e0888007 	add	r8, r8, r7
/home/rossierd/soo.tech/soo/optee_os/lib/libmbedtls/mbedtls/library/bignum.c:1292 (discriminator 2)
    3660:	e0854493 	umull	r4, r5, r3, r4
    3664:	e0988004 	adds	r8, r8, r4
    3668:	e51c4020 	ldr	r4, [ip, #-32]	; 0xffffffe0
    366c:	23a07001 	movcs	r7, #1
    3670:	33a07000 	movcc	r7, #0
    3674:	e0879005 	add	r9, r7, r5
    3678:	e3a07000 	mov	r7, #0
    367c:	e0988004 	adds	r8, r8, r4
    3680:	23a07001 	movcs	r7, #1
    3684:	e50c8020 	str	r8, [ip, #-32]	; 0xffffffe0
    3688:	e51e401c 	ldr	r4, [lr, #-28]	; 0xffffffe4
    368c:	e0877009 	add	r7, r7, r9
    3690:	e0854493 	umull	r4, r5, r3, r4
    3694:	e0974004 	adds	r4, r7, r4
    3698:	23a08001 	movcs	r8, #1
    369c:	33a08000 	movcc	r8, #0
    36a0:	e0887005 	add	r7, r8, r5
    36a4:	e51c501c 	ldr	r5, [ip, #-28]	; 0xffffffe4
    36a8:	e3a08000 	mov	r8, #0
    36ac:	e0944005 	adds	r4, r4, r5
    36b0:	23a08001 	movcs	r8, #1
    36b4:	e50c401c 	str	r4, [ip, #-28]	; 0xffffffe4
/home/rossierd/soo.tech/soo/optee_os/lib/libmbedtls/mbedtls/library/bignum.c:1293 (discriminator 2)
    36b8:	e51e4018 	ldr	r4, [lr, #-24]	; 0xffffffe8
/home/rossierd/soo.tech/soo/optee_os/lib/libmbedtls/mbedtls/library/bignum.c:1292 (discriminator 2)
    36bc:	e0888007 	add	r8, r8, r7
/home/rossierd/soo.tech/soo/optee_os/lib/libmbedtls/mbedtls/library/bignum.c:1293 (discriminator 2)
    36c0:	e0854493 	umull	r4, r5, r3, r4
    36c4:	e0988004 	adds	r8, r8, r4
    36c8:	e51c4018 	ldr	r4, [ip, #-24]	; 0xffffffe8
    36cc:	23a07001 	movcs	r7, #1
    36d0:	33a07000 	movcc	r7, #0
    36d4:	e0879005 	add	r9, r7, r5
    36d8:	e3a07000 	mov	r7, #0
    36dc:	e0988004 	adds	r8, r8, r4
    36e0:	23a07001 	movcs	r7, #1
    36e4:	e50c8018 	str	r8, [ip, #-24]	; 0xffffffe8
    36e8:	e51e4014 	ldr	r4, [lr, #-20]	; 0xffffffec
    36ec:	e0877009 	add	r7, r7, r9
    36f0:	e0854493 	umull	r4, r5, r3, r4
    36f4:	e0974004 	adds	r4, r7, r4
    36f8:	23a08001 	movcs	r8, #1
    36fc:	33a08000 	movcc	r8, #0
    3700:	e0887005 	add	r7, r8, r5
    3704:	e51c5014 	ldr	r5, [ip, #-20]	; 0xffffffec
    3708:	e3a08000 	mov	r8, #0
    370c:	e0944005 	adds	r4, r4, r5
    3710:	23a08001 	movcs	r8, #1
    3714:	e50c4014 	str	r4, [ip, #-20]	; 0xffffffec
/home/rossierd/soo.tech/soo/optee_os/lib/libmbedtls/mbedtls/library/bignum.c:1294 (discriminator 2)
    3718:	e51e4010 	ldr	r4, [lr, #-16]
/home/rossierd/soo.tech/soo/optee_os/lib/libmbedtls/mbedtls/library/bignum.c:1293 (discriminator 2)
    371c:	e0888007 	add	r8, r8, r7
/home/rossierd/soo.tech/soo/optee_os/lib/libmbedtls/mbedtls/library/bignum.c:1294 (discriminator 2)
    3720:	e0854493 	umull	r4, r5, r3, r4
    3724:	e0988004 	adds	r8, r8, r4
    3728:	e51c4010 	ldr	r4, [ip, #-16]
    372c:	23a07001 	movcs	r7, #1
    3730:	33a07000 	movcc	r7, #0
    3734:	e0879005 	add	r9, r7, r5
    3738:	e3a07000 	mov	r7, #0
    373c:	e0988004 	adds	r8, r8, r4
    3740:	23a07001 	movcs	r7, #1
    3744:	e50c8010 	str	r8, [ip, #-16]
    3748:	e51e400c 	ldr	r4, [lr, #-12]
    374c:	e0877009 	add	r7, r7, r9
    3750:	e0854493 	umull	r4, r5, r3, r4
    3754:	e0974004 	adds	r4, r7, r4
    3758:	23a08001 	movcs	r8, #1
    375c:	33a08000 	movcc	r8, #0
    3760:	e0887005 	add	r7, r8, r5
    3764:	e51c500c 	ldr	r5, [ip, #-12]
    3768:	e3a08000 	mov	r8, #0
    376c:	e0944005 	adds	r4, r4, r5
    3770:	23a08001 	movcs	r8, #1
    3774:	e50c400c 	str	r4, [ip, #-12]
/home/rossierd/soo.tech/soo/optee_os/lib/libmbedtls/mbedtls/library/bignum.c:1295 (discriminator 2)
    3778:	e51e4008 	ldr	r4, [lr, #-8]
/home/rossierd/soo.tech/soo/optee_os/lib/libmbedtls/mbedtls/library/bignum.c:1294 (discriminator 2)
    377c:	e0888007 	add	r8, r8, r7
/home/rossierd/soo.tech/soo/optee_os/lib/libmbedtls/mbedtls/library/bignum.c:1295 (discriminator 2)
    3780:	e0854493 	umull	r4, r5, r3, r4
    3784:	e0988004 	adds	r8, r8, r4
    3788:	e51c4008 	ldr	r4, [ip, #-8]
    378c:	23a07001 	movcs	r7, #1
    3790:	33a07000 	movcc	r7, #0
    3794:	e0879005 	add	r9, r7, r5
    3798:	e3a07000 	mov	r7, #0
    379c:	e0988004 	adds	r8, r8, r4
    37a0:	23a07001 	movcs	r7, #1
    37a4:	e50c8008 	str	r8, [ip, #-8]
    37a8:	e51e4004 	ldr	r4, [lr, #-4]
    37ac:	e0877009 	add	r7, r7, r9
    37b0:	e51c8004 	ldr	r8, [ip, #-4]
    37b4:	e0854493 	umull	r4, r5, r3, r4
    37b8:	e0974004 	adds	r4, r7, r4
    37bc:	23a07001 	movcs	r7, #1
    37c0:	33a07000 	movcc	r7, #0
    37c4:	e0944008 	adds	r4, r4, r8
    37c8:	e0875005 	add	r5, r7, r5
    37cc:	e3a07000 	mov	r7, #0
    37d0:	23a07001 	movcs	r7, #1
    37d4:	e0877005 	add	r7, r7, r5
    37d8:	e50c4004 	str	r4, [ip, #-4]
    37dc:	eafffec1 	b	32e8 <mpi_mul_hlp+0x1c>
/home/rossierd/soo.tech/soo/optee_os/lib/libmbedtls/mbedtls/library/bignum.c:1313 (discriminator 2)
    37e0:	e49e4004 	ldr	r4, [lr], #4
    37e4:	e0854493 	umull	r4, r5, r3, r4
    37e8:	e0972004 	adds	r2, r7, r4
    37ec:	e59c4000 	ldr	r4, [ip]
    37f0:	23a07001 	movcs	r7, #1
    37f4:	33a07000 	movcc	r7, #0
    37f8:	e0871005 	add	r1, r7, r5
    37fc:	e3a07000 	mov	r7, #0
    3800:	e0922004 	adds	r2, r2, r4
    3804:	23a07001 	movcs	r7, #1
    3808:	e48c2004 	str	r2, [ip], #4
    380c:	e0877001 	add	r7, r7, r1
    3810:	eaffff25 	b	34ac <mpi_mul_hlp+0x1e0>

00003814 <mbedtls_mpi_init>:
mpi_init():
/home/rossierd/soo.tech/soo/optee_os/lib/libmbedtls/mbedtls/library/bignum.c:98
    3814:	e3a03001 	mov	r3, #1
mbedtls_mpi_init():
/home/rossierd/soo.tech/soo/optee_os/lib/libmbedtls/mbedtls/library/bignum.c:105
    3818:	e1a0c00d 	mov	ip, sp
mpi_init():
/home/rossierd/soo.tech/soo/optee_os/lib/libmbedtls/mbedtls/library/bignum.c:98
    381c:	e1c030b0 	strh	r3, [r0]
/home/rossierd/soo.tech/soo/optee_os/lib/libmbedtls/mbedtls/library/bignum.c:99
    3820:	e3a03000 	mov	r3, #0
mbedtls_mpi_init():
/home/rossierd/soo.tech/soo/optee_os/lib/libmbedtls/mbedtls/library/bignum.c:105
    3824:	e92dd800 	push	{fp, ip, lr, pc}
    3828:	e24cb004 	sub	fp, ip, #4
mpi_init():
/home/rossierd/soo.tech/soo/optee_os/lib/libmbedtls/mbedtls/library/bignum.c:99
    382c:	e1c030b2 	strh	r3, [r0, #2]
/home/rossierd/soo.tech/soo/optee_os/lib/libmbedtls/mbedtls/library/bignum.c:100
    3830:	e5803004 	str	r3, [r0, #4]
/home/rossierd/soo.tech/soo/optee_os/lib/libmbedtls/mbedtls/library/bignum.c:101
    3834:	e5803008 	str	r3, [r0, #8]
    3838:	e89da800 	ldm	sp, {fp, sp, pc}

0000383c <mbedtls_mpi_init_mempool>:
mbedtls_mpi_init_mempool():
/home/rossierd/soo.tech/soo/optee_os/lib/libmbedtls/mbedtls/library/bignum.c:110
    383c:	e59f303c 	ldr	r3, [pc, #60]	; 3880 <mbedtls_mpi_init_mempool+0x44>
    3840:	e1a0c00d 	mov	ip, sp
/home/rossierd/soo.tech/soo/optee_os/lib/libmbedtls/mbedtls/library/bignum.c:111
    3844:	e59f2038 	ldr	r2, [pc, #56]	; 3884 <mbedtls_mpi_init_mempool+0x48>
/home/rossierd/soo.tech/soo/optee_os/lib/libmbedtls/mbedtls/library/bignum.c:110
    3848:	e92dd800 	push	{fp, ip, lr, pc}
    384c:	e24cb004 	sub	fp, ip, #4
    3850:	e08f3003 	add	r3, pc, r3
/home/rossierd/soo.tech/soo/optee_os/lib/libmbedtls/mbedtls/library/bignum.c:111
    3854:	e7933002 	ldr	r3, [r3, r2]
mpi_init():
/home/rossierd/soo.tech/soo/optee_os/lib/libmbedtls/mbedtls/library/bignum.c:98
    3858:	e3a02001 	mov	r2, #1
mbedtls_mpi_init_mempool():
/home/rossierd/soo.tech/soo/optee_os/lib/libmbedtls/mbedtls/library/bignum.c:111
    385c:	e5933000 	ldr	r3, [r3]
mpi_init():
/home/rossierd/soo.tech/soo/optee_os/lib/libmbedtls/mbedtls/library/bignum.c:98
    3860:	e1c020b0 	strh	r2, [r0]
mbedtls_mpi_init_mempool():
/home/rossierd/soo.tech/soo/optee_os/lib/libmbedtls/mbedtls/library/bignum.c:111
    3864:	e2933000 	adds	r3, r3, #0
    3868:	13a03001 	movne	r3, #1
mpi_init():
/home/rossierd/soo.tech/soo/optee_os/lib/libmbedtls/mbedtls/library/bignum.c:99
    386c:	e1c030b2 	strh	r3, [r0, #2]
/home/rossierd/soo.tech/soo/optee_os/lib/libmbedtls/mbedtls/library/bignum.c:100
    3870:	e3a03000 	mov	r3, #0
    3874:	e5803004 	str	r3, [r0, #4]
/home/rossierd/soo.tech/soo/optee_os/lib/libmbedtls/mbedtls/library/bignum.c:101
    3878:	e5803008 	str	r3, [r0, #8]
    387c:	e89da800 	ldm	sp, {fp, sp, pc}
    3880:	00008828 	.word	0x00008828
    3884:	00000038 	.word	0x00000038

00003888 <mbedtls_mpi_free>:
mbedtls_mpi_free():
/home/rossierd/soo.tech/soo/optee_os/lib/libmbedtls/mbedtls/library/bignum.c:118
    3888:	e1a0c00d 	mov	ip, sp
    388c:	e92dd830 	push	{r4, r5, fp, ip, lr, pc}
/home/rossierd/soo.tech/soo/optee_os/lib/libmbedtls/mbedtls/library/bignum.c:119
    3890:	e2504000 	subs	r4, r0, #0
/home/rossierd/soo.tech/soo/optee_os/lib/libmbedtls/mbedtls/library/bignum.c:118
    3894:	e59f5064 	ldr	r5, [pc, #100]	; 3900 <mbedtls_mpi_free+0x78>
    3898:	e24cb004 	sub	fp, ip, #4
    389c:	e08f5005 	add	r5, pc, r5
/home/rossierd/soo.tech/soo/optee_os/lib/libmbedtls/mbedtls/library/bignum.c:119
    38a0:	089da830 	ldmeq	sp, {r4, r5, fp, sp, pc}
/home/rossierd/soo.tech/soo/optee_os/lib/libmbedtls/mbedtls/library/bignum.c:122
    38a4:	e5940008 	ldr	r0, [r4, #8]
    38a8:	e3500000 	cmp	r0, #0
    38ac:	0a00000a 	beq	38dc <mbedtls_mpi_free+0x54>
mbedtls_mpi_zeroize():
/home/rossierd/soo.tech/soo/optee_os/lib/libmbedtls/mbedtls/library/bignum.c:88
    38b0:	e5941004 	ldr	r1, [r4, #4]
    38b4:	e1a01101 	lsl	r1, r1, #2
    38b8:	eb000de0 	bl	7040 <mbedtls_platform_zeroize>
mbedtls_mpi_free():
/home/rossierd/soo.tech/soo/optee_os/lib/libmbedtls/mbedtls/library/bignum.c:125
    38bc:	e1d430f2 	ldrsh	r3, [r4, #2]
    38c0:	e3530000 	cmp	r3, #0
    38c4:	0a00000a 	beq	38f4 <mbedtls_mpi_free+0x6c>
/home/rossierd/soo.tech/soo/optee_os/lib/libmbedtls/mbedtls/library/bignum.c:126
    38c8:	e59f3034 	ldr	r3, [pc, #52]	; 3904 <mbedtls_mpi_free+0x7c>
    38cc:	e5941008 	ldr	r1, [r4, #8]
    38d0:	e7953003 	ldr	r3, [r5, r3]
    38d4:	e5930000 	ldr	r0, [r3]
    38d8:	eb0015c4 	bl	8ff0 <mempool_free>
/home/rossierd/soo.tech/soo/optee_os/lib/libmbedtls/mbedtls/library/bignum.c:131
    38dc:	e3a03001 	mov	r3, #1
    38e0:	e1c430b0 	strh	r3, [r4]
/home/rossierd/soo.tech/soo/optee_os/lib/libmbedtls/mbedtls/library/bignum.c:132
    38e4:	e3a03000 	mov	r3, #0
    38e8:	e5843004 	str	r3, [r4, #4]
/home/rossierd/soo.tech/soo/optee_os/lib/libmbedtls/mbedtls/library/bignum.c:133
    38ec:	e5843008 	str	r3, [r4, #8]
    38f0:	e89da830 	ldm	sp, {r4, r5, fp, sp, pc}
/home/rossierd/soo.tech/soo/optee_os/lib/libmbedtls/mbedtls/library/bignum.c:128
    38f4:	e5940008 	ldr	r0, [r4, #8]
    38f8:	eb00105b 	bl	7a6c <free>
    38fc:	eafffff6 	b	38dc <mbedtls_mpi_free+0x54>
    3900:	000087dc 	.word	0x000087dc
    3904:	00000038 	.word	0x00000038

00003908 <mbedtls_mpi_grow>:
mbedtls_mpi_grow():
/home/rossierd/soo.tech/soo/optee_os/lib/libmbedtls/mbedtls/library/bignum.c:140
    3908:	e1a0c00d 	mov	ip, sp
/home/rossierd/soo.tech/soo/optee_os/lib/libmbedtls/mbedtls/library/bignum.c:144
    390c:	e3023710 	movw	r3, #10000	; 0x2710
    3910:	e1510003 	cmp	r1, r3
/home/rossierd/soo.tech/soo/optee_os/lib/libmbedtls/mbedtls/library/bignum.c:140
    3914:	e92ddbf0 	push	{r4, r5, r6, r7, r8, r9, fp, ip, lr, pc}
    3918:	e24cb004 	sub	fp, ip, #4
    391c:	e59f70d4 	ldr	r7, [pc, #212]	; 39f8 <mbedtls_mpi_grow+0xf0>
    3920:	e1a04000 	mov	r4, r0
    3924:	e1a05001 	mov	r5, r1
    3928:	e08f7007 	add	r7, pc, r7
/home/rossierd/soo.tech/soo/optee_os/lib/libmbedtls/mbedtls/library/bignum.c:144
    392c:	9a000001 	bls	3938 <mbedtls_mpi_grow+0x30>
/home/rossierd/soo.tech/soo/optee_os/lib/libmbedtls/mbedtls/library/bignum.c:145
    3930:	e3e0000f 	mvn	r0, #15
    3934:	e89dabf0 	ldm	sp, {r4, r5, r6, r7, r8, r9, fp, sp, pc}
/home/rossierd/soo.tech/soo/optee_os/lib/libmbedtls/mbedtls/library/bignum.c:147
    3938:	e5903004 	ldr	r3, [r0, #4]
    393c:	e1510003 	cmp	r1, r3
    3940:	9a000021 	bls	39cc <mbedtls_mpi_grow+0xc4>
/home/rossierd/soo.tech/soo/optee_os/lib/libmbedtls/mbedtls/library/bignum.c:149
    3944:	e1d030f2 	ldrsh	r3, [r0, #2]
    3948:	e3530000 	cmp	r3, #0
    394c:	0a000020 	beq	39d4 <mbedtls_mpi_grow+0xcc>
/home/rossierd/soo.tech/soo/optee_os/lib/libmbedtls/mbedtls/library/bignum.c:151
    3950:	e59f30a4 	ldr	r3, [pc, #164]	; 39fc <mbedtls_mpi_grow+0xf4>
    3954:	e1a08101 	lsl	r8, r1, #2
    3958:	e1a01008 	mov	r1, r8
    395c:	e7973003 	ldr	r3, [r7, r3]
    3960:	e5930000 	ldr	r0, [r3]
    3964:	eb00155f 	bl	8ee8 <mempool_alloc>
/home/rossierd/soo.tech/soo/optee_os/lib/libmbedtls/mbedtls/library/bignum.c:152
    3968:	e2506000 	subs	r6, r0, #0
    396c:	0affffef 	beq	3930 <mbedtls_mpi_grow+0x28>
/home/rossierd/soo.tech/soo/optee_os/lib/libmbedtls/mbedtls/library/bignum.c:154
    3970:	e1a02008 	mov	r2, r8
    3974:	e3a01000 	mov	r1, #0
    3978:	eb001153 	bl	7ecc <memset>
/home/rossierd/soo.tech/soo/optee_os/lib/libmbedtls/mbedtls/library/bignum.c:163
    397c:	e5941008 	ldr	r1, [r4, #8]
    3980:	e3510000 	cmp	r1, #0
    3984:	0a00000f 	beq	39c8 <mbedtls_mpi_grow+0xc0>
/home/rossierd/soo.tech/soo/optee_os/lib/libmbedtls/mbedtls/library/bignum.c:165
    3988:	e5942004 	ldr	r2, [r4, #4]
    398c:	e1a00006 	mov	r0, r6
    3990:	e1a02102 	lsl	r2, r2, #2
    3994:	eb00112a 	bl	7e44 <memcpy>
mbedtls_mpi_zeroize():
/home/rossierd/soo.tech/soo/optee_os/lib/libmbedtls/mbedtls/library/bignum.c:88
    3998:	e5941004 	ldr	r1, [r4, #4]
    399c:	e5940008 	ldr	r0, [r4, #8]
    39a0:	e1a01101 	lsl	r1, r1, #2
    39a4:	eb000da5 	bl	7040 <mbedtls_platform_zeroize>
mbedtls_mpi_grow():
/home/rossierd/soo.tech/soo/optee_os/lib/libmbedtls/mbedtls/library/bignum.c:167
    39a8:	e1d430f2 	ldrsh	r3, [r4, #2]
    39ac:	e3530000 	cmp	r3, #0
    39b0:	0a00000d 	beq	39ec <mbedtls_mpi_grow+0xe4>
/home/rossierd/soo.tech/soo/optee_os/lib/libmbedtls/mbedtls/library/bignum.c:168
    39b4:	e59f3040 	ldr	r3, [pc, #64]	; 39fc <mbedtls_mpi_grow+0xf4>
    39b8:	e5941008 	ldr	r1, [r4, #8]
    39bc:	e7973003 	ldr	r3, [r7, r3]
    39c0:	e5930000 	ldr	r0, [r3]
    39c4:	eb001589 	bl	8ff0 <mempool_free>
/home/rossierd/soo.tech/soo/optee_os/lib/libmbedtls/mbedtls/library/bignum.c:174
    39c8:	e9840060 	stmib	r4, {r5, r6}
/home/rossierd/soo.tech/soo/optee_os/lib/libmbedtls/mbedtls/library/bignum.c:177
    39cc:	e3a00000 	mov	r0, #0
/home/rossierd/soo.tech/soo/optee_os/lib/libmbedtls/mbedtls/library/bignum.c:178
    39d0:	e89dabf0 	ldm	sp, {r4, r5, r6, r7, r8, r9, fp, sp, pc}
/home/rossierd/soo.tech/soo/optee_os/lib/libmbedtls/mbedtls/library/bignum.c:158
    39d4:	e3a01004 	mov	r1, #4
    39d8:	e1a00005 	mov	r0, r5
    39dc:	eb000ff9 	bl	79c8 <calloc>
/home/rossierd/soo.tech/soo/optee_os/lib/libmbedtls/mbedtls/library/bignum.c:159
    39e0:	e2506000 	subs	r6, r0, #0
    39e4:	1affffe4 	bne	397c <mbedtls_mpi_grow+0x74>
    39e8:	eaffffd0 	b	3930 <mbedtls_mpi_grow+0x28>
/home/rossierd/soo.tech/soo/optee_os/lib/libmbedtls/mbedtls/library/bignum.c:170
    39ec:	e5940008 	ldr	r0, [r4, #8]
    39f0:	eb00101d 	bl	7a6c <free>
    39f4:	eafffff3 	b	39c8 <mbedtls_mpi_grow+0xc0>
    39f8:	00008750 	.word	0x00008750
    39fc:	00000038 	.word	0x00000038

00003a00 <mbedtls_mpi_shrink>:
mbedtls_mpi_shrink():
/home/rossierd/soo.tech/soo/optee_os/lib/libmbedtls/mbedtls/library/bignum.c:185
    3a00:	e1a0c00d 	mov	ip, sp
/home/rossierd/soo.tech/soo/optee_os/lib/libmbedtls/mbedtls/library/bignum.c:190
    3a04:	e3023710 	movw	r3, #10000	; 0x2710
    3a08:	e1510003 	cmp	r1, r3
/home/rossierd/soo.tech/soo/optee_os/lib/libmbedtls/mbedtls/library/bignum.c:185
    3a0c:	e92ddbf0 	push	{r4, r5, r6, r7, r8, r9, fp, ip, lr, pc}
    3a10:	e24cb004 	sub	fp, ip, #4
    3a14:	e59f5118 	ldr	r5, [pc, #280]	; 3b34 <mbedtls_mpi_shrink+0x134>
    3a18:	e1a04000 	mov	r4, r0
    3a1c:	e1a07001 	mov	r7, r1
    3a20:	e08f5005 	add	r5, pc, r5
/home/rossierd/soo.tech/soo/optee_os/lib/libmbedtls/mbedtls/library/bignum.c:190
    3a24:	9a000001 	bls	3a30 <mbedtls_mpi_shrink+0x30>
/home/rossierd/soo.tech/soo/optee_os/lib/libmbedtls/mbedtls/library/bignum.c:191
    3a28:	e3e0000f 	mvn	r0, #15
    3a2c:	e89dabf0 	ldm	sp, {r4, r5, r6, r7, r8, r9, fp, sp, pc}
/home/rossierd/soo.tech/soo/optee_os/lib/libmbedtls/mbedtls/library/bignum.c:194
    3a30:	e5903004 	ldr	r3, [r0, #4]
    3a34:	e1510003 	cmp	r1, r3
/home/rossierd/soo.tech/soo/optee_os/lib/libmbedtls/mbedtls/library/bignum.c:197
    3a38:	32431001 	subcc	r1, r3, #1
    3a3c:	32433107 	subcc	r3, r3, #-1073741823	; 0xc0000001
    3a40:	31a03103 	lslcc	r3, r3, #2
/home/rossierd/soo.tech/soo/optee_os/lib/libmbedtls/mbedtls/library/bignum.c:194
    3a44:	3a000008 	bcc	3a6c <mbedtls_mpi_shrink+0x6c>
/home/rossierd/soo.tech/soo/optee_os/lib/libmbedtls/mbedtls/library/bignum.c:233
    3a48:	e24bd024 	sub	sp, fp, #36	; 0x24
    3a4c:	e89d6bf0 	ldm	sp, {r4, r5, r6, r7, r8, r9, fp, sp, lr}
/home/rossierd/soo.tech/soo/optee_os/lib/libmbedtls/mbedtls/library/bignum.c:195
    3a50:	eaffffac 	b	3908 <mbedtls_mpi_grow>
/home/rossierd/soo.tech/soo/optee_os/lib/libmbedtls/mbedtls/library/bignum.c:198
    3a54:	e5940008 	ldr	r0, [r4, #8]
    3a58:	e7900003 	ldr	r0, [r0, r3]
    3a5c:	e2433004 	sub	r3, r3, #4
    3a60:	e3500000 	cmp	r0, #0
    3a64:	1a000002 	bne	3a74 <mbedtls_mpi_shrink+0x74>
/home/rossierd/soo.tech/soo/optee_os/lib/libmbedtls/mbedtls/library/bignum.c:197 (discriminator 2)
    3a68:	e2411001 	sub	r1, r1, #1
/home/rossierd/soo.tech/soo/optee_os/lib/libmbedtls/mbedtls/library/bignum.c:197 (discriminator 1)
    3a6c:	e3510000 	cmp	r1, #0
    3a70:	1afffff7 	bne	3a54 <mbedtls_mpi_shrink+0x54>
/home/rossierd/soo.tech/soo/optee_os/lib/libmbedtls/mbedtls/library/bignum.c:205
    3a74:	e1d430f2 	ldrsh	r3, [r4, #2]
/home/rossierd/soo.tech/soo/optee_os/lib/libmbedtls/mbedtls/library/bignum.c:200
    3a78:	e2811001 	add	r1, r1, #1
    3a7c:	e1570001 	cmp	r7, r1
    3a80:	21a06007 	movcs	r6, r7
    3a84:	31a06001 	movcc	r6, r1
/home/rossierd/soo.tech/soo/optee_os/lib/libmbedtls/mbedtls/library/bignum.c:205
    3a88:	e3530000 	cmp	r3, #0
    3a8c:	0a00001f 	beq	3b10 <mbedtls_mpi_shrink+0x110>
/home/rossierd/soo.tech/soo/optee_os/lib/libmbedtls/mbedtls/library/bignum.c:207
    3a90:	e59f30a0 	ldr	r3, [pc, #160]	; 3b38 <mbedtls_mpi_shrink+0x138>
    3a94:	e1a07107 	lsl	r7, r7, #2
    3a98:	e1a01007 	mov	r1, r7
    3a9c:	e7953003 	ldr	r3, [r5, r3]
    3aa0:	e5930000 	ldr	r0, [r3]
    3aa4:	eb00150f 	bl	8ee8 <mempool_alloc>
/home/rossierd/soo.tech/soo/optee_os/lib/libmbedtls/mbedtls/library/bignum.c:208
    3aa8:	e2508000 	subs	r8, r0, #0
    3aac:	0affffdd 	beq	3a28 <mbedtls_mpi_shrink+0x28>
/home/rossierd/soo.tech/soo/optee_os/lib/libmbedtls/mbedtls/library/bignum.c:210
    3ab0:	e1a02007 	mov	r2, r7
    3ab4:	e3a01000 	mov	r1, #0
    3ab8:	eb001103 	bl	7ecc <memset>
/home/rossierd/soo.tech/soo/optee_os/lib/libmbedtls/mbedtls/library/bignum.c:219
    3abc:	e5941008 	ldr	r1, [r4, #8]
    3ac0:	e3510000 	cmp	r1, #0
    3ac4:	0a00000e 	beq	3b04 <mbedtls_mpi_shrink+0x104>
/home/rossierd/soo.tech/soo/optee_os/lib/libmbedtls/mbedtls/library/bignum.c:221
    3ac8:	e1a02106 	lsl	r2, r6, #2
    3acc:	e1a00008 	mov	r0, r8
    3ad0:	eb0010db 	bl	7e44 <memcpy>
mbedtls_mpi_zeroize():
/home/rossierd/soo.tech/soo/optee_os/lib/libmbedtls/mbedtls/library/bignum.c:88
    3ad4:	e5941004 	ldr	r1, [r4, #4]
    3ad8:	e5940008 	ldr	r0, [r4, #8]
    3adc:	e1a01101 	lsl	r1, r1, #2
    3ae0:	eb000d56 	bl	7040 <mbedtls_platform_zeroize>
mbedtls_mpi_shrink():
/home/rossierd/soo.tech/soo/optee_os/lib/libmbedtls/mbedtls/library/bignum.c:223
    3ae4:	e1d430f2 	ldrsh	r3, [r4, #2]
    3ae8:	e3530000 	cmp	r3, #0
    3aec:	0a00000d 	beq	3b28 <mbedtls_mpi_shrink+0x128>
/home/rossierd/soo.tech/soo/optee_os/lib/libmbedtls/mbedtls/library/bignum.c:224
    3af0:	e59f3040 	ldr	r3, [pc, #64]	; 3b38 <mbedtls_mpi_shrink+0x138>
    3af4:	e5941008 	ldr	r1, [r4, #8]
    3af8:	e7953003 	ldr	r3, [r5, r3]
    3afc:	e5930000 	ldr	r0, [r3]
    3b00:	eb00153a 	bl	8ff0 <mempool_free>
/home/rossierd/soo.tech/soo/optee_os/lib/libmbedtls/mbedtls/library/bignum.c:232
    3b04:	e3a00000 	mov	r0, #0
/home/rossierd/soo.tech/soo/optee_os/lib/libmbedtls/mbedtls/library/bignum.c:230
    3b08:	e9840140 	stmib	r4, {r6, r8}
/home/rossierd/soo.tech/soo/optee_os/lib/libmbedtls/mbedtls/library/bignum.c:233
    3b0c:	e89dabf0 	ldm	sp, {r4, r5, r6, r7, r8, r9, fp, sp, pc}
/home/rossierd/soo.tech/soo/optee_os/lib/libmbedtls/mbedtls/library/bignum.c:214
    3b10:	e3a01004 	mov	r1, #4
    3b14:	e1a00007 	mov	r0, r7
    3b18:	eb000faa 	bl	79c8 <calloc>
/home/rossierd/soo.tech/soo/optee_os/lib/libmbedtls/mbedtls/library/bignum.c:215
    3b1c:	e2508000 	subs	r8, r0, #0
    3b20:	1affffe5 	bne	3abc <mbedtls_mpi_shrink+0xbc>
    3b24:	eaffffbf 	b	3a28 <mbedtls_mpi_shrink+0x28>
/home/rossierd/soo.tech/soo/optee_os/lib/libmbedtls/mbedtls/library/bignum.c:226
    3b28:	e5940008 	ldr	r0, [r4, #8]
    3b2c:	eb000fce 	bl	7a6c <free>
    3b30:	eafffff3 	b	3b04 <mbedtls_mpi_shrink+0x104>
    3b34:	00008658 	.word	0x00008658
    3b38:	00000038 	.word	0x00000038

00003b3c <mbedtls_mpi_copy>:
mbedtls_mpi_copy():
/home/rossierd/soo.tech/soo/optee_os/lib/libmbedtls/mbedtls/library/bignum.c:239
    3b3c:	e1a0c00d 	mov	ip, sp
/home/rossierd/soo.tech/soo/optee_os/lib/libmbedtls/mbedtls/library/bignum.c:245
    3b40:	e1500001 	cmp	r0, r1
/home/rossierd/soo.tech/soo/optee_os/lib/libmbedtls/mbedtls/library/bignum.c:239
    3b44:	e92dd8f0 	push	{r4, r5, r6, r7, fp, ip, lr, pc}
    3b48:	e24cb004 	sub	fp, ip, #4
    3b4c:	e1a06000 	mov	r6, r0
    3b50:	e1a07001 	mov	r7, r1
/home/rossierd/soo.tech/soo/optee_os/lib/libmbedtls/mbedtls/library/bignum.c:245
    3b54:	0a000004 	beq	3b6c <mbedtls_mpi_copy+0x30>
/home/rossierd/soo.tech/soo/optee_os/lib/libmbedtls/mbedtls/library/bignum.c:248
    3b58:	e5915008 	ldr	r5, [r1, #8]
    3b5c:	e3550000 	cmp	r5, #0
/home/rossierd/soo.tech/soo/optee_os/lib/libmbedtls/mbedtls/library/bignum.c:254
    3b60:	15914004 	ldrne	r4, [r1, #4]
/home/rossierd/soo.tech/soo/optee_os/lib/libmbedtls/mbedtls/library/bignum.c:248
    3b64:	1a000005 	bne	3b80 <mbedtls_mpi_copy+0x44>
/home/rossierd/soo.tech/soo/optee_os/lib/libmbedtls/mbedtls/library/bignum.c:250
    3b68:	ebffff46 	bl	3888 <mbedtls_mpi_free>
/home/rossierd/soo.tech/soo/optee_os/lib/libmbedtls/mbedtls/library/bignum.c:246
    3b6c:	e3a00000 	mov	r0, #0
/home/rossierd/soo.tech/soo/optee_os/lib/libmbedtls/mbedtls/library/bignum.c:275
    3b70:	e89da8f0 	ldm	sp, {r4, r5, r6, r7, fp, sp, pc}
/home/rossierd/soo.tech/soo/optee_os/lib/libmbedtls/mbedtls/library/bignum.c:255
    3b74:	e7953104 	ldr	r3, [r5, r4, lsl #2]
    3b78:	e3530000 	cmp	r3, #0
    3b7c:	1a000002 	bne	3b8c <mbedtls_mpi_copy+0x50>
/home/rossierd/soo.tech/soo/optee_os/lib/libmbedtls/mbedtls/library/bignum.c:254 (discriminator 2)
    3b80:	e2444001 	sub	r4, r4, #1
    3b84:	e3540000 	cmp	r4, #0
    3b88:	1afffff9 	bne	3b74 <mbedtls_mpi_copy+0x38>
/home/rossierd/soo.tech/soo/optee_os/lib/libmbedtls/mbedtls/library/bignum.c:261
    3b8c:	e5962004 	ldr	r2, [r6, #4]
/home/rossierd/soo.tech/soo/optee_os/lib/libmbedtls/mbedtls/library/bignum.c:257
    3b90:	e2844001 	add	r4, r4, #1
/home/rossierd/soo.tech/soo/optee_os/lib/libmbedtls/mbedtls/library/bignum.c:259
    3b94:	e1d730f0 	ldrsh	r3, [r7]
/home/rossierd/soo.tech/soo/optee_os/lib/libmbedtls/mbedtls/library/bignum.c:261
    3b98:	e1540002 	cmp	r4, r2
/home/rossierd/soo.tech/soo/optee_os/lib/libmbedtls/mbedtls/library/bignum.c:259
    3b9c:	e1c630b0 	strh	r3, [r6]
/home/rossierd/soo.tech/soo/optee_os/lib/libmbedtls/mbedtls/library/bignum.c:261
    3ba0:	9a000005 	bls	3bbc <mbedtls_mpi_copy+0x80>
/home/rossierd/soo.tech/soo/optee_os/lib/libmbedtls/mbedtls/library/bignum.c:263
    3ba4:	e1a01004 	mov	r1, r4
    3ba8:	e1a00006 	mov	r0, r6
    3bac:	ebffff55 	bl	3908 <mbedtls_mpi_grow>
    3bb0:	e3500000 	cmp	r0, #0
    3bb4:	0a000006 	beq	3bd4 <mbedtls_mpi_copy+0x98>
    3bb8:	e89da8f0 	ldm	sp, {r4, r5, r6, r7, fp, sp, pc}
/home/rossierd/soo.tech/soo/optee_os/lib/libmbedtls/mbedtls/library/bignum.c:267
    3bbc:	e5960008 	ldr	r0, [r6, #8]
    3bc0:	e0422004 	sub	r2, r2, r4
    3bc4:	e3a01000 	mov	r1, #0
    3bc8:	e1a02102 	lsl	r2, r2, #2
    3bcc:	e0800104 	add	r0, r0, r4, lsl #2
    3bd0:	eb0010bd 	bl	7ecc <memset>
/home/rossierd/soo.tech/soo/optee_os/lib/libmbedtls/mbedtls/library/bignum.c:270
    3bd4:	e1a02104 	lsl	r2, r4, #2
    3bd8:	e5960008 	ldr	r0, [r6, #8]
    3bdc:	e5971008 	ldr	r1, [r7, #8]
    3be0:	eb001097 	bl	7e44 <memcpy>
    3be4:	eaffffe0 	b	3b6c <mbedtls_mpi_copy+0x30>

00003be8 <mbedtls_mpi_swap>:
mbedtls_mpi_swap():
/home/rossierd/soo.tech/soo/optee_os/lib/libmbedtls/mbedtls/library/bignum.c:281
    3be8:	e1a0c00d 	mov	ip, sp
    3bec:	e92dd8f0 	push	{r4, r5, r6, r7, fp, ip, lr, pc}
    3bf0:	e24cb004 	sub	fp, ip, #4
    3bf4:	e24dd010 	sub	sp, sp, #16
/home/rossierd/soo.tech/soo/optee_os/lib/libmbedtls/mbedtls/library/bignum.c:286
    3bf8:	e3a0500c 	mov	r5, #12
    3bfc:	e24b4028 	sub	r4, fp, #40	; 0x28
/home/rossierd/soo.tech/soo/optee_os/lib/libmbedtls/mbedtls/library/bignum.c:281
    3c00:	e1a06001 	mov	r6, r1
    3c04:	e1a07000 	mov	r7, r0
/home/rossierd/soo.tech/soo/optee_os/lib/libmbedtls/mbedtls/library/bignum.c:286
    3c08:	e1a02005 	mov	r2, r5
    3c0c:	e1a01000 	mov	r1, r0
    3c10:	e1a00004 	mov	r0, r4
    3c14:	eb00108a 	bl	7e44 <memcpy>
/home/rossierd/soo.tech/soo/optee_os/lib/libmbedtls/mbedtls/library/bignum.c:287
    3c18:	e1a02005 	mov	r2, r5
    3c1c:	e1a01006 	mov	r1, r6
    3c20:	e1a00007 	mov	r0, r7
    3c24:	eb001086 	bl	7e44 <memcpy>
/home/rossierd/soo.tech/soo/optee_os/lib/libmbedtls/mbedtls/library/bignum.c:288
    3c28:	e1a02005 	mov	r2, r5
    3c2c:	e1a01004 	mov	r1, r4
    3c30:	e1a00006 	mov	r0, r6
    3c34:	eb001082 	bl	7e44 <memcpy>
/home/rossierd/soo.tech/soo/optee_os/lib/libmbedtls/mbedtls/library/bignum.c:289
    3c38:	e24bd01c 	sub	sp, fp, #28
    3c3c:	e89da8f0 	ldm	sp, {r4, r5, r6, r7, fp, sp, pc}

00003c40 <mbedtls_mpi_safe_cond_assign>:
mbedtls_mpi_safe_cond_assign():
/home/rossierd/soo.tech/soo/optee_os/lib/libmbedtls/mbedtls/library/bignum.c:297
    3c40:	e1a0c00d 	mov	ip, sp
    3c44:	e92dd8f0 	push	{r4, r5, r6, r7, fp, ip, lr, pc}
    3c48:	e24cb004 	sub	fp, ip, #4
    3c4c:	e1a06001 	mov	r6, r1
/home/rossierd/soo.tech/soo/optee_os/lib/libmbedtls/mbedtls/library/bignum.c:306
    3c50:	e5911004 	ldr	r1, [r1, #4]
/home/rossierd/soo.tech/soo/optee_os/lib/libmbedtls/mbedtls/library/bignum.c:297
    3c54:	e1a05000 	mov	r5, r0
    3c58:	e1a04002 	mov	r4, r2
/home/rossierd/soo.tech/soo/optee_os/lib/libmbedtls/mbedtls/library/bignum.c:306
    3c5c:	ebffff29 	bl	3908 <mbedtls_mpi_grow>
    3c60:	e3500000 	cmp	r0, #0
    3c64:	189da8f0 	ldmne	sp, {r4, r5, r6, r7, fp, sp, pc}
/home/rossierd/soo.tech/soo/optee_os/lib/libmbedtls/mbedtls/library/bignum.c:308
    3c68:	e1d610b0 	ldrh	r1, [r6]
/home/rossierd/soo.tech/soo/optee_os/lib/libmbedtls/mbedtls/library/bignum.c:304
    3c6c:	e2642000 	rsb	r2, r4, #0
    3c70:	e1842002 	orr	r2, r4, r2
/home/rossierd/soo.tech/soo/optee_os/lib/libmbedtls/mbedtls/library/bignum.c:308
    3c74:	e1d530f0 	ldrsh	r3, [r5]
/home/rossierd/soo.tech/soo/optee_os/lib/libmbedtls/mbedtls/library/bignum.c:304
    3c78:	e7e023d2 	ubfx	r2, r2, #7, #1
/home/rossierd/soo.tech/soo/optee_os/lib/libmbedtls/mbedtls/library/bignum.c:308
    3c7c:	e262c001 	rsb	ip, r2, #1
    3c80:	e1610281 	smulbb	r1, r1, r2
    3c84:	e0231c93 	mla	r3, r3, ip, r1
    3c88:	e1c530b0 	strh	r3, [r5]
/home/rossierd/soo.tech/soo/optee_os/lib/libmbedtls/mbedtls/library/bignum.c:310
    3c8c:	e1a03000 	mov	r3, r0
/home/rossierd/soo.tech/soo/optee_os/lib/libmbedtls/mbedtls/library/bignum.c:310 (discriminator 1)
    3c90:	e5961004 	ldr	r1, [r6, #4]
    3c94:	e1530001 	cmp	r3, r1
    3c98:	e1a01103 	lsl	r1, r3, #2
    3c9c:	3a000004 	bcc	3cb4 <mbedtls_mpi_safe_cond_assign+0x74>
    3ca0:	e1a02001 	mov	r2, r1
/home/rossierd/soo.tech/soo/optee_os/lib/libmbedtls/mbedtls/library/bignum.c:313 (discriminator 1)
    3ca4:	e5951004 	ldr	r1, [r5, #4]
    3ca8:	e1530001 	cmp	r3, r1
    3cac:	3a000009 	bcc	3cd8 <mbedtls_mpi_safe_cond_assign+0x98>
/home/rossierd/soo.tech/soo/optee_os/lib/libmbedtls/mbedtls/library/bignum.c:318
    3cb0:	e89da8f0 	ldm	sp, {r4, r5, r6, r7, fp, sp, pc}
/home/rossierd/soo.tech/soo/optee_os/lib/libmbedtls/mbedtls/library/bignum.c:311 (discriminator 3)
    3cb4:	e5954008 	ldr	r4, [r5, #8]
    3cb8:	e5961008 	ldr	r1, [r6, #8]
    3cbc:	e794e103 	ldr	lr, [r4, r3, lsl #2]
    3cc0:	e7911103 	ldr	r1, [r1, r3, lsl #2]
    3cc4:	e00e0c9e 	mul	lr, lr, ip
    3cc8:	e021e291 	mla	r1, r1, r2, lr
    3ccc:	e7841103 	str	r1, [r4, r3, lsl #2]
/home/rossierd/soo.tech/soo/optee_os/lib/libmbedtls/mbedtls/library/bignum.c:310 (discriminator 3)
    3cd0:	e2833001 	add	r3, r3, #1
    3cd4:	eaffffed 	b	3c90 <mbedtls_mpi_safe_cond_assign+0x50>
/home/rossierd/soo.tech/soo/optee_os/lib/libmbedtls/mbedtls/library/bignum.c:314 (discriminator 2)
    3cd8:	e595e008 	ldr	lr, [r5, #8]
/home/rossierd/soo.tech/soo/optee_os/lib/libmbedtls/mbedtls/library/bignum.c:313 (discriminator 2)
    3cdc:	e2833001 	add	r3, r3, #1
/home/rossierd/soo.tech/soo/optee_os/lib/libmbedtls/mbedtls/library/bignum.c:314 (discriminator 2)
    3ce0:	e79e1002 	ldr	r1, [lr, r2]
    3ce4:	e001019c 	mul	r1, ip, r1
    3ce8:	e78e1002 	str	r1, [lr, r2]
    3cec:	e2822004 	add	r2, r2, #4
    3cf0:	eaffffeb 	b	3ca4 <mbedtls_mpi_safe_cond_assign+0x64>

00003cf4 <mbedtls_mpi_safe_cond_swap>:
mbedtls_mpi_safe_cond_swap():
/home/rossierd/soo.tech/soo/optee_os/lib/libmbedtls/mbedtls/library/bignum.c:327
    3cf4:	e1a0c00d 	mov	ip, sp
/home/rossierd/soo.tech/soo/optee_os/lib/libmbedtls/mbedtls/library/bignum.c:334
    3cf8:	e1500001 	cmp	r0, r1
/home/rossierd/soo.tech/soo/optee_os/lib/libmbedtls/mbedtls/library/bignum.c:327
    3cfc:	e92dd8f0 	push	{r4, r5, r6, r7, fp, ip, lr, pc}
    3d00:	e24cb004 	sub	fp, ip, #4
    3d04:	e1a05000 	mov	r5, r0
    3d08:	e1a04001 	mov	r4, r1
    3d0c:	e1a06002 	mov	r6, r2
/home/rossierd/soo.tech/soo/optee_os/lib/libmbedtls/mbedtls/library/bignum.c:334
    3d10:	1a000001 	bne	3d1c <mbedtls_mpi_safe_cond_swap+0x28>
/home/rossierd/soo.tech/soo/optee_os/lib/libmbedtls/mbedtls/library/bignum.c:335
    3d14:	e3a00000 	mov	r0, #0
    3d18:	e89da8f0 	ldm	sp, {r4, r5, r6, r7, fp, sp, pc}
/home/rossierd/soo.tech/soo/optee_os/lib/libmbedtls/mbedtls/library/bignum.c:340
    3d1c:	e5911004 	ldr	r1, [r1, #4]
    3d20:	ebfffef8 	bl	3908 <mbedtls_mpi_grow>
    3d24:	e3500000 	cmp	r0, #0
    3d28:	189da8f0 	ldmne	sp, {r4, r5, r6, r7, fp, sp, pc}
/home/rossierd/soo.tech/soo/optee_os/lib/libmbedtls/mbedtls/library/bignum.c:341
    3d2c:	e1a00004 	mov	r0, r4
    3d30:	e5951004 	ldr	r1, [r5, #4]
    3d34:	ebfffef3 	bl	3908 <mbedtls_mpi_grow>
    3d38:	e3500000 	cmp	r0, #0
    3d3c:	189da8f0 	ldmne	sp, {r4, r5, r6, r7, fp, sp, pc}
/home/rossierd/soo.tech/soo/optee_os/lib/libmbedtls/mbedtls/library/bignum.c:338
    3d40:	e2662000 	rsb	r2, r6, #0
/home/rossierd/soo.tech/soo/optee_os/lib/libmbedtls/mbedtls/library/bignum.c:344
    3d44:	e1d430b0 	ldrh	r3, [r4]
/home/rossierd/soo.tech/soo/optee_os/lib/libmbedtls/mbedtls/library/bignum.c:338
    3d48:	e1862002 	orr	r2, r6, r2
/home/rossierd/soo.tech/soo/optee_os/lib/libmbedtls/mbedtls/library/bignum.c:344
    3d4c:	e1d510b0 	ldrh	r1, [r5]
/home/rossierd/soo.tech/soo/optee_os/lib/libmbedtls/mbedtls/library/bignum.c:338
    3d50:	e7e023d2 	ubfx	r2, r2, #7, #1
/home/rossierd/soo.tech/soo/optee_os/lib/libmbedtls/mbedtls/library/bignum.c:344
    3d54:	e6ff6072 	uxth	r6, r2
    3d58:	e262c001 	rsb	ip, r2, #1
    3d5c:	e6ffe07c 	uxth	lr, ip
    3d60:	e1630683 	smulbb	r3, r3, r6
    3d64:	e1033e81 	smlabb	r3, r1, lr, r3
/home/rossierd/soo.tech/soo/optee_os/lib/libmbedtls/mbedtls/library/bignum.c:345
    3d68:	e1610681 	smulbb	r1, r1, r6
/home/rossierd/soo.tech/soo/optee_os/lib/libmbedtls/mbedtls/library/bignum.c:344
    3d6c:	e1c530b0 	strh	r3, [r5]
/home/rossierd/soo.tech/soo/optee_os/lib/libmbedtls/mbedtls/library/bignum.c:345
    3d70:	e1d430b0 	ldrh	r3, [r4]
    3d74:	e1011e83 	smlabb	r1, r3, lr, r1
    3d78:	e1c410b0 	strh	r1, [r4]
/home/rossierd/soo.tech/soo/optee_os/lib/libmbedtls/mbedtls/library/bignum.c:348 (discriminator 1)
    3d7c:	e5953004 	ldr	r3, [r5, #4]
    3d80:	e1500003 	cmp	r0, r3
    3d84:	2affffe2 	bcs	3d14 <mbedtls_mpi_safe_cond_swap+0x20>
/home/rossierd/soo.tech/soo/optee_os/lib/libmbedtls/mbedtls/library/bignum.c:350 (discriminator 3)
    3d88:	e5956008 	ldr	r6, [r5, #8]
/home/rossierd/soo.tech/soo/optee_os/lib/libmbedtls/mbedtls/library/bignum.c:351 (discriminator 3)
    3d8c:	e5941008 	ldr	r1, [r4, #8]
/home/rossierd/soo.tech/soo/optee_os/lib/libmbedtls/mbedtls/library/bignum.c:350 (discriminator 3)
    3d90:	e7963100 	ldr	r3, [r6, r0, lsl #2]
/home/rossierd/soo.tech/soo/optee_os/lib/libmbedtls/mbedtls/library/bignum.c:351 (discriminator 3)
    3d94:	e791e100 	ldr	lr, [r1, r0, lsl #2]
    3d98:	e007039c 	mul	r7, ip, r3
/home/rossierd/soo.tech/soo/optee_os/lib/libmbedtls/mbedtls/library/bignum.c:352 (discriminator 3)
    3d9c:	e0030392 	mul	r3, r2, r3
/home/rossierd/soo.tech/soo/optee_os/lib/libmbedtls/mbedtls/library/bignum.c:351 (discriminator 3)
    3da0:	e02e729e 	mla	lr, lr, r2, r7
    3da4:	e786e100 	str	lr, [r6, r0, lsl #2]
/home/rossierd/soo.tech/soo/optee_os/lib/libmbedtls/mbedtls/library/bignum.c:352 (discriminator 3)
    3da8:	e791e100 	ldr	lr, [r1, r0, lsl #2]
    3dac:	e0233c9e 	mla	r3, lr, ip, r3
    3db0:	e7813100 	str	r3, [r1, r0, lsl #2]
/home/rossierd/soo.tech/soo/optee_os/lib/libmbedtls/mbedtls/library/bignum.c:348 (discriminator 3)
    3db4:	e2800001 	add	r0, r0, #1
    3db8:	eaffffef 	b	3d7c <mbedtls_mpi_safe_cond_swap+0x88>

00003dbc <mbedtls_mpi_lset>:
mbedtls_mpi_lset():
/home/rossierd/soo.tech/soo/optee_os/lib/libmbedtls/mbedtls/library/bignum.c:363
    3dbc:	e1a0c00d 	mov	ip, sp
    3dc0:	e92dd8f0 	push	{r4, r5, r6, r7, fp, ip, lr, pc}
    3dc4:	e24cb004 	sub	fp, ip, #4
    3dc8:	e1a06001 	mov	r6, r1
/home/rossierd/soo.tech/soo/optee_os/lib/libmbedtls/mbedtls/library/bignum.c:367
    3dcc:	e3a01001 	mov	r1, #1
/home/rossierd/soo.tech/soo/optee_os/lib/libmbedtls/mbedtls/library/bignum.c:363
    3dd0:	e1a04000 	mov	r4, r0
/home/rossierd/soo.tech/soo/optee_os/lib/libmbedtls/mbedtls/library/bignum.c:367
    3dd4:	ebfffecb 	bl	3908 <mbedtls_mpi_grow>
    3dd8:	e2505000 	subs	r5, r0, #0
    3ddc:	1a00000c 	bne	3e14 <mbedtls_mpi_lset+0x58>
/home/rossierd/soo.tech/soo/optee_os/lib/libmbedtls/mbedtls/library/bignum.c:368
    3de0:	e5942004 	ldr	r2, [r4, #4]
    3de4:	e1a01005 	mov	r1, r5
    3de8:	e5940008 	ldr	r0, [r4, #8]
    3dec:	e1a02102 	lsl	r2, r2, #2
    3df0:	eb001035 	bl	7ecc <memset>
/home/rossierd/soo.tech/soo/optee_os/lib/libmbedtls/mbedtls/library/bignum.c:370
    3df4:	e0262fc6 	eor	r2, r6, r6, asr #31
    3df8:	e5943008 	ldr	r3, [r4, #8]
/home/rossierd/soo.tech/soo/optee_os/lib/libmbedtls/mbedtls/library/bignum.c:371
    3dfc:	e3560000 	cmp	r6, #0
/home/rossierd/soo.tech/soo/optee_os/lib/libmbedtls/mbedtls/library/bignum.c:370
    3e00:	e0422fc6 	sub	r2, r2, r6, asr #31
    3e04:	e5832000 	str	r2, [r3]
/home/rossierd/soo.tech/soo/optee_os/lib/libmbedtls/mbedtls/library/bignum.c:371
    3e08:	b3e03000 	mvnlt	r3, #0
    3e0c:	a3a03001 	movge	r3, #1
    3e10:	e1c430b0 	strh	r3, [r4]
/home/rossierd/soo.tech/soo/optee_os/lib/libmbedtls/mbedtls/library/bignum.c:376
    3e14:	e1a00005 	mov	r0, r5
    3e18:	e89da8f0 	ldm	sp, {r4, r5, r6, r7, fp, sp, pc}

00003e1c <mbedtls_mpi_get_bit>:
mbedtls_mpi_get_bit():
/home/rossierd/soo.tech/soo/optee_os/lib/libmbedtls/mbedtls/library/bignum.c:385
    3e1c:	e5903004 	ldr	r3, [r0, #4]
/home/rossierd/soo.tech/soo/optee_os/lib/libmbedtls/mbedtls/library/bignum.c:382
    3e20:	e1a0c00d 	mov	ip, sp
    3e24:	e92dd800 	push	{fp, ip, lr, pc}
    3e28:	e24cb004 	sub	fp, ip, #4
/home/rossierd/soo.tech/soo/optee_os/lib/libmbedtls/mbedtls/library/bignum.c:385
    3e2c:	e1510283 	cmp	r1, r3, lsl #5
/home/rossierd/soo.tech/soo/optee_os/lib/libmbedtls/mbedtls/library/bignum.c:388
    3e30:	35903008 	ldrcc	r3, [r0, #8]
    3e34:	31a022a1 	lsrcc	r2, r1, #5
    3e38:	3201101f 	andcc	r1, r1, #31
    3e3c:	37930102 	ldrcc	r0, [r3, r2, lsl #2]
    3e40:	31a00130 	lsrcc	r0, r0, r1
    3e44:	32000001 	andcc	r0, r0, #1
/home/rossierd/soo.tech/soo/optee_os/lib/libmbedtls/mbedtls/library/bignum.c:386
    3e48:	23a00000 	movcs	r0, #0
/home/rossierd/soo.tech/soo/optee_os/lib/libmbedtls/mbedtls/library/bignum.c:389
    3e4c:	e89da800 	ldm	sp, {fp, sp, pc}

00003e50 <mbedtls_mpi_set_bit>:
mbedtls_mpi_set_bit():
/home/rossierd/soo.tech/soo/optee_os/lib/libmbedtls/mbedtls/library/bignum.c:399
    3e50:	e1a0c00d 	mov	ip, sp
/home/rossierd/soo.tech/soo/optee_os/lib/libmbedtls/mbedtls/library/bignum.c:405
    3e54:	e3520001 	cmp	r2, #1
/home/rossierd/soo.tech/soo/optee_os/lib/libmbedtls/mbedtls/library/bignum.c:399
    3e58:	e92dd8f0 	push	{r4, r5, r6, r7, fp, ip, lr, pc}
    3e5c:	e24cb004 	sub	fp, ip, #4
    3e60:	e1a07000 	mov	r7, r0
    3e64:	e1a04001 	mov	r4, r1
    3e68:	e1a05002 	mov	r5, r2
/home/rossierd/soo.tech/soo/optee_os/lib/libmbedtls/mbedtls/library/bignum.c:401
    3e6c:	e1a062a1 	lsr	r6, r1, #5
/home/rossierd/soo.tech/soo/optee_os/lib/libmbedtls/mbedtls/library/bignum.c:405
    3e70:	8a000012 	bhi	3ec0 <mbedtls_mpi_set_bit+0x70>
/home/rossierd/soo.tech/soo/optee_os/lib/libmbedtls/mbedtls/library/bignum.c:408
    3e74:	e5903004 	ldr	r3, [r0, #4]
    3e78:	e1510283 	cmp	r1, r3, lsl #5
    3e7c:	2a000008 	bcs	3ea4 <mbedtls_mpi_set_bit+0x54>
/home/rossierd/soo.tech/soo/optee_os/lib/libmbedtls/mbedtls/library/bignum.c:416
    3e80:	e5971008 	ldr	r1, [r7, #8]
/home/rossierd/soo.tech/soo/optee_os/lib/libmbedtls/mbedtls/library/bignum.c:402
    3e84:	e204401f 	and	r4, r4, #31
/home/rossierd/soo.tech/soo/optee_os/lib/libmbedtls/mbedtls/library/bignum.c:416
    3e88:	e3a02001 	mov	r2, #1
    3e8c:	e7913106 	ldr	r3, [r1, r6, lsl #2]
    3e90:	e1c33412 	bic	r3, r3, r2, lsl r4
/home/rossierd/soo.tech/soo/optee_os/lib/libmbedtls/mbedtls/library/bignum.c:417
    3e94:	e1834415 	orr	r4, r3, r5, lsl r4
    3e98:	e7814106 	str	r4, [r1, r6, lsl #2]
    3e9c:	e3a00000 	mov	r0, #0
    3ea0:	e89da8f0 	ldm	sp, {r4, r5, r6, r7, fp, sp, pc}
/home/rossierd/soo.tech/soo/optee_os/lib/libmbedtls/mbedtls/library/bignum.c:410
    3ea4:	e3520000 	cmp	r2, #0
    3ea8:	0afffffb 	beq	3e9c <mbedtls_mpi_set_bit+0x4c>
/home/rossierd/soo.tech/soo/optee_os/lib/libmbedtls/mbedtls/library/bignum.c:413
    3eac:	e2861001 	add	r1, r6, #1
    3eb0:	ebfffe94 	bl	3908 <mbedtls_mpi_grow>
    3eb4:	e3500000 	cmp	r0, #0
    3eb8:	0afffff0 	beq	3e80 <mbedtls_mpi_set_bit+0x30>
    3ebc:	e89da8f0 	ldm	sp, {r4, r5, r6, r7, fp, sp, pc}
/home/rossierd/soo.tech/soo/optee_os/lib/libmbedtls/mbedtls/library/bignum.c:406
    3ec0:	e3e00003 	mvn	r0, #3
    3ec4:	e89da8f0 	ldm	sp, {r4, r5, r6, r7, fp, sp, pc}

00003ec8 <mbedtls_mpi_lsb>:
mbedtls_mpi_lsb():
/home/rossierd/soo.tech/soo/optee_os/lib/libmbedtls/mbedtls/library/bignum.c:428
    3ec8:	e1a0c00d 	mov	ip, sp
/home/rossierd/soo.tech/soo/optee_os/lib/libmbedtls/mbedtls/library/bignum.c:429
    3ecc:	e3a03000 	mov	r3, #0
/home/rossierd/soo.tech/soo/optee_os/lib/libmbedtls/mbedtls/library/bignum.c:432
    3ed0:	e1a01003 	mov	r1, r3
/home/rossierd/soo.tech/soo/optee_os/lib/libmbedtls/mbedtls/library/bignum.c:428
    3ed4:	e92dd810 	push	{r4, fp, ip, lr, pc}
    3ed8:	e24cb004 	sub	fp, ip, #4
/home/rossierd/soo.tech/soo/optee_os/lib/libmbedtls/mbedtls/library/bignum.c:432
    3edc:	e590e004 	ldr	lr, [r0, #4]
/home/rossierd/soo.tech/soo/optee_os/lib/libmbedtls/mbedtls/library/bignum.c:432 (discriminator 1)
    3ee0:	e151000e 	cmp	r1, lr
    3ee4:	0a00000b 	beq	3f18 <mbedtls_mpi_lsb+0x50>
/home/rossierd/soo.tech/soo/optee_os/lib/libmbedtls/mbedtls/library/bignum.c:434
    3ee8:	e5902008 	ldr	r2, [r0, #8]
    3eec:	e792c101 	ldr	ip, [r2, r1, lsl #2]
    3ef0:	e3a02000 	mov	r2, #0
    3ef4:	e1a0423c 	lsr	r4, ip, r2
    3ef8:	e3140001 	tst	r4, #1
    3efc:	1a000006 	bne	3f1c <mbedtls_mpi_lsb+0x54>
/home/rossierd/soo.tech/soo/optee_os/lib/libmbedtls/mbedtls/library/bignum.c:433 (discriminator 2)
    3f00:	e2822001 	add	r2, r2, #1
    3f04:	e2833001 	add	r3, r3, #1
    3f08:	e3520020 	cmp	r2, #32
    3f0c:	1afffff8 	bne	3ef4 <mbedtls_mpi_lsb+0x2c>
/home/rossierd/soo.tech/soo/optee_os/lib/libmbedtls/mbedtls/library/bignum.c:432 (discriminator 2)
    3f10:	e2811001 	add	r1, r1, #1
    3f14:	eafffff1 	b	3ee0 <mbedtls_mpi_lsb+0x18>
/home/rossierd/soo.tech/soo/optee_os/lib/libmbedtls/mbedtls/library/bignum.c:437
    3f18:	e3a03000 	mov	r3, #0
/home/rossierd/soo.tech/soo/optee_os/lib/libmbedtls/mbedtls/library/bignum.c:438
    3f1c:	e1a00003 	mov	r0, r3
    3f20:	e89da810 	ldm	sp, {r4, fp, sp, pc}

00003f24 <mbedtls_mpi_bitlen>:
mbedtls_mpi_bitlen():
/home/rossierd/soo.tech/soo/optee_os/lib/libmbedtls/mbedtls/library/bignum.c:465
    3f24:	e5903004 	ldr	r3, [r0, #4]
/home/rossierd/soo.tech/soo/optee_os/lib/libmbedtls/mbedtls/library/bignum.c:462
    3f28:	e1a0c00d 	mov	ip, sp
    3f2c:	e92dd800 	push	{fp, ip, lr, pc}
    3f30:	e24cb004 	sub	fp, ip, #4
/home/rossierd/soo.tech/soo/optee_os/lib/libmbedtls/mbedtls/library/bignum.c:465
    3f34:	e3530000 	cmp	r3, #0
/home/rossierd/soo.tech/soo/optee_os/lib/libmbedtls/mbedtls/library/bignum.c:468
    3f38:	12432001 	subne	r2, r3, #1
    3f3c:	12433107 	subne	r3, r3, #-1073741823	; 0xc0000001
    3f40:	11a03103 	lslne	r3, r3, #2
/home/rossierd/soo.tech/soo/optee_os/lib/libmbedtls/mbedtls/library/bignum.c:465
    3f44:	1a000006 	bne	3f64 <mbedtls_mpi_bitlen+0x40>
/home/rossierd/soo.tech/soo/optee_os/lib/libmbedtls/mbedtls/library/bignum.c:466
    3f48:	e1a00003 	mov	r0, r3
/home/rossierd/soo.tech/soo/optee_os/lib/libmbedtls/mbedtls/library/bignum.c:475
    3f4c:	e89da800 	ldm	sp, {fp, sp, pc}
/home/rossierd/soo.tech/soo/optee_os/lib/libmbedtls/mbedtls/library/bignum.c:469
    3f50:	e791c003 	ldr	ip, [r1, r3]
    3f54:	e2433004 	sub	r3, r3, #4
    3f58:	e35c0000 	cmp	ip, #0
    3f5c:	1a000003 	bne	3f70 <mbedtls_mpi_bitlen+0x4c>
/home/rossierd/soo.tech/soo/optee_os/lib/libmbedtls/mbedtls/library/bignum.c:468 (discriminator 2)
    3f60:	e2422001 	sub	r2, r2, #1
/home/rossierd/soo.tech/soo/optee_os/lib/libmbedtls/mbedtls/library/bignum.c:468 (discriminator 1)
    3f64:	e3520000 	cmp	r2, #0
    3f68:	e5901008 	ldr	r1, [r0, #8]
    3f6c:	1afffff7 	bne	3f50 <mbedtls_mpi_bitlen+0x2c>
/home/rossierd/soo.tech/soo/optee_os/lib/libmbedtls/mbedtls/library/bignum.c:472
    3f70:	e7911102 	ldr	r1, [r1, r2, lsl #2]
mbedtls_clz():
/home/rossierd/soo.tech/soo/optee_os/lib/libmbedtls/mbedtls/library/bignum.c:448
    3f74:	e3a00000 	mov	r0, #0
/home/rossierd/soo.tech/soo/optee_os/lib/libmbedtls/mbedtls/library/bignum.c:446
    3f78:	e3a03102 	mov	r3, #-2147483648	; 0x80000000
/home/rossierd/soo.tech/soo/optee_os/lib/libmbedtls/mbedtls/library/bignum.c:450
    3f7c:	e1110003 	tst	r1, r3
    3f80:	1a000003 	bne	3f94 <mbedtls_mpi_bitlen+0x70>
/home/rossierd/soo.tech/soo/optee_os/lib/libmbedtls/mbedtls/library/bignum.c:448
    3f84:	e2800001 	add	r0, r0, #1
/home/rossierd/soo.tech/soo/optee_os/lib/libmbedtls/mbedtls/library/bignum.c:452
    3f88:	e1a030a3 	lsr	r3, r3, #1
/home/rossierd/soo.tech/soo/optee_os/lib/libmbedtls/mbedtls/library/bignum.c:448
    3f8c:	e3500020 	cmp	r0, #32
    3f90:	1afffff9 	bne	3f7c <mbedtls_mpi_bitlen+0x58>
mbedtls_mpi_bitlen():
/home/rossierd/soo.tech/soo/optee_os/lib/libmbedtls/mbedtls/library/bignum.c:474
    3f94:	e0600282 	rsb	r0, r0, r2, lsl #5
    3f98:	e2800020 	add	r0, r0, #32
    3f9c:	e89da800 	ldm	sp, {fp, sp, pc}

00003fa0 <mbedtls_mpi_size>:
mbedtls_mpi_size():
/home/rossierd/soo.tech/soo/optee_os/lib/libmbedtls/mbedtls/library/bignum.c:481
    3fa0:	e1a0c00d 	mov	ip, sp
    3fa4:	e92dd800 	push	{fp, ip, lr, pc}
    3fa8:	e24cb004 	sub	fp, ip, #4
/home/rossierd/soo.tech/soo/optee_os/lib/libmbedtls/mbedtls/library/bignum.c:482
    3fac:	ebffffdc 	bl	3f24 <mbedtls_mpi_bitlen>
    3fb0:	e2800007 	add	r0, r0, #7
/home/rossierd/soo.tech/soo/optee_os/lib/libmbedtls/mbedtls/library/bignum.c:483
    3fb4:	e1a001a0 	lsr	r0, r0, #3
    3fb8:	e89da800 	ldm	sp, {fp, sp, pc}

00003fbc <mbedtls_mpi_read_binary>:
mbedtls_mpi_read_binary():
/home/rossierd/soo.tech/soo/optee_os/lib/libmbedtls/mbedtls/library/bignum.c:769
    3fbc:	e1a0c00d 	mov	ip, sp
/home/rossierd/soo.tech/soo/optee_os/lib/libmbedtls/mbedtls/library/bignum.c:778
    3fc0:	e5903004 	ldr	r3, [r0, #4]
/home/rossierd/soo.tech/soo/optee_os/lib/libmbedtls/mbedtls/library/bignum.c:769
    3fc4:	e92ddbf0 	push	{r4, r5, r6, r7, r8, r9, fp, ip, lr, pc}
    3fc8:	e1a07001 	mov	r7, r1
/home/rossierd/soo.tech/soo/optee_os/lib/libmbedtls/mbedtls/library/bignum.c:772
    3fcc:	e2121003 	ands	r1, r2, #3
/home/rossierd/soo.tech/soo/optee_os/lib/libmbedtls/mbedtls/library/bignum.c:769
    3fd0:	e24cb004 	sub	fp, ip, #4
/home/rossierd/soo.tech/soo/optee_os/lib/libmbedtls/mbedtls/library/bignum.c:772
    3fd4:	13a01001 	movne	r1, #1
/home/rossierd/soo.tech/soo/optee_os/lib/libmbedtls/mbedtls/library/bignum.c:769
    3fd8:	e1a04000 	mov	r4, r0
/home/rossierd/soo.tech/soo/optee_os/lib/libmbedtls/mbedtls/library/bignum.c:772
    3fdc:	e0815122 	add	r5, r1, r2, lsr #2
/home/rossierd/soo.tech/soo/optee_os/lib/libmbedtls/mbedtls/library/bignum.c:769
    3fe0:	e1a06002 	mov	r6, r2
/home/rossierd/soo.tech/soo/optee_os/lib/libmbedtls/mbedtls/library/bignum.c:778
    3fe4:	e1550003 	cmp	r5, r3
    3fe8:	1a000007 	bne	400c <mbedtls_mpi_read_binary+0x50>
/home/rossierd/soo.tech/soo/optee_os/lib/libmbedtls/mbedtls/library/bignum.c:787
    3fec:	e3a01000 	mov	r1, #0
    3ff0:	e1a00004 	mov	r0, r4
    3ff4:	ebffff70 	bl	3dbc <mbedtls_mpi_lset>
    3ff8:	e3500000 	cmp	r0, #0
    3ffc:	00871006 	addeq	r1, r7, r6
    4000:	01a03000 	moveq	r3, r0
    4004:	0a000017 	beq	4068 <mbedtls_mpi_read_binary+0xac>
    4008:	e89dabf0 	ldm	sp, {r4, r5, r6, r7, r8, r9, fp, sp, pc}
/home/rossierd/soo.tech/soo/optee_os/lib/libmbedtls/mbedtls/library/bignum.c:780
    400c:	e1d080f2 	ldrsh	r8, [r0, #2]
/home/rossierd/soo.tech/soo/optee_os/lib/libmbedtls/mbedtls/library/bignum.c:782
    4010:	ebfffe1c 	bl	3888 <mbedtls_mpi_free>
mpi_init():
/home/rossierd/soo.tech/soo/optee_os/lib/libmbedtls/mbedtls/library/bignum.c:98
    4014:	e3a03001 	mov	r3, #1
mbedtls_mpi_read_binary():
/home/rossierd/soo.tech/soo/optee_os/lib/libmbedtls/mbedtls/library/bignum.c:784
    4018:	e1a01005 	mov	r1, r5
    401c:	e1a00004 	mov	r0, r4
mpi_init():
/home/rossierd/soo.tech/soo/optee_os/lib/libmbedtls/mbedtls/library/bignum.c:98
    4020:	e1c430b0 	strh	r3, [r4]
/home/rossierd/soo.tech/soo/optee_os/lib/libmbedtls/mbedtls/library/bignum.c:100
    4024:	e3a03000 	mov	r3, #0
/home/rossierd/soo.tech/soo/optee_os/lib/libmbedtls/mbedtls/library/bignum.c:99
    4028:	e1c480b2 	strh	r8, [r4, #2]
/home/rossierd/soo.tech/soo/optee_os/lib/libmbedtls/mbedtls/library/bignum.c:100
    402c:	e5843004 	str	r3, [r4, #4]
/home/rossierd/soo.tech/soo/optee_os/lib/libmbedtls/mbedtls/library/bignum.c:101
    4030:	e5843008 	str	r3, [r4, #8]
mbedtls_mpi_read_binary():
/home/rossierd/soo.tech/soo/optee_os/lib/libmbedtls/mbedtls/library/bignum.c:784
    4034:	ebfffe33 	bl	3908 <mbedtls_mpi_grow>
    4038:	e3500000 	cmp	r0, #0
    403c:	0affffea 	beq	3fec <mbedtls_mpi_read_binary+0x30>
    4040:	e89dabf0 	ldm	sp, {r4, r5, r6, r7, r8, r9, fp, sp, pc}
/home/rossierd/soo.tech/soo/optee_os/lib/libmbedtls/mbedtls/library/bignum.c:790 (discriminator 3)
    4044:	e5945008 	ldr	r5, [r4, #8]
    4048:	e1a02183 	lsl	r2, r3, #3
    404c:	e3c3e003 	bic	lr, r3, #3
    4050:	e5717001 	ldrb	r7, [r1, #-1]!
/home/rossierd/soo.tech/soo/optee_os/lib/libmbedtls/mbedtls/library/bignum.c:789 (discriminator 3)
    4054:	e2833001 	add	r3, r3, #1
/home/rossierd/soo.tech/soo/optee_os/lib/libmbedtls/mbedtls/library/bignum.c:790 (discriminator 3)
    4058:	e202c018 	and	ip, r2, #24
    405c:	e795200e 	ldr	r2, [r5, lr]
    4060:	e1822c17 	orr	r2, r2, r7, lsl ip
    4064:	e785200e 	str	r2, [r5, lr]
/home/rossierd/soo.tech/soo/optee_os/lib/libmbedtls/mbedtls/library/bignum.c:789 (discriminator 1)
    4068:	e1530006 	cmp	r3, r6
    406c:	1afffff4 	bne	4044 <mbedtls_mpi_read_binary+0x88>
/home/rossierd/soo.tech/soo/optee_os/lib/libmbedtls/mbedtls/library/bignum.c:795
    4070:	e89dabf0 	ldm	sp, {r4, r5, r6, r7, r8, r9, fp, sp, pc}

00004074 <mbedtls_mpi_write_binary>:
mbedtls_mpi_write_binary():
/home/rossierd/soo.tech/soo/optee_os/lib/libmbedtls/mbedtls/library/bignum.c:802
    4074:	e1a0c00d 	mov	ip, sp
    4078:	e92dd8f0 	push	{r4, r5, r6, r7, fp, ip, lr, pc}
    407c:	e1a05000 	mov	r5, r0
/home/rossierd/soo.tech/soo/optee_os/lib/libmbedtls/mbedtls/library/bignum.c:811
    4080:	e5954004 	ldr	r4, [r5, #4]
/home/rossierd/soo.tech/soo/optee_os/lib/libmbedtls/mbedtls/library/bignum.c:802
    4084:	e24cb004 	sub	fp, ip, #4
    4088:	e1a00001 	mov	r0, r1
/home/rossierd/soo.tech/soo/optee_os/lib/libmbedtls/mbedtls/library/bignum.c:811
    408c:	e1a04104 	lsl	r4, r4, #2
/home/rossierd/soo.tech/soo/optee_os/lib/libmbedtls/mbedtls/library/bignum.c:813
    4090:	e1540002 	cmp	r4, r2
    4094:	21a03002 	movcs	r3, r2
    4098:	2a000014 	bcs	40f0 <mbedtls_mpi_write_binary+0x7c>
/home/rossierd/soo.tech/soo/optee_os/lib/libmbedtls/mbedtls/library/bignum.c:821
    409c:	e0422004 	sub	r2, r2, r4
    40a0:	e0816002 	add	r6, r1, r2
/home/rossierd/soo.tech/soo/optee_os/lib/libmbedtls/mbedtls/library/bignum.c:822
    40a4:	e3a01000 	mov	r1, #0
    40a8:	eb000f87 	bl	7ecc <memset>
/home/rossierd/soo.tech/soo/optee_os/lib/libmbedtls/mbedtls/library/bignum.c:821
    40ac:	e1a00006 	mov	r0, r6
    40b0:	e1a02004 	mov	r2, r4
    40b4:	e0800002 	add	r0, r0, r2
/home/rossierd/soo.tech/soo/optee_os/lib/libmbedtls/mbedtls/library/bignum.c:837
    40b8:	e3a03000 	mov	r3, #0
/home/rossierd/soo.tech/soo/optee_os/lib/libmbedtls/mbedtls/library/bignum.c:837 (discriminator 1)
    40bc:	e1520003 	cmp	r2, r3
    40c0:	1a00000d 	bne	40fc <mbedtls_mpi_write_binary+0x88>
/home/rossierd/soo.tech/soo/optee_os/lib/libmbedtls/mbedtls/library/bignum.c:840
    40c4:	e3a00000 	mov	r0, #0
    40c8:	e89da8f0 	ldm	sp, {r4, r5, r6, r7, fp, sp, pc}
/home/rossierd/soo.tech/soo/optee_os/lib/libmbedtls/mbedtls/library/bignum.c:832
    40cc:	e5956008 	ldr	r6, [r5, #8]
    40d0:	e2031003 	and	r1, r3, #3
    40d4:	e3c3e003 	bic	lr, r3, #3
    40d8:	e1a0c181 	lsl	ip, r1, #3
    40dc:	e796100e 	ldr	r1, [r6, lr]
    40e0:	e1a01c31 	lsr	r1, r1, ip
    40e4:	e31100ff 	tst	r1, #255	; 0xff
    40e8:	1a00000c 	bne	4120 <mbedtls_mpi_write_binary+0xac>
/home/rossierd/soo.tech/soo/optee_os/lib/libmbedtls/mbedtls/library/bignum.c:830 (discriminator 2)
    40ec:	e2833001 	add	r3, r3, #1
/home/rossierd/soo.tech/soo/optee_os/lib/libmbedtls/mbedtls/library/bignum.c:830 (discriminator 1)
    40f0:	e1530004 	cmp	r3, r4
    40f4:	1afffff4 	bne	40cc <mbedtls_mpi_write_binary+0x58>
    40f8:	eaffffed 	b	40b4 <mbedtls_mpi_write_binary+0x40>
/home/rossierd/soo.tech/soo/optee_os/lib/libmbedtls/mbedtls/library/bignum.c:838 (discriminator 3)
    40fc:	e5954008 	ldr	r4, [r5, #8]
    4100:	e2031003 	and	r1, r3, #3
    4104:	e3c3e003 	bic	lr, r3, #3
    4108:	e1a0c181 	lsl	ip, r1, #3
/home/rossierd/soo.tech/soo/optee_os/lib/libmbedtls/mbedtls/library/bignum.c:837 (discriminator 3)
    410c:	e2833001 	add	r3, r3, #1
/home/rossierd/soo.tech/soo/optee_os/lib/libmbedtls/mbedtls/library/bignum.c:838 (discriminator 3)
    4110:	e794100e 	ldr	r1, [r4, lr]
    4114:	e1a01c31 	lsr	r1, r1, ip
    4118:	e5601001 	strb	r1, [r0, #-1]!
    411c:	eaffffe6 	b	40bc <mbedtls_mpi_write_binary+0x48>
/home/rossierd/soo.tech/soo/optee_os/lib/libmbedtls/mbedtls/library/bignum.c:833
    4120:	e3e00007 	mvn	r0, #7
/home/rossierd/soo.tech/soo/optee_os/lib/libmbedtls/mbedtls/library/bignum.c:841
    4124:	e89da8f0 	ldm	sp, {r4, r5, r6, r7, fp, sp, pc}

00004128 <mbedtls_mpi_shift_l>:
mbedtls_mpi_shift_l():
/home/rossierd/soo.tech/soo/optee_os/lib/libmbedtls/mbedtls/library/bignum.c:847
    4128:	e1a0c00d 	mov	ip, sp
    412c:	e92dd8f0 	push	{r4, r5, r6, r7, fp, ip, lr, pc}
    4130:	e1a06000 	mov	r6, r0
    4134:	e24cb004 	sub	fp, ip, #4
    4138:	e1a04001 	mov	r4, r1
/home/rossierd/soo.tech/soo/optee_os/lib/libmbedtls/mbedtls/library/bignum.c:853
    413c:	e1a052a1 	lsr	r5, r1, #5
/home/rossierd/soo.tech/soo/optee_os/lib/libmbedtls/mbedtls/library/bignum.c:854
    4140:	e201701f 	and	r7, r1, #31
/home/rossierd/soo.tech/soo/optee_os/lib/libmbedtls/mbedtls/library/bignum.c:856
    4144:	ebffff76 	bl	3f24 <mbedtls_mpi_bitlen>
/home/rossierd/soo.tech/soo/optee_os/lib/libmbedtls/mbedtls/library/bignum.c:858
    4148:	e5963004 	ldr	r3, [r6, #4]
/home/rossierd/soo.tech/soo/optee_os/lib/libmbedtls/mbedtls/library/bignum.c:856
    414c:	e0840000 	add	r0, r4, r0
/home/rossierd/soo.tech/soo/optee_os/lib/libmbedtls/mbedtls/library/bignum.c:858
    4150:	e1500283 	cmp	r0, r3, lsl #5
    4154:	8a000008 	bhi	417c <mbedtls_mpi_shift_l+0x54>
/home/rossierd/soo.tech/soo/optee_os/lib/libmbedtls/mbedtls/library/bignum.c:866
    4158:	e3550000 	cmp	r5, #0
    415c:	1a00000e 	bne	419c <mbedtls_mpi_shift_l+0x74>
/home/rossierd/soo.tech/soo/optee_os/lib/libmbedtls/mbedtls/library/bignum.c:878
    4160:	e3570000 	cmp	r7, #0
    4164:	11a02105 	lslne	r2, r5, #2
    4168:	13a03000 	movne	r3, #0
/home/rossierd/soo.tech/soo/optee_os/lib/libmbedtls/mbedtls/library/bignum.c:882
    416c:	1267c020 	rsbne	ip, r7, #32
/home/rossierd/soo.tech/soo/optee_os/lib/libmbedtls/mbedtls/library/bignum.c:878
    4170:	1a000027 	bne	4214 <mbedtls_mpi_shift_l+0xec>
/home/rossierd/soo.tech/soo/optee_os/lib/libmbedtls/mbedtls/library/bignum.c:861
    4174:	e3a00000 	mov	r0, #0
    4178:	e89da8f0 	ldm	sp, {r4, r5, r6, r7, fp, sp, pc}
/home/rossierd/soo.tech/soo/optee_os/lib/libmbedtls/mbedtls/library/bignum.c:859
    417c:	e210101f 	ands	r1, r0, #31
    4180:	13a01001 	movne	r1, #1
    4184:	e08112a0 	add	r1, r1, r0, lsr #5
    4188:	e1a00006 	mov	r0, r6
    418c:	ebfffddd 	bl	3908 <mbedtls_mpi_grow>
    4190:	e3500000 	cmp	r0, #0
    4194:	0affffef 	beq	4158 <mbedtls_mpi_shift_l+0x30>
    4198:	e89da8f0 	ldm	sp, {r4, r5, r6, r7, fp, sp, pc}
/home/rossierd/soo.tech/soo/optee_os/lib/libmbedtls/mbedtls/library/bignum.c:868
    419c:	e5963004 	ldr	r3, [r6, #4]
    41a0:	e3e01003 	mvn	r1, #3
    41a4:	e0010591 	mul	r1, r1, r5
    41a8:	e2432107 	sub	r2, r3, #-1073741823	; 0xc0000001
    41ac:	e1a02102 	lsl	r2, r2, #2
/home/rossierd/soo.tech/soo/optee_os/lib/libmbedtls/mbedtls/library/bignum.c:868 (discriminator 1)
    41b0:	e1530005 	cmp	r3, r5
    41b4:	8a000008 	bhi	41dc <mbedtls_mpi_shift_l+0xb4>
    41b8:	e2433107 	sub	r3, r3, #-1073741823	; 0xc0000001
/home/rossierd/soo.tech/soo/optee_os/lib/libmbedtls/mbedtls/library/bignum.c:872
    41bc:	e3a02000 	mov	r2, #0
    41c0:	e1a03103 	lsl	r3, r3, #2
/home/rossierd/soo.tech/soo/optee_os/lib/libmbedtls/mbedtls/library/bignum.c:871 (discriminator 1)
    41c4:	e3730004 	cmn	r3, #4
    41c8:	0affffe4 	beq	4160 <mbedtls_mpi_shift_l+0x38>
/home/rossierd/soo.tech/soo/optee_os/lib/libmbedtls/mbedtls/library/bignum.c:872 (discriminator 2)
    41cc:	e5961008 	ldr	r1, [r6, #8]
    41d0:	e7812003 	str	r2, [r1, r3]
    41d4:	e2433004 	sub	r3, r3, #4
    41d8:	eafffff9 	b	41c4 <mbedtls_mpi_shift_l+0x9c>
/home/rossierd/soo.tech/soo/optee_os/lib/libmbedtls/mbedtls/library/bignum.c:869 (discriminator 3)
    41dc:	e5960008 	ldr	r0, [r6, #8]
/home/rossierd/soo.tech/soo/optee_os/lib/libmbedtls/mbedtls/library/bignum.c:868 (discriminator 3)
    41e0:	e2433001 	sub	r3, r3, #1
/home/rossierd/soo.tech/soo/optee_os/lib/libmbedtls/mbedtls/library/bignum.c:869 (discriminator 3)
    41e4:	e080c002 	add	ip, r0, r2
    41e8:	e79cc001 	ldr	ip, [ip, r1]
    41ec:	e780c002 	str	ip, [r0, r2]
    41f0:	e2422004 	sub	r2, r2, #4
    41f4:	eaffffed 	b	41b0 <mbedtls_mpi_shift_l+0x88>
/home/rossierd/soo.tech/soo/optee_os/lib/libmbedtls/mbedtls/library/bignum.c:882 (discriminator 3)
    41f8:	e5960008 	ldr	r0, [r6, #8]
/home/rossierd/soo.tech/soo/optee_os/lib/libmbedtls/mbedtls/library/bignum.c:880 (discriminator 3)
    41fc:	e2855001 	add	r5, r5, #1
/home/rossierd/soo.tech/soo/optee_os/lib/libmbedtls/mbedtls/library/bignum.c:882 (discriminator 3)
    4200:	e7901002 	ldr	r1, [r0, r2]
/home/rossierd/soo.tech/soo/optee_os/lib/libmbedtls/mbedtls/library/bignum.c:884 (discriminator 3)
    4204:	e1833711 	orr	r3, r3, r1, lsl r7
    4208:	e7803002 	str	r3, [r0, r2]
    420c:	e2822004 	add	r2, r2, #4
/home/rossierd/soo.tech/soo/optee_os/lib/libmbedtls/mbedtls/library/bignum.c:882 (discriminator 3)
    4210:	e1a03c31 	lsr	r3, r1, ip
/home/rossierd/soo.tech/soo/optee_os/lib/libmbedtls/mbedtls/library/bignum.c:880 (discriminator 1)
    4214:	e5961004 	ldr	r1, [r6, #4]
    4218:	e1550001 	cmp	r5, r1
    421c:	3afffff5 	bcc	41f8 <mbedtls_mpi_shift_l+0xd0>
    4220:	eaffffd3 	b	4174 <mbedtls_mpi_shift_l+0x4c>

00004224 <mbedtls_mpi_shift_r>:
mbedtls_mpi_shift_r():
/home/rossierd/soo.tech/soo/optee_os/lib/libmbedtls/mbedtls/library/bignum.c:906
    4224:	e5902004 	ldr	r2, [r0, #4]
/home/rossierd/soo.tech/soo/optee_os/lib/libmbedtls/mbedtls/library/bignum.c:903
    4228:	e1a032a1 	lsr	r3, r1, #5
/home/rossierd/soo.tech/soo/optee_os/lib/libmbedtls/mbedtls/library/bignum.c:898
    422c:	e1a0c00d 	mov	ip, sp
    4230:	e92dd830 	push	{r4, r5, fp, ip, lr, pc}
    4234:	e24cb004 	sub	fp, ip, #4
/home/rossierd/soo.tech/soo/optee_os/lib/libmbedtls/mbedtls/library/bignum.c:906
    4238:	e1530002 	cmp	r3, r2
    423c:	8a000007 	bhi	4260 <mbedtls_mpi_shift_r+0x3c>
/home/rossierd/soo.tech/soo/optee_os/lib/libmbedtls/mbedtls/library/bignum.c:906 (discriminator 2)
    4240:	e201c01f 	and	ip, r1, #31
    4244:	e211101f 	ands	r1, r1, #31
    4248:	13a01001 	movne	r1, #1
    424c:	e1530002 	cmp	r3, r2
    4250:	13a01000 	movne	r1, #0
    4254:	02011001 	andeq	r1, r1, #1
    4258:	e3510000 	cmp	r1, #0
    425c:	0a000003 	beq	4270 <mbedtls_mpi_shift_r+0x4c>
/home/rossierd/soo.tech/soo/optee_os/lib/libmbedtls/mbedtls/library/bignum.c:907
    4260:	e3a01000 	mov	r1, #0
/home/rossierd/soo.tech/soo/optee_os/lib/libmbedtls/mbedtls/library/bignum.c:936
    4264:	e24bd014 	sub	sp, fp, #20
    4268:	e89d6830 	ldm	sp, {r4, r5, fp, sp, lr}
/home/rossierd/soo.tech/soo/optee_os/lib/libmbedtls/mbedtls/library/bignum.c:907
    426c:	eafffed2 	b	3dbc <mbedtls_mpi_lset>
/home/rossierd/soo.tech/soo/optee_os/lib/libmbedtls/mbedtls/library/bignum.c:912
    4270:	e3530000 	cmp	r3, #0
    4274:	1a000008 	bne	429c <mbedtls_mpi_shift_r+0x78>
/home/rossierd/soo.tech/soo/optee_os/lib/libmbedtls/mbedtls/library/bignum.c:924
    4278:	e35c0000 	cmp	ip, #0
    427c:	1a000014 	bne	42d4 <mbedtls_mpi_shift_r+0xb0>
/home/rossierd/soo.tech/soo/optee_os/lib/libmbedtls/mbedtls/library/bignum.c:936
    4280:	e3a00000 	mov	r0, #0
    4284:	e89da830 	ldm	sp, {r4, r5, fp, sp, pc}
/home/rossierd/soo.tech/soo/optee_os/lib/libmbedtls/mbedtls/library/bignum.c:915 (discriminator 3)
    4288:	e5902008 	ldr	r2, [r0, #8]
    428c:	e081e003 	add	lr, r1, r3
    4290:	e792e10e 	ldr	lr, [r2, lr, lsl #2]
    4294:	e782e101 	str	lr, [r2, r1, lsl #2]
/home/rossierd/soo.tech/soo/optee_os/lib/libmbedtls/mbedtls/library/bignum.c:914 (discriminator 3)
    4298:	e2811001 	add	r1, r1, #1
/home/rossierd/soo.tech/soo/optee_os/lib/libmbedtls/mbedtls/library/bignum.c:914 (discriminator 1)
    429c:	e5902004 	ldr	r2, [r0, #4]
    42a0:	e0422003 	sub	r2, r2, r3
    42a4:	e1510002 	cmp	r1, r2
    42a8:	3afffff6 	bcc	4288 <mbedtls_mpi_shift_r+0x64>
    42ac:	e1a03101 	lsl	r3, r1, #2
/home/rossierd/soo.tech/soo/optee_os/lib/libmbedtls/mbedtls/library/bignum.c:918
    42b0:	e3a0e000 	mov	lr, #0
/home/rossierd/soo.tech/soo/optee_os/lib/libmbedtls/mbedtls/library/bignum.c:917 (discriminator 1)
    42b4:	e5902004 	ldr	r2, [r0, #4]
    42b8:	e1510002 	cmp	r1, r2
    42bc:	2affffed 	bcs	4278 <mbedtls_mpi_shift_r+0x54>
/home/rossierd/soo.tech/soo/optee_os/lib/libmbedtls/mbedtls/library/bignum.c:918 (discriminator 2)
    42c0:	e5902008 	ldr	r2, [r0, #8]
/home/rossierd/soo.tech/soo/optee_os/lib/libmbedtls/mbedtls/library/bignum.c:917 (discriminator 2)
    42c4:	e2811001 	add	r1, r1, #1
/home/rossierd/soo.tech/soo/optee_os/lib/libmbedtls/mbedtls/library/bignum.c:918 (discriminator 2)
    42c8:	e782e003 	str	lr, [r2, r3]
    42cc:	e2833004 	add	r3, r3, #4
    42d0:	eafffff7 	b	42b4 <mbedtls_mpi_shift_r+0x90>
/home/rossierd/soo.tech/soo/optee_os/lib/libmbedtls/mbedtls/library/bignum.c:926
    42d4:	e5902004 	ldr	r2, [r0, #4]
/home/rossierd/soo.tech/soo/optee_os/lib/libmbedtls/mbedtls/library/bignum.c:900
    42d8:	e3a01000 	mov	r1, #0
/home/rossierd/soo.tech/soo/optee_os/lib/libmbedtls/mbedtls/library/bignum.c:928
    42dc:	e26c5020 	rsb	r5, ip, #32
    42e0:	e2423107 	sub	r3, r2, #-1073741823	; 0xc0000001
    42e4:	e1a03103 	lsl	r3, r3, #2
/home/rossierd/soo.tech/soo/optee_os/lib/libmbedtls/mbedtls/library/bignum.c:926 (discriminator 1)
    42e8:	e3520000 	cmp	r2, #0
    42ec:	0affffe3 	beq	4280 <mbedtls_mpi_shift_r+0x5c>
/home/rossierd/soo.tech/soo/optee_os/lib/libmbedtls/mbedtls/library/bignum.c:928 (discriminator 3)
    42f0:	e5904008 	ldr	r4, [r0, #8]
/home/rossierd/soo.tech/soo/optee_os/lib/libmbedtls/mbedtls/library/bignum.c:926 (discriminator 3)
    42f4:	e2422001 	sub	r2, r2, #1
/home/rossierd/soo.tech/soo/optee_os/lib/libmbedtls/mbedtls/library/bignum.c:928 (discriminator 3)
    42f8:	e794e003 	ldr	lr, [r4, r3]
/home/rossierd/soo.tech/soo/optee_os/lib/libmbedtls/mbedtls/library/bignum.c:930 (discriminator 3)
    42fc:	e1811c3e 	orr	r1, r1, lr, lsr ip
    4300:	e7841003 	str	r1, [r4, r3]
    4304:	e2433004 	sub	r3, r3, #4
/home/rossierd/soo.tech/soo/optee_os/lib/libmbedtls/mbedtls/library/bignum.c:928 (discriminator 3)
    4308:	e1a0151e 	lsl	r1, lr, r5
    430c:	eafffff5 	b	42e8 <mbedtls_mpi_shift_r+0xc4>

00004310 <mbedtls_mpi_cmp_abs>:
mbedtls_mpi_cmp_abs():
/home/rossierd/soo.tech/soo/optee_os/lib/libmbedtls/mbedtls/library/bignum.c:947
    4310:	e5903004 	ldr	r3, [r0, #4]
/home/rossierd/soo.tech/soo/optee_os/lib/libmbedtls/mbedtls/library/bignum.c:942
    4314:	e1a0c00d 	mov	ip, sp
    4318:	e92dd800 	push	{fp, ip, lr, pc}
    431c:	e24cb004 	sub	fp, ip, #4
    4320:	e2432107 	sub	r2, r3, #-1073741823	; 0xc0000001
    4324:	e1a02102 	lsl	r2, r2, #2
/home/rossierd/soo.tech/soo/optee_os/lib/libmbedtls/mbedtls/library/bignum.c:947 (discriminator 1)
    4328:	e3530000 	cmp	r3, #0
    432c:	1a00000d 	bne	4368 <mbedtls_mpi_cmp_abs+0x58>
/home/rossierd/soo.tech/soo/optee_os/lib/libmbedtls/mbedtls/library/bignum.c:951
    4330:	e591c004 	ldr	ip, [r1, #4]
    4334:	e24c2107 	sub	r2, ip, #-1073741823	; 0xc0000001
    4338:	e1a02102 	lsl	r2, r2, #2
/home/rossierd/soo.tech/soo/optee_os/lib/libmbedtls/mbedtls/library/bignum.c:951 (discriminator 1)
    433c:	e35c0000 	cmp	ip, #0
    4340:	1a00000f 	bne	4384 <mbedtls_mpi_cmp_abs+0x74>
/home/rossierd/soo.tech/soo/optee_os/lib/libmbedtls/mbedtls/library/bignum.c:955
    4344:	e193200c 	orrs	r2, r3, ip
    4348:	0a000021 	beq	43d4 <mbedtls_mpi_cmp_abs+0xc4>
/home/rossierd/soo.tech/soo/optee_os/lib/libmbedtls/mbedtls/library/bignum.c:958
    434c:	e153000c 	cmp	r3, ip
    4350:	8a000021 	bhi	43dc <mbedtls_mpi_cmp_abs+0xcc>
    4354:	22432107 	subcs	r2, r3, #-1073741823	; 0xc0000001
    4358:	21a02102 	lslcs	r2, r2, #2
/home/rossierd/soo.tech/soo/optee_os/lib/libmbedtls/mbedtls/library/bignum.c:959
    435c:	2a000018 	bcs	43c4 <mbedtls_mpi_cmp_abs+0xb4>
    4360:	e3e00000 	mvn	r0, #0
/home/rossierd/soo.tech/soo/optee_os/lib/libmbedtls/mbedtls/library/bignum.c:968
    4364:	e89da800 	ldm	sp, {fp, sp, pc}
/home/rossierd/soo.tech/soo/optee_os/lib/libmbedtls/mbedtls/library/bignum.c:948
    4368:	e590c008 	ldr	ip, [r0, #8]
    436c:	e79cc002 	ldr	ip, [ip, r2]
    4370:	e2422004 	sub	r2, r2, #4
    4374:	e35c0000 	cmp	ip, #0
    4378:	1affffec 	bne	4330 <mbedtls_mpi_cmp_abs+0x20>
/home/rossierd/soo.tech/soo/optee_os/lib/libmbedtls/mbedtls/library/bignum.c:947 (discriminator 2)
    437c:	e2433001 	sub	r3, r3, #1
    4380:	eaffffe8 	b	4328 <mbedtls_mpi_cmp_abs+0x18>
/home/rossierd/soo.tech/soo/optee_os/lib/libmbedtls/mbedtls/library/bignum.c:952
    4384:	e591e008 	ldr	lr, [r1, #8]
    4388:	e79ee002 	ldr	lr, [lr, r2]
    438c:	e2422004 	sub	r2, r2, #4
    4390:	e35e0000 	cmp	lr, #0
    4394:	1affffea 	bne	4344 <mbedtls_mpi_cmp_abs+0x34>
/home/rossierd/soo.tech/soo/optee_os/lib/libmbedtls/mbedtls/library/bignum.c:951 (discriminator 2)
    4398:	e24cc001 	sub	ip, ip, #1
    439c:	eaffffe6 	b	433c <mbedtls_mpi_cmp_abs+0x2c>
/home/rossierd/soo.tech/soo/optee_os/lib/libmbedtls/mbedtls/library/bignum.c:963
    43a0:	e590c008 	ldr	ip, [r0, #8]
    43a4:	e79ce002 	ldr	lr, [ip, r2]
    43a8:	e591c008 	ldr	ip, [r1, #8]
    43ac:	e79cc002 	ldr	ip, [ip, r2]
    43b0:	e15e000c 	cmp	lr, ip
    43b4:	8a000008 	bhi	43dc <mbedtls_mpi_cmp_abs+0xcc>
    43b8:	e2422004 	sub	r2, r2, #4
/home/rossierd/soo.tech/soo/optee_os/lib/libmbedtls/mbedtls/library/bignum.c:964
    43bc:	3affffe7 	bcc	4360 <mbedtls_mpi_cmp_abs+0x50>
/home/rossierd/soo.tech/soo/optee_os/lib/libmbedtls/mbedtls/library/bignum.c:961
    43c0:	e2433001 	sub	r3, r3, #1
/home/rossierd/soo.tech/soo/optee_os/lib/libmbedtls/mbedtls/library/bignum.c:961 (discriminator 1)
    43c4:	e3530000 	cmp	r3, #0
    43c8:	1afffff4 	bne	43a0 <mbedtls_mpi_cmp_abs+0x90>
/home/rossierd/soo.tech/soo/optee_os/lib/libmbedtls/mbedtls/library/bignum.c:956
    43cc:	e1a00003 	mov	r0, r3
    43d0:	e89da800 	ldm	sp, {fp, sp, pc}
    43d4:	e1a00002 	mov	r0, r2
    43d8:	e89da800 	ldm	sp, {fp, sp, pc}
/home/rossierd/soo.tech/soo/optee_os/lib/libmbedtls/mbedtls/library/bignum.c:958
    43dc:	e3a00001 	mov	r0, #1
    43e0:	e89da800 	ldm	sp, {fp, sp, pc}

000043e4 <mbedtls_mpi_cmp_mpi>:
mbedtls_mpi_cmp_mpi():
/home/rossierd/soo.tech/soo/optee_os/lib/libmbedtls/mbedtls/library/bignum.c:979
    43e4:	e5902004 	ldr	r2, [r0, #4]
/home/rossierd/soo.tech/soo/optee_os/lib/libmbedtls/mbedtls/library/bignum.c:974
    43e8:	e1a0c00d 	mov	ip, sp
    43ec:	e92dd810 	push	{r4, fp, ip, lr, pc}
    43f0:	e24cb004 	sub	fp, ip, #4
    43f4:	e2423107 	sub	r3, r2, #-1073741823	; 0xc0000001
    43f8:	e1a03103 	lsl	r3, r3, #2
/home/rossierd/soo.tech/soo/optee_os/lib/libmbedtls/mbedtls/library/bignum.c:979 (discriminator 1)
    43fc:	e3520000 	cmp	r2, #0
    4400:	1a00001c 	bne	4478 <mbedtls_mpi_cmp_mpi+0x94>
/home/rossierd/soo.tech/soo/optee_os/lib/libmbedtls/mbedtls/library/bignum.c:983
    4404:	e591c004 	ldr	ip, [r1, #4]
    4408:	e24c3107 	sub	r3, ip, #-1073741823	; 0xc0000001
    440c:	e1a03103 	lsl	r3, r3, #2
/home/rossierd/soo.tech/soo/optee_os/lib/libmbedtls/mbedtls/library/bignum.c:983 (discriminator 1)
    4410:	e35c0000 	cmp	ip, #0
    4414:	1a00001e 	bne	4494 <mbedtls_mpi_cmp_mpi+0xb0>
/home/rossierd/soo.tech/soo/optee_os/lib/libmbedtls/mbedtls/library/bignum.c:987
    4418:	e192300c 	orrs	r3, r2, ip
    441c:	0a00002c 	beq	44d4 <mbedtls_mpi_cmp_mpi+0xf0>
/home/rossierd/soo.tech/soo/optee_os/lib/libmbedtls/mbedtls/library/bignum.c:990
    4420:	e152000c 	cmp	r2, ip
    4424:	81d030f0 	ldrshhi	r3, [r0]
    4428:	8a000029 	bhi	44d4 <mbedtls_mpi_cmp_mpi+0xf0>
    442c:	e1d1e0f0 	ldrsh	lr, [r1]
/home/rossierd/soo.tech/soo/optee_os/lib/libmbedtls/mbedtls/library/bignum.c:991
    4430:	326e3000 	rsbcc	r3, lr, #0
    4434:	3a000026 	bcc	44d4 <mbedtls_mpi_cmp_mpi+0xf0>
/home/rossierd/soo.tech/soo/optee_os/lib/libmbedtls/mbedtls/library/bignum.c:993
    4438:	e1d030f0 	ldrsh	r3, [r0]
    443c:	e3530000 	cmp	r3, #0
    4440:	da000002 	ble	4450 <mbedtls_mpi_cmp_mpi+0x6c>
/home/rossierd/soo.tech/soo/optee_os/lib/libmbedtls/mbedtls/library/bignum.c:993 (discriminator 1)
    4444:	e35e0000 	cmp	lr, #0
    4448:	b3a03001 	movlt	r3, #1
    444c:	ba000020 	blt	44d4 <mbedtls_mpi_cmp_mpi+0xf0>
/home/rossierd/soo.tech/soo/optee_os/lib/libmbedtls/mbedtls/library/bignum.c:994
    4450:	e1a0cfa3 	lsr	ip, r3, #31
    4454:	e35e0000 	cmp	lr, #0
    4458:	d3a0c000 	movle	ip, #0
    445c:	c20cc001 	andgt	ip, ip, #1
    4460:	e35c0000 	cmp	ip, #0
    4464:	0242c107 	subeq	ip, r2, #-1073741823	; 0xc0000001
    4468:	01a0c10c 	lsleq	ip, ip, #2
    446c:	0a00001b 	beq	44e0 <mbedtls_mpi_cmp_mpi+0xfc>
    4470:	e3e03000 	mvn	r3, #0
    4474:	ea000016 	b	44d4 <mbedtls_mpi_cmp_mpi+0xf0>
/home/rossierd/soo.tech/soo/optee_os/lib/libmbedtls/mbedtls/library/bignum.c:980
    4478:	e590c008 	ldr	ip, [r0, #8]
    447c:	e79cc003 	ldr	ip, [ip, r3]
    4480:	e2433004 	sub	r3, r3, #4
    4484:	e35c0000 	cmp	ip, #0
    4488:	1affffdd 	bne	4404 <mbedtls_mpi_cmp_mpi+0x20>
/home/rossierd/soo.tech/soo/optee_os/lib/libmbedtls/mbedtls/library/bignum.c:979 (discriminator 2)
    448c:	e2422001 	sub	r2, r2, #1
    4490:	eaffffd9 	b	43fc <mbedtls_mpi_cmp_mpi+0x18>
/home/rossierd/soo.tech/soo/optee_os/lib/libmbedtls/mbedtls/library/bignum.c:984
    4494:	e591e008 	ldr	lr, [r1, #8]
    4498:	e79ee003 	ldr	lr, [lr, r3]
    449c:	e2433004 	sub	r3, r3, #4
    44a0:	e35e0000 	cmp	lr, #0
    44a4:	1affffdb 	bne	4418 <mbedtls_mpi_cmp_mpi+0x34>
/home/rossierd/soo.tech/soo/optee_os/lib/libmbedtls/mbedtls/library/bignum.c:983 (discriminator 2)
    44a8:	e24cc001 	sub	ip, ip, #1
    44ac:	eaffffd7 	b	4410 <mbedtls_mpi_cmp_mpi+0x2c>
/home/rossierd/soo.tech/soo/optee_os/lib/libmbedtls/mbedtls/library/bignum.c:998
    44b0:	e590e008 	ldr	lr, [r0, #8]
    44b4:	e79e400c 	ldr	r4, [lr, ip]
    44b8:	e591e008 	ldr	lr, [r1, #8]
    44bc:	e79ee00c 	ldr	lr, [lr, ip]
    44c0:	e154000e 	cmp	r4, lr
    44c4:	8a000002 	bhi	44d4 <mbedtls_mpi_cmp_mpi+0xf0>
    44c8:	e24cc004 	sub	ip, ip, #4
/home/rossierd/soo.tech/soo/optee_os/lib/libmbedtls/mbedtls/library/bignum.c:999
    44cc:	2a000002 	bcs	44dc <mbedtls_mpi_cmp_mpi+0xf8>
/home/rossierd/soo.tech/soo/optee_os/lib/libmbedtls/mbedtls/library/bignum.c:999 (discriminator 1)
    44d0:	e2633000 	rsb	r3, r3, #0
/home/rossierd/soo.tech/soo/optee_os/lib/libmbedtls/mbedtls/library/bignum.c:1003
    44d4:	e1a00003 	mov	r0, r3
    44d8:	e89da810 	ldm	sp, {r4, fp, sp, pc}
/home/rossierd/soo.tech/soo/optee_os/lib/libmbedtls/mbedtls/library/bignum.c:996
    44dc:	e2422001 	sub	r2, r2, #1
/home/rossierd/soo.tech/soo/optee_os/lib/libmbedtls/mbedtls/library/bignum.c:996 (discriminator 1)
    44e0:	e3520000 	cmp	r2, #0
    44e4:	1afffff1 	bne	44b0 <mbedtls_mpi_cmp_mpi+0xcc>
/home/rossierd/soo.tech/soo/optee_os/lib/libmbedtls/mbedtls/library/bignum.c:988
    44e8:	e1a03002 	mov	r3, r2
    44ec:	eafffff8 	b	44d4 <mbedtls_mpi_cmp_mpi+0xf0>

000044f0 <mbedtls_mpi_cmp_int>:
mbedtls_mpi_cmp_int():
/home/rossierd/soo.tech/soo/optee_os/lib/libmbedtls/mbedtls/library/bignum.c:1014
    44f0:	e0213fc1 	eor	r3, r1, r1, asr #31
/home/rossierd/soo.tech/soo/optee_os/lib/libmbedtls/mbedtls/library/bignum.c:1009
    44f4:	e1a0c00d 	mov	ip, sp
/home/rossierd/soo.tech/soo/optee_os/lib/libmbedtls/mbedtls/library/bignum.c:1015
    44f8:	e3510000 	cmp	r1, #0
/home/rossierd/soo.tech/soo/optee_os/lib/libmbedtls/mbedtls/library/bignum.c:1014
    44fc:	e0433fc1 	sub	r3, r3, r1, asr #31
/home/rossierd/soo.tech/soo/optee_os/lib/libmbedtls/mbedtls/library/bignum.c:1009
    4500:	e92dd800 	push	{fp, ip, lr, pc}
    4504:	e24cb004 	sub	fp, ip, #4
    4508:	e24dd010 	sub	sp, sp, #16
/home/rossierd/soo.tech/soo/optee_os/lib/libmbedtls/mbedtls/library/bignum.c:1019
    450c:	e24b1018 	sub	r1, fp, #24
/home/rossierd/soo.tech/soo/optee_os/lib/libmbedtls/mbedtls/library/bignum.c:1014
    4510:	e50b301c 	str	r3, [fp, #-28]	; 0xffffffe4
/home/rossierd/soo.tech/soo/optee_os/lib/libmbedtls/mbedtls/library/bignum.c:1015
    4514:	b3e03000 	mvnlt	r3, #0
    4518:	a3a03001 	movge	r3, #1
    451c:	e14b31b8 	strh	r3, [fp, #-24]	; 0xffffffe8
/home/rossierd/soo.tech/soo/optee_os/lib/libmbedtls/mbedtls/library/bignum.c:1016
    4520:	e3a03001 	mov	r3, #1
    4524:	e50b3014 	str	r3, [fp, #-20]	; 0xffffffec
/home/rossierd/soo.tech/soo/optee_os/lib/libmbedtls/mbedtls/library/bignum.c:1017
    4528:	e24b301c 	sub	r3, fp, #28
    452c:	e50b3010 	str	r3, [fp, #-16]
/home/rossierd/soo.tech/soo/optee_os/lib/libmbedtls/mbedtls/library/bignum.c:1019
    4530:	ebffffab 	bl	43e4 <mbedtls_mpi_cmp_mpi>
/home/rossierd/soo.tech/soo/optee_os/lib/libmbedtls/mbedtls/library/bignum.c:1020
    4534:	e24bd00c 	sub	sp, fp, #12
    4538:	e89da800 	ldm	sp, {fp, sp, pc}

0000453c <mbedtls_mpi_add_abs>:
mbedtls_mpi_add_abs():
/home/rossierd/soo.tech/soo/optee_os/lib/libmbedtls/mbedtls/library/bignum.c:1026
    453c:	e1a0c00d 	mov	ip, sp
/home/rossierd/soo.tech/soo/optee_os/lib/libmbedtls/mbedtls/library/bignum.c:1034
    4540:	e1500002 	cmp	r0, r2
/home/rossierd/soo.tech/soo/optee_os/lib/libmbedtls/mbedtls/library/bignum.c:1026
    4544:	e92ddbf0 	push	{r4, r5, r6, r7, r8, r9, fp, ip, lr, pc}
    4548:	e24cb004 	sub	fp, ip, #4
    454c:	e1a06000 	mov	r6, r0
    4550:	e1a04001 	mov	r4, r1
    4554:	e1a05002 	mov	r5, r2
/home/rossierd/soo.tech/soo/optee_os/lib/libmbedtls/mbedtls/library/bignum.c:1034
    4558:	0a000002 	beq	4568 <mbedtls_mpi_add_abs+0x2c>
/home/rossierd/soo.tech/soo/optee_os/lib/libmbedtls/mbedtls/library/bignum.c:1039
    455c:	e1500001 	cmp	r0, r1
    4560:	1a00002b 	bne	4614 <mbedtls_mpi_add_abs+0xd8>
/home/rossierd/soo.tech/soo/optee_os/lib/libmbedtls/mbedtls/library/bignum.c:1026
    4564:	e1a04005 	mov	r4, r5
/home/rossierd/soo.tech/soo/optee_os/lib/libmbedtls/mbedtls/library/bignum.c:1047
    4568:	e5945004 	ldr	r5, [r4, #4]
/home/rossierd/soo.tech/soo/optee_os/lib/libmbedtls/mbedtls/library/bignum.c:1045
    456c:	e3a03001 	mov	r3, #1
    4570:	e1c630b0 	strh	r3, [r6]
    4574:	e2453107 	sub	r3, r5, #-1073741823	; 0xc0000001
    4578:	e1a03103 	lsl	r3, r3, #2
/home/rossierd/soo.tech/soo/optee_os/lib/libmbedtls/mbedtls/library/bignum.c:1047 (discriminator 1)
    457c:	e3550000 	cmp	r5, #0
    4580:	1a000028 	bne	4628 <mbedtls_mpi_add_abs+0xec>
/home/rossierd/soo.tech/soo/optee_os/lib/libmbedtls/mbedtls/library/bignum.c:1051
    4584:	e1a01005 	mov	r1, r5
    4588:	e1a00006 	mov	r0, r6
    458c:	ebfffcdd 	bl	3908 <mbedtls_mpi_grow>
    4590:	e2507000 	subs	r7, r0, #0
    4594:	1a000021 	bne	4620 <mbedtls_mpi_add_abs+0xe4>
/home/rossierd/soo.tech/soo/optee_os/lib/libmbedtls/mbedtls/library/bignum.c:1053
    4598:	e5963008 	ldr	r3, [r6, #8]
/home/rossierd/soo.tech/soo/optee_os/lib/libmbedtls/mbedtls/library/bignum.c:1058
    459c:	e1a01007 	mov	r1, r7
/home/rossierd/soo.tech/soo/optee_os/lib/libmbedtls/mbedtls/library/bignum.c:1053
    45a0:	e5948008 	ldr	r8, [r4, #8]
    45a4:	e1a04007 	mov	r4, r7
    45a8:	e1a0c003 	mov	ip, r3
/home/rossierd/soo.tech/soo/optee_os/lib/libmbedtls/mbedtls/library/bignum.c:1058 (discriminator 1)
    45ac:	e1510005 	cmp	r1, r5
    45b0:	1a000023 	bne	4644 <mbedtls_mpi_add_abs+0x108>
    45b4:	e1a08101 	lsl	r8, r1, #2
    45b8:	e0833008 	add	r3, r3, r8
/home/rossierd/soo.tech/soo/optee_os/lib/libmbedtls/mbedtls/library/bignum.c:1065
    45bc:	e3540000 	cmp	r4, #0
    45c0:	0a000016 	beq	4620 <mbedtls_mpi_add_abs+0xe4>
/home/rossierd/soo.tech/soo/optee_os/lib/libmbedtls/mbedtls/library/bignum.c:1067
    45c4:	e5962004 	ldr	r2, [r6, #4]
    45c8:	e2815001 	add	r5, r1, #1
    45cc:	e1510002 	cmp	r1, r2
    45d0:	3a000006 	bcc	45f0 <mbedtls_mpi_add_abs+0xb4>
/home/rossierd/soo.tech/soo/optee_os/lib/libmbedtls/mbedtls/library/bignum.c:1069
    45d4:	e1a01005 	mov	r1, r5
    45d8:	e1a00006 	mov	r0, r6
    45dc:	ebfffcc9 	bl	3908 <mbedtls_mpi_grow>
    45e0:	e3500000 	cmp	r0, #0
    45e4:	1a000022 	bne	4674 <mbedtls_mpi_add_abs+0x138>
/home/rossierd/soo.tech/soo/optee_os/lib/libmbedtls/mbedtls/library/bignum.c:1070
    45e8:	e5963008 	ldr	r3, [r6, #8]
    45ec:	e0833008 	add	r3, r3, r8
    45f0:	e5932000 	ldr	r2, [r3]
    45f4:	e3a01000 	mov	r1, #0
    45f8:	e2888004 	add	r8, r8, #4
    45fc:	e0944002 	adds	r4, r4, r2
    4600:	23a01001 	movcs	r1, #1
/home/rossierd/soo.tech/soo/optee_os/lib/libmbedtls/mbedtls/library/bignum.c:1073
    4604:	e4834004 	str	r4, [r3], #4
    4608:	e1a04001 	mov	r4, r1
    460c:	e1a01005 	mov	r1, r5
    4610:	eaffffe9 	b	45bc <mbedtls_mpi_add_abs+0x80>
/home/rossierd/soo.tech/soo/optee_os/lib/libmbedtls/mbedtls/library/bignum.c:1040
    4614:	ebfffd48 	bl	3b3c <mbedtls_mpi_copy>
    4618:	e2507000 	subs	r7, r0, #0
    461c:	0affffd0 	beq	4564 <mbedtls_mpi_add_abs+0x28>
/home/rossierd/soo.tech/soo/optee_os/lib/libmbedtls/mbedtls/library/bignum.c:1079
    4620:	e1a00007 	mov	r0, r7
    4624:	e89dabf0 	ldm	sp, {r4, r5, r6, r7, r8, r9, fp, sp, pc}
/home/rossierd/soo.tech/soo/optee_os/lib/libmbedtls/mbedtls/library/bignum.c:1048
    4628:	e5942008 	ldr	r2, [r4, #8]
    462c:	e7922003 	ldr	r2, [r2, r3]
    4630:	e2433004 	sub	r3, r3, #4
    4634:	e3520000 	cmp	r2, #0
    4638:	1affffd1 	bne	4584 <mbedtls_mpi_add_abs+0x48>
/home/rossierd/soo.tech/soo/optee_os/lib/libmbedtls/mbedtls/library/bignum.c:1047 (discriminator 2)
    463c:	e2455001 	sub	r5, r5, #1
    4640:	eaffffcd 	b	457c <mbedtls_mpi_add_abs+0x40>
    4644:	e59c2000 	ldr	r2, [ip]
    4648:	e3a0e000 	mov	lr, #0
/home/rossierd/soo.tech/soo/optee_os/lib/libmbedtls/mbedtls/library/bignum.c:1060 (discriminator 3)
    464c:	e7980101 	ldr	r0, [r8, r1, lsl #2]
/home/rossierd/soo.tech/soo/optee_os/lib/libmbedtls/mbedtls/library/bignum.c:1058 (discriminator 3)
    4650:	e2811001 	add	r1, r1, #1
    4654:	e0944002 	adds	r4, r4, r2
    4658:	23a0e001 	movcs	lr, #1
    465c:	e0904004 	adds	r4, r0, r4
/home/rossierd/soo.tech/soo/optee_os/lib/libmbedtls/mbedtls/library/bignum.c:1062 (discriminator 3)
    4660:	e48c4004 	str	r4, [ip], #4
    4664:	23a04001 	movcs	r4, #1
    4668:	33a04000 	movcc	r4, #0
    466c:	e084400e 	add	r4, r4, lr
    4670:	eaffffcd 	b	45ac <mbedtls_mpi_add_abs+0x70>
/home/rossierd/soo.tech/soo/optee_os/lib/libmbedtls/mbedtls/library/bignum.c:1069
    4674:	e1a07000 	mov	r7, r0
/home/rossierd/soo.tech/soo/optee_os/lib/libmbedtls/mbedtls/library/bignum.c:1078
    4678:	eaffffe8 	b	4620 <mbedtls_mpi_add_abs+0xe4>

0000467c <mbedtls_mpi_sub_abs>:
mbedtls_mpi_sub_abs():
/home/rossierd/soo.tech/soo/optee_os/lib/libmbedtls/mbedtls/library/bignum.c:1106
    467c:	e1a0c00d 	mov	ip, sp
    4680:	e92dd9f0 	push	{r4, r5, r6, r7, r8, fp, ip, lr, pc}
    4684:	e24cb004 	sub	fp, ip, #4
    4688:	e24dd014 	sub	sp, sp, #20
    468c:	e1a08001 	mov	r8, r1
    4690:	e1a05000 	mov	r5, r0
/home/rossierd/soo.tech/soo/optee_os/lib/libmbedtls/mbedtls/library/bignum.c:1114
    4694:	e1a01002 	mov	r1, r2
    4698:	e1a00008 	mov	r0, r8
/home/rossierd/soo.tech/soo/optee_os/lib/libmbedtls/mbedtls/library/bignum.c:1106
    469c:	e1a04002 	mov	r4, r2
/home/rossierd/soo.tech/soo/optee_os/lib/libmbedtls/mbedtls/library/bignum.c:1114
    46a0:	ebffff1a 	bl	4310 <mbedtls_mpi_cmp_abs>
    46a4:	e3500000 	cmp	r0, #0
/home/rossierd/soo.tech/soo/optee_os/lib/libmbedtls/mbedtls/library/bignum.c:1115
    46a8:	b3e06009 	mvnlt	r6, #9
/home/rossierd/soo.tech/soo/optee_os/lib/libmbedtls/mbedtls/library/bignum.c:1114
    46ac:	ba00001f 	blt	4730 <mbedtls_mpi_sub_abs+0xb4>
/home/rossierd/soo.tech/soo/optee_os/lib/libmbedtls/mbedtls/library/bignum.c:1117
    46b0:	e24b7030 	sub	r7, fp, #48	; 0x30
    46b4:	e1a00007 	mov	r0, r7
    46b8:	ebfffc5f 	bl	383c <mbedtls_mpi_init_mempool>
/home/rossierd/soo.tech/soo/optee_os/lib/libmbedtls/mbedtls/library/bignum.c:1119
    46bc:	e1540005 	cmp	r4, r5
    46c0:	1a000005 	bne	46dc <mbedtls_mpi_sub_abs+0x60>
/home/rossierd/soo.tech/soo/optee_os/lib/libmbedtls/mbedtls/library/bignum.c:1121
    46c4:	e1a01004 	mov	r1, r4
    46c8:	e1a00007 	mov	r0, r7
    46cc:	ebfffd1a 	bl	3b3c <mbedtls_mpi_copy>
    46d0:	e2506000 	subs	r6, r0, #0
    46d4:	1a000013 	bne	4728 <mbedtls_mpi_sub_abs+0xac>
/home/rossierd/soo.tech/soo/optee_os/lib/libmbedtls/mbedtls/library/bignum.c:1122
    46d8:	e1a04007 	mov	r4, r7
/home/rossierd/soo.tech/soo/optee_os/lib/libmbedtls/mbedtls/library/bignum.c:1125
    46dc:	e1580005 	cmp	r8, r5
    46e0:	1a00000b 	bne	4714 <mbedtls_mpi_sub_abs+0x98>
/home/rossierd/soo.tech/soo/optee_os/lib/libmbedtls/mbedtls/library/bignum.c:1135
    46e4:	e5940004 	ldr	r0, [r4, #4]
/home/rossierd/soo.tech/soo/optee_os/lib/libmbedtls/mbedtls/library/bignum.c:1131
    46e8:	e3a03001 	mov	r3, #1
    46ec:	e1c530b0 	strh	r3, [r5]
    46f0:	e2403107 	sub	r3, r0, #-1073741823	; 0xc0000001
    46f4:	e1a03103 	lsl	r3, r3, #2
/home/rossierd/soo.tech/soo/optee_os/lib/libmbedtls/mbedtls/library/bignum.c:1135 (discriminator 1)
    46f8:	e3500000 	cmp	r0, #0
    46fc:	1a00000e 	bne	473c <mbedtls_mpi_sub_abs+0xc0>
/home/rossierd/soo.tech/soo/optee_os/lib/libmbedtls/mbedtls/library/bignum.c:1139
    4700:	e5941008 	ldr	r1, [r4, #8]
/home/rossierd/soo.tech/soo/optee_os/lib/libmbedtls/mbedtls/library/bignum.c:1133
    4704:	e3a06000 	mov	r6, #0
/home/rossierd/soo.tech/soo/optee_os/lib/libmbedtls/mbedtls/library/bignum.c:1139
    4708:	e5952008 	ldr	r2, [r5, #8]
    470c:	ebfffacd 	bl	3248 <mpi_sub_hlp>
    4710:	ea000004 	b	4728 <mbedtls_mpi_sub_abs+0xac>
/home/rossierd/soo.tech/soo/optee_os/lib/libmbedtls/mbedtls/library/bignum.c:1126
    4714:	e1a01008 	mov	r1, r8
    4718:	e1a00005 	mov	r0, r5
    471c:	ebfffd06 	bl	3b3c <mbedtls_mpi_copy>
    4720:	e2506000 	subs	r6, r0, #0
    4724:	0affffee 	beq	46e4 <mbedtls_mpi_sub_abs+0x68>
/home/rossierd/soo.tech/soo/optee_os/lib/libmbedtls/mbedtls/library/bignum.c:1143
    4728:	e1a00007 	mov	r0, r7
    472c:	ebfffc55 	bl	3888 <mbedtls_mpi_free>
/home/rossierd/soo.tech/soo/optee_os/lib/libmbedtls/mbedtls/library/bignum.c:1146
    4730:	e1a00006 	mov	r0, r6
    4734:	e24bd020 	sub	sp, fp, #32
    4738:	e89da9f0 	ldm	sp, {r4, r5, r6, r7, r8, fp, sp, pc}
/home/rossierd/soo.tech/soo/optee_os/lib/libmbedtls/mbedtls/library/bignum.c:1136
    473c:	e5942008 	ldr	r2, [r4, #8]
    4740:	e7922003 	ldr	r2, [r2, r3]
    4744:	e2433004 	sub	r3, r3, #4
    4748:	e3520000 	cmp	r2, #0
    474c:	1affffeb 	bne	4700 <mbedtls_mpi_sub_abs+0x84>
/home/rossierd/soo.tech/soo/optee_os/lib/libmbedtls/mbedtls/library/bignum.c:1135 (discriminator 2)
    4750:	e2400001 	sub	r0, r0, #1
    4754:	eaffffe7 	b	46f8 <mbedtls_mpi_sub_abs+0x7c>

00004758 <mbedtls_mpi_add_mpi>:
mbedtls_mpi_add_mpi():
/home/rossierd/soo.tech/soo/optee_os/lib/libmbedtls/mbedtls/library/bignum.c:1152
    4758:	e1a0c00d 	mov	ip, sp
/home/rossierd/soo.tech/soo/optee_os/lib/libmbedtls/mbedtls/library/bignum.c:1159
    475c:	e1d230f0 	ldrsh	r3, [r2]
/home/rossierd/soo.tech/soo/optee_os/lib/libmbedtls/mbedtls/library/bignum.c:1152
    4760:	e92dd8f0 	push	{r4, r5, r6, r7, fp, ip, lr, pc}
    4764:	e24cb004 	sub	fp, ip, #4
/home/rossierd/soo.tech/soo/optee_os/lib/libmbedtls/mbedtls/library/bignum.c:1158
    4768:	e1d140f0 	ldrsh	r4, [r1]
/home/rossierd/soo.tech/soo/optee_os/lib/libmbedtls/mbedtls/library/bignum.c:1152
    476c:	e1a05000 	mov	r5, r0
    4770:	e1a07001 	mov	r7, r1
    4774:	e1a06002 	mov	r6, r2
/home/rossierd/soo.tech/soo/optee_os/lib/libmbedtls/mbedtls/library/bignum.c:1159
    4778:	e0130493 	muls	r3, r3, r4
    477c:	5a000014 	bpl	47d4 <mbedtls_mpi_add_mpi+0x7c>
/home/rossierd/soo.tech/soo/optee_os/lib/libmbedtls/mbedtls/library/bignum.c:1161
    4780:	e1a01002 	mov	r1, r2
    4784:	e1a00007 	mov	r0, r7
    4788:	ebfffee0 	bl	4310 <mbedtls_mpi_cmp_abs>
    478c:	e3500000 	cmp	r0, #0
    4790:	ba000007 	blt	47b4 <mbedtls_mpi_add_mpi+0x5c>
/home/rossierd/soo.tech/soo/optee_os/lib/libmbedtls/mbedtls/library/bignum.c:1163
    4794:	e1a02006 	mov	r2, r6
    4798:	e1a01007 	mov	r1, r7
    479c:	e1a00005 	mov	r0, r5
    47a0:	ebffffb5 	bl	467c <mbedtls_mpi_sub_abs>
/home/rossierd/soo.tech/soo/optee_os/lib/libmbedtls/mbedtls/library/bignum.c:1174
    47a4:	e3500000 	cmp	r0, #0
    47a8:	189da8f0 	ldmne	sp, {r4, r5, r6, r7, fp, sp, pc}
/home/rossierd/soo.tech/soo/optee_os/lib/libmbedtls/mbedtls/library/bignum.c:1175
    47ac:	e1c540b0 	strh	r4, [r5]
/home/rossierd/soo.tech/soo/optee_os/lib/libmbedtls/mbedtls/library/bignum.c:1181
    47b0:	e89da8f0 	ldm	sp, {r4, r5, r6, r7, fp, sp, pc}
/home/rossierd/soo.tech/soo/optee_os/lib/libmbedtls/mbedtls/library/bignum.c:1168
    47b4:	e1a02007 	mov	r2, r7
    47b8:	e1a01006 	mov	r1, r6
    47bc:	e1a00005 	mov	r0, r5
    47c0:	ebffffad 	bl	467c <mbedtls_mpi_sub_abs>
    47c4:	e3500000 	cmp	r0, #0
/home/rossierd/soo.tech/soo/optee_os/lib/libmbedtls/mbedtls/library/bignum.c:1169
    47c8:	02644000 	rsbeq	r4, r4, #0
/home/rossierd/soo.tech/soo/optee_os/lib/libmbedtls/mbedtls/library/bignum.c:1168
    47cc:	0afffff6 	beq	47ac <mbedtls_mpi_add_mpi+0x54>
    47d0:	e89da8f0 	ldm	sp, {r4, r5, r6, r7, fp, sp, pc}
/home/rossierd/soo.tech/soo/optee_os/lib/libmbedtls/mbedtls/library/bignum.c:1174
    47d4:	ebffff58 	bl	453c <mbedtls_mpi_add_abs>
    47d8:	eafffff1 	b	47a4 <mbedtls_mpi_add_mpi+0x4c>

000047dc <mbedtls_mpi_sub_mpi>:
mbedtls_mpi_sub_mpi():
/home/rossierd/soo.tech/soo/optee_os/lib/libmbedtls/mbedtls/library/bignum.c:1187
    47dc:	e1a0c00d 	mov	ip, sp
/home/rossierd/soo.tech/soo/optee_os/lib/libmbedtls/mbedtls/library/bignum.c:1194
    47e0:	e1d230b0 	ldrh	r3, [r2]
/home/rossierd/soo.tech/soo/optee_os/lib/libmbedtls/mbedtls/library/bignum.c:1187
    47e4:	e92dd8f0 	push	{r4, r5, r6, r7, fp, ip, lr, pc}
    47e8:	e24cb004 	sub	fp, ip, #4
/home/rossierd/soo.tech/soo/optee_os/lib/libmbedtls/mbedtls/library/bignum.c:1193
    47ec:	e1d140f0 	ldrsh	r4, [r1]
/home/rossierd/soo.tech/soo/optee_os/lib/libmbedtls/mbedtls/library/bignum.c:1187
    47f0:	e1a05000 	mov	r5, r0
    47f4:	e1a07001 	mov	r7, r1
    47f8:	e1a06002 	mov	r6, r2
/home/rossierd/soo.tech/soo/optee_os/lib/libmbedtls/mbedtls/library/bignum.c:1194
    47fc:	e1630483 	smulbb	r3, r3, r4
    4800:	e3530000 	cmp	r3, #0
    4804:	da000014 	ble	485c <mbedtls_mpi_sub_mpi+0x80>
/home/rossierd/soo.tech/soo/optee_os/lib/libmbedtls/mbedtls/library/bignum.c:1196
    4808:	e1a01002 	mov	r1, r2
    480c:	e1a00007 	mov	r0, r7
    4810:	ebfffebe 	bl	4310 <mbedtls_mpi_cmp_abs>
    4814:	e3500000 	cmp	r0, #0
    4818:	ba000007 	blt	483c <mbedtls_mpi_sub_mpi+0x60>
/home/rossierd/soo.tech/soo/optee_os/lib/libmbedtls/mbedtls/library/bignum.c:1198
    481c:	e1a02006 	mov	r2, r6
    4820:	e1a01007 	mov	r1, r7
    4824:	e1a00005 	mov	r0, r5
    4828:	ebffff93 	bl	467c <mbedtls_mpi_sub_abs>
/home/rossierd/soo.tech/soo/optee_os/lib/libmbedtls/mbedtls/library/bignum.c:1209
    482c:	e3500000 	cmp	r0, #0
    4830:	189da8f0 	ldmne	sp, {r4, r5, r6, r7, fp, sp, pc}
/home/rossierd/soo.tech/soo/optee_os/lib/libmbedtls/mbedtls/library/bignum.c:1210
    4834:	e1c540b0 	strh	r4, [r5]
/home/rossierd/soo.tech/soo/optee_os/lib/libmbedtls/mbedtls/library/bignum.c:1216
    4838:	e89da8f0 	ldm	sp, {r4, r5, r6, r7, fp, sp, pc}
/home/rossierd/soo.tech/soo/optee_os/lib/libmbedtls/mbedtls/library/bignum.c:1203
    483c:	e1a02007 	mov	r2, r7
    4840:	e1a01006 	mov	r1, r6
    4844:	e1a00005 	mov	r0, r5
    4848:	ebffff8b 	bl	467c <mbedtls_mpi_sub_abs>
    484c:	e3500000 	cmp	r0, #0
/home/rossierd/soo.tech/soo/optee_os/lib/libmbedtls/mbedtls/library/bignum.c:1204
    4850:	02644000 	rsbeq	r4, r4, #0
/home/rossierd/soo.tech/soo/optee_os/lib/libmbedtls/mbedtls/library/bignum.c:1203
    4854:	0afffff6 	beq	4834 <mbedtls_mpi_sub_mpi+0x58>
    4858:	e89da8f0 	ldm	sp, {r4, r5, r6, r7, fp, sp, pc}
/home/rossierd/soo.tech/soo/optee_os/lib/libmbedtls/mbedtls/library/bignum.c:1209
    485c:	ebffff36 	bl	453c <mbedtls_mpi_add_abs>
    4860:	eafffff1 	b	482c <mbedtls_mpi_sub_mpi+0x50>

00004864 <mbedtls_mpi_add_int>:
mbedtls_mpi_add_int():
/home/rossierd/soo.tech/soo/optee_os/lib/libmbedtls/mbedtls/library/bignum.c:1228
    4864:	e0223fc2 	eor	r3, r2, r2, asr #31
/home/rossierd/soo.tech/soo/optee_os/lib/libmbedtls/mbedtls/library/bignum.c:1222
    4868:	e1a0c00d 	mov	ip, sp
/home/rossierd/soo.tech/soo/optee_os/lib/libmbedtls/mbedtls/library/bignum.c:1229
    486c:	e3520000 	cmp	r2, #0
/home/rossierd/soo.tech/soo/optee_os/lib/libmbedtls/mbedtls/library/bignum.c:1228
    4870:	e0433fc2 	sub	r3, r3, r2, asr #31
/home/rossierd/soo.tech/soo/optee_os/lib/libmbedtls/mbedtls/library/bignum.c:1222
    4874:	e92dd800 	push	{fp, ip, lr, pc}
    4878:	e24cb004 	sub	fp, ip, #4
    487c:	e24dd010 	sub	sp, sp, #16
/home/rossierd/soo.tech/soo/optee_os/lib/libmbedtls/mbedtls/library/bignum.c:1233
    4880:	e24b2018 	sub	r2, fp, #24
/home/rossierd/soo.tech/soo/optee_os/lib/libmbedtls/mbedtls/library/bignum.c:1228
    4884:	e50b301c 	str	r3, [fp, #-28]	; 0xffffffe4
/home/rossierd/soo.tech/soo/optee_os/lib/libmbedtls/mbedtls/library/bignum.c:1229
    4888:	b3e03000 	mvnlt	r3, #0
    488c:	a3a03001 	movge	r3, #1
    4890:	e14b31b8 	strh	r3, [fp, #-24]	; 0xffffffe8
/home/rossierd/soo.tech/soo/optee_os/lib/libmbedtls/mbedtls/library/bignum.c:1230
    4894:	e3a03001 	mov	r3, #1
    4898:	e50b3014 	str	r3, [fp, #-20]	; 0xffffffec
/home/rossierd/soo.tech/soo/optee_os/lib/libmbedtls/mbedtls/library/bignum.c:1231
    489c:	e24b301c 	sub	r3, fp, #28
    48a0:	e50b3010 	str	r3, [fp, #-16]
/home/rossierd/soo.tech/soo/optee_os/lib/libmbedtls/mbedtls/library/bignum.c:1233
    48a4:	ebffffab 	bl	4758 <mbedtls_mpi_add_mpi>
/home/rossierd/soo.tech/soo/optee_os/lib/libmbedtls/mbedtls/library/bignum.c:1234
    48a8:	e24bd00c 	sub	sp, fp, #12
    48ac:	e89da800 	ldm	sp, {fp, sp, pc}

000048b0 <mbedtls_mpi_sub_int>:
mbedtls_mpi_sub_int():
/home/rossierd/soo.tech/soo/optee_os/lib/libmbedtls/mbedtls/library/bignum.c:1246
    48b0:	e0223fc2 	eor	r3, r2, r2, asr #31
/home/rossierd/soo.tech/soo/optee_os/lib/libmbedtls/mbedtls/library/bignum.c:1240
    48b4:	e1a0c00d 	mov	ip, sp
/home/rossierd/soo.tech/soo/optee_os/lib/libmbedtls/mbedtls/library/bignum.c:1247
    48b8:	e3520000 	cmp	r2, #0
/home/rossierd/soo.tech/soo/optee_os/lib/libmbedtls/mbedtls/library/bignum.c:1246
    48bc:	e0433fc2 	sub	r3, r3, r2, asr #31
/home/rossierd/soo.tech/soo/optee_os/lib/libmbedtls/mbedtls/library/bignum.c:1240
    48c0:	e92dd800 	push	{fp, ip, lr, pc}
    48c4:	e24cb004 	sub	fp, ip, #4
    48c8:	e24dd010 	sub	sp, sp, #16
/home/rossierd/soo.tech/soo/optee_os/lib/libmbedtls/mbedtls/library/bignum.c:1251
    48cc:	e24b2018 	sub	r2, fp, #24
/home/rossierd/soo.tech/soo/optee_os/lib/libmbedtls/mbedtls/library/bignum.c:1246
    48d0:	e50b301c 	str	r3, [fp, #-28]	; 0xffffffe4
/home/rossierd/soo.tech/soo/optee_os/lib/libmbedtls/mbedtls/library/bignum.c:1247
    48d4:	b3e03000 	mvnlt	r3, #0
    48d8:	a3a03001 	movge	r3, #1
    48dc:	e14b31b8 	strh	r3, [fp, #-24]	; 0xffffffe8
/home/rossierd/soo.tech/soo/optee_os/lib/libmbedtls/mbedtls/library/bignum.c:1248
    48e0:	e3a03001 	mov	r3, #1
    48e4:	e50b3014 	str	r3, [fp, #-20]	; 0xffffffec
/home/rossierd/soo.tech/soo/optee_os/lib/libmbedtls/mbedtls/library/bignum.c:1249
    48e8:	e24b301c 	sub	r3, fp, #28
    48ec:	e50b3010 	str	r3, [fp, #-16]
/home/rossierd/soo.tech/soo/optee_os/lib/libmbedtls/mbedtls/library/bignum.c:1251
    48f0:	ebffffb9 	bl	47dc <mbedtls_mpi_sub_mpi>
/home/rossierd/soo.tech/soo/optee_os/lib/libmbedtls/mbedtls/library/bignum.c:1252
    48f4:	e24bd00c 	sub	sp, fp, #12
    48f8:	e89da800 	ldm	sp, {fp, sp, pc}

000048fc <mbedtls_mpi_mul_mpi>:
mbedtls_mpi_mul_mpi():
/home/rossierd/soo.tech/soo/optee_os/lib/libmbedtls/mbedtls/library/bignum.c:1330
    48fc:	e1a0c00d 	mov	ip, sp
    4900:	e92ddff0 	push	{r4, r5, r6, r7, r8, r9, sl, fp, ip, lr, pc}
    4904:	e24cb004 	sub	fp, ip, #4
    4908:	e24dd024 	sub	sp, sp, #36	; 0x24
/home/rossierd/soo.tech/soo/optee_os/lib/libmbedtls/mbedtls/library/bignum.c:1338
    490c:	e24b3044 	sub	r3, fp, #68	; 0x44
/home/rossierd/soo.tech/soo/optee_os/lib/libmbedtls/mbedtls/library/bignum.c:1330
    4910:	e1a05000 	mov	r5, r0
/home/rossierd/soo.tech/soo/optee_os/lib/libmbedtls/mbedtls/library/bignum.c:1338
    4914:	e1a00003 	mov	r0, r3
/home/rossierd/soo.tech/soo/optee_os/lib/libmbedtls/mbedtls/library/bignum.c:1330
    4918:	e1a07001 	mov	r7, r1
    491c:	e1a06002 	mov	r6, r2
/home/rossierd/soo.tech/soo/optee_os/lib/libmbedtls/mbedtls/library/bignum.c:1338
    4920:	e50b3048 	str	r3, [fp, #-72]	; 0xffffffb8
    4924:	ebfffbc4 	bl	383c <mbedtls_mpi_init_mempool>
    4928:	e24b3038 	sub	r3, fp, #56	; 0x38
    492c:	e1a00003 	mov	r0, r3
    4930:	e50b304c 	str	r3, [fp, #-76]	; 0xffffffb4
    4934:	ebfffbc0 	bl	383c <mbedtls_mpi_init_mempool>
/home/rossierd/soo.tech/soo/optee_os/lib/libmbedtls/mbedtls/library/bignum.c:1340
    4938:	e1550007 	cmp	r5, r7
    493c:	1a000005 	bne	4958 <mbedtls_mpi_mul_mpi+0x5c>
/home/rossierd/soo.tech/soo/optee_os/lib/libmbedtls/mbedtls/library/bignum.c:1340 (discriminator 1)
    4940:	e1a01005 	mov	r1, r5
    4944:	e51b0048 	ldr	r0, [fp, #-72]	; 0xffffffb8
    4948:	ebfffc7b 	bl	3b3c <mbedtls_mpi_copy>
    494c:	e250a000 	subs	sl, r0, #0
    4950:	1a00001e 	bne	49d0 <mbedtls_mpi_mul_mpi+0xd4>
/home/rossierd/soo.tech/soo/optee_os/lib/libmbedtls/mbedtls/library/bignum.c:1340
    4954:	e51b7048 	ldr	r7, [fp, #-72]	; 0xffffffb8
/home/rossierd/soo.tech/soo/optee_os/lib/libmbedtls/mbedtls/library/bignum.c:1341
    4958:	e1550006 	cmp	r5, r6
    495c:	1a000005 	bne	4978 <mbedtls_mpi_mul_mpi+0x7c>
/home/rossierd/soo.tech/soo/optee_os/lib/libmbedtls/mbedtls/library/bignum.c:1341 (discriminator 1)
    4960:	e1a01005 	mov	r1, r5
    4964:	e51b004c 	ldr	r0, [fp, #-76]	; 0xffffffb4
    4968:	ebfffc73 	bl	3b3c <mbedtls_mpi_copy>
    496c:	e250a000 	subs	sl, r0, #0
    4970:	1a000016 	bne	49d0 <mbedtls_mpi_mul_mpi+0xd4>
/home/rossierd/soo.tech/soo/optee_os/lib/libmbedtls/mbedtls/library/bignum.c:1341
    4974:	e51b604c 	ldr	r6, [fp, #-76]	; 0xffffffb4
/home/rossierd/soo.tech/soo/optee_os/lib/libmbedtls/mbedtls/library/bignum.c:1343
    4978:	e5978004 	ldr	r8, [r7, #4]
    497c:	e2483107 	sub	r3, r8, #-1073741823	; 0xc0000001
    4980:	e1a03103 	lsl	r3, r3, #2
/home/rossierd/soo.tech/soo/optee_os/lib/libmbedtls/mbedtls/library/bignum.c:1343 (discriminator 1)
    4984:	e3580000 	cmp	r8, #0
    4988:	1a000017 	bne	49ec <mbedtls_mpi_mul_mpi+0xf0>
/home/rossierd/soo.tech/soo/optee_os/lib/libmbedtls/mbedtls/library/bignum.c:1347
    498c:	e5964004 	ldr	r4, [r6, #4]
    4990:	e2443107 	sub	r3, r4, #-1073741823	; 0xc0000001
    4994:	e1a03103 	lsl	r3, r3, #2
/home/rossierd/soo.tech/soo/optee_os/lib/libmbedtls/mbedtls/library/bignum.c:1347 (discriminator 1)
    4998:	e3540000 	cmp	r4, #0
    499c:	1a000019 	bne	4a08 <mbedtls_mpi_mul_mpi+0x10c>
/home/rossierd/soo.tech/soo/optee_os/lib/libmbedtls/mbedtls/library/bignum.c:1351
    49a0:	e0881004 	add	r1, r8, r4
    49a4:	e1a00005 	mov	r0, r5
    49a8:	ebfffbd6 	bl	3908 <mbedtls_mpi_grow>
    49ac:	e250a000 	subs	sl, r0, #0
    49b0:	1a000006 	bne	49d0 <mbedtls_mpi_mul_mpi+0xd4>
/home/rossierd/soo.tech/soo/optee_os/lib/libmbedtls/mbedtls/library/bignum.c:1352
    49b4:	e1a0100a 	mov	r1, sl
    49b8:	e1a00005 	mov	r0, r5
    49bc:	ebfffcfe 	bl	3dbc <mbedtls_mpi_lset>
    49c0:	e250a000 	subs	sl, r0, #0
    49c4:	02449107 	subeq	r9, r4, #-1073741823	; 0xc0000001
    49c8:	01a09109 	lsleq	r9, r9, #2
    49cc:	0a00001d 	beq	4a48 <mbedtls_mpi_mul_mpi+0x14c>
/home/rossierd/soo.tech/soo/optee_os/lib/libmbedtls/mbedtls/library/bignum.c:1361
    49d0:	e51b004c 	ldr	r0, [fp, #-76]	; 0xffffffb4
    49d4:	ebfffbab 	bl	3888 <mbedtls_mpi_free>
    49d8:	e51b0048 	ldr	r0, [fp, #-72]	; 0xffffffb8
    49dc:	ebfffba9 	bl	3888 <mbedtls_mpi_free>
/home/rossierd/soo.tech/soo/optee_os/lib/libmbedtls/mbedtls/library/bignum.c:1364
    49e0:	e1a0000a 	mov	r0, sl
    49e4:	e24bd028 	sub	sp, fp, #40	; 0x28
    49e8:	e89daff0 	ldm	sp, {r4, r5, r6, r7, r8, r9, sl, fp, sp, pc}
/home/rossierd/soo.tech/soo/optee_os/lib/libmbedtls/mbedtls/library/bignum.c:1344
    49ec:	e5972008 	ldr	r2, [r7, #8]
    49f0:	e7922003 	ldr	r2, [r2, r3]
    49f4:	e2433004 	sub	r3, r3, #4
    49f8:	e3520000 	cmp	r2, #0
    49fc:	1affffe2 	bne	498c <mbedtls_mpi_mul_mpi+0x90>
/home/rossierd/soo.tech/soo/optee_os/lib/libmbedtls/mbedtls/library/bignum.c:1343 (discriminator 2)
    4a00:	e2488001 	sub	r8, r8, #1
    4a04:	eaffffde 	b	4984 <mbedtls_mpi_mul_mpi+0x88>
/home/rossierd/soo.tech/soo/optee_os/lib/libmbedtls/mbedtls/library/bignum.c:1348
    4a08:	e5962008 	ldr	r2, [r6, #8]
    4a0c:	e7922003 	ldr	r2, [r2, r3]
    4a10:	e2433004 	sub	r3, r3, #4
    4a14:	e3520000 	cmp	r2, #0
    4a18:	1affffe0 	bne	49a0 <mbedtls_mpi_mul_mpi+0xa4>
/home/rossierd/soo.tech/soo/optee_os/lib/libmbedtls/mbedtls/library/bignum.c:1347 (discriminator 2)
    4a1c:	e2444001 	sub	r4, r4, #1
    4a20:	eaffffdc 	b	4998 <mbedtls_mpi_mul_mpi+0x9c>
/home/rossierd/soo.tech/soo/optee_os/lib/libmbedtls/mbedtls/library/bignum.c:1355 (discriminator 2)
    4a24:	e5952008 	ldr	r2, [r5, #8]
    4a28:	e1a00008 	mov	r0, r8
/home/rossierd/soo.tech/soo/optee_os/lib/libmbedtls/mbedtls/library/bignum.c:1354 (discriminator 2)
    4a2c:	e2444001 	sub	r4, r4, #1
/home/rossierd/soo.tech/soo/optee_os/lib/libmbedtls/mbedtls/library/bignum.c:1355 (discriminator 2)
    4a30:	e5963008 	ldr	r3, [r6, #8]
    4a34:	e5971008 	ldr	r1, [r7, #8]
    4a38:	e0822009 	add	r2, r2, r9
    4a3c:	e7933009 	ldr	r3, [r3, r9]
    4a40:	e2499004 	sub	r9, r9, #4
    4a44:	ebfffa20 	bl	32cc <mpi_mul_hlp>
/home/rossierd/soo.tech/soo/optee_os/lib/libmbedtls/mbedtls/library/bignum.c:1354 (discriminator 1)
    4a48:	e3540000 	cmp	r4, #0
    4a4c:	1afffff4 	bne	4a24 <mbedtls_mpi_mul_mpi+0x128>
/home/rossierd/soo.tech/soo/optee_os/lib/libmbedtls/mbedtls/library/bignum.c:1357
    4a50:	e1d730b0 	ldrh	r3, [r7]
    4a54:	e1d620b0 	ldrh	r2, [r6]
    4a58:	e1630283 	smulbb	r3, r3, r2
    4a5c:	e1c530b0 	strh	r3, [r5]
    4a60:	eaffffda 	b	49d0 <mbedtls_mpi_mul_mpi+0xd4>

00004a64 <mbedtls_mpi_mul_int>:
mbedtls_mpi_mul_int():
/home/rossierd/soo.tech/soo/optee_os/lib/libmbedtls/mbedtls/library/bignum.c:1370
    4a64:	e1a0c00d 	mov	ip, sp
/home/rossierd/soo.tech/soo/optee_os/lib/libmbedtls/mbedtls/library/bignum.c:1376
    4a68:	e3a03001 	mov	r3, #1
/home/rossierd/soo.tech/soo/optee_os/lib/libmbedtls/mbedtls/library/bignum.c:1370
    4a6c:	e92dd800 	push	{fp, ip, lr, pc}
    4a70:	e24cb004 	sub	fp, ip, #4
    4a74:	e24dd010 	sub	sp, sp, #16
/home/rossierd/soo.tech/soo/optee_os/lib/libmbedtls/mbedtls/library/bignum.c:1379
    4a78:	e50b201c 	str	r2, [fp, #-28]	; 0xffffffe4
/home/rossierd/soo.tech/soo/optee_os/lib/libmbedtls/mbedtls/library/bignum.c:1381
    4a7c:	e24b2018 	sub	r2, fp, #24
/home/rossierd/soo.tech/soo/optee_os/lib/libmbedtls/mbedtls/library/bignum.c:1376
    4a80:	e14b31b8 	strh	r3, [fp, #-24]	; 0xffffffe8
/home/rossierd/soo.tech/soo/optee_os/lib/libmbedtls/mbedtls/library/bignum.c:1377
    4a84:	e50b3014 	str	r3, [fp, #-20]	; 0xffffffec
/home/rossierd/soo.tech/soo/optee_os/lib/libmbedtls/mbedtls/library/bignum.c:1378
    4a88:	e24b301c 	sub	r3, fp, #28
    4a8c:	e50b3010 	str	r3, [fp, #-16]
/home/rossierd/soo.tech/soo/optee_os/lib/libmbedtls/mbedtls/library/bignum.c:1381
    4a90:	ebffff99 	bl	48fc <mbedtls_mpi_mul_mpi>
/home/rossierd/soo.tech/soo/optee_os/lib/libmbedtls/mbedtls/library/bignum.c:1382
    4a94:	e24bd00c 	sub	sp, fp, #12
    4a98:	e89da800 	ldm	sp, {fp, sp, pc}

00004a9c <mbedtls_mpi_read_string>:
mbedtls_mpi_read_string():
/home/rossierd/soo.tech/soo/optee_os/lib/libmbedtls/mbedtls/library/bignum.c:506
    4a9c:	e1a0c00d 	mov	ip, sp
/home/rossierd/soo.tech/soo/optee_os/lib/libmbedtls/mbedtls/library/bignum.c:514
    4aa0:	e2413002 	sub	r3, r1, #2
    4aa4:	e353000e 	cmp	r3, #14
/home/rossierd/soo.tech/soo/optee_os/lib/libmbedtls/mbedtls/library/bignum.c:506
    4aa8:	e92ddff0 	push	{r4, r5, r6, r7, r8, r9, sl, fp, ip, lr, pc}
    4aac:	e24cb004 	sub	fp, ip, #4
    4ab0:	e24dd01c 	sub	sp, sp, #28
    4ab4:	e1a05000 	mov	r5, r0
    4ab8:	e1a09001 	mov	r9, r1
    4abc:	e1a08002 	mov	r8, r2
/home/rossierd/soo.tech/soo/optee_os/lib/libmbedtls/mbedtls/library/bignum.c:514
    4ac0:	9a000003 	bls	4ad4 <mbedtls_mpi_read_string+0x38>
/home/rossierd/soo.tech/soo/optee_os/lib/libmbedtls/mbedtls/library/bignum.c:515
    4ac4:	e3e0a003 	mvn	sl, #3
/home/rossierd/soo.tech/soo/optee_os/lib/libmbedtls/mbedtls/library/bignum.c:574
    4ac8:	e1a0000a 	mov	r0, sl
    4acc:	e24bd028 	sub	sp, fp, #40	; 0x28
    4ad0:	e89daff0 	ldm	sp, {r4, r5, r6, r7, r8, r9, sl, fp, sp, pc}
/home/rossierd/soo.tech/soo/optee_os/lib/libmbedtls/mbedtls/library/bignum.c:517
    4ad4:	e24b6038 	sub	r6, fp, #56	; 0x38
    4ad8:	e1a00006 	mov	r0, r6
    4adc:	ebfffb56 	bl	383c <mbedtls_mpi_init_mempool>
/home/rossierd/soo.tech/soo/optee_os/lib/libmbedtls/mbedtls/library/bignum.c:519
    4ae0:	e1a00008 	mov	r0, r8
    4ae4:	eb000d02 	bl	7ef4 <strlen>
/home/rossierd/soo.tech/soo/optee_os/lib/libmbedtls/mbedtls/library/bignum.c:521
    4ae8:	e3590010 	cmp	r9, #16
/home/rossierd/soo.tech/soo/optee_os/lib/libmbedtls/mbedtls/library/bignum.c:519
    4aec:	e1a04000 	mov	r4, r0
/home/rossierd/soo.tech/soo/optee_os/lib/libmbedtls/mbedtls/library/bignum.c:521
    4af0:	1a00002f 	bne	4bb4 <mbedtls_mpi_read_string+0x118>
/home/rossierd/soo.tech/soo/optee_os/lib/libmbedtls/mbedtls/library/bignum.c:523
    4af4:	e3700107 	cmn	r0, #-1073741823	; 0xc0000001
    4af8:	8afffff1 	bhi	4ac4 <mbedtls_mpi_read_string+0x28>
/home/rossierd/soo.tech/soo/optee_os/lib/libmbedtls/mbedtls/library/bignum.c:526
    4afc:	e1a03100 	lsl	r3, r0, #2
/home/rossierd/soo.tech/soo/optee_os/lib/libmbedtls/mbedtls/library/bignum.c:528
    4b00:	e1a00005 	mov	r0, r5
/home/rossierd/soo.tech/soo/optee_os/lib/libmbedtls/mbedtls/library/bignum.c:526
    4b04:	e313001c 	tst	r3, #28
    4b08:	13a01001 	movne	r1, #1
    4b0c:	03a01000 	moveq	r1, #0
/home/rossierd/soo.tech/soo/optee_os/lib/libmbedtls/mbedtls/library/bignum.c:528
    4b10:	e08112a3 	add	r1, r1, r3, lsr #5
    4b14:	ebfffb7b 	bl	3908 <mbedtls_mpi_grow>
    4b18:	e250a000 	subs	sl, r0, #0
    4b1c:	1a000006 	bne	4b3c <mbedtls_mpi_read_string+0xa0>
/home/rossierd/soo.tech/soo/optee_os/lib/libmbedtls/mbedtls/library/bignum.c:529
    4b20:	e1a0100a 	mov	r1, sl
    4b24:	e1a00005 	mov	r0, r5
    4b28:	ebfffca3 	bl	3dbc <mbedtls_mpi_lset>
    4b2c:	e250a000 	subs	sl, r0, #0
    4b30:	01a0700a 	moveq	r7, sl
/home/rossierd/soo.tech/soo/optee_os/lib/libmbedtls/mbedtls/library/bignum.c:539
    4b34:	024b903c 	subeq	r9, fp, #60	; 0x3c
/home/rossierd/soo.tech/soo/optee_os/lib/libmbedtls/mbedtls/library/bignum.c:529
    4b38:	0a000019 	beq	4ba4 <mbedtls_mpi_read_string+0x108>
/home/rossierd/soo.tech/soo/optee_os/lib/libmbedtls/mbedtls/library/bignum.c:571
    4b3c:	e1a00006 	mov	r0, r6
    4b40:	ebfffb50 	bl	3888 <mbedtls_mpi_free>
/home/rossierd/soo.tech/soo/optee_os/lib/libmbedtls/mbedtls/library/bignum.c:573
    4b44:	eaffffdf 	b	4ac8 <mbedtls_mpi_read_string+0x2c>
/home/rossierd/soo.tech/soo/optee_os/lib/libmbedtls/mbedtls/library/bignum.c:533
    4b48:	e3540001 	cmp	r4, #1
    4b4c:	1a000004 	bne	4b64 <mbedtls_mpi_read_string+0xc8>
/home/rossierd/soo.tech/soo/optee_os/lib/libmbedtls/mbedtls/library/bignum.c:533 (discriminator 1)
    4b50:	e5d82000 	ldrb	r2, [r8]
    4b54:	e352002d 	cmp	r2, #45	; 0x2d
/home/rossierd/soo.tech/soo/optee_os/lib/libmbedtls/mbedtls/library/bignum.c:535
    4b58:	03e02000 	mvneq	r2, #0
    4b5c:	01c520b0 	strheq	r2, [r5]
/home/rossierd/soo.tech/soo/optee_os/lib/libmbedtls/mbedtls/library/bignum.c:536
    4b60:	0afffff5 	beq	4b3c <mbedtls_mpi_read_string+0xa0>
/home/rossierd/soo.tech/soo/optee_os/lib/libmbedtls/mbedtls/library/bignum.c:539
    4b64:	e2444001 	sub	r4, r4, #1
    4b68:	e3a01010 	mov	r1, #16
    4b6c:	e7d82004 	ldrb	r2, [r8, r4]
    4b70:	e1a00009 	mov	r0, r9
    4b74:	ebfff99e 	bl	31f4 <mpi_get_digit>
    4b78:	e3500000 	cmp	r0, #0
    4b7c:	1a000036 	bne	4c5c <mbedtls_mpi_read_string+0x1c0>
/home/rossierd/soo.tech/soo/optee_os/lib/libmbedtls/mbedtls/library/bignum.c:540 (discriminator 2)
    4b80:	e5950008 	ldr	r0, [r5, #8]
    4b84:	e1a0c1a7 	lsr	ip, r7, #3
    4b88:	e1a02107 	lsl	r2, r7, #2
    4b8c:	e51be03c 	ldr	lr, [fp, #-60]	; 0xffffffc4
    4b90:	e202101c 	and	r1, r2, #28
/home/rossierd/soo.tech/soo/optee_os/lib/libmbedtls/mbedtls/library/bignum.c:531 (discriminator 2)
    4b94:	e2877001 	add	r7, r7, #1
/home/rossierd/soo.tech/soo/optee_os/lib/libmbedtls/mbedtls/library/bignum.c:540 (discriminator 2)
    4b98:	e790210c 	ldr	r2, [r0, ip, lsl #2]
    4b9c:	e182211e 	orr	r2, r2, lr, lsl r1
    4ba0:	e780210c 	str	r2, [r0, ip, lsl #2]
/home/rossierd/soo.tech/soo/optee_os/lib/libmbedtls/mbedtls/library/bignum.c:531 (discriminator 1)
    4ba4:	e3540000 	cmp	r4, #0
    4ba8:	1affffe6 	bne	4b48 <mbedtls_mpi_read_string+0xac>
/home/rossierd/soo.tech/soo/optee_os/lib/libmbedtls/mbedtls/library/bignum.c:539
    4bac:	e3a0a000 	mov	sl, #0
    4bb0:	eaffffe1 	b	4b3c <mbedtls_mpi_read_string+0xa0>
/home/rossierd/soo.tech/soo/optee_os/lib/libmbedtls/mbedtls/library/bignum.c:545
    4bb4:	e3a01000 	mov	r1, #0
    4bb8:	e1a00005 	mov	r0, r5
    4bbc:	ebfffc7e 	bl	3dbc <mbedtls_mpi_lset>
    4bc0:	e250a000 	subs	sl, r0, #0
/home/rossierd/soo.tech/soo/optee_os/lib/libmbedtls/mbedtls/library/bignum.c:555
    4bc4:	024b303c 	subeq	r3, fp, #60	; 0x3c
    4bc8:	01a0700a 	moveq	r7, sl
    4bcc:	050b3040 	streq	r3, [fp, #-64]	; 0xffffffc0
/home/rossierd/soo.tech/soo/optee_os/lib/libmbedtls/mbedtls/library/bignum.c:545
    4bd0:	1affffd9 	bne	4b3c <mbedtls_mpi_read_string+0xa0>
/home/rossierd/soo.tech/soo/optee_os/lib/libmbedtls/mbedtls/library/bignum.c:547 (discriminator 1)
    4bd4:	e1570004 	cmp	r7, r4
    4bd8:	0afffff3 	beq	4bac <mbedtls_mpi_read_string+0x110>
/home/rossierd/soo.tech/soo/optee_os/lib/libmbedtls/mbedtls/library/bignum.c:549
    4bdc:	e3570000 	cmp	r7, #0
    4be0:	1a000004 	bne	4bf8 <mbedtls_mpi_read_string+0x15c>
/home/rossierd/soo.tech/soo/optee_os/lib/libmbedtls/mbedtls/library/bignum.c:549 (discriminator 1)
    4be4:	e5d83000 	ldrb	r3, [r8]
    4be8:	e353002d 	cmp	r3, #45	; 0x2d
/home/rossierd/soo.tech/soo/optee_os/lib/libmbedtls/mbedtls/library/bignum.c:551 (discriminator 1)
    4bec:	03e03000 	mvneq	r3, #0
    4bf0:	01c530b0 	strheq	r3, [r5]
/home/rossierd/soo.tech/soo/optee_os/lib/libmbedtls/mbedtls/library/bignum.c:549 (discriminator 1)
    4bf4:	0a000014 	beq	4c4c <mbedtls_mpi_read_string+0x1b0>
/home/rossierd/soo.tech/soo/optee_os/lib/libmbedtls/mbedtls/library/bignum.c:555
    4bf8:	e7d82007 	ldrb	r2, [r8, r7]
    4bfc:	e1a01009 	mov	r1, r9
    4c00:	e51b0040 	ldr	r0, [fp, #-64]	; 0xffffffc0
    4c04:	ebfff97a 	bl	31f4 <mpi_get_digit>
    4c08:	e250a000 	subs	sl, r0, #0
    4c0c:	1affffca 	bne	4b3c <mbedtls_mpi_read_string+0xa0>
/home/rossierd/soo.tech/soo/optee_os/lib/libmbedtls/mbedtls/library/bignum.c:556
    4c10:	e1a02009 	mov	r2, r9
    4c14:	e1a01005 	mov	r1, r5
    4c18:	e1a00006 	mov	r0, r6
    4c1c:	ebffff90 	bl	4a64 <mbedtls_mpi_mul_int>
    4c20:	e250a000 	subs	sl, r0, #0
    4c24:	1affffc4 	bne	4b3c <mbedtls_mpi_read_string+0xa0>
/home/rossierd/soo.tech/soo/optee_os/lib/libmbedtls/mbedtls/library/bignum.c:558
    4c28:	e1d530f0 	ldrsh	r3, [r5]
/home/rossierd/soo.tech/soo/optee_os/lib/libmbedtls/mbedtls/library/bignum.c:560
    4c2c:	e1a01006 	mov	r1, r6
    4c30:	e1a00005 	mov	r0, r5
    4c34:	e51b203c 	ldr	r2, [fp, #-60]	; 0xffffffc4
/home/rossierd/soo.tech/soo/optee_os/lib/libmbedtls/mbedtls/library/bignum.c:558
    4c38:	e3530001 	cmp	r3, #1
    4c3c:	1a000004 	bne	4c54 <mbedtls_mpi_read_string+0x1b8>
/home/rossierd/soo.tech/soo/optee_os/lib/libmbedtls/mbedtls/library/bignum.c:560
    4c40:	ebffff07 	bl	4864 <mbedtls_mpi_add_int>
/home/rossierd/soo.tech/soo/optee_os/lib/libmbedtls/mbedtls/library/bignum.c:564
    4c44:	e250a000 	subs	sl, r0, #0
    4c48:	1affffbb 	bne	4b3c <mbedtls_mpi_read_string+0xa0>
/home/rossierd/soo.tech/soo/optee_os/lib/libmbedtls/mbedtls/library/bignum.c:547 (discriminator 2)
    4c4c:	e2877001 	add	r7, r7, #1
    4c50:	eaffffdf 	b	4bd4 <mbedtls_mpi_read_string+0x138>
/home/rossierd/soo.tech/soo/optee_os/lib/libmbedtls/mbedtls/library/bignum.c:564
    4c54:	ebffff15 	bl	48b0 <mbedtls_mpi_sub_int>
    4c58:	eafffff9 	b	4c44 <mbedtls_mpi_read_string+0x1a8>
/home/rossierd/soo.tech/soo/optee_os/lib/libmbedtls/mbedtls/library/bignum.c:539
    4c5c:	e1a0a000 	mov	sl, r0
    4c60:	eaffffb5 	b	4b3c <mbedtls_mpi_read_string+0xa0>

00004c64 <mbedtls_mpi_div_mpi>:
mbedtls_mpi_div_mpi():
/home/rossierd/soo.tech/soo/optee_os/lib/libmbedtls/mbedtls/library/bignum.c:1485
    4c64:	e1a0c00d 	mov	ip, sp
    4c68:	e92ddff0 	push	{r4, r5, r6, r7, r8, r9, sl, fp, ip, lr, pc}
    4c6c:	e24cb004 	sub	fp, ip, #4
    4c70:	e24dd074 	sub	sp, sp, #116	; 0x74
    4c74:	e1a08002 	mov	r8, r2
    4c78:	e50b308c 	str	r3, [fp, #-140]	; 0xffffff74
    4c7c:	e50b0078 	str	r0, [fp, #-120]	; 0xffffff88
/home/rossierd/soo.tech/soo/optee_os/lib/libmbedtls/mbedtls/library/bignum.c:1492
    4c80:	e1a00003 	mov	r0, r3
/home/rossierd/soo.tech/soo/optee_os/lib/libmbedtls/mbedtls/library/bignum.c:1485
    4c84:	e50b1074 	str	r1, [fp, #-116]	; 0xffffff8c
/home/rossierd/soo.tech/soo/optee_os/lib/libmbedtls/mbedtls/library/bignum.c:1492
    4c88:	e3a01000 	mov	r1, #0
    4c8c:	ebfffe17 	bl	44f0 <mbedtls_mpi_cmp_int>
    4c90:	e3500000 	cmp	r0, #0
/home/rossierd/soo.tech/soo/optee_os/lib/libmbedtls/mbedtls/library/bignum.c:1493
    4c94:	03e0400b 	mvneq	r4, #11
/home/rossierd/soo.tech/soo/optee_os/lib/libmbedtls/mbedtls/library/bignum.c:1492
    4c98:	0a00001a 	beq	4d08 <mbedtls_mpi_div_mpi+0xa4>
/home/rossierd/soo.tech/soo/optee_os/lib/libmbedtls/mbedtls/library/bignum.c:1495
    4c9c:	e24b6068 	sub	r6, fp, #104	; 0x68
    4ca0:	e24b505c 	sub	r5, fp, #92	; 0x5c
    4ca4:	e1a00006 	mov	r0, r6
/home/rossierd/soo.tech/soo/optee_os/lib/libmbedtls/mbedtls/library/bignum.c:1496
    4ca8:	e24b7050 	sub	r7, fp, #80	; 0x50
/home/rossierd/soo.tech/soo/optee_os/lib/libmbedtls/mbedtls/library/bignum.c:1495
    4cac:	ebfffae2 	bl	383c <mbedtls_mpi_init_mempool>
    4cb0:	e1a00005 	mov	r0, r5
/home/rossierd/soo.tech/soo/optee_os/lib/libmbedtls/mbedtls/library/bignum.c:1496
    4cb4:	e24ba044 	sub	sl, fp, #68	; 0x44
/home/rossierd/soo.tech/soo/optee_os/lib/libmbedtls/mbedtls/library/bignum.c:1495
    4cb8:	ebfffadf 	bl	383c <mbedtls_mpi_init_mempool>
/home/rossierd/soo.tech/soo/optee_os/lib/libmbedtls/mbedtls/library/bignum.c:1496
    4cbc:	e1a00007 	mov	r0, r7
/home/rossierd/soo.tech/soo/optee_os/lib/libmbedtls/mbedtls/library/bignum.c:1497
    4cc0:	e24b9038 	sub	r9, fp, #56	; 0x38
/home/rossierd/soo.tech/soo/optee_os/lib/libmbedtls/mbedtls/library/bignum.c:1496
    4cc4:	ebfffadc 	bl	383c <mbedtls_mpi_init_mempool>
    4cc8:	e1a0000a 	mov	r0, sl
    4ccc:	ebfffada 	bl	383c <mbedtls_mpi_init_mempool>
/home/rossierd/soo.tech/soo/optee_os/lib/libmbedtls/mbedtls/library/bignum.c:1497
    4cd0:	e1a00009 	mov	r0, r9
    4cd4:	ebfffad8 	bl	383c <mbedtls_mpi_init_mempool>
/home/rossierd/soo.tech/soo/optee_os/lib/libmbedtls/mbedtls/library/bignum.c:1499
    4cd8:	e1a00008 	mov	r0, r8
    4cdc:	e51b108c 	ldr	r1, [fp, #-140]	; 0xffffff74
    4ce0:	ebfffd8a 	bl	4310 <mbedtls_mpi_cmp_abs>
    4ce4:	e3500000 	cmp	r0, #0
    4ce8:	aa00001f 	bge	4d6c <mbedtls_mpi_div_mpi+0x108>
/home/rossierd/soo.tech/soo/optee_os/lib/libmbedtls/mbedtls/library/bignum.c:1501
    4cec:	e51b3078 	ldr	r3, [fp, #-120]	; 0xffffff88
    4cf0:	e3530000 	cmp	r3, #0
    4cf4:	1a000006 	bne	4d14 <mbedtls_mpi_div_mpi+0xb0>
/home/rossierd/soo.tech/soo/optee_os/lib/libmbedtls/mbedtls/library/bignum.c:1502
    4cf8:	e51b3074 	ldr	r3, [fp, #-116]	; 0xffffff8c
    4cfc:	e3530000 	cmp	r3, #0
    4d00:	1a000013 	bne	4d54 <mbedtls_mpi_div_mpi+0xf0>
/home/rossierd/soo.tech/soo/optee_os/lib/libmbedtls/mbedtls/library/bignum.c:1503
    4d04:	e3a04000 	mov	r4, #0
/home/rossierd/soo.tech/soo/optee_os/lib/libmbedtls/mbedtls/library/bignum.c:1597
    4d08:	e1a00004 	mov	r0, r4
    4d0c:	e24bd028 	sub	sp, fp, #40	; 0x28
    4d10:	e89daff0 	ldm	sp, {r4, r5, r6, r7, r8, r9, sl, fp, sp, pc}
/home/rossierd/soo.tech/soo/optee_os/lib/libmbedtls/mbedtls/library/bignum.c:1501 (discriminator 1)
    4d14:	e3a01000 	mov	r1, #0
    4d18:	e51b0078 	ldr	r0, [fp, #-120]	; 0xffffff88
    4d1c:	ebfffc26 	bl	3dbc <mbedtls_mpi_lset>
    4d20:	e2504000 	subs	r4, r0, #0
    4d24:	0afffff3 	beq	4cf8 <mbedtls_mpi_div_mpi+0x94>
/home/rossierd/soo.tech/soo/optee_os/lib/libmbedtls/mbedtls/library/bignum.c:1593
    4d28:	e24b0068 	sub	r0, fp, #104	; 0x68
    4d2c:	ebfffad5 	bl	3888 <mbedtls_mpi_free>
    4d30:	e24b005c 	sub	r0, fp, #92	; 0x5c
    4d34:	ebfffad3 	bl	3888 <mbedtls_mpi_free>
    4d38:	e24b0050 	sub	r0, fp, #80	; 0x50
    4d3c:	ebfffad1 	bl	3888 <mbedtls_mpi_free>
/home/rossierd/soo.tech/soo/optee_os/lib/libmbedtls/mbedtls/library/bignum.c:1594
    4d40:	e24b0044 	sub	r0, fp, #68	; 0x44
    4d44:	ebfffacf 	bl	3888 <mbedtls_mpi_free>
    4d48:	e24b0038 	sub	r0, fp, #56	; 0x38
    4d4c:	ebfffacd 	bl	3888 <mbedtls_mpi_free>
/home/rossierd/soo.tech/soo/optee_os/lib/libmbedtls/mbedtls/library/bignum.c:1596
    4d50:	eaffffec 	b	4d08 <mbedtls_mpi_div_mpi+0xa4>
/home/rossierd/soo.tech/soo/optee_os/lib/libmbedtls/mbedtls/library/bignum.c:1502 (discriminator 1)
    4d54:	e1a01008 	mov	r1, r8
    4d58:	e51b0074 	ldr	r0, [fp, #-116]	; 0xffffff8c
    4d5c:	ebfffb76 	bl	3b3c <mbedtls_mpi_copy>
    4d60:	e2504000 	subs	r4, r0, #0
    4d64:	1affffef 	bne	4d28 <mbedtls_mpi_div_mpi+0xc4>
    4d68:	eaffffe5 	b	4d04 <mbedtls_mpi_div_mpi+0xa0>
/home/rossierd/soo.tech/soo/optee_os/lib/libmbedtls/mbedtls/library/bignum.c:1506
    4d6c:	e1a01008 	mov	r1, r8
    4d70:	e1a00006 	mov	r0, r6
    4d74:	ebfffb70 	bl	3b3c <mbedtls_mpi_copy>
    4d78:	e2504000 	subs	r4, r0, #0
    4d7c:	1affffe9 	bne	4d28 <mbedtls_mpi_div_mpi+0xc4>
/home/rossierd/soo.tech/soo/optee_os/lib/libmbedtls/mbedtls/library/bignum.c:1507
    4d80:	e1a00005 	mov	r0, r5
    4d84:	e51b108c 	ldr	r1, [fp, #-140]	; 0xffffff74
    4d88:	ebfffb6b 	bl	3b3c <mbedtls_mpi_copy>
    4d8c:	e2504000 	subs	r4, r0, #0
    4d90:	1affffe4 	bne	4d28 <mbedtls_mpi_div_mpi+0xc4>
/home/rossierd/soo.tech/soo/optee_os/lib/libmbedtls/mbedtls/library/bignum.c:1510
    4d94:	e5981004 	ldr	r1, [r8, #4]
/home/rossierd/soo.tech/soo/optee_os/lib/libmbedtls/mbedtls/library/bignum.c:1508
    4d98:	e3a03001 	mov	r3, #1
/home/rossierd/soo.tech/soo/optee_os/lib/libmbedtls/mbedtls/library/bignum.c:1510
    4d9c:	e1a00007 	mov	r0, r7
/home/rossierd/soo.tech/soo/optee_os/lib/libmbedtls/mbedtls/library/bignum.c:1508
    4da0:	e14b36b8 	strh	r3, [fp, #-104]	; 0xffffff98
    4da4:	e14b35bc 	strh	r3, [fp, #-92]	; 0xffffffa4
/home/rossierd/soo.tech/soo/optee_os/lib/libmbedtls/mbedtls/library/bignum.c:1510
    4da8:	e2811002 	add	r1, r1, #2
    4dac:	ebfffad5 	bl	3908 <mbedtls_mpi_grow>
    4db0:	e2504000 	subs	r4, r0, #0
    4db4:	1affffdb 	bne	4d28 <mbedtls_mpi_div_mpi+0xc4>
/home/rossierd/soo.tech/soo/optee_os/lib/libmbedtls/mbedtls/library/bignum.c:1511
    4db8:	e1a01004 	mov	r1, r4
    4dbc:	e1a00007 	mov	r0, r7
    4dc0:	ebfffbfd 	bl	3dbc <mbedtls_mpi_lset>
    4dc4:	e2504000 	subs	r4, r0, #0
    4dc8:	1affffd6 	bne	4d28 <mbedtls_mpi_div_mpi+0xc4>
/home/rossierd/soo.tech/soo/optee_os/lib/libmbedtls/mbedtls/library/bignum.c:1512
    4dcc:	e3a01002 	mov	r1, #2
    4dd0:	e1a0000a 	mov	r0, sl
    4dd4:	ebfffacb 	bl	3908 <mbedtls_mpi_grow>
    4dd8:	e2504000 	subs	r4, r0, #0
    4ddc:	1affffd1 	bne	4d28 <mbedtls_mpi_div_mpi+0xc4>
/home/rossierd/soo.tech/soo/optee_os/lib/libmbedtls/mbedtls/library/bignum.c:1513
    4de0:	e3a01003 	mov	r1, #3
    4de4:	e1a00009 	mov	r0, r9
    4de8:	ebfffac6 	bl	3908 <mbedtls_mpi_grow>
    4dec:	e2504000 	subs	r4, r0, #0
    4df0:	1affffcc 	bne	4d28 <mbedtls_mpi_div_mpi+0xc4>
/home/rossierd/soo.tech/soo/optee_os/lib/libmbedtls/mbedtls/library/bignum.c:1515
    4df4:	e1a00005 	mov	r0, r5
    4df8:	ebfffc49 	bl	3f24 <mbedtls_mpi_bitlen>
    4dfc:	e200001f 	and	r0, r0, #31
/home/rossierd/soo.tech/soo/optee_os/lib/libmbedtls/mbedtls/library/bignum.c:1516
    4e00:	e350001f 	cmp	r0, #31
    4e04:	0a000063 	beq	4f98 <mbedtls_mpi_div_mpi+0x334>
/home/rossierd/soo.tech/soo/optee_os/lib/libmbedtls/mbedtls/library/bignum.c:1518
    4e08:	e260301f 	rsb	r3, r0, #31
/home/rossierd/soo.tech/soo/optee_os/lib/libmbedtls/mbedtls/library/bignum.c:1519
    4e0c:	e1a00006 	mov	r0, r6
    4e10:	e1a01003 	mov	r1, r3
/home/rossierd/soo.tech/soo/optee_os/lib/libmbedtls/mbedtls/library/bignum.c:1518
    4e14:	e50b3080 	str	r3, [fp, #-128]	; 0xffffff80
/home/rossierd/soo.tech/soo/optee_os/lib/libmbedtls/mbedtls/library/bignum.c:1519
    4e18:	ebfffcc2 	bl	4128 <mbedtls_mpi_shift_l>
    4e1c:	e2504000 	subs	r4, r0, #0
    4e20:	1affffc0 	bne	4d28 <mbedtls_mpi_div_mpi+0xc4>
/home/rossierd/soo.tech/soo/optee_os/lib/libmbedtls/mbedtls/library/bignum.c:1520
    4e24:	e1a00005 	mov	r0, r5
    4e28:	e51b1080 	ldr	r1, [fp, #-128]	; 0xffffff80
    4e2c:	ebfffcbd 	bl	4128 <mbedtls_mpi_shift_l>
    4e30:	e2504000 	subs	r4, r0, #0
    4e34:	1affffbb 	bne	4d28 <mbedtls_mpi_div_mpi+0xc4>
/home/rossierd/soo.tech/soo/optee_os/lib/libmbedtls/mbedtls/library/bignum.c:1524
    4e38:	e51b6064 	ldr	r6, [fp, #-100]	; 0xffffff9c
/home/rossierd/soo.tech/soo/optee_os/lib/libmbedtls/mbedtls/library/bignum.c:1526
    4e3c:	e24b505c 	sub	r5, fp, #92	; 0x5c
/home/rossierd/soo.tech/soo/optee_os/lib/libmbedtls/mbedtls/library/bignum.c:1525
    4e40:	e51b9058 	ldr	r9, [fp, #-88]	; 0xffffffa8
/home/rossierd/soo.tech/soo/optee_os/lib/libmbedtls/mbedtls/library/bignum.c:1526
    4e44:	e1a00005 	mov	r0, r5
/home/rossierd/soo.tech/soo/optee_os/lib/libmbedtls/mbedtls/library/bignum.c:1524
    4e48:	e2463001 	sub	r3, r6, #1
/home/rossierd/soo.tech/soo/optee_os/lib/libmbedtls/mbedtls/library/bignum.c:1526
    4e4c:	e2492001 	sub	r2, r9, #1
/home/rossierd/soo.tech/soo/optee_os/lib/libmbedtls/mbedtls/library/bignum.c:1524
    4e50:	e50b307c 	str	r3, [fp, #-124]	; 0xffffff84
/home/rossierd/soo.tech/soo/optee_os/lib/libmbedtls/mbedtls/library/bignum.c:1525
    4e54:	e2493001 	sub	r3, r9, #1
    4e58:	e50b3084 	str	r3, [fp, #-132]	; 0xffffff7c
/home/rossierd/soo.tech/soo/optee_os/lib/libmbedtls/mbedtls/library/bignum.c:1526
    4e5c:	e2463001 	sub	r3, r6, #1
    4e60:	e0437002 	sub	r7, r3, r2
    4e64:	e1a03287 	lsl	r3, r7, #5
    4e68:	e1a01003 	mov	r1, r3
    4e6c:	e50b3070 	str	r3, [fp, #-112]	; 0xffffff90
    4e70:	ebfffcac 	bl	4128 <mbedtls_mpi_shift_l>
    4e74:	e2504000 	subs	r4, r0, #0
/home/rossierd/soo.tech/soo/optee_os/lib/libmbedtls/mbedtls/library/bignum.c:1530
    4e78:	01a07107 	lsleq	r7, r7, #2
/home/rossierd/soo.tech/soo/optee_os/lib/libmbedtls/mbedtls/library/bignum.c:1528
    4e7c:	024ba068 	subeq	sl, fp, #104	; 0x68
/home/rossierd/soo.tech/soo/optee_os/lib/libmbedtls/mbedtls/library/bignum.c:1526
    4e80:	1affffa8 	bne	4d28 <mbedtls_mpi_div_mpi+0xc4>
/home/rossierd/soo.tech/soo/optee_os/lib/libmbedtls/mbedtls/library/bignum.c:1528
    4e84:	e1a01005 	mov	r1, r5
    4e88:	e1a0000a 	mov	r0, sl
    4e8c:	ebfffd54 	bl	43e4 <mbedtls_mpi_cmp_mpi>
    4e90:	e3500000 	cmp	r0, #0
    4e94:	aa000041 	bge	4fa0 <mbedtls_mpi_div_mpi+0x33c>
/home/rossierd/soo.tech/soo/optee_os/lib/libmbedtls/mbedtls/library/bignum.c:1533
    4e98:	e1a00005 	mov	r0, r5
    4e9c:	e51b1070 	ldr	r1, [fp, #-112]	; 0xffffff90
    4ea0:	ebfffcdf 	bl	4224 <mbedtls_mpi_shift_r>
    4ea4:	e2504000 	subs	r4, r0, #0
    4ea8:	1affff9e 	bne	4d28 <mbedtls_mpi_div_mpi+0xc4>
/home/rossierd/soo.tech/soo/optee_os/lib/libmbedtls/mbedtls/library/bignum.c:1537
    4eac:	e51b3084 	ldr	r3, [fp, #-132]	; 0xffffff7c
    4eb0:	e2465107 	sub	r5, r6, #-1073741823	; 0xc0000001
    4eb4:	e0455009 	sub	r5, r5, r9
    4eb8:	e1a05105 	lsl	r5, r5, #2
    4ebc:	e1a03103 	lsl	r3, r3, #2
    4ec0:	e50b3098 	str	r3, [fp, #-152]	; 0xffffff68
/home/rossierd/soo.tech/soo/optee_os/lib/libmbedtls/mbedtls/library/bignum.c:1551
    4ec4:	e249310b 	sub	r3, r9, #-1073741822	; 0xc0000002
    4ec8:	e1a03103 	lsl	r3, r3, #2
    4ecc:	e50b309c 	str	r3, [fp, #-156]	; 0xffffff64
    4ed0:	e246337e 	sub	r3, r6, #-134217727	; 0xf8000001
    4ed4:	e246610b 	sub	r6, r6, #-1073741822	; 0xc0000002
    4ed8:	e0439009 	sub	r9, r3, r9
    4edc:	e1a03289 	lsl	r3, r9, #5
    4ee0:	e50b3088 	str	r3, [fp, #-136]	; 0xffffff78
    4ee4:	e1a03106 	lsl	r3, r6, #2
/home/rossierd/soo.tech/soo/optee_os/lib/libmbedtls/mbedtls/library/bignum.c:1535 (discriminator 2)
    4ee8:	e51b2084 	ldr	r2, [fp, #-132]	; 0xffffff7c
    4eec:	e50b3070 	str	r3, [fp, #-112]	; 0xffffff90
    4ef0:	e51b307c 	ldr	r3, [fp, #-124]	; 0xffffff84
    4ef4:	e1530002 	cmp	r3, r2
    4ef8:	8a000033 	bhi	4fcc <mbedtls_mpi_div_mpi+0x368>
/home/rossierd/soo.tech/soo/optee_os/lib/libmbedtls/mbedtls/library/bignum.c:1575
    4efc:	e51b3078 	ldr	r3, [fp, #-120]	; 0xffffff88
    4f00:	e3530000 	cmp	r3, #0
    4f04:	0a00000a 	beq	4f34 <mbedtls_mpi_div_mpi+0x2d0>
/home/rossierd/soo.tech/soo/optee_os/lib/libmbedtls/mbedtls/library/bignum.c:1577
    4f08:	e24b1050 	sub	r1, fp, #80	; 0x50
    4f0c:	e1a00003 	mov	r0, r3
    4f10:	ebfffb09 	bl	3b3c <mbedtls_mpi_copy>
    4f14:	e3500000 	cmp	r0, #0
    4f18:	1a00001c 	bne	4f90 <mbedtls_mpi_div_mpi+0x32c>
/home/rossierd/soo.tech/soo/optee_os/lib/libmbedtls/mbedtls/library/bignum.c:1578
    4f1c:	e51b208c 	ldr	r2, [fp, #-140]	; 0xffffff74
    4f20:	e1d830b0 	ldrh	r3, [r8]
    4f24:	e1d220b0 	ldrh	r2, [r2]
    4f28:	e1630283 	smulbb	r3, r3, r2
    4f2c:	e51b2078 	ldr	r2, [fp, #-120]	; 0xffffff88
    4f30:	e1c230b0 	strh	r3, [r2]
/home/rossierd/soo.tech/soo/optee_os/lib/libmbedtls/mbedtls/library/bignum.c:1581
    4f34:	e51b3074 	ldr	r3, [fp, #-116]	; 0xffffff8c
    4f38:	e3530000 	cmp	r3, #0
    4f3c:	0affff79 	beq	4d28 <mbedtls_mpi_div_mpi+0xc4>
/home/rossierd/soo.tech/soo/optee_os/lib/libmbedtls/mbedtls/library/bignum.c:1583
    4f40:	e24b5068 	sub	r5, fp, #104	; 0x68
    4f44:	e51b1080 	ldr	r1, [fp, #-128]	; 0xffffff80
    4f48:	e1a00005 	mov	r0, r5
    4f4c:	ebfffcb4 	bl	4224 <mbedtls_mpi_shift_r>
    4f50:	e3500000 	cmp	r0, #0
    4f54:	1a00000d 	bne	4f90 <mbedtls_mpi_div_mpi+0x32c>
/home/rossierd/soo.tech/soo/optee_os/lib/libmbedtls/mbedtls/library/bignum.c:1584
    4f58:	e1d830b0 	ldrh	r3, [r8]
/home/rossierd/soo.tech/soo/optee_os/lib/libmbedtls/mbedtls/library/bignum.c:1585
    4f5c:	e1a01005 	mov	r1, r5
    4f60:	e51b0074 	ldr	r0, [fp, #-116]	; 0xffffff8c
/home/rossierd/soo.tech/soo/optee_os/lib/libmbedtls/mbedtls/library/bignum.c:1584
    4f64:	e14b36b8 	strh	r3, [fp, #-104]	; 0xffffff98
/home/rossierd/soo.tech/soo/optee_os/lib/libmbedtls/mbedtls/library/bignum.c:1585
    4f68:	ebfffaf3 	bl	3b3c <mbedtls_mpi_copy>
    4f6c:	e2501000 	subs	r1, r0, #0
    4f70:	1a0000a1 	bne	51fc <mbedtls_mpi_div_mpi+0x598>
/home/rossierd/soo.tech/soo/optee_os/lib/libmbedtls/mbedtls/library/bignum.c:1587
    4f74:	e51b0074 	ldr	r0, [fp, #-116]	; 0xffffff8c
    4f78:	ebfffd5c 	bl	44f0 <mbedtls_mpi_cmp_int>
    4f7c:	e3500000 	cmp	r0, #0
    4f80:	1affff68 	bne	4d28 <mbedtls_mpi_div_mpi+0xc4>
/home/rossierd/soo.tech/soo/optee_os/lib/libmbedtls/mbedtls/library/bignum.c:1588
    4f84:	e51b2074 	ldr	r2, [fp, #-116]	; 0xffffff8c
    4f88:	e3a03001 	mov	r3, #1
    4f8c:	e1c230b0 	strh	r3, [r2]
    4f90:	e1a04000 	mov	r4, r0
    4f94:	eaffff63 	b	4d28 <mbedtls_mpi_div_mpi+0xc4>
/home/rossierd/soo.tech/soo/optee_os/lib/libmbedtls/mbedtls/library/bignum.c:1522
    4f98:	e50b4080 	str	r4, [fp, #-128]	; 0xffffff80
    4f9c:	eaffffa5 	b	4e38 <mbedtls_mpi_div_mpi+0x1d4>
/home/rossierd/soo.tech/soo/optee_os/lib/libmbedtls/mbedtls/library/bignum.c:1530
    4fa0:	e51b1048 	ldr	r1, [fp, #-72]	; 0xffffffb8
/home/rossierd/soo.tech/soo/optee_os/lib/libmbedtls/mbedtls/library/bignum.c:1531
    4fa4:	e1a0000a 	mov	r0, sl
/home/rossierd/soo.tech/soo/optee_os/lib/libmbedtls/mbedtls/library/bignum.c:1530
    4fa8:	e7912007 	ldr	r2, [r1, r7]
    4fac:	e2822001 	add	r2, r2, #1
    4fb0:	e7812007 	str	r2, [r1, r7]
/home/rossierd/soo.tech/soo/optee_os/lib/libmbedtls/mbedtls/library/bignum.c:1531
    4fb4:	e1a02005 	mov	r2, r5
    4fb8:	e1a0100a 	mov	r1, sl
    4fbc:	ebfffe06 	bl	47dc <mbedtls_mpi_sub_mpi>
    4fc0:	e2504000 	subs	r4, r0, #0
    4fc4:	0affffae 	beq	4e84 <mbedtls_mpi_div_mpi+0x220>
    4fc8:	eaffff56 	b	4d28 <mbedtls_mpi_div_mpi+0xc4>
/home/rossierd/soo.tech/soo/optee_os/lib/libmbedtls/mbedtls/library/bignum.c:1537
    4fcc:	e51b0098 	ldr	r0, [fp, #-152]	; 0xffffff68
    4fd0:	e51b3070 	ldr	r3, [fp, #-112]	; 0xffffff90
    4fd4:	e51b1060 	ldr	r1, [fp, #-96]	; 0xffffffa0
    4fd8:	e51b2054 	ldr	r2, [fp, #-84]	; 0xffffffac
    4fdc:	e51b7048 	ldr	r7, [fp, #-72]	; 0xffffffb8
    4fe0:	e2839004 	add	r9, r3, #4
    4fe4:	e7913009 	ldr	r3, [r1, r9]
    4fe8:	e7922000 	ldr	r2, [r2, r0]
    4fec:	e1530002 	cmp	r3, r2
/home/rossierd/soo.tech/soo/optee_os/lib/libmbedtls/mbedtls/library/bignum.c:1538
    4ff0:	23e03000 	mvncs	r3, #0
    4ff4:	27873005 	strcs	r3, [r7, r5]
/home/rossierd/soo.tech/soo/optee_os/lib/libmbedtls/mbedtls/library/bignum.c:1537
    4ff8:	2a000013 	bcs	504c <mbedtls_mpi_div_mpi+0x3e8>
/home/rossierd/soo.tech/soo/optee_os/lib/libmbedtls/mbedtls/library/bignum.c:1541
    4ffc:	e51b0070 	ldr	r0, [fp, #-112]	; 0xffffff90
mbedtls_int_div_int():
/home/rossierd/soo.tech/soo/optee_os/lib/libmbedtls/mbedtls/library/bignum.c:1404
    5000:	e3520000 	cmp	r2, #0
mbedtls_mpi_div_mpi():
/home/rossierd/soo.tech/soo/optee_os/lib/libmbedtls/mbedtls/library/bignum.c:1541
    5004:	e087a005 	add	sl, r7, r5
    5008:	e7910000 	ldr	r0, [r1, r0]
mbedtls_int_div_int():
/home/rossierd/soo.tech/soo/optee_os/lib/libmbedtls/mbedtls/library/bignum.c:1404
    500c:	03e00000 	mvneq	r0, #0
    5010:	0a00000c 	beq	5048 <mbedtls_mpi_div_mpi+0x3e4>
/home/rossierd/soo.tech/soo/optee_os/lib/libmbedtls/mbedtls/library/bignum.c:1412
    5014:	e50b3090 	str	r3, [fp, #-144]	; 0xffffff70
    5018:	e3a03000 	mov	r3, #0
    501c:	e50b3094 	str	r3, [fp, #-148]	; 0xffffff6c
/home/rossierd/soo.tech/soo/optee_os/lib/libmbedtls/mbedtls/library/bignum.c:1414
    5020:	e14b69d4 	ldrd	r6, [fp, #-148]	; 0xffffff6c
    5024:	e1866000 	orr	r6, r6, r0
    5028:	e1a00006 	mov	r0, r6
    502c:	e1a01007 	mov	r1, r7
    5030:	eb000bc1 	bl	7f3c <__aeabi_uldivmod>
    5034:	e3a03000 	mov	r3, #0
    5038:	e3e02000 	mvn	r2, #0
    503c:	e1510003 	cmp	r1, r3
    5040:	01500002 	cmpeq	r0, r2
    5044:	81a00002 	movhi	r0, r2
mbedtls_mpi_div_mpi():
/home/rossierd/soo.tech/soo/optee_os/lib/libmbedtls/mbedtls/library/bignum.c:1541
    5048:	e58a0000 	str	r0, [sl]
/home/rossierd/soo.tech/soo/optee_os/lib/libmbedtls/mbedtls/library/bignum.c:1545
    504c:	e51b2048 	ldr	r2, [fp, #-72]	; 0xffffffb8
/home/rossierd/soo.tech/soo/optee_os/lib/libmbedtls/mbedtls/library/bignum.c:1550
    5050:	e24b7044 	sub	r7, fp, #68	; 0x44
/home/rossierd/soo.tech/soo/optee_os/lib/libmbedtls/mbedtls/library/bignum.c:1545
    5054:	e7923005 	ldr	r3, [r2, r5]
    5058:	e2833001 	add	r3, r3, #1
    505c:	e7823005 	str	r3, [r2, r5]
/home/rossierd/soo.tech/soo/optee_os/lib/libmbedtls/mbedtls/library/bignum.c:1556
    5060:	e51b3070 	ldr	r3, [fp, #-112]	; 0xffffff90
    5064:	e243a004 	sub	sl, r3, #4
/home/rossierd/soo.tech/soo/optee_os/lib/libmbedtls/mbedtls/library/bignum.c:1548
    5068:	e51b2048 	ldr	r2, [fp, #-72]	; 0xffffffb8
/home/rossierd/soo.tech/soo/optee_os/lib/libmbedtls/mbedtls/library/bignum.c:1550
    506c:	e3a01000 	mov	r1, #0
    5070:	e1a00007 	mov	r0, r7
/home/rossierd/soo.tech/soo/optee_os/lib/libmbedtls/mbedtls/library/bignum.c:1548
    5074:	e7923005 	ldr	r3, [r2, r5]
    5078:	e2433001 	sub	r3, r3, #1
    507c:	e7823005 	str	r3, [r2, r5]
/home/rossierd/soo.tech/soo/optee_os/lib/libmbedtls/mbedtls/library/bignum.c:1550
    5080:	ebfffb4d 	bl	3dbc <mbedtls_mpi_lset>
    5084:	e3500000 	cmp	r0, #0
    5088:	1affffc0 	bne	4f90 <mbedtls_mpi_div_mpi+0x32c>
/home/rossierd/soo.tech/soo/optee_os/lib/libmbedtls/mbedtls/library/bignum.c:1551
    508c:	e51b2084 	ldr	r2, [fp, #-132]	; 0xffffff7c
/home/rossierd/soo.tech/soo/optee_os/lib/libmbedtls/mbedtls/library/bignum.c:1553
    5090:	e1a00007 	mov	r0, r7
/home/rossierd/soo.tech/soo/optee_os/lib/libmbedtls/mbedtls/library/bignum.c:1551
    5094:	e51b303c 	ldr	r3, [fp, #-60]	; 0xffffffc4
    5098:	e3520000 	cmp	r2, #0
    509c:	e51b2054 	ldr	r2, [fp, #-84]	; 0xffffffac
    50a0:	151b109c 	ldrne	r1, [fp, #-156]	; 0xffffff64
    50a4:	051b1084 	ldreq	r1, [fp, #-132]	; 0xffffff7c
    50a8:	17921001 	ldrne	r1, [r2, r1]
    50ac:	e5831000 	str	r1, [r3]
/home/rossierd/soo.tech/soo/optee_os/lib/libmbedtls/mbedtls/library/bignum.c:1552
    50b0:	e51b1098 	ldr	r1, [fp, #-152]	; 0xffffff68
    50b4:	e7922001 	ldr	r2, [r2, r1]
/home/rossierd/soo.tech/soo/optee_os/lib/libmbedtls/mbedtls/library/bignum.c:1553
    50b8:	e1a01007 	mov	r1, r7
/home/rossierd/soo.tech/soo/optee_os/lib/libmbedtls/mbedtls/library/bignum.c:1552
    50bc:	e5832004 	str	r2, [r3, #4]
/home/rossierd/soo.tech/soo/optee_os/lib/libmbedtls/mbedtls/library/bignum.c:1553
    50c0:	e51b3048 	ldr	r3, [fp, #-72]	; 0xffffffb8
    50c4:	e7932005 	ldr	r2, [r3, r5]
    50c8:	ebfffe65 	bl	4a64 <mbedtls_mpi_mul_int>
    50cc:	e2501000 	subs	r1, r0, #0
    50d0:	1a000049 	bne	51fc <mbedtls_mpi_div_mpi+0x598>
/home/rossierd/soo.tech/soo/optee_os/lib/libmbedtls/mbedtls/library/bignum.c:1555
    50d4:	e24b0038 	sub	r0, fp, #56	; 0x38
    50d8:	ebfffb37 	bl	3dbc <mbedtls_mpi_lset>
    50dc:	e3500000 	cmp	r0, #0
    50e0:	1affffaa 	bne	4f90 <mbedtls_mpi_div_mpi+0x32c>
/home/rossierd/soo.tech/soo/optee_os/lib/libmbedtls/mbedtls/library/bignum.c:1556
    50e4:	e51b207c 	ldr	r2, [fp, #-124]	; 0xffffff84
/home/rossierd/soo.tech/soo/optee_os/lib/libmbedtls/mbedtls/library/bignum.c:1557
    50e8:	e51b1070 	ldr	r1, [fp, #-112]	; 0xffffff90
/home/rossierd/soo.tech/soo/optee_os/lib/libmbedtls/mbedtls/library/bignum.c:1556
    50ec:	e51b3030 	ldr	r3, [fp, #-48]	; 0xffffffd0
    50f0:	e3520001 	cmp	r2, #1
    50f4:	e51b2060 	ldr	r2, [fp, #-96]	; 0xffffffa0
    50f8:	1792000a 	ldrne	r0, [r2, sl]
    50fc:	e5830000 	str	r0, [r3]
/home/rossierd/soo.tech/soo/optee_os/lib/libmbedtls/mbedtls/library/bignum.c:1557
    5100:	e7921001 	ldr	r1, [r2, r1]
/home/rossierd/soo.tech/soo/optee_os/lib/libmbedtls/mbedtls/library/bignum.c:1560
    5104:	e1a00007 	mov	r0, r7
/home/rossierd/soo.tech/soo/optee_os/lib/libmbedtls/mbedtls/library/bignum.c:1557
    5108:	e5831004 	str	r1, [r3, #4]
/home/rossierd/soo.tech/soo/optee_os/lib/libmbedtls/mbedtls/library/bignum.c:1558
    510c:	e7922009 	ldr	r2, [r2, r9]
/home/rossierd/soo.tech/soo/optee_os/lib/libmbedtls/mbedtls/library/bignum.c:1560
    5110:	e24b1038 	sub	r1, fp, #56	; 0x38
/home/rossierd/soo.tech/soo/optee_os/lib/libmbedtls/mbedtls/library/bignum.c:1558
    5114:	e5832008 	str	r2, [r3, #8]
/home/rossierd/soo.tech/soo/optee_os/lib/libmbedtls/mbedtls/library/bignum.c:1560
    5118:	ebfffcb1 	bl	43e4 <mbedtls_mpi_cmp_mpi>
    511c:	e3500000 	cmp	r0, #0
    5120:	caffffd0 	bgt	5068 <mbedtls_mpi_div_mpi+0x404>
/home/rossierd/soo.tech/soo/optee_os/lib/libmbedtls/mbedtls/library/bignum.c:1562
    5124:	e51b3048 	ldr	r3, [fp, #-72]	; 0xffffffb8
    5128:	e24ba05c 	sub	sl, fp, #92	; 0x5c
    512c:	e1a00007 	mov	r0, r7
    5130:	e1a0100a 	mov	r1, sl
    5134:	e7932005 	ldr	r2, [r3, r5]
    5138:	ebfffe49 	bl	4a64 <mbedtls_mpi_mul_int>
    513c:	e3500000 	cmp	r0, #0
    5140:	1affff92 	bne	4f90 <mbedtls_mpi_div_mpi+0x32c>
/home/rossierd/soo.tech/soo/optee_os/lib/libmbedtls/mbedtls/library/bignum.c:1563
    5144:	e1a00007 	mov	r0, r7
    5148:	e51b1088 	ldr	r1, [fp, #-136]	; 0xffffff78
    514c:	ebfffbf5 	bl	4128 <mbedtls_mpi_shift_l>
    5150:	e3500000 	cmp	r0, #0
    5154:	1affff8d 	bne	4f90 <mbedtls_mpi_div_mpi+0x32c>
/home/rossierd/soo.tech/soo/optee_os/lib/libmbedtls/mbedtls/library/bignum.c:1564
    5158:	e24b9068 	sub	r9, fp, #104	; 0x68
    515c:	e1a02007 	mov	r2, r7
    5160:	e1a01009 	mov	r1, r9
    5164:	e1a00009 	mov	r0, r9
    5168:	ebfffd9b 	bl	47dc <mbedtls_mpi_sub_mpi>
    516c:	e2501000 	subs	r1, r0, #0
    5170:	1a000021 	bne	51fc <mbedtls_mpi_div_mpi+0x598>
/home/rossierd/soo.tech/soo/optee_os/lib/libmbedtls/mbedtls/library/bignum.c:1566
    5174:	e1a00009 	mov	r0, r9
    5178:	ebfffcdc 	bl	44f0 <mbedtls_mpi_cmp_int>
    517c:	e3500000 	cmp	r0, #0
    5180:	aa000013 	bge	51d4 <mbedtls_mpi_div_mpi+0x570>
/home/rossierd/soo.tech/soo/optee_os/lib/libmbedtls/mbedtls/library/bignum.c:1568
    5184:	e1a0100a 	mov	r1, sl
    5188:	e1a00007 	mov	r0, r7
    518c:	ebfffa6a 	bl	3b3c <mbedtls_mpi_copy>
    5190:	e3500000 	cmp	r0, #0
    5194:	1affff7d 	bne	4f90 <mbedtls_mpi_div_mpi+0x32c>
/home/rossierd/soo.tech/soo/optee_os/lib/libmbedtls/mbedtls/library/bignum.c:1569
    5198:	e1a00007 	mov	r0, r7
    519c:	e51b1088 	ldr	r1, [fp, #-136]	; 0xffffff78
    51a0:	ebfffbe0 	bl	4128 <mbedtls_mpi_shift_l>
    51a4:	e3500000 	cmp	r0, #0
    51a8:	1affff78 	bne	4f90 <mbedtls_mpi_div_mpi+0x32c>
/home/rossierd/soo.tech/soo/optee_os/lib/libmbedtls/mbedtls/library/bignum.c:1570
    51ac:	e1a02007 	mov	r2, r7
    51b0:	e1a01009 	mov	r1, r9
    51b4:	e1a00009 	mov	r0, r9
    51b8:	ebfffd66 	bl	4758 <mbedtls_mpi_add_mpi>
    51bc:	e3500000 	cmp	r0, #0
    51c0:	1affff72 	bne	4f90 <mbedtls_mpi_div_mpi+0x32c>
/home/rossierd/soo.tech/soo/optee_os/lib/libmbedtls/mbedtls/library/bignum.c:1571
    51c4:	e51b2048 	ldr	r2, [fp, #-72]	; 0xffffffb8
    51c8:	e7923005 	ldr	r3, [r2, r5]
    51cc:	e2433001 	sub	r3, r3, #1
    51d0:	e7823005 	str	r3, [r2, r5]
/home/rossierd/soo.tech/soo/optee_os/lib/libmbedtls/mbedtls/library/bignum.c:1535 (discriminator 2)
    51d4:	e51b307c 	ldr	r3, [fp, #-124]	; 0xffffff84
    51d8:	e2455004 	sub	r5, r5, #4
    51dc:	e2433001 	sub	r3, r3, #1
    51e0:	e50b307c 	str	r3, [fp, #-124]	; 0xffffff84
    51e4:	e51b3088 	ldr	r3, [fp, #-136]	; 0xffffff78
    51e8:	e2433020 	sub	r3, r3, #32
    51ec:	e50b3088 	str	r3, [fp, #-136]	; 0xffffff78
    51f0:	e51b3070 	ldr	r3, [fp, #-112]	; 0xffffff90
    51f4:	e2433004 	sub	r3, r3, #4
    51f8:	eaffff3a 	b	4ee8 <mbedtls_mpi_div_mpi+0x284>
    51fc:	e1a04001 	mov	r4, r1
    5200:	eafffec8 	b	4d28 <mbedtls_mpi_div_mpi+0xc4>

00005204 <mbedtls_mpi_div_int>:
mbedtls_mpi_div_int():
/home/rossierd/soo.tech/soo/optee_os/lib/libmbedtls/mbedtls/library/bignum.c:1605
    5204:	e1a0c00d 	mov	ip, sp
/home/rossierd/soo.tech/soo/optee_os/lib/libmbedtls/mbedtls/library/bignum.c:1611
    5208:	e3530000 	cmp	r3, #0
/home/rossierd/soo.tech/soo/optee_os/lib/libmbedtls/mbedtls/library/bignum.c:1605
    520c:	e92dd800 	push	{fp, ip, lr, pc}
    5210:	e24cb004 	sub	fp, ip, #4
/home/rossierd/soo.tech/soo/optee_os/lib/libmbedtls/mbedtls/library/bignum.c:1610
    5214:	e023cfc3 	eor	ip, r3, r3, asr #31
/home/rossierd/soo.tech/soo/optee_os/lib/libmbedtls/mbedtls/library/bignum.c:1605
    5218:	e24dd010 	sub	sp, sp, #16
/home/rossierd/soo.tech/soo/optee_os/lib/libmbedtls/mbedtls/library/bignum.c:1610
    521c:	e04ccfc3 	sub	ip, ip, r3, asr #31
/home/rossierd/soo.tech/soo/optee_os/lib/libmbedtls/mbedtls/library/bignum.c:1611
    5220:	b3e03000 	mvnlt	r3, #0
    5224:	a3a03001 	movge	r3, #1
/home/rossierd/soo.tech/soo/optee_os/lib/libmbedtls/mbedtls/library/bignum.c:1610
    5228:	e50bc01c 	str	ip, [fp, #-28]	; 0xffffffe4
/home/rossierd/soo.tech/soo/optee_os/lib/libmbedtls/mbedtls/library/bignum.c:1611
    522c:	e14b31b8 	strh	r3, [fp, #-24]	; 0xffffffe8
/home/rossierd/soo.tech/soo/optee_os/lib/libmbedtls/mbedtls/library/bignum.c:1612
    5230:	e3a03001 	mov	r3, #1
    5234:	e50b3014 	str	r3, [fp, #-20]	; 0xffffffec
/home/rossierd/soo.tech/soo/optee_os/lib/libmbedtls/mbedtls/library/bignum.c:1613
    5238:	e24b301c 	sub	r3, fp, #28
    523c:	e50b3010 	str	r3, [fp, #-16]
/home/rossierd/soo.tech/soo/optee_os/lib/libmbedtls/mbedtls/library/bignum.c:1615
    5240:	e24b3018 	sub	r3, fp, #24
    5244:	ebfffe86 	bl	4c64 <mbedtls_mpi_div_mpi>
/home/rossierd/soo.tech/soo/optee_os/lib/libmbedtls/mbedtls/library/bignum.c:1616
    5248:	e24bd00c 	sub	sp, fp, #12
    524c:	e89da800 	ldm	sp, {fp, sp, pc}

00005250 <mbedtls_mpi_mod_mpi>:
mbedtls_mpi_mod_mpi():
/home/rossierd/soo.tech/soo/optee_os/lib/libmbedtls/mbedtls/library/bignum.c:1622
    5250:	e1a0c00d 	mov	ip, sp
    5254:	e92dd8f0 	push	{r4, r5, r6, r7, fp, ip, lr, pc}
    5258:	e1a06001 	mov	r6, r1
    525c:	e24cb004 	sub	fp, ip, #4
    5260:	e1a04000 	mov	r4, r0
/home/rossierd/soo.tech/soo/optee_os/lib/libmbedtls/mbedtls/library/bignum.c:1628
    5264:	e3a01000 	mov	r1, #0
    5268:	e1a00002 	mov	r0, r2
/home/rossierd/soo.tech/soo/optee_os/lib/libmbedtls/mbedtls/library/bignum.c:1622
    526c:	e1a05002 	mov	r5, r2
/home/rossierd/soo.tech/soo/optee_os/lib/libmbedtls/mbedtls/library/bignum.c:1628
    5270:	ebfffc9e 	bl	44f0 <mbedtls_mpi_cmp_int>
    5274:	e3500000 	cmp	r0, #0
/home/rossierd/soo.tech/soo/optee_os/lib/libmbedtls/mbedtls/library/bignum.c:1629
    5278:	b3e06009 	mvnlt	r6, #9
/home/rossierd/soo.tech/soo/optee_os/lib/libmbedtls/mbedtls/library/bignum.c:1628
    527c:	ba000006 	blt	529c <mbedtls_mpi_mod_mpi+0x4c>
/home/rossierd/soo.tech/soo/optee_os/lib/libmbedtls/mbedtls/library/bignum.c:1631
    5280:	e1a02006 	mov	r2, r6
    5284:	e1a03005 	mov	r3, r5
    5288:	e1a01004 	mov	r1, r4
    528c:	e3a00000 	mov	r0, #0
    5290:	ebfffe73 	bl	4c64 <mbedtls_mpi_div_mpi>
    5294:	e2506000 	subs	r6, r0, #0
    5298:	0a000007 	beq	52bc <mbedtls_mpi_mod_mpi+0x6c>
/home/rossierd/soo.tech/soo/optee_os/lib/libmbedtls/mbedtls/library/bignum.c:1642
    529c:	e1a00006 	mov	r0, r6
    52a0:	e89da8f0 	ldm	sp, {r4, r5, r6, r7, fp, sp, pc}
/home/rossierd/soo.tech/soo/optee_os/lib/libmbedtls/mbedtls/library/bignum.c:1634
    52a4:	e1a02005 	mov	r2, r5
    52a8:	e1a01004 	mov	r1, r4
    52ac:	e1a00004 	mov	r0, r4
    52b0:	ebfffd28 	bl	4758 <mbedtls_mpi_add_mpi>
    52b4:	e3500000 	cmp	r0, #0
    52b8:	1a00000f 	bne	52fc <mbedtls_mpi_mod_mpi+0xac>
/home/rossierd/soo.tech/soo/optee_os/lib/libmbedtls/mbedtls/library/bignum.c:1633
    52bc:	e3a01000 	mov	r1, #0
    52c0:	e1a00004 	mov	r0, r4
    52c4:	ebfffc89 	bl	44f0 <mbedtls_mpi_cmp_int>
    52c8:	e3500000 	cmp	r0, #0
    52cc:	bafffff4 	blt	52a4 <mbedtls_mpi_mod_mpi+0x54>
/home/rossierd/soo.tech/soo/optee_os/lib/libmbedtls/mbedtls/library/bignum.c:1636
    52d0:	e1a01005 	mov	r1, r5
    52d4:	e1a00004 	mov	r0, r4
    52d8:	ebfffc41 	bl	43e4 <mbedtls_mpi_cmp_mpi>
    52dc:	e3500000 	cmp	r0, #0
    52e0:	baffffed 	blt	529c <mbedtls_mpi_mod_mpi+0x4c>
/home/rossierd/soo.tech/soo/optee_os/lib/libmbedtls/mbedtls/library/bignum.c:1637
    52e4:	e1a02005 	mov	r2, r5
    52e8:	e1a01004 	mov	r1, r4
    52ec:	e1a00004 	mov	r0, r4
    52f0:	ebfffd39 	bl	47dc <mbedtls_mpi_sub_mpi>
    52f4:	e3500000 	cmp	r0, #0
    52f8:	0afffff4 	beq	52d0 <mbedtls_mpi_mod_mpi+0x80>
    52fc:	e1a06000 	mov	r6, r0
    5300:	eaffffe5 	b	529c <mbedtls_mpi_mod_mpi+0x4c>

00005304 <mbedtls_mpi_mod_int>:
mbedtls_mpi_mod_int():
/home/rossierd/soo.tech/soo/optee_os/lib/libmbedtls/mbedtls/library/bignum.c:1648
    5304:	e1a0c00d 	mov	ip, sp
/home/rossierd/soo.tech/soo/optee_os/lib/libmbedtls/mbedtls/library/bignum.c:1654
    5308:	e3520000 	cmp	r2, #0
/home/rossierd/soo.tech/soo/optee_os/lib/libmbedtls/mbedtls/library/bignum.c:1648
    530c:	e92dd830 	push	{r4, r5, fp, ip, lr, pc}
    5310:	e24cb004 	sub	fp, ip, #4
/home/rossierd/soo.tech/soo/optee_os/lib/libmbedtls/mbedtls/library/bignum.c:1654
    5314:	0a000023 	beq	53a8 <mbedtls_mpi_mod_int+0xa4>
/home/rossierd/soo.tech/soo/optee_os/lib/libmbedtls/mbedtls/library/bignum.c:1657
    5318:	ba000024 	blt	53b0 <mbedtls_mpi_mod_int+0xac>
/home/rossierd/soo.tech/soo/optee_os/lib/libmbedtls/mbedtls/library/bignum.c:1663
    531c:	e3520001 	cmp	r2, #1
/home/rossierd/soo.tech/soo/optee_os/lib/libmbedtls/mbedtls/library/bignum.c:1665
    5320:	03a03000 	moveq	r3, #0
/home/rossierd/soo.tech/soo/optee_os/lib/libmbedtls/mbedtls/library/bignum.c:1663
    5324:	0a00000f 	beq	5368 <mbedtls_mpi_mod_int+0x64>
/home/rossierd/soo.tech/soo/optee_os/lib/libmbedtls/mbedtls/library/bignum.c:1669
    5328:	e3520002 	cmp	r2, #2
/home/rossierd/soo.tech/soo/optee_os/lib/libmbedtls/mbedtls/library/bignum.c:1671
    532c:	05913008 	ldreq	r3, [r1, #8]
    5330:	05933000 	ldreq	r3, [r3]
    5334:	02033001 	andeq	r3, r3, #1
/home/rossierd/soo.tech/soo/optee_os/lib/libmbedtls/mbedtls/library/bignum.c:1669
    5338:	0a00000a 	beq	5368 <mbedtls_mpi_mod_int+0x64>
/home/rossierd/soo.tech/soo/optee_os/lib/libmbedtls/mbedtls/library/bignum.c:1678
    533c:	e5915004 	ldr	r5, [r1, #4]
    5340:	e3a03000 	mov	r3, #0
    5344:	e2454107 	sub	r4, r5, #-1073741823	; 0xc0000001
    5348:	e1a04104 	lsl	r4, r4, #2
    534c:	e3550000 	cmp	r5, #0
    5350:	1a000007 	bne	5374 <mbedtls_mpi_mod_int+0x70>
/home/rossierd/soo.tech/soo/optee_os/lib/libmbedtls/mbedtls/library/bignum.c:1695
    5354:	e1d110f0 	ldrsh	r1, [r1]
    5358:	e3510000 	cmp	r1, #0
    535c:	aa000001 	bge	5368 <mbedtls_mpi_mod_int+0x64>
    5360:	e3530000 	cmp	r3, #0
/home/rossierd/soo.tech/soo/optee_os/lib/libmbedtls/mbedtls/library/bignum.c:1696
    5364:	10423003 	subne	r3, r2, r3
/home/rossierd/soo.tech/soo/optee_os/lib/libmbedtls/mbedtls/library/bignum.c:1698
    5368:	e5803000 	str	r3, [r0]
    536c:	e3a00000 	mov	r0, #0
    5370:	e89da830 	ldm	sp, {r4, r5, fp, sp, pc}
/home/rossierd/soo.tech/soo/optee_os/lib/libmbedtls/mbedtls/library/bignum.c:1680
    5374:	e591c008 	ldr	ip, [r1, #8]
/home/rossierd/soo.tech/soo/optee_os/lib/libmbedtls/mbedtls/library/bignum.c:1678
    5378:	e2455001 	sub	r5, r5, #1
/home/rossierd/soo.tech/soo/optee_os/lib/libmbedtls/mbedtls/library/bignum.c:1680
    537c:	e79ce004 	ldr	lr, [ip, r4]
    5380:	e2444004 	sub	r4, r4, #4
/home/rossierd/soo.tech/soo/optee_os/lib/libmbedtls/mbedtls/library/bignum.c:1681
    5384:	e1a0c82e 	lsr	ip, lr, #16
    5388:	e18c3803 	orr	r3, ip, r3, lsl #16
/home/rossierd/soo.tech/soo/optee_os/lib/libmbedtls/mbedtls/library/bignum.c:1686
    538c:	e73cf213 	udiv	ip, r3, r2
    5390:	e0633c92 	mls	r3, r2, ip, r3
    5394:	e6ffc07e 	uxth	ip, lr
    5398:	e18cc803 	orr	ip, ip, r3, lsl #16
    539c:	e733f21c 	udiv	r3, ip, r2
    53a0:	e063c392 	mls	r3, r2, r3, ip
    53a4:	eaffffe8 	b	534c <mbedtls_mpi_mod_int+0x48>
/home/rossierd/soo.tech/soo/optee_os/lib/libmbedtls/mbedtls/library/bignum.c:1655
    53a8:	e3e0000b 	mvn	r0, #11
    53ac:	e89da830 	ldm	sp, {r4, r5, fp, sp, pc}
/home/rossierd/soo.tech/soo/optee_os/lib/libmbedtls/mbedtls/library/bignum.c:1658
    53b0:	e3e00009 	mvn	r0, #9
/home/rossierd/soo.tech/soo/optee_os/lib/libmbedtls/mbedtls/library/bignum.c:1701
    53b4:	e89da830 	ldm	sp, {r4, r5, fp, sp, pc}

000053b8 <mpi_write_hlp>:
mpi_write_hlp():
/home/rossierd/soo.tech/soo/optee_os/lib/libmbedtls/mbedtls/library/bignum.c:580
    53b8:	e1a0c00d 	mov	ip, sp
/home/rossierd/soo.tech/soo/optee_os/lib/libmbedtls/mbedtls/library/bignum.c:584
    53bc:	e2413002 	sub	r3, r1, #2
    53c0:	e353000e 	cmp	r3, #14
/home/rossierd/soo.tech/soo/optee_os/lib/libmbedtls/mbedtls/library/bignum.c:580
    53c4:	e92dd8f0 	push	{r4, r5, r6, r7, fp, ip, lr, pc}
    53c8:	e24cb004 	sub	fp, ip, #4
    53cc:	e24dd008 	sub	sp, sp, #8
    53d0:	e1a05000 	mov	r5, r0
    53d4:	e1a07001 	mov	r7, r1
    53d8:	e1a06002 	mov	r6, r2
/home/rossierd/soo.tech/soo/optee_os/lib/libmbedtls/mbedtls/library/bignum.c:585
    53dc:	83e04003 	mvnhi	r4, #3
/home/rossierd/soo.tech/soo/optee_os/lib/libmbedtls/mbedtls/library/bignum.c:584
    53e0:	8a00001b 	bhi	5454 <mpi_write_hlp+0x9c>
/home/rossierd/soo.tech/soo/optee_os/lib/libmbedtls/mbedtls/library/bignum.c:587
    53e4:	e1a02001 	mov	r2, r1
    53e8:	e1a01000 	mov	r1, r0
    53ec:	e24b0020 	sub	r0, fp, #32
    53f0:	ebffffc3 	bl	5304 <mbedtls_mpi_mod_int>
    53f4:	e2504000 	subs	r4, r0, #0
    53f8:	1a000015 	bne	5454 <mpi_write_hlp+0x9c>
/home/rossierd/soo.tech/soo/optee_os/lib/libmbedtls/mbedtls/library/bignum.c:588
    53fc:	e1a01004 	mov	r1, r4
    5400:	e1a03007 	mov	r3, r7
    5404:	e1a02005 	mov	r2, r5
    5408:	e1a00005 	mov	r0, r5
    540c:	ebffff7c 	bl	5204 <mbedtls_mpi_div_int>
    5410:	e2504000 	subs	r4, r0, #0
    5414:	1a00000e 	bne	5454 <mpi_write_hlp+0x9c>
/home/rossierd/soo.tech/soo/optee_os/lib/libmbedtls/mbedtls/library/bignum.c:590
    5418:	e1a01004 	mov	r1, r4
    541c:	e1a00005 	mov	r0, r5
    5420:	ebfffc32 	bl	44f0 <mbedtls_mpi_cmp_int>
    5424:	e3500000 	cmp	r0, #0
    5428:	1a00000c 	bne	5460 <mpi_write_hlp+0xa8>
/home/rossierd/soo.tech/soo/optee_os/lib/libmbedtls/mbedtls/library/bignum.c:593
    542c:	e51b3020 	ldr	r3, [fp, #-32]	; 0xffffffe0
    5430:	e5962000 	ldr	r2, [r6]
    5434:	e3530009 	cmp	r3, #9
/home/rossierd/soo.tech/soo/optee_os/lib/libmbedtls/mbedtls/library/bignum.c:596
    5438:	82821001 	addhi	r1, r2, #1
    543c:	82833037 	addhi	r3, r3, #55	; 0x37
    5440:	85861000 	strhi	r1, [r6]
/home/rossierd/soo.tech/soo/optee_os/lib/libmbedtls/mbedtls/library/bignum.c:594
    5444:	92821001 	addls	r1, r2, #1
    5448:	92833030 	addls	r3, r3, #48	; 0x30
    544c:	95861000 	strls	r1, [r6]
/home/rossierd/soo.tech/soo/optee_os/lib/libmbedtls/mbedtls/library/bignum.c:596
    5450:	e5c23000 	strb	r3, [r2]
/home/rossierd/soo.tech/soo/optee_os/lib/libmbedtls/mbedtls/library/bignum.c:601
    5454:	e1a00004 	mov	r0, r4
    5458:	e24bd01c 	sub	sp, fp, #28
    545c:	e89da8f0 	ldm	sp, {r4, r5, r6, r7, fp, sp, pc}
/home/rossierd/soo.tech/soo/optee_os/lib/libmbedtls/mbedtls/library/bignum.c:591
    5460:	e1a02006 	mov	r2, r6
    5464:	e1a01007 	mov	r1, r7
    5468:	e1a00005 	mov	r0, r5
    546c:	ebffffd1 	bl	53b8 <mpi_write_hlp>
    5470:	e3500000 	cmp	r0, #0
    5474:	0affffec 	beq	542c <mpi_write_hlp+0x74>
    5478:	e1a04000 	mov	r4, r0
    547c:	eafffff4 	b	5454 <mpi_write_hlp+0x9c>

00005480 <mbedtls_mpi_write_string>:
mbedtls_mpi_write_string():
/home/rossierd/soo.tech/soo/optee_os/lib/libmbedtls/mbedtls/library/bignum.c:608
    5480:	e1a0c00d 	mov	ip, sp
    5484:	e92ddff0 	push	{r4, r5, r6, r7, r8, r9, sl, fp, ip, lr, pc}
    5488:	e24cb004 	sub	fp, ip, #4
    548c:	e24dd014 	sub	sp, sp, #20
    5490:	e1a08003 	mov	r8, r3
/home/rossierd/soo.tech/soo/optee_os/lib/libmbedtls/mbedtls/library/bignum.c:617
    5494:	e2413002 	sub	r3, r1, #2
/home/rossierd/soo.tech/soo/optee_os/lib/libmbedtls/mbedtls/library/bignum.c:608
    5498:	e1a04000 	mov	r4, r0
/home/rossierd/soo.tech/soo/optee_os/lib/libmbedtls/mbedtls/library/bignum.c:617
    549c:	e353000e 	cmp	r3, #14
/home/rossierd/soo.tech/soo/optee_os/lib/libmbedtls/mbedtls/library/bignum.c:608
    54a0:	e1a05001 	mov	r5, r1
    54a4:	e1a06002 	mov	r6, r2
    54a8:	e59b7004 	ldr	r7, [fp, #4]
/home/rossierd/soo.tech/soo/optee_os/lib/libmbedtls/mbedtls/library/bignum.c:618
    54ac:	83e04003 	mvnhi	r4, #3
/home/rossierd/soo.tech/soo/optee_os/lib/libmbedtls/mbedtls/library/bignum.c:617
    54b0:	8a00002d 	bhi	556c <mbedtls_mpi_write_string+0xec>
/home/rossierd/soo.tech/soo/optee_os/lib/libmbedtls/mbedtls/library/bignum.c:620
    54b4:	ebfffa9a 	bl	3f24 <mbedtls_mpi_bitlen>
/home/rossierd/soo.tech/soo/optee_os/lib/libmbedtls/mbedtls/library/bignum.c:621
    54b8:	e3550003 	cmp	r5, #3
    54bc:	da000002 	ble	54cc <mbedtls_mpi_write_string+0x4c>
/home/rossierd/soo.tech/soo/optee_os/lib/libmbedtls/mbedtls/library/bignum.c:622 (discriminator 1)
    54c0:	e3550010 	cmp	r5, #16
/home/rossierd/soo.tech/soo/optee_os/lib/libmbedtls/mbedtls/library/bignum.c:621 (discriminator 1)
    54c4:	11a000a0 	lsrne	r0, r0, #1
/home/rossierd/soo.tech/soo/optee_os/lib/libmbedtls/mbedtls/library/bignum.c:622 (discriminator 1)
    54c8:	01a00120 	lsreq	r0, r0, #2
/home/rossierd/soo.tech/soo/optee_os/lib/libmbedtls/mbedtls/library/bignum.c:628
    54cc:	e2802001 	add	r2, r0, #1
    54d0:	e2800003 	add	r0, r0, #3
    54d4:	e2022001 	and	r2, r2, #1
    54d8:	e0820000 	add	r0, r2, r0
/home/rossierd/soo.tech/soo/optee_os/lib/libmbedtls/mbedtls/library/bignum.c:630
    54dc:	e1500008 	cmp	r0, r8
/home/rossierd/soo.tech/soo/optee_os/lib/libmbedtls/mbedtls/library/bignum.c:633
    54e0:	83e04007 	mvnhi	r4, #7
/home/rossierd/soo.tech/soo/optee_os/lib/libmbedtls/mbedtls/library/bignum.c:632
    54e4:	85870000 	strhi	r0, [r7]
/home/rossierd/soo.tech/soo/optee_os/lib/libmbedtls/mbedtls/library/bignum.c:630
    54e8:	8a00001f 	bhi	556c <mbedtls_mpi_write_string+0xec>
/home/rossierd/soo.tech/soo/optee_os/lib/libmbedtls/mbedtls/library/bignum.c:637
    54ec:	e24b8038 	sub	r8, fp, #56	; 0x38
/home/rossierd/soo.tech/soo/optee_os/lib/libmbedtls/mbedtls/library/bignum.c:636
    54f0:	e50b603c 	str	r6, [fp, #-60]	; 0xffffffc4
/home/rossierd/soo.tech/soo/optee_os/lib/libmbedtls/mbedtls/library/bignum.c:637
    54f4:	e1a00008 	mov	r0, r8
    54f8:	ebfff8cf 	bl	383c <mbedtls_mpi_init_mempool>
/home/rossierd/soo.tech/soo/optee_os/lib/libmbedtls/mbedtls/library/bignum.c:639
    54fc:	e1d430f0 	ldrsh	r3, [r4]
    5500:	e3730001 	cmn	r3, #1
/home/rossierd/soo.tech/soo/optee_os/lib/libmbedtls/mbedtls/library/bignum.c:640
    5504:	051b303c 	ldreq	r3, [fp, #-60]	; 0xffffffc4
    5508:	02832001 	addeq	r2, r3, #1
    550c:	050b203c 	streq	r2, [fp, #-60]	; 0xffffffc4
    5510:	03a0202d 	moveq	r2, #45	; 0x2d
    5514:	05c32000 	strbeq	r2, [r3]
/home/rossierd/soo.tech/soo/optee_os/lib/libmbedtls/mbedtls/library/bignum.c:642
    5518:	e3550010 	cmp	r5, #16
    551c:	1a000036 	bne	55fc <mbedtls_mpi_write_string+0x17c>
/home/rossierd/soo.tech/soo/optee_os/lib/libmbedtls/mbedtls/library/bignum.c:647
    5520:	e5943004 	ldr	r3, [r4, #4]
    5524:	e3a02000 	mov	r2, #0
/home/rossierd/soo.tech/soo/optee_os/lib/libmbedtls/mbedtls/library/bignum.c:656
    5528:	e59f910c 	ldr	r9, [pc, #268]	; 563c <mbedtls_mpi_write_string+0x1bc>
    552c:	e283c004 	add	ip, r3, #4
    5530:	e2433107 	sub	r3, r3, #-1073741823	; 0xc0000001
    5534:	e1a03103 	lsl	r3, r3, #2
    5538:	e08f9009 	add	r9, pc, r9
/home/rossierd/soo.tech/soo/optee_os/lib/libmbedtls/mbedtls/library/bignum.c:647 (discriminator 1)
    553c:	e35c0004 	cmp	ip, #4
    5540:	1a00000c 	bne	5578 <mbedtls_mpi_write_string+0xf8>
/home/rossierd/soo.tech/soo/optee_os/lib/libmbedtls/mbedtls/library/bignum.c:672
    5544:	e51b303c 	ldr	r3, [fp, #-60]	; 0xffffffc4
    5548:	e3a04000 	mov	r4, #0
    554c:	e2832001 	add	r2, r3, #1
    5550:	e50b203c 	str	r2, [fp, #-60]	; 0xffffffc4
    5554:	e5c34000 	strb	r4, [r3]
/home/rossierd/soo.tech/soo/optee_os/lib/libmbedtls/mbedtls/library/bignum.c:673
    5558:	e51b303c 	ldr	r3, [fp, #-60]	; 0xffffffc4
    555c:	e0436006 	sub	r6, r3, r6
    5560:	e5876000 	str	r6, [r7]
/home/rossierd/soo.tech/soo/optee_os/lib/libmbedtls/mbedtls/library/bignum.c:677
    5564:	e1a00008 	mov	r0, r8
    5568:	ebfff8c6 	bl	3888 <mbedtls_mpi_free>
/home/rossierd/soo.tech/soo/optee_os/lib/libmbedtls/mbedtls/library/bignum.c:680
    556c:	e1a00004 	mov	r0, r4
    5570:	e24bd028 	sub	sp, fp, #40	; 0x28
    5574:	e89daff0 	ldm	sp, {r4, r5, r6, r7, r8, r9, sl, fp, sp, pc}
    5578:	e1a0500c 	mov	r5, ip
    557c:	e3a0e018 	mov	lr, #24
/home/rossierd/soo.tech/soo/optee_os/lib/libmbedtls/mbedtls/library/bignum.c:651
    5580:	e5941008 	ldr	r1, [r4, #8]
/home/rossierd/soo.tech/soo/optee_os/lib/libmbedtls/mbedtls/library/bignum.c:653
    5584:	e2222001 	eor	r2, r2, #1
/home/rossierd/soo.tech/soo/optee_os/lib/libmbedtls/mbedtls/library/bignum.c:651
    5588:	e7910003 	ldr	r0, [r1, r3]
    558c:	e1a00e30 	lsr	r0, r0, lr
/home/rossierd/soo.tech/soo/optee_os/lib/libmbedtls/mbedtls/library/bignum.c:653
    5590:	e210a0ff 	ands	sl, r0, #255	; 0xff
    5594:	13a01000 	movne	r1, #0
    5598:	02021001 	andeq	r1, r2, #1
    559c:	e3510000 	cmp	r1, #0
    55a0:	0a000002 	beq	55b0 <mbedtls_mpi_write_string+0x130>
/home/rossierd/soo.tech/soo/optee_os/lib/libmbedtls/mbedtls/library/bignum.c:653 (discriminator 1)
    55a4:	e3550002 	cmp	r5, #2
    55a8:	13a02000 	movne	r2, #0
    55ac:	1a00000b 	bne	55e0 <mbedtls_mpi_write_string+0x160>
/home/rossierd/soo.tech/soo/optee_os/lib/libmbedtls/mbedtls/library/bignum.c:656
    55b0:	e51b203c 	ldr	r2, [fp, #-60]	; 0xffffffc4
    55b4:	e2821001 	add	r1, r2, #1
    55b8:	e50b103c 	str	r1, [fp, #-60]	; 0xffffffc4
    55bc:	e7d9124a 	ldrb	r1, [r9, sl, asr #4]
    55c0:	e5c21000 	strb	r1, [r2]
/home/rossierd/soo.tech/soo/optee_os/lib/libmbedtls/mbedtls/library/bignum.c:657
    55c4:	e51b103c 	ldr	r1, [fp, #-60]	; 0xffffffc4
    55c8:	e2812001 	add	r2, r1, #1
    55cc:	e50b203c 	str	r2, [fp, #-60]	; 0xffffffc4
    55d0:	e200200f 	and	r2, r0, #15
    55d4:	e7d92002 	ldrb	r2, [r9, r2]
    55d8:	e5c12000 	strb	r2, [r1]
/home/rossierd/soo.tech/soo/optee_os/lib/libmbedtls/mbedtls/library/bignum.c:658
    55dc:	e3a02001 	mov	r2, #1
    55e0:	e24ee008 	sub	lr, lr, #8
    55e4:	e2455001 	sub	r5, r5, #1
/home/rossierd/soo.tech/soo/optee_os/lib/libmbedtls/mbedtls/library/bignum.c:649 (discriminator 1)
    55e8:	e37e0008 	cmn	lr, #8
    55ec:	1affffe3 	bne	5580 <mbedtls_mpi_write_string+0x100>
    55f0:	e24cc001 	sub	ip, ip, #1
    55f4:	e2433004 	sub	r3, r3, #4
    55f8:	eaffffcf 	b	553c <mbedtls_mpi_write_string+0xbc>
/home/rossierd/soo.tech/soo/optee_os/lib/libmbedtls/mbedtls/library/bignum.c:664
    55fc:	e1a01004 	mov	r1, r4
    5600:	e1a00008 	mov	r0, r8
    5604:	ebfff94c 	bl	3b3c <mbedtls_mpi_copy>
    5608:	e2504000 	subs	r4, r0, #0
    560c:	1affffd4 	bne	5564 <mbedtls_mpi_write_string+0xe4>
/home/rossierd/soo.tech/soo/optee_os/lib/libmbedtls/mbedtls/library/bignum.c:666
    5610:	e15b33f8 	ldrsh	r3, [fp, #-56]	; 0xffffffc8
/home/rossierd/soo.tech/soo/optee_os/lib/libmbedtls/mbedtls/library/bignum.c:669
    5614:	e24b203c 	sub	r2, fp, #60	; 0x3c
    5618:	e1a01005 	mov	r1, r5
    561c:	e1a00008 	mov	r0, r8
/home/rossierd/soo.tech/soo/optee_os/lib/libmbedtls/mbedtls/library/bignum.c:666
    5620:	e3730001 	cmn	r3, #1
/home/rossierd/soo.tech/soo/optee_os/lib/libmbedtls/mbedtls/library/bignum.c:667
    5624:	03a03001 	moveq	r3, #1
    5628:	014b33b8 	strheq	r3, [fp, #-56]	; 0xffffffc8
/home/rossierd/soo.tech/soo/optee_os/lib/libmbedtls/mbedtls/library/bignum.c:669
    562c:	ebffff61 	bl	53b8 <mpi_write_hlp>
    5630:	e2504000 	subs	r4, r0, #0
    5634:	0affffc2 	beq	5544 <mbedtls_mpi_write_string+0xc4>
    5638:	eaffffc9 	b	5564 <mbedtls_mpi_write_string+0xe4>
    563c:	0000427e 	.word	0x0000427e

00005640 <mpi_check_small_factors>:
mpi_check_small_factors():
/home/rossierd/soo.tech/soo/optee_os/lib/libmbedtls/mbedtls/library/bignum.c:2228
    5640:	e1a0c00d 	mov	ip, sp
    5644:	e92dd8f0 	push	{r4, r5, r6, r7, fp, ip, lr, pc}
    5648:	e24cb004 	sub	fp, ip, #4
    564c:	e24dd008 	sub	sp, sp, #8
    5650:	e1a06000 	mov	r6, r0
/home/rossierd/soo.tech/soo/optee_os/lib/libmbedtls/mbedtls/library/bignum.c:2233
    5654:	e5903008 	ldr	r3, [r0, #8]
    5658:	e5933000 	ldr	r3, [r3]
    565c:	e3130001 	tst	r3, #1
    5660:	0a000015 	beq	56bc <mpi_check_small_factors+0x7c>
    5664:	e59f4064 	ldr	r4, [pc, #100]	; 56d0 <mpi_check_small_factors+0x90>
/home/rossierd/soo.tech/soo/optee_os/lib/libmbedtls/mbedtls/library/bignum.c:2241
    5668:	e24b7020 	sub	r7, fp, #32
    566c:	e08f4004 	add	r4, pc, r4
    5670:	e2444004 	sub	r4, r4, #4
/home/rossierd/soo.tech/soo/optee_os/lib/libmbedtls/mbedtls/library/bignum.c:2236 (discriminator 1)
    5674:	e5b45004 	ldr	r5, [r4, #4]!
    5678:	e3550000 	cmp	r5, #0
    567c:	d3a00000 	movle	r0, #0
    5680:	da00000e 	ble	56c0 <mpi_check_small_factors+0x80>
/home/rossierd/soo.tech/soo/optee_os/lib/libmbedtls/mbedtls/library/bignum.c:2238
    5684:	e1a01005 	mov	r1, r5
    5688:	e1a00006 	mov	r0, r6
    568c:	ebfffb97 	bl	44f0 <mbedtls_mpi_cmp_int>
    5690:	e3500000 	cmp	r0, #0
    5694:	da00000b 	ble	56c8 <mpi_check_small_factors+0x88>
/home/rossierd/soo.tech/soo/optee_os/lib/libmbedtls/mbedtls/library/bignum.c:2241
    5698:	e1a02005 	mov	r2, r5
    569c:	e1a01006 	mov	r1, r6
    56a0:	e1a00007 	mov	r0, r7
    56a4:	ebffff16 	bl	5304 <mbedtls_mpi_mod_int>
    56a8:	e3500000 	cmp	r0, #0
    56ac:	1a000003 	bne	56c0 <mpi_check_small_factors+0x80>
/home/rossierd/soo.tech/soo/optee_os/lib/libmbedtls/mbedtls/library/bignum.c:2243
    56b0:	e51b3020 	ldr	r3, [fp, #-32]	; 0xffffffe0
    56b4:	e3530000 	cmp	r3, #0
    56b8:	1affffed 	bne	5674 <mpi_check_small_factors+0x34>
/home/rossierd/soo.tech/soo/optee_os/lib/libmbedtls/mbedtls/library/bignum.c:2234
    56bc:	e3e0000d 	mvn	r0, #13
/home/rossierd/soo.tech/soo/optee_os/lib/libmbedtls/mbedtls/library/bignum.c:2249
    56c0:	e24bd01c 	sub	sp, fp, #28
    56c4:	e89da8f0 	ldm	sp, {r4, r5, r6, r7, fp, sp, pc}
/home/rossierd/soo.tech/soo/optee_os/lib/libmbedtls/mbedtls/library/bignum.c:2239
    56c8:	e3a00001 	mov	r0, #1
    56cc:	eafffffb 	b	56c0 <mpi_check_small_factors+0x80>
    56d0:	00003b24 	.word	0x00003b24

000056d4 <mbedtls_mpi_montg_init>:
mbedtls_mpi_montg_init():
/home/rossierd/soo.tech/soo/optee_os/lib/libmbedtls/mbedtls/library/bignum.c:1708
    56d4:	e5913008 	ldr	r3, [r1, #8]
/home/rossierd/soo.tech/soo/optee_os/lib/libmbedtls/mbedtls/library/bignum.c:1707
    56d8:	e1a0c00d 	mov	ip, sp
/home/rossierd/soo.tech/soo/optee_os/lib/libmbedtls/mbedtls/library/bignum.c:1712
    56dc:	e3a02003 	mov	r2, #3
/home/rossierd/soo.tech/soo/optee_os/lib/libmbedtls/mbedtls/library/bignum.c:1707
    56e0:	e92dd800 	push	{fp, ip, lr, pc}
    56e4:	e24cb004 	sub	fp, ip, #4
/home/rossierd/soo.tech/soo/optee_os/lib/libmbedtls/mbedtls/library/bignum.c:1708
    56e8:	e593c000 	ldr	ip, [r3]
/home/rossierd/soo.tech/soo/optee_os/lib/libmbedtls/mbedtls/library/bignum.c:1712
    56ec:	e28c3002 	add	r3, ip, #2
    56f0:	e1a03083 	lsl	r3, r3, #1
    56f4:	e2033008 	and	r3, r3, #8
    56f8:	e083300c 	add	r3, r3, ip
/home/rossierd/soo.tech/soo/optee_os/lib/libmbedtls/mbedtls/library/bignum.c:1715 (discriminator 3)
    56fc:	e0010c93 	mul	r1, r3, ip
/home/rossierd/soo.tech/soo/optee_os/lib/libmbedtls/mbedtls/library/bignum.c:1714 (discriminator 3)
    5700:	e2522001 	subs	r2, r2, #1
/home/rossierd/soo.tech/soo/optee_os/lib/libmbedtls/mbedtls/library/bignum.c:1715 (discriminator 3)
    5704:	e2611002 	rsb	r1, r1, #2
    5708:	e0030391 	mul	r3, r1, r3
/home/rossierd/soo.tech/soo/optee_os/lib/libmbedtls/mbedtls/library/bignum.c:1714 (discriminator 3)
    570c:	1afffffa 	bne	56fc <mbedtls_mpi_montg_init+0x28>
/home/rossierd/soo.tech/soo/optee_os/lib/libmbedtls/mbedtls/library/bignum.c:1717
    5710:	e2633000 	rsb	r3, r3, #0
    5714:	e5803000 	str	r3, [r0]
    5718:	e89da800 	ldm	sp, {fp, sp, pc}

0000571c <mbedtls_mpi_montmul>:
mbedtls_mpi_montmul():
/home/rossierd/soo.tech/soo/optee_os/lib/libmbedtls/mbedtls/library/bignum.c:1726
    571c:	e1a0c00d 	mov	ip, sp
    5720:	e92ddff0 	push	{r4, r5, r6, r7, r8, r9, sl, fp, ip, lr, pc}
    5724:	e24cb004 	sub	fp, ip, #4
    5728:	e24dd01c 	sub	sp, sp, #28
    572c:	e1a06002 	mov	r6, r2
    5730:	e1a09000 	mov	r9, r0
    5734:	e1a0a001 	mov	sl, r1
    5738:	e50b3040 	str	r3, [fp, #-64]	; 0xffffffc0
/home/rossierd/soo.tech/soo/optee_os/lib/libmbedtls/mbedtls/library/bignum.c:1730
    573c:	e59b3004 	ldr	r3, [fp, #4]
    5740:	e5932004 	ldr	r2, [r3, #4]
    5744:	e5963004 	ldr	r3, [r6, #4]
    5748:	e2833001 	add	r3, r3, #1
    574c:	e1520003 	cmp	r2, r3
    5750:	3a000043 	bcc	5864 <mbedtls_mpi_montmul+0x148>
/home/rossierd/soo.tech/soo/optee_os/lib/libmbedtls/mbedtls/library/bignum.c:1730 (discriminator 1)
    5754:	e59b3004 	ldr	r3, [fp, #4]
    5758:	e5930008 	ldr	r0, [r3, #8]
    575c:	e3500000 	cmp	r0, #0
    5760:	0a00003f 	beq	5864 <mbedtls_mpi_montmul+0x148>
/home/rossierd/soo.tech/soo/optee_os/lib/libmbedtls/mbedtls/library/bignum.c:1733
    5764:	e1a02102 	lsl	r2, r2, #2
    5768:	e3a01000 	mov	r1, #0
/home/rossierd/soo.tech/soo/optee_os/lib/libmbedtls/mbedtls/library/bignum.c:1739
    576c:	e3a04000 	mov	r4, #0
/home/rossierd/soo.tech/soo/optee_os/lib/libmbedtls/mbedtls/library/bignum.c:1733
    5770:	eb0009d5 	bl	7ecc <memset>
/home/rossierd/soo.tech/soo/optee_os/lib/libmbedtls/mbedtls/library/bignum.c:1735
    5774:	e59b3004 	ldr	r3, [fp, #4]
/home/rossierd/soo.tech/soo/optee_os/lib/libmbedtls/mbedtls/library/bignum.c:1736
    5778:	e5967004 	ldr	r7, [r6, #4]
/home/rossierd/soo.tech/soo/optee_os/lib/libmbedtls/mbedtls/library/bignum.c:1735
    577c:	e5933008 	ldr	r3, [r3, #8]
    5780:	e50b3038 	str	r3, [fp, #-56]	; 0xffffffc8
/home/rossierd/soo.tech/soo/optee_os/lib/libmbedtls/mbedtls/library/bignum.c:1737
    5784:	e59a3004 	ldr	r3, [sl, #4]
/home/rossierd/soo.tech/soo/optee_os/lib/libmbedtls/mbedtls/library/bignum.c:1735
    5788:	e51b5038 	ldr	r5, [fp, #-56]	; 0xffffffc8
/home/rossierd/soo.tech/soo/optee_os/lib/libmbedtls/mbedtls/library/bignum.c:1737
    578c:	e1570003 	cmp	r7, r3
    5790:	31a03007 	movcc	r3, r7
    5794:	e50b303c 	str	r3, [fp, #-60]	; 0xffffffc4
/home/rossierd/soo.tech/soo/optee_os/lib/libmbedtls/mbedtls/library/bignum.c:1750
    5798:	e2873001 	add	r3, r7, #1
    579c:	e1a03103 	lsl	r3, r3, #2
    57a0:	e50b3034 	str	r3, [fp, #-52]	; 0xffffffcc
/home/rossierd/soo.tech/soo/optee_os/lib/libmbedtls/mbedtls/library/bignum.c:1739 (discriminator 1)
    57a4:	e1540007 	cmp	r4, r7
    57a8:	e5990008 	ldr	r0, [r9, #8]
    57ac:	1a000013 	bne	5800 <mbedtls_mpi_montmul+0xe4>
/home/rossierd/soo.tech/soo/optee_os/lib/libmbedtls/mbedtls/library/bignum.c:1753
    57b0:	e51b3034 	ldr	r3, [fp, #-52]	; 0xffffffcc
    57b4:	e1a02003 	mov	r2, r3
    57b8:	e2431004 	sub	r1, r3, #4
    57bc:	e51b3038 	ldr	r3, [fp, #-56]	; 0xffffffc8
    57c0:	e0831001 	add	r1, r3, r1
    57c4:	eb00099e 	bl	7e44 <memcpy>
/home/rossierd/soo.tech/soo/optee_os/lib/libmbedtls/mbedtls/library/bignum.c:1755
    57c8:	e1a01006 	mov	r1, r6
    57cc:	e1a00009 	mov	r0, r9
    57d0:	ebffface 	bl	4310 <mbedtls_mpi_cmp_abs>
    57d4:	e3500000 	cmp	r0, #0
/home/rossierd/soo.tech/soo/optee_os/lib/libmbedtls/mbedtls/library/bignum.c:1759
    57d8:	e1a00004 	mov	r0, r4
    57dc:	b59b3004 	ldrlt	r3, [fp, #4]
/home/rossierd/soo.tech/soo/optee_os/lib/libmbedtls/mbedtls/library/bignum.c:1756
    57e0:	a5961008 	ldrge	r1, [r6, #8]
    57e4:	a5992008 	ldrge	r2, [r9, #8]
/home/rossierd/soo.tech/soo/optee_os/lib/libmbedtls/mbedtls/library/bignum.c:1759
    57e8:	b5991008 	ldrlt	r1, [r9, #8]
    57ec:	b5932008 	ldrlt	r2, [r3, #8]
    57f0:	ebfff694 	bl	3248 <mpi_sub_hlp>
/home/rossierd/soo.tech/soo/optee_os/lib/libmbedtls/mbedtls/library/bignum.c:1761
    57f4:	e3a00000 	mov	r0, #0
/home/rossierd/soo.tech/soo/optee_os/lib/libmbedtls/mbedtls/library/bignum.c:1762
    57f8:	e24bd028 	sub	sp, fp, #40	; 0x28
    57fc:	e89daff0 	ldm	sp, {r4, r5, r6, r7, r8, r9, sl, fp, sp, pc}
/home/rossierd/soo.tech/soo/optee_os/lib/libmbedtls/mbedtls/library/bignum.c:1744 (discriminator 3)
    5800:	e7903104 	ldr	r3, [r0, r4, lsl #2]
/home/rossierd/soo.tech/soo/optee_os/lib/libmbedtls/mbedtls/library/bignum.c:1739 (discriminator 3)
    5804:	e2844001 	add	r4, r4, #1
/home/rossierd/soo.tech/soo/optee_os/lib/libmbedtls/mbedtls/library/bignum.c:1745 (discriminator 3)
    5808:	e59a1008 	ldr	r1, [sl, #8]
/home/rossierd/soo.tech/soo/optee_os/lib/libmbedtls/mbedtls/library/bignum.c:1747 (discriminator 3)
    580c:	e51b003c 	ldr	r0, [fp, #-60]	; 0xffffffc4
/home/rossierd/soo.tech/soo/optee_os/lib/libmbedtls/mbedtls/library/bignum.c:1744 (discriminator 3)
    5810:	e50b3030 	str	r3, [fp, #-48]	; 0xffffffd0
/home/rossierd/soo.tech/soo/optee_os/lib/libmbedtls/mbedtls/library/bignum.c:1745 (discriminator 3)
    5814:	e5953000 	ldr	r3, [r5]
    5818:	e51b2030 	ldr	r2, [fp, #-48]	; 0xffffffd0
    581c:	e5918000 	ldr	r8, [r1]
    5820:	e0283298 	mla	r8, r8, r2, r3
    5824:	e51b3040 	ldr	r3, [fp, #-64]	; 0xffffffc0
    5828:	e0080893 	mul	r8, r3, r8
/home/rossierd/soo.tech/soo/optee_os/lib/libmbedtls/mbedtls/library/bignum.c:1747 (discriminator 3)
    582c:	e1a03002 	mov	r3, r2
    5830:	e1a02005 	mov	r2, r5
    5834:	ebfff6a4 	bl	32cc <mpi_mul_hlp>
/home/rossierd/soo.tech/soo/optee_os/lib/libmbedtls/mbedtls/library/bignum.c:1748 (discriminator 3)
    5838:	e1a02005 	mov	r2, r5
    583c:	e1a00007 	mov	r0, r7
    5840:	e5961008 	ldr	r1, [r6, #8]
    5844:	e1a03008 	mov	r3, r8
    5848:	ebfff69f 	bl	32cc <mpi_mul_hlp>
/home/rossierd/soo.tech/soo/optee_os/lib/libmbedtls/mbedtls/library/bignum.c:1750 (discriminator 3)
    584c:	e51b3030 	ldr	r3, [fp, #-48]	; 0xffffffd0
    5850:	e3a02000 	mov	r2, #0
    5854:	e4853004 	str	r3, [r5], #4
    5858:	e51b3034 	ldr	r3, [fp, #-52]	; 0xffffffcc
    585c:	e7852003 	str	r2, [r5, r3]
    5860:	eaffffcf 	b	57a4 <mbedtls_mpi_montmul+0x88>
/home/rossierd/soo.tech/soo/optee_os/lib/libmbedtls/mbedtls/library/bignum.c:1731
    5864:	e3e00003 	mvn	r0, #3
    5868:	eaffffe2 	b	57f8 <mbedtls_mpi_montmul+0xdc>

0000586c <mbedtls_mpi_montred>:
mbedtls_mpi_montred():
/home/rossierd/soo.tech/soo/optee_os/lib/libmbedtls/mbedtls/library/bignum.c:1769
    586c:	e1a0c00d 	mov	ip, sp
    5870:	e92dd800 	push	{fp, ip, lr, pc}
    5874:	e24cb004 	sub	fp, ip, #4
    5878:	e24dd018 	sub	sp, sp, #24
/home/rossierd/soo.tech/soo/optee_os/lib/libmbedtls/mbedtls/library/bignum.c:1770
    587c:	e3a0c001 	mov	ip, #1
    5880:	e50bc01c 	str	ip, [fp, #-28]	; 0xffffffe4
/home/rossierd/soo.tech/soo/optee_os/lib/libmbedtls/mbedtls/library/bignum.c:1773
    5884:	e14bc1b8 	strh	ip, [fp, #-24]	; 0xffffffe8
    5888:	e50bc014 	str	ip, [fp, #-20]	; 0xffffffec
/home/rossierd/soo.tech/soo/optee_os/lib/libmbedtls/mbedtls/library/bignum.c:1774
    588c:	e24bc01c 	sub	ip, fp, #28
/home/rossierd/soo.tech/soo/optee_os/lib/libmbedtls/mbedtls/library/bignum.c:1776
    5890:	e58d3000 	str	r3, [sp]
    5894:	e1a03002 	mov	r3, r2
    5898:	e1a02001 	mov	r2, r1
    589c:	e24b1018 	sub	r1, fp, #24
/home/rossierd/soo.tech/soo/optee_os/lib/libmbedtls/mbedtls/library/bignum.c:1774
    58a0:	e50bc010 	str	ip, [fp, #-16]
/home/rossierd/soo.tech/soo/optee_os/lib/libmbedtls/mbedtls/library/bignum.c:1776
    58a4:	ebffff9c 	bl	571c <mbedtls_mpi_montmul>
/home/rossierd/soo.tech/soo/optee_os/lib/libmbedtls/mbedtls/library/bignum.c:1777
    58a8:	e24bd00c 	sub	sp, fp, #12
    58ac:	e89da800 	ldm	sp, {fp, sp, pc}

000058b0 <mbedtls_mpi_exp_mod>:
mbedtls_mpi_exp_mod():
/home/rossierd/soo.tech/soo/optee_os/lib/libmbedtls/mbedtls/library/bignum.c:1785
    58b0:	e1a0c00d 	mov	ip, sp
    58b4:	e92ddff0 	push	{r4, r5, r6, r7, r8, r9, sl, fp, ip, lr, pc}
    58b8:	e24cb004 	sub	fp, ip, #4
    58bc:	e24dd054 	sub	sp, sp, #84	; 0x54
    58c0:	e1a06001 	mov	r6, r1
    58c4:	e59fa628 	ldr	sl, [pc, #1576]	; 5ef4 <mbedtls_mpi_exp_mod+0x644>
/home/rossierd/soo.tech/soo/optee_os/lib/libmbedtls/mbedtls/library/bignum.c:1801
    58c8:	e3a01000 	mov	r1, #0
/home/rossierd/soo.tech/soo/optee_os/lib/libmbedtls/mbedtls/library/bignum.c:1785
    58cc:	e1a04003 	mov	r4, r3
    58d0:	e50b2060 	str	r2, [fp, #-96]	; 0xffffffa0
    58d4:	e50b0058 	str	r0, [fp, #-88]	; 0xffffffa8
/home/rossierd/soo.tech/soo/optee_os/lib/libmbedtls/mbedtls/library/bignum.c:1801
    58d8:	e1a00003 	mov	r0, r3
/home/rossierd/soo.tech/soo/optee_os/lib/libmbedtls/mbedtls/library/bignum.c:1785
    58dc:	e08fa00a 	add	sl, pc, sl
/home/rossierd/soo.tech/soo/optee_os/lib/libmbedtls/mbedtls/library/bignum.c:1801
    58e0:	ebfffb02 	bl	44f0 <mbedtls_mpi_cmp_int>
    58e4:	e3500000 	cmp	r0, #0
    58e8:	ca000003 	bgt	58fc <mbedtls_mpi_exp_mod+0x4c>
/home/rossierd/soo.tech/soo/optee_os/lib/libmbedtls/mbedtls/library/bignum.c:1802
    58ec:	e3e03003 	mvn	r3, #3
/home/rossierd/soo.tech/soo/optee_os/lib/libmbedtls/mbedtls/library/bignum.c:2005
    58f0:	e1a00003 	mov	r0, r3
    58f4:	e24bd028 	sub	sp, fp, #40	; 0x28
    58f8:	e89daff0 	ldm	sp, {r4, r5, r6, r7, r8, r9, sl, fp, sp, pc}
/home/rossierd/soo.tech/soo/optee_os/lib/libmbedtls/mbedtls/library/bignum.c:1801 (discriminator 1)
    58fc:	e5943008 	ldr	r3, [r4, #8]
    5900:	e5933000 	ldr	r3, [r3]
    5904:	e3130001 	tst	r3, #1
    5908:	0afffff7 	beq	58ec <mbedtls_mpi_exp_mod+0x3c>
/home/rossierd/soo.tech/soo/optee_os/lib/libmbedtls/mbedtls/library/bignum.c:1804
    590c:	e3a01000 	mov	r1, #0
    5910:	e51b0060 	ldr	r0, [fp, #-96]	; 0xffffffa0
    5914:	ebfffaf5 	bl	44f0 <mbedtls_mpi_cmp_int>
    5918:	e3500000 	cmp	r0, #0
    591c:	bafffff2 	blt	58ec <mbedtls_mpi_exp_mod+0x3c>
/home/rossierd/soo.tech/soo/optee_os/lib/libmbedtls/mbedtls/library/bignum.c:1810
    5920:	e1a01004 	mov	r1, r4
    5924:	e24b0054 	sub	r0, fp, #84	; 0x54
/home/rossierd/soo.tech/soo/optee_os/lib/libmbedtls/mbedtls/library/bignum.c:1811
    5928:	e24b5050 	sub	r5, fp, #80	; 0x50
    592c:	e24b9044 	sub	r9, fp, #68	; 0x44
/home/rossierd/soo.tech/soo/optee_os/lib/libmbedtls/mbedtls/library/bignum.c:1810
    5930:	ebffff67 	bl	56d4 <mbedtls_mpi_montg_init>
/home/rossierd/soo.tech/soo/optee_os/lib/libmbedtls/mbedtls/library/bignum.c:1811
    5934:	e1a00005 	mov	r0, r5
/home/rossierd/soo.tech/soo/optee_os/lib/libmbedtls/mbedtls/library/bignum.c:1812
    5938:	e24b8038 	sub	r8, fp, #56	; 0x38
/home/rossierd/soo.tech/soo/optee_os/lib/libmbedtls/mbedtls/library/bignum.c:1811
    593c:	ebfff7be 	bl	383c <mbedtls_mpi_init_mempool>
    5940:	e1a00009 	mov	r0, r9
    5944:	ebfff7bc 	bl	383c <mbedtls_mpi_init_mempool>
/home/rossierd/soo.tech/soo/optee_os/lib/libmbedtls/mbedtls/library/bignum.c:1812
    5948:	e1a00008 	mov	r0, r8
    594c:	ebfff7ba 	bl	383c <mbedtls_mpi_init_mempool>
/home/rossierd/soo.tech/soo/optee_os/lib/libmbedtls/mbedtls/library/bignum.c:1814
    5950:	e51b0060 	ldr	r0, [fp, #-96]	; 0xffffffa0
    5954:	ebfff972 	bl	3f24 <mbedtls_mpi_bitlen>
/home/rossierd/soo.tech/soo/optee_os/lib/libmbedtls/mbedtls/library/bignum.c:1816
    5958:	e3500e2a 	cmp	r0, #672	; 0x2a0
    595c:	23a03006 	movcs	r3, #6
    5960:	2a000008 	bcs	5988 <mbedtls_mpi_exp_mod+0xd8>
/home/rossierd/soo.tech/soo/optee_os/lib/libmbedtls/mbedtls/library/bignum.c:1816 (discriminator 1)
    5964:	e35000ef 	cmp	r0, #239	; 0xef
    5968:	83a03005 	movhi	r3, #5
    596c:	8a000005 	bhi	5988 <mbedtls_mpi_exp_mod+0xd8>
/home/rossierd/soo.tech/soo/optee_os/lib/libmbedtls/mbedtls/library/bignum.c:1816 (discriminator 3)
    5970:	e350004f 	cmp	r0, #79	; 0x4f
    5974:	83a03004 	movhi	r3, #4
    5978:	8a000002 	bhi	5988 <mbedtls_mpi_exp_mod+0xd8>
/home/rossierd/soo.tech/soo/optee_os/lib/libmbedtls/mbedtls/library/bignum.c:1816 (discriminator 5)
    597c:	e3500017 	cmp	r0, #23
    5980:	83a03003 	movhi	r3, #3
    5984:	93a03001 	movls	r3, #1
/home/rossierd/soo.tech/soo/optee_os/lib/libmbedtls/mbedtls/library/bignum.c:1822
    5988:	e5947004 	ldr	r7, [r4, #4]
/home/rossierd/soo.tech/soo/optee_os/lib/libmbedtls/mbedtls/library/bignum.c:1816
    598c:	e50b305c 	str	r3, [fp, #-92]	; 0xffffffa4
/home/rossierd/soo.tech/soo/optee_os/lib/libmbedtls/mbedtls/library/bignum.c:1823
    5990:	e51b0058 	ldr	r0, [fp, #-88]	; 0xffffffa8
/home/rossierd/soo.tech/soo/optee_os/lib/libmbedtls/mbedtls/library/bignum.c:1822
    5994:	e2877001 	add	r7, r7, #1
/home/rossierd/soo.tech/soo/optee_os/lib/libmbedtls/mbedtls/library/bignum.c:1823
    5998:	e1a01007 	mov	r1, r7
    599c:	ebfff7d9 	bl	3908 <mbedtls_mpi_grow>
    59a0:	e59f2550 	ldr	r2, [pc, #1360]	; 5ef8 <mbedtls_mpi_exp_mod+0x648>
    59a4:	e2503000 	subs	r3, r0, #0
    59a8:	e79a2002 	ldr	r2, [sl, r2]
    59ac:	e50b2074 	str	r2, [fp, #-116]	; 0xffffff8c
    59b0:	1a00014d 	bne	5eec <mbedtls_mpi_exp_mod+0x63c>
/home/rossierd/soo.tech/soo/optee_os/lib/libmbedtls/mbedtls/library/bignum.c:1825
    59b4:	e1a01087 	lsl	r1, r7, #1
    59b8:	e1a00009 	mov	r0, r9
    59bc:	ebfff7d1 	bl	3908 <mbedtls_mpi_grow>
    59c0:	e2503000 	subs	r3, r0, #0
    59c4:	1a000148 	bne	5eec <mbedtls_mpi_exp_mod+0x63c>
/home/rossierd/soo.tech/soo/optee_os/lib/libmbedtls/mbedtls/library/bignum.c:1830
    59c8:	e1d630f0 	ldrsh	r3, [r6]
/home/rossierd/soo.tech/soo/optee_os/lib/libmbedtls/mbedtls/library/bignum.c:1831
    59cc:	e3730001 	cmn	r3, #1
/home/rossierd/soo.tech/soo/optee_os/lib/libmbedtls/mbedtls/library/bignum.c:1830
    59d0:	e50b306c 	str	r3, [fp, #-108]	; 0xffffff94
/home/rossierd/soo.tech/soo/optee_os/lib/libmbedtls/mbedtls/library/bignum.c:1831
    59d4:	1a000007 	bne	59f8 <mbedtls_mpi_exp_mod+0x148>
/home/rossierd/soo.tech/soo/optee_os/lib/libmbedtls/mbedtls/library/bignum.c:1833
    59d8:	e1a01006 	mov	r1, r6
    59dc:	e1a00008 	mov	r0, r8
    59e0:	ebfff855 	bl	3b3c <mbedtls_mpi_copy>
    59e4:	e2503000 	subs	r3, r0, #0
    59e8:	1a00013f 	bne	5eec <mbedtls_mpi_exp_mod+0x63c>
/home/rossierd/soo.tech/soo/optee_os/lib/libmbedtls/mbedtls/library/bignum.c:1834
    59ec:	e3a03001 	mov	r3, #1
/home/rossierd/soo.tech/soo/optee_os/lib/libmbedtls/mbedtls/library/bignum.c:1835
    59f0:	e1a06008 	mov	r6, r8
/home/rossierd/soo.tech/soo/optee_os/lib/libmbedtls/mbedtls/library/bignum.c:1834
    59f4:	e14b33b8 	strh	r3, [fp, #-56]	; 0xffffffc8
/home/rossierd/soo.tech/soo/optee_os/lib/libmbedtls/mbedtls/library/bignum.c:1841
    59f8:	e59b3004 	ldr	r3, [fp, #4]
    59fc:	e3530000 	cmp	r3, #0
    5a00:	0a000005 	beq	5a1c <mbedtls_mpi_exp_mod+0x16c>
/home/rossierd/soo.tech/soo/optee_os/lib/libmbedtls/mbedtls/library/bignum.c:1841 (discriminator 1)
    5a04:	e5933008 	ldr	r3, [r3, #8]
    5a08:	e3530000 	cmp	r3, #0
/home/rossierd/soo.tech/soo/optee_os/lib/libmbedtls/mbedtls/library/bignum.c:1851 (discriminator 1)
    5a0c:	13a0200c 	movne	r2, #12
    5a10:	11a00005 	movne	r0, r5
    5a14:	159b1004 	ldrne	r1, [fp, #4]
/home/rossierd/soo.tech/soo/optee_os/lib/libmbedtls/mbedtls/library/bignum.c:1841 (discriminator 1)
    5a18:	1a00007f 	bne	5c1c <mbedtls_mpi_exp_mod+0x36c>
/home/rossierd/soo.tech/soo/optee_os/lib/libmbedtls/mbedtls/library/bignum.c:1843
    5a1c:	e3a01001 	mov	r1, #1
    5a20:	e1a00005 	mov	r0, r5
    5a24:	ebfff8e4 	bl	3dbc <mbedtls_mpi_lset>
    5a28:	e2503000 	subs	r3, r0, #0
    5a2c:	1a00012e 	bne	5eec <mbedtls_mpi_exp_mod+0x63c>
/home/rossierd/soo.tech/soo/optee_os/lib/libmbedtls/mbedtls/library/bignum.c:1844
    5a30:	e5941004 	ldr	r1, [r4, #4]
    5a34:	e1a00005 	mov	r0, r5
    5a38:	e1a01301 	lsl	r1, r1, #6
    5a3c:	ebfff9b9 	bl	4128 <mbedtls_mpi_shift_l>
    5a40:	e2503000 	subs	r3, r0, #0
    5a44:	1a000128 	bne	5eec <mbedtls_mpi_exp_mod+0x63c>
/home/rossierd/soo.tech/soo/optee_os/lib/libmbedtls/mbedtls/library/bignum.c:1845
    5a48:	e1a02004 	mov	r2, r4
    5a4c:	e1a01005 	mov	r1, r5
    5a50:	e1a00005 	mov	r0, r5
    5a54:	ebfffdfd 	bl	5250 <mbedtls_mpi_mod_mpi>
    5a58:	e2503000 	subs	r3, r0, #0
    5a5c:	1a000122 	bne	5eec <mbedtls_mpi_exp_mod+0x63c>
/home/rossierd/soo.tech/soo/optee_os/lib/libmbedtls/mbedtls/library/bignum.c:1847
    5a60:	e59b3004 	ldr	r3, [fp, #4]
    5a64:	e3530000 	cmp	r3, #0
/home/rossierd/soo.tech/soo/optee_os/lib/libmbedtls/mbedtls/library/bignum.c:1848
    5a68:	13a0200c 	movne	r2, #12
    5a6c:	11a01005 	movne	r1, r5
    5a70:	11a00003 	movne	r0, r3
/home/rossierd/soo.tech/soo/optee_os/lib/libmbedtls/mbedtls/library/bignum.c:1847
    5a74:	1a000068 	bne	5c1c <mbedtls_mpi_exp_mod+0x36c>
/home/rossierd/soo.tech/soo/optee_os/lib/libmbedtls/mbedtls/library/bignum.c:1853
    5a78:	e51b3074 	ldr	r3, [fp, #-116]	; 0xffffff8c
    5a7c:	e3a01c06 	mov	r1, #1536	; 0x600
    5a80:	e5930000 	ldr	r0, [r3]
    5a84:	eb000d17 	bl	8ee8 <mempool_alloc>
/home/rossierd/soo.tech/soo/optee_os/lib/libmbedtls/mbedtls/library/bignum.c:1855
    5a88:	e2505000 	subs	r5, r0, #0
/home/rossierd/soo.tech/soo/optee_os/lib/libmbedtls/mbedtls/library/bignum.c:1856
    5a8c:	03e0300f 	mvneq	r3, #15
/home/rossierd/soo.tech/soo/optee_os/lib/libmbedtls/mbedtls/library/bignum.c:1855
    5a90:	0a0000ff 	beq	5e94 <mbedtls_mpi_exp_mod+0x5e4>
    5a94:	e2858c06 	add	r8, r5, #1536	; 0x600
    5a98:	e50b5068 	str	r5, [fp, #-104]	; 0xffffff98
    5a9c:	e50b5064 	str	r5, [fp, #-100]	; 0xffffff9c
/home/rossierd/soo.tech/soo/optee_os/lib/libmbedtls/mbedtls/library/bignum.c:1860 (discriminator 3)
    5aa0:	e51b0064 	ldr	r0, [fp, #-100]	; 0xffffff9c
    5aa4:	ebfff764 	bl	383c <mbedtls_mpi_init_mempool>
    5aa8:	e51b3064 	ldr	r3, [fp, #-100]	; 0xffffff9c
    5aac:	e283300c 	add	r3, r3, #12
/home/rossierd/soo.tech/soo/optee_os/lib/libmbedtls/mbedtls/library/bignum.c:1859 (discriminator 3)
    5ab0:	e1580003 	cmp	r8, r3
    5ab4:	e50b3064 	str	r3, [fp, #-100]	; 0xffffff9c
    5ab8:	1afffff8 	bne	5aa0 <mbedtls_mpi_exp_mod+0x1f0>
/home/rossierd/soo.tech/soo/optee_os/lib/libmbedtls/mbedtls/library/bignum.c:1861
    5abc:	e285300c 	add	r3, r5, #12
    5ac0:	e1a01007 	mov	r1, r7
    5ac4:	e1a00003 	mov	r0, r3
    5ac8:	e50b3070 	str	r3, [fp, #-112]	; 0xffffff90
    5acc:	ebfff78d 	bl	3908 <mbedtls_mpi_grow>
    5ad0:	e2503000 	subs	r3, r0, #0
    5ad4:	1a0000e3 	bne	5e68 <mbedtls_mpi_exp_mod+0x5b8>
/home/rossierd/soo.tech/soo/optee_os/lib/libmbedtls/mbedtls/library/bignum.c:1866
    5ad8:	e1a01004 	mov	r1, r4
    5adc:	e1a00006 	mov	r0, r6
    5ae0:	ebfffa3f 	bl	43e4 <mbedtls_mpi_cmp_mpi>
    5ae4:	e3500000 	cmp	r0, #0
    5ae8:	ba00004d 	blt	5c24 <mbedtls_mpi_exp_mod+0x374>
/home/rossierd/soo.tech/soo/optee_os/lib/libmbedtls/mbedtls/library/bignum.c:1867
    5aec:	e1a02004 	mov	r2, r4
    5af0:	e1a01006 	mov	r1, r6
    5af4:	e285000c 	add	r0, r5, #12
    5af8:	ebfffdd4 	bl	5250 <mbedtls_mpi_mod_mpi>
    5afc:	e2503000 	subs	r3, r0, #0
    5b00:	1a0000d8 	bne	5e68 <mbedtls_mpi_exp_mod+0x5b8>
/home/rossierd/soo.tech/soo/optee_os/lib/libmbedtls/mbedtls/library/bignum.c:1871
    5b04:	e24b7044 	sub	r7, fp, #68	; 0x44
    5b08:	e24b6050 	sub	r6, fp, #80	; 0x50
    5b0c:	e51b3054 	ldr	r3, [fp, #-84]	; 0xffffffac
    5b10:	e1a02004 	mov	r2, r4
    5b14:	e1a01006 	mov	r1, r6
    5b18:	e285000c 	add	r0, r5, #12
    5b1c:	e58d7000 	str	r7, [sp]
    5b20:	ebfffefd 	bl	571c <mbedtls_mpi_montmul>
    5b24:	e2503000 	subs	r3, r0, #0
    5b28:	1a0000ce 	bne	5e68 <mbedtls_mpi_exp_mod+0x5b8>
/home/rossierd/soo.tech/soo/optee_os/lib/libmbedtls/mbedtls/library/bignum.c:1876
    5b2c:	e1a01006 	mov	r1, r6
    5b30:	e51b0058 	ldr	r0, [fp, #-88]	; 0xffffffa8
    5b34:	ebfff800 	bl	3b3c <mbedtls_mpi_copy>
    5b38:	e2503000 	subs	r3, r0, #0
    5b3c:	1a0000c9 	bne	5e68 <mbedtls_mpi_exp_mod+0x5b8>
/home/rossierd/soo.tech/soo/optee_os/lib/libmbedtls/mbedtls/library/bignum.c:1877
    5b40:	e1a03007 	mov	r3, r7
    5b44:	e1a01004 	mov	r1, r4
    5b48:	e51b0058 	ldr	r0, [fp, #-88]	; 0xffffffa8
    5b4c:	e51b2054 	ldr	r2, [fp, #-84]	; 0xffffffac
    5b50:	ebffff45 	bl	586c <mbedtls_mpi_montred>
    5b54:	e2503000 	subs	r3, r0, #0
    5b58:	1a0000c2 	bne	5e68 <mbedtls_mpi_exp_mod+0x5b8>
/home/rossierd/soo.tech/soo/optee_os/lib/libmbedtls/mbedtls/library/bignum.c:1879
    5b5c:	e51b305c 	ldr	r3, [fp, #-92]	; 0xffffffa4
    5b60:	e3530001 	cmp	r3, #1
    5b64:	1a000032 	bne	5c34 <mbedtls_mpi_exp_mod+0x384>
/home/rossierd/soo.tech/soo/optee_os/lib/libmbedtls/mbedtls/library/bignum.c:1904
    5b68:	e51b3060 	ldr	r3, [fp, #-96]	; 0xffffffa0
/home/rossierd/soo.tech/soo/optee_os/lib/libmbedtls/mbedtls/library/bignum.c:1955
    5b6c:	e24b9044 	sub	r9, fp, #68	; 0x44
/home/rossierd/soo.tech/soo/optee_os/lib/libmbedtls/mbedtls/library/bignum.c:1904
    5b70:	e593a004 	ldr	sl, [r3, #4]
/home/rossierd/soo.tech/soo/optee_os/lib/libmbedtls/mbedtls/library/bignum.c:1908
    5b74:	e3a03000 	mov	r3, #0
/home/rossierd/soo.tech/soo/optee_os/lib/libmbedtls/mbedtls/library/bignum.c:1906
    5b78:	e1a07003 	mov	r7, r3
/home/rossierd/soo.tech/soo/optee_os/lib/libmbedtls/mbedtls/library/bignum.c:1905
    5b7c:	e1a08003 	mov	r8, r3
/home/rossierd/soo.tech/soo/optee_os/lib/libmbedtls/mbedtls/library/bignum.c:1907
    5b80:	e1a06003 	mov	r6, r3
/home/rossierd/soo.tech/soo/optee_os/lib/libmbedtls/mbedtls/library/bignum.c:1912
    5b84:	e3580000 	cmp	r8, #0
    5b88:	1a000067 	bne	5d2c <mbedtls_mpi_exp_mod+0x47c>
/home/rossierd/soo.tech/soo/optee_os/lib/libmbedtls/mbedtls/library/bignum.c:1914
    5b8c:	e35a0000 	cmp	sl, #0
    5b90:	1a000063 	bne	5d24 <mbedtls_mpi_exp_mod+0x474>
/home/rossierd/soo.tech/soo/optee_os/lib/libmbedtls/mbedtls/library/bignum.c:1977
    5b94:	e51b305c 	ldr	r3, [fp, #-92]	; 0xffffffa4
    5b98:	e3a09001 	mov	r9, #1
    5b9c:	e24b8044 	sub	r8, fp, #68	; 0x44
    5ba0:	e1a09319 	lsl	r9, r9, r3
/home/rossierd/soo.tech/soo/optee_os/lib/libmbedtls/mbedtls/library/bignum.c:1971 (discriminator 1)
    5ba4:	e15a0007 	cmp	sl, r7
    5ba8:	1a000099 	bne	5e14 <mbedtls_mpi_exp_mod+0x564>
/home/rossierd/soo.tech/soo/optee_os/lib/libmbedtls/mbedtls/library/bignum.c:1984
    5bac:	e1a03008 	mov	r3, r8
    5bb0:	e1a01004 	mov	r1, r4
    5bb4:	e51b0058 	ldr	r0, [fp, #-88]	; 0xffffffa8
    5bb8:	e51b2054 	ldr	r2, [fp, #-84]	; 0xffffffac
    5bbc:	ebffff2a 	bl	586c <mbedtls_mpi_montred>
    5bc0:	e2503000 	subs	r3, r0, #0
    5bc4:	1a0000a7 	bne	5e68 <mbedtls_mpi_exp_mod+0x5b8>
/home/rossierd/soo.tech/soo/optee_os/lib/libmbedtls/mbedtls/library/bignum.c:1986
    5bc8:	e51b206c 	ldr	r2, [fp, #-108]	; 0xffffff94
    5bcc:	e3720001 	cmn	r2, #1
    5bd0:	1a0000a4 	bne	5e68 <mbedtls_mpi_exp_mod+0x5b8>
/home/rossierd/soo.tech/soo/optee_os/lib/libmbedtls/mbedtls/library/bignum.c:1986 (discriminator 1)
    5bd4:	e51b2060 	ldr	r2, [fp, #-96]	; 0xffffffa0
    5bd8:	e5922004 	ldr	r2, [r2, #4]
    5bdc:	e3520000 	cmp	r2, #0
    5be0:	0a0000a0 	beq	5e68 <mbedtls_mpi_exp_mod+0x5b8>
/home/rossierd/soo.tech/soo/optee_os/lib/libmbedtls/mbedtls/library/bignum.c:1986 (discriminator 2)
    5be4:	e51b2060 	ldr	r2, [fp, #-96]	; 0xffffffa0
    5be8:	e5922008 	ldr	r2, [r2, #8]
    5bec:	e5922000 	ldr	r2, [r2]
    5bf0:	e3120001 	tst	r2, #1
    5bf4:	0a00009b 	beq	5e68 <mbedtls_mpi_exp_mod+0x5b8>
/home/rossierd/soo.tech/soo/optee_os/lib/libmbedtls/mbedtls/library/bignum.c:1988
    5bf8:	e51b3058 	ldr	r3, [fp, #-88]	; 0xffffffa8
/home/rossierd/soo.tech/soo/optee_os/lib/libmbedtls/mbedtls/library/bignum.c:1989
    5bfc:	e1a01004 	mov	r1, r4
/home/rossierd/soo.tech/soo/optee_os/lib/libmbedtls/mbedtls/library/bignum.c:1988
    5c00:	e15b26bc 	ldrh	r2, [fp, #-108]	; 0xffffff94
/home/rossierd/soo.tech/soo/optee_os/lib/libmbedtls/mbedtls/library/bignum.c:1989
    5c04:	e1a00003 	mov	r0, r3
/home/rossierd/soo.tech/soo/optee_os/lib/libmbedtls/mbedtls/library/bignum.c:1988
    5c08:	e1c320b0 	strh	r2, [r3]
/home/rossierd/soo.tech/soo/optee_os/lib/libmbedtls/mbedtls/library/bignum.c:1989
    5c0c:	e1a02003 	mov	r2, r3
    5c10:	ebfffad0 	bl	4758 <mbedtls_mpi_add_mpi>
    5c14:	e1a03000 	mov	r3, r0
    5c18:	ea000092 	b	5e68 <mbedtls_mpi_exp_mod+0x5b8>
/home/rossierd/soo.tech/soo/optee_os/lib/libmbedtls/mbedtls/library/bignum.c:1851
    5c1c:	eb000888 	bl	7e44 <memcpy>
    5c20:	eaffff94 	b	5a78 <mbedtls_mpi_exp_mod+0x1c8>
/home/rossierd/soo.tech/soo/optee_os/lib/libmbedtls/mbedtls/library/bignum.c:1869
    5c24:	e1a01006 	mov	r1, r6
    5c28:	e285000c 	add	r0, r5, #12
    5c2c:	ebfff7c2 	bl	3b3c <mbedtls_mpi_copy>
    5c30:	eaffffb1 	b	5afc <mbedtls_mpi_exp_mod+0x24c>
/home/rossierd/soo.tech/soo/optee_os/lib/libmbedtls/mbedtls/library/bignum.c:1884
    5c34:	e51b305c 	ldr	r3, [fp, #-92]	; 0xffffffa4
/home/rossierd/soo.tech/soo/optee_os/lib/libmbedtls/mbedtls/library/bignum.c:1886
    5c38:	e3a0600c 	mov	r6, #12
/home/rossierd/soo.tech/soo/optee_os/lib/libmbedtls/mbedtls/library/bignum.c:1884
    5c3c:	e3a0a001 	mov	sl, #1
/home/rossierd/soo.tech/soo/optee_os/lib/libmbedtls/mbedtls/library/bignum.c:1886
    5c40:	e5941004 	ldr	r1, [r4, #4]
/home/rossierd/soo.tech/soo/optee_os/lib/libmbedtls/mbedtls/library/bignum.c:1884
    5c44:	e2439001 	sub	r9, r3, #1
/home/rossierd/soo.tech/soo/optee_os/lib/libmbedtls/mbedtls/library/bignum.c:1886
    5c48:	e2811001 	add	r1, r1, #1
    5c4c:	e0856916 	add	r6, r5, r6, lsl r9
/home/rossierd/soo.tech/soo/optee_os/lib/libmbedtls/mbedtls/library/bignum.c:1884
    5c50:	e1a0a91a 	lsl	sl, sl, r9
/home/rossierd/soo.tech/soo/optee_os/lib/libmbedtls/mbedtls/library/bignum.c:1886
    5c54:	e1a00006 	mov	r0, r6
    5c58:	ebfff72a 	bl	3908 <mbedtls_mpi_grow>
    5c5c:	e2503000 	subs	r3, r0, #0
    5c60:	1a000080 	bne	5e68 <mbedtls_mpi_exp_mod+0x5b8>
/home/rossierd/soo.tech/soo/optee_os/lib/libmbedtls/mbedtls/library/bignum.c:1887
    5c64:	e285100c 	add	r1, r5, #12
    5c68:	e1a00006 	mov	r0, r6
    5c6c:	ebfff7b2 	bl	3b3c <mbedtls_mpi_copy>
    5c70:	e2503000 	subs	r3, r0, #0
    5c74:	1a00007b 	bne	5e68 <mbedtls_mpi_exp_mod+0x5b8>
    5c78:	e1a08003 	mov	r8, r3
/home/rossierd/soo.tech/soo/optee_os/lib/libmbedtls/mbedtls/library/bignum.c:1890
    5c7c:	e51b3054 	ldr	r3, [fp, #-84]	; 0xffffffac
    5c80:	e1a02004 	mov	r2, r4
    5c84:	e1a01006 	mov	r1, r6
    5c88:	e1a00006 	mov	r0, r6
    5c8c:	e58d7000 	str	r7, [sp]
    5c90:	ebfffea1 	bl	571c <mbedtls_mpi_montmul>
    5c94:	e2503000 	subs	r3, r0, #0
    5c98:	1a000072 	bne	5e68 <mbedtls_mpi_exp_mod+0x5b8>
/home/rossierd/soo.tech/soo/optee_os/lib/libmbedtls/mbedtls/library/bignum.c:1889 (discriminator 2)
    5c9c:	e2888001 	add	r8, r8, #1
    5ca0:	e1590008 	cmp	r9, r8
    5ca4:	8afffff4 	bhi	5c7c <mbedtls_mpi_exp_mod+0x3cc>
/home/rossierd/soo.tech/soo/optee_os/lib/libmbedtls/mbedtls/library/bignum.c:1895
    5ca8:	e51b305c 	ldr	r3, [fp, #-92]	; 0xffffffa4
    5cac:	e28aa001 	add	sl, sl, #1
    5cb0:	e3a0600c 	mov	r6, #12
    5cb4:	e3a08001 	mov	r8, #1
/home/rossierd/soo.tech/soo/optee_os/lib/libmbedtls/mbedtls/library/bignum.c:1900
    5cb8:	e24b7044 	sub	r7, fp, #68	; 0x44
    5cbc:	e0265a96 	mla	r6, r6, sl, r5
/home/rossierd/soo.tech/soo/optee_os/lib/libmbedtls/mbedtls/library/bignum.c:1895
    5cc0:	e1a08318 	lsl	r8, r8, r3
/home/rossierd/soo.tech/soo/optee_os/lib/libmbedtls/mbedtls/library/bignum.c:1895 (discriminator 1)
    5cc4:	e15a0008 	cmp	sl, r8
    5cc8:	2affffa6 	bcs	5b68 <mbedtls_mpi_exp_mod+0x2b8>
/home/rossierd/soo.tech/soo/optee_os/lib/libmbedtls/mbedtls/library/bignum.c:1897
    5ccc:	e5941004 	ldr	r1, [r4, #4]
    5cd0:	e1a00006 	mov	r0, r6
    5cd4:	e2811001 	add	r1, r1, #1
    5cd8:	ebfff70a 	bl	3908 <mbedtls_mpi_grow>
    5cdc:	e2503000 	subs	r3, r0, #0
    5ce0:	1a000060 	bne	5e68 <mbedtls_mpi_exp_mod+0x5b8>
/home/rossierd/soo.tech/soo/optee_os/lib/libmbedtls/mbedtls/library/bignum.c:1898
    5ce4:	e246100c 	sub	r1, r6, #12
    5ce8:	e1a00006 	mov	r0, r6
    5cec:	ebfff792 	bl	3b3c <mbedtls_mpi_copy>
    5cf0:	e2503000 	subs	r3, r0, #0
    5cf4:	1a00005b 	bne	5e68 <mbedtls_mpi_exp_mod+0x5b8>
/home/rossierd/soo.tech/soo/optee_os/lib/libmbedtls/mbedtls/library/bignum.c:1900
    5cf8:	e1a00006 	mov	r0, r6
    5cfc:	e1a02004 	mov	r2, r4
    5d00:	e51b1070 	ldr	r1, [fp, #-112]	; 0xffffff90
    5d04:	e51b3054 	ldr	r3, [fp, #-84]	; 0xffffffac
    5d08:	e58d7000 	str	r7, [sp]
    5d0c:	e286600c 	add	r6, r6, #12
    5d10:	ebfffe81 	bl	571c <mbedtls_mpi_montmul>
    5d14:	e2503000 	subs	r3, r0, #0
    5d18:	1a000052 	bne	5e68 <mbedtls_mpi_exp_mod+0x5b8>
/home/rossierd/soo.tech/soo/optee_os/lib/libmbedtls/mbedtls/library/bignum.c:1895 (discriminator 2)
    5d1c:	e28aa001 	add	sl, sl, #1
    5d20:	eaffffe7 	b	5cc4 <mbedtls_mpi_exp_mod+0x414>
/home/rossierd/soo.tech/soo/optee_os/lib/libmbedtls/mbedtls/library/bignum.c:1917
    5d24:	e24aa001 	sub	sl, sl, #1
/home/rossierd/soo.tech/soo/optee_os/lib/libmbedtls/mbedtls/library/bignum.c:1919
    5d28:	e3a08020 	mov	r8, #32
/home/rossierd/soo.tech/soo/optee_os/lib/libmbedtls/mbedtls/library/bignum.c:1924
    5d2c:	e51b2060 	ldr	r2, [fp, #-96]	; 0xffffffa0
/home/rossierd/soo.tech/soo/optee_os/lib/libmbedtls/mbedtls/library/bignum.c:1922
    5d30:	e2488001 	sub	r8, r8, #1
/home/rossierd/soo.tech/soo/optee_os/lib/libmbedtls/mbedtls/library/bignum.c:1924
    5d34:	e5922008 	ldr	r2, [r2, #8]
    5d38:	e792210a 	ldr	r2, [r2, sl, lsl #2]
    5d3c:	e1a02832 	lsr	r2, r2, r8
    5d40:	e2020001 	and	r0, r2, #1
/home/rossierd/soo.tech/soo/optee_os/lib/libmbedtls/mbedtls/library/bignum.c:1929
    5d44:	e1931000 	orrs	r1, r3, r0
    5d48:	0a00000d 	beq	5d84 <mbedtls_mpi_exp_mod+0x4d4>
/home/rossierd/soo.tech/soo/optee_os/lib/libmbedtls/mbedtls/library/bignum.c:1932
    5d4c:	e2433001 	sub	r3, r3, #1
    5d50:	e16f3f13 	clz	r3, r3
    5d54:	e1a032a3 	lsr	r3, r3, #5
    5d58:	e1d33002 	bics	r3, r3, r2
    5d5c:	0a00000a 	beq	5d8c <mbedtls_mpi_exp_mod+0x4dc>
/home/rossierd/soo.tech/soo/optee_os/lib/libmbedtls/mbedtls/library/bignum.c:1937
    5d60:	e51b1058 	ldr	r1, [fp, #-88]	; 0xffffffa8
    5d64:	e1a02004 	mov	r2, r4
    5d68:	e58d9000 	str	r9, [sp]
    5d6c:	e51b3054 	ldr	r3, [fp, #-84]	; 0xffffffac
    5d70:	e1a00001 	mov	r0, r1
    5d74:	ebfffe68 	bl	571c <mbedtls_mpi_montmul>
    5d78:	e2503000 	subs	r3, r0, #0
    5d7c:	1a000039 	bne	5e68 <mbedtls_mpi_exp_mod+0x5b8>
    5d80:	e3a01001 	mov	r1, #1
/home/rossierd/soo.tech/soo/optee_os/lib/libmbedtls/mbedtls/library/bignum.c:1964
    5d84:	e1a03001 	mov	r3, r1
    5d88:	eaffff7d 	b	5b84 <mbedtls_mpi_exp_mod+0x2d4>
/home/rossierd/soo.tech/soo/optee_os/lib/libmbedtls/mbedtls/library/bignum.c:1947
    5d8c:	e51b205c 	ldr	r2, [fp, #-92]	; 0xffffffa4
/home/rossierd/soo.tech/soo/optee_os/lib/libmbedtls/mbedtls/library/bignum.c:1946
    5d90:	e2877001 	add	r7, r7, #1
/home/rossierd/soo.tech/soo/optee_os/lib/libmbedtls/mbedtls/library/bignum.c:1947
    5d94:	e0422007 	sub	r2, r2, r7
    5d98:	e1866210 	orr	r6, r6, r0, lsl r2
/home/rossierd/soo.tech/soo/optee_os/lib/libmbedtls/mbedtls/library/bignum.c:1949
    5d9c:	e51b205c 	ldr	r2, [fp, #-92]	; 0xffffffa4
    5da0:	e1520007 	cmp	r2, r7
/home/rossierd/soo.tech/soo/optee_os/lib/libmbedtls/mbedtls/library/bignum.c:1944
    5da4:	13a01002 	movne	r1, #2
/home/rossierd/soo.tech/soo/optee_os/lib/libmbedtls/mbedtls/library/bignum.c:1949
    5da8:	1afffff5 	bne	5d84 <mbedtls_mpi_exp_mod+0x4d4>
    5dac:	e1a07003 	mov	r7, r3
/home/rossierd/soo.tech/soo/optee_os/lib/libmbedtls/mbedtls/library/bignum.c:1955
    5db0:	e51b1058 	ldr	r1, [fp, #-88]	; 0xffffffa8
    5db4:	e1a02004 	mov	r2, r4
    5db8:	e58d9000 	str	r9, [sp]
    5dbc:	e51b3054 	ldr	r3, [fp, #-84]	; 0xffffffac
    5dc0:	e1a00001 	mov	r0, r1
    5dc4:	ebfffe54 	bl	571c <mbedtls_mpi_montmul>
    5dc8:	e2503000 	subs	r3, r0, #0
    5dcc:	1a000025 	bne	5e68 <mbedtls_mpi_exp_mod+0x5b8>
/home/rossierd/soo.tech/soo/optee_os/lib/libmbedtls/mbedtls/library/bignum.c:1954 (discriminator 2)
    5dd0:	e51b305c 	ldr	r3, [fp, #-92]	; 0xffffffa4
    5dd4:	e2877001 	add	r7, r7, #1
    5dd8:	e1530007 	cmp	r3, r7
    5ddc:	8afffff3 	bhi	5db0 <mbedtls_mpi_exp_mod+0x500>
/home/rossierd/soo.tech/soo/optee_os/lib/libmbedtls/mbedtls/library/bignum.c:1960
    5de0:	e3a0100c 	mov	r1, #12
    5de4:	e1a02004 	mov	r2, r4
    5de8:	e51b0058 	ldr	r0, [fp, #-88]	; 0xffffffa8
    5dec:	e51b3054 	ldr	r3, [fp, #-84]	; 0xffffffac
    5df0:	e58d9000 	str	r9, [sp]
    5df4:	e0215691 	mla	r1, r1, r6, r5
    5df8:	ebfffe47 	bl	571c <mbedtls_mpi_montmul>
    5dfc:	e2503000 	subs	r3, r0, #0
    5e00:	1a000018 	bne	5e68 <mbedtls_mpi_exp_mod+0x5b8>
/home/rossierd/soo.tech/soo/optee_os/lib/libmbedtls/mbedtls/library/bignum.c:1962
    5e04:	e3a01001 	mov	r1, #1
/home/rossierd/soo.tech/soo/optee_os/lib/libmbedtls/mbedtls/library/bignum.c:1963
    5e08:	e1a06003 	mov	r6, r3
/home/rossierd/soo.tech/soo/optee_os/lib/libmbedtls/mbedtls/library/bignum.c:1964
    5e0c:	e1a07003 	mov	r7, r3
    5e10:	eaffffdb 	b	5d84 <mbedtls_mpi_exp_mod+0x4d4>
/home/rossierd/soo.tech/soo/optee_os/lib/libmbedtls/mbedtls/library/bignum.c:1973
    5e14:	e51b1058 	ldr	r1, [fp, #-88]	; 0xffffffa8
    5e18:	e1a02004 	mov	r2, r4
    5e1c:	e58d8000 	str	r8, [sp]
    5e20:	e51b3054 	ldr	r3, [fp, #-84]	; 0xffffffac
    5e24:	e1a00001 	mov	r0, r1
    5e28:	ebfffe3b 	bl	571c <mbedtls_mpi_montmul>
    5e2c:	e2503000 	subs	r3, r0, #0
    5e30:	1a00000c 	bne	5e68 <mbedtls_mpi_exp_mod+0x5b8>
/home/rossierd/soo.tech/soo/optee_os/lib/libmbedtls/mbedtls/library/bignum.c:1975
    5e34:	e1a06086 	lsl	r6, r6, #1
/home/rossierd/soo.tech/soo/optee_os/lib/libmbedtls/mbedtls/library/bignum.c:1977
    5e38:	e1160009 	tst	r6, r9
    5e3c:	1a000001 	bne	5e48 <mbedtls_mpi_exp_mod+0x598>
/home/rossierd/soo.tech/soo/optee_os/lib/libmbedtls/mbedtls/library/bignum.c:1971
    5e40:	e28aa001 	add	sl, sl, #1
    5e44:	eaffff56 	b	5ba4 <mbedtls_mpi_exp_mod+0x2f4>
/home/rossierd/soo.tech/soo/optee_os/lib/libmbedtls/mbedtls/library/bignum.c:1978
    5e48:	e1a02004 	mov	r2, r4
    5e4c:	e51b1070 	ldr	r1, [fp, #-112]	; 0xffffff90
    5e50:	e58d8000 	str	r8, [sp]
    5e54:	e51b0058 	ldr	r0, [fp, #-88]	; 0xffffffa8
    5e58:	e51b3054 	ldr	r3, [fp, #-84]	; 0xffffffac
    5e5c:	ebfffe2e 	bl	571c <mbedtls_mpi_montmul>
    5e60:	e2503000 	subs	r3, r0, #0
    5e64:	0afffff5 	beq	5e40 <mbedtls_mpi_exp_mod+0x590>
/home/rossierd/soo.tech/soo/optee_os/lib/libmbedtls/mbedtls/library/bignum.c:1996 (discriminator 3)
    5e68:	e51b0068 	ldr	r0, [fp, #-104]	; 0xffffff98
    5e6c:	e50b3058 	str	r3, [fp, #-88]	; 0xffffffa8
    5e70:	ebfff684 	bl	3888 <mbedtls_mpi_free>
    5e74:	e51b3068 	ldr	r3, [fp, #-104]	; 0xffffff98
    5e78:	e283300c 	add	r3, r3, #12
    5e7c:	e50b3068 	str	r3, [fp, #-104]	; 0xffffff98
/home/rossierd/soo.tech/soo/optee_os/lib/libmbedtls/mbedtls/library/bignum.c:1995 (discriminator 3)
    5e80:	e51b2068 	ldr	r2, [fp, #-104]	; 0xffffff98
    5e84:	e51b3064 	ldr	r3, [fp, #-100]	; 0xffffff9c
    5e88:	e1530002 	cmp	r3, r2
    5e8c:	e51b3058 	ldr	r3, [fp, #-88]	; 0xffffffa8
    5e90:	1afffff4 	bne	5e68 <mbedtls_mpi_exp_mod+0x5b8>
    5e94:	e50b3058 	str	r3, [fp, #-88]	; 0xffffffa8
/home/rossierd/soo.tech/soo/optee_os/lib/libmbedtls/mbedtls/library/bignum.c:1997
    5e98:	e51b3074 	ldr	r3, [fp, #-116]	; 0xffffff8c
    5e9c:	e1a01005 	mov	r1, r5
    5ea0:	e5930000 	ldr	r0, [r3]
    5ea4:	eb000c51 	bl	8ff0 <mempool_free>
/home/rossierd/soo.tech/soo/optee_os/lib/libmbedtls/mbedtls/library/bignum.c:1999
    5ea8:	e24b0044 	sub	r0, fp, #68	; 0x44
    5eac:	ebfff675 	bl	3888 <mbedtls_mpi_free>
    5eb0:	e24b0038 	sub	r0, fp, #56	; 0x38
    5eb4:	ebfff673 	bl	3888 <mbedtls_mpi_free>
/home/rossierd/soo.tech/soo/optee_os/lib/libmbedtls/mbedtls/library/bignum.c:2001
    5eb8:	e59b3004 	ldr	r3, [fp, #4]
    5ebc:	e3530000 	cmp	r3, #0
    5ec0:	e51b3058 	ldr	r3, [fp, #-88]	; 0xffffffa8
    5ec4:	0a000003 	beq	5ed8 <mbedtls_mpi_exp_mod+0x628>
/home/rossierd/soo.tech/soo/optee_os/lib/libmbedtls/mbedtls/library/bignum.c:2001 (discriminator 1)
    5ec8:	e59b2004 	ldr	r2, [fp, #4]
    5ecc:	e5922008 	ldr	r2, [r2, #8]
    5ed0:	e3520000 	cmp	r2, #0
    5ed4:	1afffe85 	bne	58f0 <mbedtls_mpi_exp_mod+0x40>
/home/rossierd/soo.tech/soo/optee_os/lib/libmbedtls/mbedtls/library/bignum.c:2002
    5ed8:	e24b0050 	sub	r0, fp, #80	; 0x50
    5edc:	e50b3058 	str	r3, [fp, #-88]	; 0xffffffa8
    5ee0:	ebfff668 	bl	3888 <mbedtls_mpi_free>
    5ee4:	e51b3058 	ldr	r3, [fp, #-88]	; 0xffffffa8
    5ee8:	eafffe80 	b	58f0 <mbedtls_mpi_exp_mod+0x40>
    5eec:	e3a05000 	mov	r5, #0
    5ef0:	eaffffe7 	b	5e94 <mbedtls_mpi_exp_mod+0x5e4>
    5ef4:	0000679c 	.word	0x0000679c
    5ef8:	00000038 	.word	0x00000038

00005efc <mbedtls_mpi_gcd>:
mbedtls_mpi_gcd():
/home/rossierd/soo.tech/soo/optee_os/lib/libmbedtls/mbedtls/library/bignum.c:2011
    5efc:	e1a0c00d 	mov	ip, sp
    5f00:	e92ddbf0 	push	{r4, r5, r6, r7, r8, r9, fp, ip, lr, pc}
    5f04:	e24cb004 	sub	fp, ip, #4
    5f08:	e24dd028 	sub	sp, sp, #40	; 0x28
/home/rossierd/soo.tech/soo/optee_os/lib/libmbedtls/mbedtls/library/bignum.c:2020
    5f0c:	e24b8048 	sub	r8, fp, #72	; 0x48
    5f10:	e24b503c 	sub	r5, fp, #60	; 0x3c
/home/rossierd/soo.tech/soo/optee_os/lib/libmbedtls/mbedtls/library/bignum.c:2011
    5f14:	e1a09000 	mov	r9, r0
/home/rossierd/soo.tech/soo/optee_os/lib/libmbedtls/mbedtls/library/bignum.c:2020
    5f18:	e1a00008 	mov	r0, r8
/home/rossierd/soo.tech/soo/optee_os/lib/libmbedtls/mbedtls/library/bignum.c:2011
    5f1c:	e1a06001 	mov	r6, r1
    5f20:	e1a07002 	mov	r7, r2
/home/rossierd/soo.tech/soo/optee_os/lib/libmbedtls/mbedtls/library/bignum.c:2021
    5f24:	e24b4030 	sub	r4, fp, #48	; 0x30
/home/rossierd/soo.tech/soo/optee_os/lib/libmbedtls/mbedtls/library/bignum.c:2020
    5f28:	ebfff643 	bl	383c <mbedtls_mpi_init_mempool>
    5f2c:	e1a00005 	mov	r0, r5
    5f30:	ebfff641 	bl	383c <mbedtls_mpi_init_mempool>
/home/rossierd/soo.tech/soo/optee_os/lib/libmbedtls/mbedtls/library/bignum.c:2021
    5f34:	e1a00004 	mov	r0, r4
    5f38:	ebfff63f 	bl	383c <mbedtls_mpi_init_mempool>
/home/rossierd/soo.tech/soo/optee_os/lib/libmbedtls/mbedtls/library/bignum.c:2023
    5f3c:	e1a01006 	mov	r1, r6
    5f40:	e1a00005 	mov	r0, r5
    5f44:	ebfff6fc 	bl	3b3c <mbedtls_mpi_copy>
    5f48:	e2506000 	subs	r6, r0, #0
    5f4c:	1a000018 	bne	5fb4 <mbedtls_mpi_gcd+0xb8>
/home/rossierd/soo.tech/soo/optee_os/lib/libmbedtls/mbedtls/library/bignum.c:2024
    5f50:	e1a01007 	mov	r1, r7
    5f54:	e1a00004 	mov	r0, r4
    5f58:	ebfff6f7 	bl	3b3c <mbedtls_mpi_copy>
    5f5c:	e2506000 	subs	r6, r0, #0
    5f60:	1a000013 	bne	5fb4 <mbedtls_mpi_gcd+0xb8>
/home/rossierd/soo.tech/soo/optee_os/lib/libmbedtls/mbedtls/library/bignum.c:2026
    5f64:	e1a00005 	mov	r0, r5
    5f68:	ebfff7d6 	bl	3ec8 <mbedtls_mpi_lsb>
    5f6c:	e1a07000 	mov	r7, r0
/home/rossierd/soo.tech/soo/optee_os/lib/libmbedtls/mbedtls/library/bignum.c:2027
    5f70:	e1a00004 	mov	r0, r4
    5f74:	ebfff7d3 	bl	3ec8 <mbedtls_mpi_lsb>
    5f78:	e1570000 	cmp	r7, r0
    5f7c:	21a07000 	movcs	r7, r0
/home/rossierd/soo.tech/soo/optee_os/lib/libmbedtls/mbedtls/library/bignum.c:2032
    5f80:	e1a00005 	mov	r0, r5
    5f84:	e1a01007 	mov	r1, r7
    5f88:	ebfff8a5 	bl	4224 <mbedtls_mpi_shift_r>
    5f8c:	e2506000 	subs	r6, r0, #0
    5f90:	1a000007 	bne	5fb4 <mbedtls_mpi_gcd+0xb8>
/home/rossierd/soo.tech/soo/optee_os/lib/libmbedtls/mbedtls/library/bignum.c:2033
    5f94:	e1a01007 	mov	r1, r7
    5f98:	e1a00004 	mov	r0, r4
    5f9c:	ebfff8a0 	bl	4224 <mbedtls_mpi_shift_r>
    5fa0:	e2506000 	subs	r6, r0, #0
/home/rossierd/soo.tech/soo/optee_os/lib/libmbedtls/mbedtls/library/bignum.c:2035
    5fa4:	03a03001 	moveq	r3, #1
    5fa8:	014b33bc 	strheq	r3, [fp, #-60]	; 0xffffffc4
    5fac:	014b33b0 	strheq	r3, [fp, #-48]	; 0xffffffd0
/home/rossierd/soo.tech/soo/optee_os/lib/libmbedtls/mbedtls/library/bignum.c:2033
    5fb0:	0a000026 	beq	6050 <mbedtls_mpi_gcd+0x154>
/home/rossierd/soo.tech/soo/optee_os/lib/libmbedtls/mbedtls/library/bignum.c:2059
    5fb4:	e1a00008 	mov	r0, r8
    5fb8:	ebfff632 	bl	3888 <mbedtls_mpi_free>
    5fbc:	e1a00005 	mov	r0, r5
    5fc0:	ebfff630 	bl	3888 <mbedtls_mpi_free>
    5fc4:	e1a00004 	mov	r0, r4
    5fc8:	ebfff62e 	bl	3888 <mbedtls_mpi_free>
/home/rossierd/soo.tech/soo/optee_os/lib/libmbedtls/mbedtls/library/bignum.c:2062
    5fcc:	e1a00006 	mov	r0, r6
    5fd0:	e24bd024 	sub	sp, fp, #36	; 0x24
    5fd4:	e89dabf0 	ldm	sp, {r4, r5, r6, r7, r8, r9, fp, sp, pc}
/home/rossierd/soo.tech/soo/optee_os/lib/libmbedtls/mbedtls/library/bignum.c:2039
    5fd8:	e1a00005 	mov	r0, r5
    5fdc:	ebfff7b9 	bl	3ec8 <mbedtls_mpi_lsb>
    5fe0:	e1a01000 	mov	r1, r0
    5fe4:	e1a00005 	mov	r0, r5
    5fe8:	ebfff88d 	bl	4224 <mbedtls_mpi_shift_r>
    5fec:	e2506000 	subs	r6, r0, #0
    5ff0:	1affffef 	bne	5fb4 <mbedtls_mpi_gcd+0xb8>
/home/rossierd/soo.tech/soo/optee_os/lib/libmbedtls/mbedtls/library/bignum.c:2040
    5ff4:	e1a00004 	mov	r0, r4
    5ff8:	ebfff7b2 	bl	3ec8 <mbedtls_mpi_lsb>
    5ffc:	e1a01000 	mov	r1, r0
    6000:	e1a00004 	mov	r0, r4
    6004:	ebfff886 	bl	4224 <mbedtls_mpi_shift_r>
    6008:	e2506000 	subs	r6, r0, #0
    600c:	1affffe8 	bne	5fb4 <mbedtls_mpi_gcd+0xb8>
/home/rossierd/soo.tech/soo/optee_os/lib/libmbedtls/mbedtls/library/bignum.c:2042
    6010:	e1a01004 	mov	r1, r4
    6014:	e1a00005 	mov	r0, r5
    6018:	ebfff8f1 	bl	43e4 <mbedtls_mpi_cmp_mpi>
    601c:	e3500000 	cmp	r0, #0
    6020:	ba000019 	blt	608c <mbedtls_mpi_gcd+0x190>
/home/rossierd/soo.tech/soo/optee_os/lib/libmbedtls/mbedtls/library/bignum.c:2044
    6024:	e1a02004 	mov	r2, r4
    6028:	e1a01005 	mov	r1, r5
    602c:	e1a00005 	mov	r0, r5
    6030:	ebfff991 	bl	467c <mbedtls_mpi_sub_abs>
    6034:	e2506000 	subs	r6, r0, #0
    6038:	1affffdd 	bne	5fb4 <mbedtls_mpi_gcd+0xb8>
/home/rossierd/soo.tech/soo/optee_os/lib/libmbedtls/mbedtls/library/bignum.c:2045
    603c:	e3a01001 	mov	r1, #1
    6040:	e1a00005 	mov	r0, r5
/home/rossierd/soo.tech/soo/optee_os/lib/libmbedtls/mbedtls/library/bignum.c:2050
    6044:	ebfff876 	bl	4224 <mbedtls_mpi_shift_r>
    6048:	e2506000 	subs	r6, r0, #0
    604c:	1affffd8 	bne	5fb4 <mbedtls_mpi_gcd+0xb8>
/home/rossierd/soo.tech/soo/optee_os/lib/libmbedtls/mbedtls/library/bignum.c:2037
    6050:	e3a01000 	mov	r1, #0
    6054:	e1a00005 	mov	r0, r5
    6058:	ebfff924 	bl	44f0 <mbedtls_mpi_cmp_int>
    605c:	e3500000 	cmp	r0, #0
    6060:	1affffdc 	bne	5fd8 <mbedtls_mpi_gcd+0xdc>
/home/rossierd/soo.tech/soo/optee_os/lib/libmbedtls/mbedtls/library/bignum.c:2054
    6064:	e1a01007 	mov	r1, r7
    6068:	e1a00004 	mov	r0, r4
    606c:	ebfff82d 	bl	4128 <mbedtls_mpi_shift_l>
    6070:	e2506000 	subs	r6, r0, #0
    6074:	1affffce 	bne	5fb4 <mbedtls_mpi_gcd+0xb8>
/home/rossierd/soo.tech/soo/optee_os/lib/libmbedtls/mbedtls/library/bignum.c:2055
    6078:	e1a01004 	mov	r1, r4
    607c:	e1a00009 	mov	r0, r9
    6080:	ebfff6ad 	bl	3b3c <mbedtls_mpi_copy>
    6084:	e1a06000 	mov	r6, r0
    6088:	eaffffc9 	b	5fb4 <mbedtls_mpi_gcd+0xb8>
/home/rossierd/soo.tech/soo/optee_os/lib/libmbedtls/mbedtls/library/bignum.c:2049
    608c:	e1a02005 	mov	r2, r5
    6090:	e1a01004 	mov	r1, r4
    6094:	e1a00004 	mov	r0, r4
    6098:	ebfff977 	bl	467c <mbedtls_mpi_sub_abs>
    609c:	e2506000 	subs	r6, r0, #0
    60a0:	1affffc3 	bne	5fb4 <mbedtls_mpi_gcd+0xb8>
/home/rossierd/soo.tech/soo/optee_os/lib/libmbedtls/mbedtls/library/bignum.c:2050
    60a4:	e3a01001 	mov	r1, #1
    60a8:	e1a00004 	mov	r0, r4
    60ac:	eaffffe4 	b	6044 <mbedtls_mpi_gcd+0x148>

000060b0 <mbedtls_mpi_fill_random>:
mbedtls_mpi_fill_random():
/home/rossierd/soo.tech/soo/optee_os/lib/libmbedtls/mbedtls/library/bignum.c:2074
    60b0:	e1a0c00d 	mov	ip, sp
/home/rossierd/soo.tech/soo/optee_os/lib/libmbedtls/mbedtls/library/bignum.c:2080
    60b4:	e3510b01 	cmp	r1, #1024	; 0x400
/home/rossierd/soo.tech/soo/optee_os/lib/libmbedtls/mbedtls/library/bignum.c:2074
    60b8:	e92dd8f0 	push	{r4, r5, r6, r7, fp, ip, lr, pc}
    60bc:	e24cb004 	sub	fp, ip, #4
    60c0:	e24ddb01 	sub	sp, sp, #1024	; 0x400
    60c4:	e1a04002 	mov	r4, r2
    60c8:	e1a07000 	mov	r7, r0
    60cc:	e1a06001 	mov	r6, r1
/home/rossierd/soo.tech/soo/optee_os/lib/libmbedtls/mbedtls/library/bignum.c:2081
    60d0:	83e04003 	mvnhi	r4, #3
/home/rossierd/soo.tech/soo/optee_os/lib/libmbedtls/mbedtls/library/bignum.c:2080
    60d4:	8a00000f 	bhi	6118 <mbedtls_mpi_fill_random+0x68>
/home/rossierd/soo.tech/soo/optee_os/lib/libmbedtls/mbedtls/library/bignum.c:2083
    60d8:	e24b5e41 	sub	r5, fp, #1040	; 0x410
    60dc:	e1a02001 	mov	r2, r1
    60e0:	e245500c 	sub	r5, r5, #12
    60e4:	e1a00003 	mov	r0, r3
    60e8:	e1a01005 	mov	r1, r5
    60ec:	e12fff34 	blx	r4
    60f0:	e2504000 	subs	r4, r0, #0
    60f4:	1a000004 	bne	610c <mbedtls_mpi_fill_random+0x5c>
/home/rossierd/soo.tech/soo/optee_os/lib/libmbedtls/mbedtls/library/bignum.c:2084
    60f8:	e1a02006 	mov	r2, r6
    60fc:	e1a01005 	mov	r1, r5
    6100:	e1a00007 	mov	r0, r7
    6104:	ebfff7ac 	bl	3fbc <mbedtls_mpi_read_binary>
    6108:	e1a04000 	mov	r4, r0
/home/rossierd/soo.tech/soo/optee_os/lib/libmbedtls/mbedtls/library/bignum.c:2087
    610c:	e3a01b01 	mov	r1, #1024	; 0x400
    6110:	e1a00005 	mov	r0, r5
    6114:	eb0003c9 	bl	7040 <mbedtls_platform_zeroize>
/home/rossierd/soo.tech/soo/optee_os/lib/libmbedtls/mbedtls/library/bignum.c:2089
    6118:	e1a00004 	mov	r0, r4
    611c:	e24bd01c 	sub	sp, fp, #28
    6120:	e89da8f0 	ldm	sp, {r4, r5, r6, r7, fp, sp, pc}

00006124 <mpi_miller_rabin>:
mpi_miller_rabin():
/home/rossierd/soo.tech/soo/optee_os/lib/libmbedtls/mbedtls/library/bignum.c:2257
    6124:	e1a0c00d 	mov	ip, sp
    6128:	e92ddff0 	push	{r4, r5, r6, r7, r8, r9, sl, fp, ip, lr, pc}
    612c:	e24cb004 	sub	fp, ip, #4
    6130:	e24dd05c 	sub	sp, sp, #92	; 0x5c
/home/rossierd/soo.tech/soo/optee_os/lib/libmbedtls/mbedtls/library/bignum.c:2265
    6134:	e24b5068 	sub	r5, fp, #104	; 0x68
/home/rossierd/soo.tech/soo/optee_os/lib/libmbedtls/mbedtls/library/bignum.c:2257
    6138:	e1a07000 	mov	r7, r0
/home/rossierd/soo.tech/soo/optee_os/lib/libmbedtls/mbedtls/library/bignum.c:2265
    613c:	e24b405c 	sub	r4, fp, #92	; 0x5c
    6140:	e1a00005 	mov	r0, r5
/home/rossierd/soo.tech/soo/optee_os/lib/libmbedtls/mbedtls/library/bignum.c:2257
    6144:	e50b307c 	str	r3, [fp, #-124]	; 0xffffff84
    6148:	e50b2078 	str	r2, [fp, #-120]	; 0xffffff88
    614c:	e50b1074 	str	r1, [fp, #-116]	; 0xffffff8c
/home/rossierd/soo.tech/soo/optee_os/lib/libmbedtls/mbedtls/library/bignum.c:2265
    6150:	ebfff5b9 	bl	383c <mbedtls_mpi_init_mempool>
    6154:	e1a00004 	mov	r0, r4
    6158:	ebfff5b7 	bl	383c <mbedtls_mpi_init_mempool>
/home/rossierd/soo.tech/soo/optee_os/lib/libmbedtls/mbedtls/library/bignum.c:2266
    615c:	e24b0050 	sub	r0, fp, #80	; 0x50
    6160:	ebfff5b5 	bl	383c <mbedtls_mpi_init_mempool>
    6164:	e24b0044 	sub	r0, fp, #68	; 0x44
    6168:	ebfff5b3 	bl	383c <mbedtls_mpi_init_mempool>
/home/rossierd/soo.tech/soo/optee_os/lib/libmbedtls/mbedtls/library/bignum.c:2267
    616c:	e24b0038 	sub	r0, fp, #56	; 0x38
    6170:	ebfff5b1 	bl	383c <mbedtls_mpi_init_mempool>
/home/rossierd/soo.tech/soo/optee_os/lib/libmbedtls/mbedtls/library/bignum.c:2273
    6174:	e3a02001 	mov	r2, #1
    6178:	e1a01007 	mov	r1, r7
    617c:	e1a00005 	mov	r0, r5
    6180:	ebfff9ca 	bl	48b0 <mbedtls_mpi_sub_int>
    6184:	e2506000 	subs	r6, r0, #0
    6188:	1a000030 	bne	6250 <mpi_miller_rabin+0x12c>
/home/rossierd/soo.tech/soo/optee_os/lib/libmbedtls/mbedtls/library/bignum.c:2274
    618c:	e1a00005 	mov	r0, r5
    6190:	ebfff74c 	bl	3ec8 <mbedtls_mpi_lsb>
    6194:	e50b0070 	str	r0, [fp, #-112]	; 0xffffff90
/home/rossierd/soo.tech/soo/optee_os/lib/libmbedtls/mbedtls/library/bignum.c:2275
    6198:	e1a01005 	mov	r1, r5
    619c:	e1a00004 	mov	r0, r4
    61a0:	ebfff665 	bl	3b3c <mbedtls_mpi_copy>
    61a4:	e2506000 	subs	r6, r0, #0
    61a8:	1a000028 	bne	6250 <mpi_miller_rabin+0x12c>
/home/rossierd/soo.tech/soo/optee_os/lib/libmbedtls/mbedtls/library/bignum.c:2276
    61ac:	e1a00004 	mov	r0, r4
    61b0:	e51b1070 	ldr	r1, [fp, #-112]	; 0xffffff90
    61b4:	ebfff81a 	bl	4224 <mbedtls_mpi_shift_r>
    61b8:	e2506000 	subs	r6, r0, #0
    61bc:	1a000023 	bne	6250 <mpi_miller_rabin+0x12c>
/home/rossierd/soo.tech/soo/optee_os/lib/libmbedtls/mbedtls/library/bignum.c:2278
    61c0:	e1a00007 	mov	r0, r7
/home/rossierd/soo.tech/soo/optee_os/lib/libmbedtls/mbedtls/library/bignum.c:2280
    61c4:	e1a08006 	mov	r8, r6
/home/rossierd/soo.tech/soo/optee_os/lib/libmbedtls/mbedtls/library/bignum.c:2278
    61c8:	ebfff755 	bl	3f24 <mbedtls_mpi_bitlen>
/home/rossierd/soo.tech/soo/optee_os/lib/libmbedtls/mbedtls/library/bignum.c:2280 (discriminator 1)
    61cc:	e51b3074 	ldr	r3, [fp, #-116]	; 0xffffff8c
    61d0:	e1580003 	cmp	r8, r3
    61d4:	0a00001d 	beq	6250 <mpi_miller_rabin+0x12c>
    61d8:	e300912e 	movw	r9, #302	; 0x12e
/home/rossierd/soo.tech/soo/optee_os/lib/libmbedtls/mbedtls/library/bignum.c:2287
    61dc:	e24b4044 	sub	r4, fp, #68	; 0x44
    61e0:	e5971004 	ldr	r1, [r7, #4]
    61e4:	e1a00004 	mov	r0, r4
    61e8:	e51b307c 	ldr	r3, [fp, #-124]	; 0xffffff84
    61ec:	e51b2078 	ldr	r2, [fp, #-120]	; 0xffffff88
    61f0:	e1a01101 	lsl	r1, r1, #2
    61f4:	ebffffad 	bl	60b0 <mbedtls_mpi_fill_random>
    61f8:	e3500000 	cmp	r0, #0
    61fc:	1a000068 	bne	63a4 <mpi_miller_rabin+0x280>
/home/rossierd/soo.tech/soo/optee_os/lib/libmbedtls/mbedtls/library/bignum.c:2289
    6200:	e1a00004 	mov	r0, r4
    6204:	ebfff746 	bl	3f24 <mbedtls_mpi_bitlen>
    6208:	e1a0a000 	mov	sl, r0
/home/rossierd/soo.tech/soo/optee_os/lib/libmbedtls/mbedtls/library/bignum.c:2290
    620c:	e1a00005 	mov	r0, r5
    6210:	ebfff743 	bl	3f24 <mbedtls_mpi_bitlen>
/home/rossierd/soo.tech/soo/optee_os/lib/libmbedtls/mbedtls/library/bignum.c:2291
    6214:	e15a0000 	cmp	sl, r0
    6218:	9a000009 	bls	6244 <mpi_miller_rabin+0x120>
/home/rossierd/soo.tech/soo/optee_os/lib/libmbedtls/mbedtls/library/bignum.c:2292
    621c:	e51b3040 	ldr	r3, [fp, #-64]	; 0xffffffc0
    6220:	e3e0c000 	mvn	ip, #0
    6224:	e51b203c 	ldr	r2, [fp, #-60]	; 0xffffffc4
    6228:	e2431107 	sub	r1, r3, #-1073741823	; 0xc0000001
    622c:	e243337e 	sub	r3, r3, #-134217727	; 0xf8000001
    6230:	e1e03283 	mvn	r3, r3, lsl #5
    6234:	e0830000 	add	r0, r3, r0
    6238:	e7923101 	ldr	r3, [r2, r1, lsl #2]
    623c:	e1c3001c 	bic	r0, r3, ip, lsl r0
    6240:	e7820101 	str	r0, [r2, r1, lsl #2]
/home/rossierd/soo.tech/soo/optee_os/lib/libmbedtls/mbedtls/library/bignum.c:2295
    6244:	e2599001 	subs	r9, r9, #1
    6248:	1a00000d 	bne	6284 <mpi_miller_rabin+0x160>
/home/rossierd/soo.tech/soo/optee_os/lib/libmbedtls/mbedtls/library/bignum.c:2296
    624c:	e3e0600d 	mvn	r6, #13
/home/rossierd/soo.tech/soo/optee_os/lib/libmbedtls/mbedtls/library/bignum.c:2339
    6250:	e24b0068 	sub	r0, fp, #104	; 0x68
    6254:	ebfff58b 	bl	3888 <mbedtls_mpi_free>
    6258:	e24b005c 	sub	r0, fp, #92	; 0x5c
    625c:	ebfff589 	bl	3888 <mbedtls_mpi_free>
/home/rossierd/soo.tech/soo/optee_os/lib/libmbedtls/mbedtls/library/bignum.c:2340
    6260:	e24b0050 	sub	r0, fp, #80	; 0x50
    6264:	ebfff587 	bl	3888 <mbedtls_mpi_free>
    6268:	e24b0044 	sub	r0, fp, #68	; 0x44
    626c:	ebfff585 	bl	3888 <mbedtls_mpi_free>
/home/rossierd/soo.tech/soo/optee_os/lib/libmbedtls/mbedtls/library/bignum.c:2341
    6270:	e24b0038 	sub	r0, fp, #56	; 0x38
    6274:	ebfff583 	bl	3888 <mbedtls_mpi_free>
/home/rossierd/soo.tech/soo/optee_os/lib/libmbedtls/mbedtls/library/bignum.c:2344
    6278:	e1a00006 	mov	r0, r6
    627c:	e24bd028 	sub	sp, fp, #40	; 0x28
    6280:	e89daff0 	ldm	sp, {r4, r5, r6, r7, r8, r9, sl, fp, sp, pc}
/home/rossierd/soo.tech/soo/optee_os/lib/libmbedtls/mbedtls/library/bignum.c:2300
    6284:	e1a01005 	mov	r1, r5
    6288:	e1a00004 	mov	r0, r4
    628c:	ebfff854 	bl	43e4 <mbedtls_mpi_cmp_mpi>
/home/rossierd/soo.tech/soo/optee_os/lib/libmbedtls/mbedtls/library/bignum.c:2301
    6290:	e3500000 	cmp	r0, #0
    6294:	aaffffd1 	bge	61e0 <mpi_miller_rabin+0xbc>
/home/rossierd/soo.tech/soo/optee_os/lib/libmbedtls/mbedtls/library/bignum.c:2301 (discriminator 1)
    6298:	e3a01001 	mov	r1, #1
    629c:	e1a00004 	mov	r0, r4
    62a0:	ebfff892 	bl	44f0 <mbedtls_mpi_cmp_int>
/home/rossierd/soo.tech/soo/optee_os/lib/libmbedtls/mbedtls/library/bignum.c:2300 (discriminator 1)
    62a4:	e3500000 	cmp	r0, #0
    62a8:	daffffcc 	ble	61e0 <mpi_miller_rabin+0xbc>
/home/rossierd/soo.tech/soo/optee_os/lib/libmbedtls/mbedtls/library/bignum.c:2306
    62ac:	e24b3038 	sub	r3, fp, #56	; 0x38
    62b0:	e24b205c 	sub	r2, fp, #92	; 0x5c
    62b4:	e1a01004 	mov	r1, r4
    62b8:	e1a00004 	mov	r0, r4
    62bc:	e58d3000 	str	r3, [sp]
    62c0:	e1a03007 	mov	r3, r7
    62c4:	ebfffd79 	bl	58b0 <mbedtls_mpi_exp_mod>
    62c8:	e3500000 	cmp	r0, #0
    62cc:	1a000034 	bne	63a4 <mpi_miller_rabin+0x280>
/home/rossierd/soo.tech/soo/optee_os/lib/libmbedtls/mbedtls/library/bignum.c:2308
    62d0:	e1a01005 	mov	r1, r5
    62d4:	e1a00004 	mov	r0, r4
    62d8:	ebfff841 	bl	43e4 <mbedtls_mpi_cmp_mpi>
    62dc:	e3500000 	cmp	r0, #0
    62e0:	1a000001 	bne	62ec <mpi_miller_rabin+0x1c8>
/home/rossierd/soo.tech/soo/optee_os/lib/libmbedtls/mbedtls/library/bignum.c:2280
    62e4:	e2888001 	add	r8, r8, #1
    62e8:	eaffffb7 	b	61cc <mpi_miller_rabin+0xa8>
/home/rossierd/soo.tech/soo/optee_os/lib/libmbedtls/mbedtls/library/bignum.c:2309 (discriminator 1)
    62ec:	e3a01001 	mov	r1, #1
    62f0:	e1a00004 	mov	r0, r4
    62f4:	ebfff87d 	bl	44f0 <mbedtls_mpi_cmp_int>
/home/rossierd/soo.tech/soo/optee_os/lib/libmbedtls/mbedtls/library/bignum.c:2308 (discriminator 1)
    62f8:	e3500000 	cmp	r0, #0
    62fc:	13a09001 	movne	r9, #1
/home/rossierd/soo.tech/soo/optee_os/lib/libmbedtls/mbedtls/library/bignum.c:2318 (discriminator 1)
    6300:	124ba050 	subne	sl, fp, #80	; 0x50
/home/rossierd/soo.tech/soo/optee_os/lib/libmbedtls/mbedtls/library/bignum.c:2308 (discriminator 1)
    6304:	0afffff6 	beq	62e4 <mpi_miller_rabin+0x1c0>
/home/rossierd/soo.tech/soo/optee_os/lib/libmbedtls/mbedtls/library/bignum.c:2313
    6308:	e51b3070 	ldr	r3, [fp, #-112]	; 0xffffff90
    630c:	e1590003 	cmp	r9, r3
    6310:	2a000015 	bcs	636c <mpi_miller_rabin+0x248>
/home/rossierd/soo.tech/soo/optee_os/lib/libmbedtls/mbedtls/library/bignum.c:2313 (discriminator 1)
    6314:	e1a01005 	mov	r1, r5
    6318:	e1a00004 	mov	r0, r4
    631c:	ebfff830 	bl	43e4 <mbedtls_mpi_cmp_mpi>
    6320:	e3500000 	cmp	r0, #0
    6324:	0a000010 	beq	636c <mpi_miller_rabin+0x248>
/home/rossierd/soo.tech/soo/optee_os/lib/libmbedtls/mbedtls/library/bignum.c:2318
    6328:	e1a02004 	mov	r2, r4
    632c:	e1a01004 	mov	r1, r4
    6330:	e1a0000a 	mov	r0, sl
    6334:	ebfff970 	bl	48fc <mbedtls_mpi_mul_mpi>
    6338:	e3500000 	cmp	r0, #0
    633c:	1a000018 	bne	63a4 <mpi_miller_rabin+0x280>
/home/rossierd/soo.tech/soo/optee_os/lib/libmbedtls/mbedtls/library/bignum.c:2319
    6340:	e1a02007 	mov	r2, r7
    6344:	e1a0100a 	mov	r1, sl
    6348:	e1a00004 	mov	r0, r4
    634c:	ebfffbbf 	bl	5250 <mbedtls_mpi_mod_mpi>
    6350:	e3500000 	cmp	r0, #0
    6354:	1a000012 	bne	63a4 <mpi_miller_rabin+0x280>
/home/rossierd/soo.tech/soo/optee_os/lib/libmbedtls/mbedtls/library/bignum.c:2321
    6358:	e3a01001 	mov	r1, #1
    635c:	e1a00004 	mov	r0, r4
    6360:	ebfff862 	bl	44f0 <mbedtls_mpi_cmp_int>
    6364:	e3500000 	cmp	r0, #0
    6368:	1a00000b 	bne	639c <mpi_miller_rabin+0x278>
/home/rossierd/soo.tech/soo/optee_os/lib/libmbedtls/mbedtls/library/bignum.c:2330
    636c:	e24b4044 	sub	r4, fp, #68	; 0x44
    6370:	e1a01005 	mov	r1, r5
    6374:	e1a00004 	mov	r0, r4
    6378:	ebfff819 	bl	43e4 <mbedtls_mpi_cmp_mpi>
    637c:	e3500000 	cmp	r0, #0
    6380:	1affffb1 	bne	624c <mpi_miller_rabin+0x128>
/home/rossierd/soo.tech/soo/optee_os/lib/libmbedtls/mbedtls/library/bignum.c:2331 (discriminator 1)
    6384:	e3a01001 	mov	r1, #1
    6388:	e1a00004 	mov	r0, r4
    638c:	ebfff857 	bl	44f0 <mbedtls_mpi_cmp_int>
/home/rossierd/soo.tech/soo/optee_os/lib/libmbedtls/mbedtls/library/bignum.c:2330 (discriminator 1)
    6390:	e3500000 	cmp	r0, #0
    6394:	1affffd2 	bne	62e4 <mpi_miller_rabin+0x1c0>
    6398:	eaffffab 	b	624c <mpi_miller_rabin+0x128>
/home/rossierd/soo.tech/soo/optee_os/lib/libmbedtls/mbedtls/library/bignum.c:2324
    639c:	e2899001 	add	r9, r9, #1
    63a0:	eaffffd8 	b	6308 <mpi_miller_rabin+0x1e4>
/home/rossierd/soo.tech/soo/optee_os/lib/libmbedtls/mbedtls/library/bignum.c:2319
    63a4:	e1a06000 	mov	r6, r0
    63a8:	eaffffa8 	b	6250 <mpi_miller_rabin+0x12c>

000063ac <mbedtls_mpi_inv_mod>:
mbedtls_mpi_inv_mod():
/home/rossierd/soo.tech/soo/optee_os/lib/libmbedtls/mbedtls/library/bignum.c:2095
    63ac:	e1a0c00d 	mov	ip, sp
    63b0:	e92ddff0 	push	{r4, r5, r6, r7, r8, r9, sl, fp, ip, lr, pc}
    63b4:	e24cb004 	sub	fp, ip, #4
    63b8:	e24dd08c 	sub	sp, sp, #140	; 0x8c
    63bc:	e1a06001 	mov	r6, r1
/home/rossierd/soo.tech/soo/optee_os/lib/libmbedtls/mbedtls/library/bignum.c:2102
    63c0:	e3a01001 	mov	r1, #1
/home/rossierd/soo.tech/soo/optee_os/lib/libmbedtls/mbedtls/library/bignum.c:2095
    63c4:	e1a04002 	mov	r4, r2
    63c8:	e50b00ac 	str	r0, [fp, #-172]	; 0xffffff54
/home/rossierd/soo.tech/soo/optee_os/lib/libmbedtls/mbedtls/library/bignum.c:2102
    63cc:	e1a00002 	mov	r0, r2
    63d0:	ebfff846 	bl	44f0 <mbedtls_mpi_cmp_int>
    63d4:	e3500000 	cmp	r0, #0
/home/rossierd/soo.tech/soo/optee_os/lib/libmbedtls/mbedtls/library/bignum.c:2103
    63d8:	d3e01003 	mvnle	r1, #3
/home/rossierd/soo.tech/soo/optee_os/lib/libmbedtls/mbedtls/library/bignum.c:2102
    63dc:	da000064 	ble	6574 <mbedtls_mpi_inv_mod+0x1c8>
/home/rossierd/soo.tech/soo/optee_os/lib/libmbedtls/mbedtls/library/bignum.c:2105
    63e0:	e24b508c 	sub	r5, fp, #140	; 0x8c
    63e4:	e24ba080 	sub	sl, fp, #128	; 0x80
    63e8:	e1a00005 	mov	r0, r5
/home/rossierd/soo.tech/soo/optee_os/lib/libmbedtls/mbedtls/library/bignum.c:2106
    63ec:	e24b9074 	sub	r9, fp, #116	; 0x74
/home/rossierd/soo.tech/soo/optee_os/lib/libmbedtls/mbedtls/library/bignum.c:2105
    63f0:	ebfff511 	bl	383c <mbedtls_mpi_init_mempool>
    63f4:	e1a0000a 	mov	r0, sl
/home/rossierd/soo.tech/soo/optee_os/lib/libmbedtls/mbedtls/library/bignum.c:2106
    63f8:	e24b8068 	sub	r8, fp, #104	; 0x68
/home/rossierd/soo.tech/soo/optee_os/lib/libmbedtls/mbedtls/library/bignum.c:2105
    63fc:	ebfff50e 	bl	383c <mbedtls_mpi_init_mempool>
/home/rossierd/soo.tech/soo/optee_os/lib/libmbedtls/mbedtls/library/bignum.c:2106
    6400:	e1a00009 	mov	r0, r9
/home/rossierd/soo.tech/soo/optee_os/lib/libmbedtls/mbedtls/library/bignum.c:2107
    6404:	e24b7098 	sub	r7, fp, #152	; 0x98
/home/rossierd/soo.tech/soo/optee_os/lib/libmbedtls/mbedtls/library/bignum.c:2106
    6408:	ebfff50b 	bl	383c <mbedtls_mpi_init_mempool>
    640c:	e1a00008 	mov	r0, r8
    6410:	ebfff509 	bl	383c <mbedtls_mpi_init_mempool>
/home/rossierd/soo.tech/soo/optee_os/lib/libmbedtls/mbedtls/library/bignum.c:2107
    6414:	e1a00007 	mov	r0, r7
    6418:	ebfff507 	bl	383c <mbedtls_mpi_init_mempool>
    641c:	e24b305c 	sub	r3, fp, #92	; 0x5c
    6420:	e1a00003 	mov	r0, r3
    6424:	e50b30a0 	str	r3, [fp, #-160]	; 0xffffff60
    6428:	ebfff503 	bl	383c <mbedtls_mpi_init_mempool>
/home/rossierd/soo.tech/soo/optee_os/lib/libmbedtls/mbedtls/library/bignum.c:2108
    642c:	e24b3050 	sub	r3, fp, #80	; 0x50
    6430:	e1a00003 	mov	r0, r3
    6434:	e50b30a4 	str	r3, [fp, #-164]	; 0xffffff5c
    6438:	ebfff4ff 	bl	383c <mbedtls_mpi_init_mempool>
    643c:	e24b3044 	sub	r3, fp, #68	; 0x44
    6440:	e1a00003 	mov	r0, r3
    6444:	e50b30a8 	str	r3, [fp, #-168]	; 0xffffff58
    6448:	ebfff4fb 	bl	383c <mbedtls_mpi_init_mempool>
/home/rossierd/soo.tech/soo/optee_os/lib/libmbedtls/mbedtls/library/bignum.c:2109
    644c:	e24b0038 	sub	r0, fp, #56	; 0x38
    6450:	ebfff4f9 	bl	383c <mbedtls_mpi_init_mempool>
/home/rossierd/soo.tech/soo/optee_os/lib/libmbedtls/mbedtls/library/bignum.c:2111
    6454:	e1a01006 	mov	r1, r6
    6458:	e1a02004 	mov	r2, r4
    645c:	e1a00007 	mov	r0, r7
    6460:	ebfffea5 	bl	5efc <mbedtls_mpi_gcd>
    6464:	e2501000 	subs	r1, r0, #0
    6468:	1a00002d 	bne	6524 <mbedtls_mpi_inv_mod+0x178>
/home/rossierd/soo.tech/soo/optee_os/lib/libmbedtls/mbedtls/library/bignum.c:2113
    646c:	e3a01001 	mov	r1, #1
    6470:	e1a00007 	mov	r0, r7
    6474:	ebfff81d 	bl	44f0 <mbedtls_mpi_cmp_int>
    6478:	e3500000 	cmp	r0, #0
/home/rossierd/soo.tech/soo/optee_os/lib/libmbedtls/mbedtls/library/bignum.c:2115
    647c:	13e0100d 	mvnne	r1, #13
/home/rossierd/soo.tech/soo/optee_os/lib/libmbedtls/mbedtls/library/bignum.c:2113
    6480:	1a000027 	bne	6524 <mbedtls_mpi_inv_mod+0x178>
/home/rossierd/soo.tech/soo/optee_os/lib/libmbedtls/mbedtls/library/bignum.c:2119
    6484:	e1a01006 	mov	r1, r6
    6488:	e1a02004 	mov	r2, r4
    648c:	e1a00005 	mov	r0, r5
    6490:	ebfffb6e 	bl	5250 <mbedtls_mpi_mod_mpi>
    6494:	e2501000 	subs	r1, r0, #0
    6498:	1a000021 	bne	6524 <mbedtls_mpi_inv_mod+0x178>
/home/rossierd/soo.tech/soo/optee_os/lib/libmbedtls/mbedtls/library/bignum.c:2120
    649c:	e1a01005 	mov	r1, r5
    64a0:	e1a0000a 	mov	r0, sl
    64a4:	ebfff5a4 	bl	3b3c <mbedtls_mpi_copy>
    64a8:	e2501000 	subs	r1, r0, #0
    64ac:	1a00001c 	bne	6524 <mbedtls_mpi_inv_mod+0x178>
/home/rossierd/soo.tech/soo/optee_os/lib/libmbedtls/mbedtls/library/bignum.c:2121
    64b0:	e1a01004 	mov	r1, r4
    64b4:	e51b00a0 	ldr	r0, [fp, #-160]	; 0xffffff60
    64b8:	ebfff59f 	bl	3b3c <mbedtls_mpi_copy>
    64bc:	e2501000 	subs	r1, r0, #0
    64c0:	1a000017 	bne	6524 <mbedtls_mpi_inv_mod+0x178>
/home/rossierd/soo.tech/soo/optee_os/lib/libmbedtls/mbedtls/library/bignum.c:2122
    64c4:	e1a01004 	mov	r1, r4
    64c8:	e51b00a4 	ldr	r0, [fp, #-164]	; 0xffffff5c
    64cc:	ebfff59a 	bl	3b3c <mbedtls_mpi_copy>
    64d0:	e2501000 	subs	r1, r0, #0
    64d4:	1a000012 	bne	6524 <mbedtls_mpi_inv_mod+0x178>
/home/rossierd/soo.tech/soo/optee_os/lib/libmbedtls/mbedtls/library/bignum.c:2124
    64d8:	e3a01001 	mov	r1, #1
    64dc:	e1a00009 	mov	r0, r9
    64e0:	ebfff635 	bl	3dbc <mbedtls_mpi_lset>
    64e4:	e2501000 	subs	r1, r0, #0
    64e8:	1a00000d 	bne	6524 <mbedtls_mpi_inv_mod+0x178>
/home/rossierd/soo.tech/soo/optee_os/lib/libmbedtls/mbedtls/library/bignum.c:2125
    64ec:	e1a00008 	mov	r0, r8
    64f0:	ebfff631 	bl	3dbc <mbedtls_mpi_lset>
    64f4:	e2501000 	subs	r1, r0, #0
    64f8:	1a000009 	bne	6524 <mbedtls_mpi_inv_mod+0x178>
/home/rossierd/soo.tech/soo/optee_os/lib/libmbedtls/mbedtls/library/bignum.c:2126
    64fc:	e51b00a8 	ldr	r0, [fp, #-168]	; 0xffffff58
    6500:	ebfff62d 	bl	3dbc <mbedtls_mpi_lset>
    6504:	e2501000 	subs	r1, r0, #0
    6508:	1a000005 	bne	6524 <mbedtls_mpi_inv_mod+0x178>
/home/rossierd/soo.tech/soo/optee_os/lib/libmbedtls/mbedtls/library/bignum.c:2127
    650c:	e3a01001 	mov	r1, #1
    6510:	e24b0038 	sub	r0, fp, #56	; 0x38
    6514:	ebfff628 	bl	3dbc <mbedtls_mpi_lset>
    6518:	e2501000 	subs	r1, r0, #0
    651c:	024b6050 	subeq	r6, fp, #80	; 0x50
    6520:	0a00002d 	beq	65dc <mbedtls_mpi_inv_mod+0x230>
/home/rossierd/soo.tech/soo/optee_os/lib/libmbedtls/mbedtls/library/bignum.c:2184
    6524:	e1a00005 	mov	r0, r5
    6528:	e50b10ac 	str	r1, [fp, #-172]	; 0xffffff54
    652c:	ebfff4d5 	bl	3888 <mbedtls_mpi_free>
    6530:	e1a0000a 	mov	r0, sl
    6534:	ebfff4d3 	bl	3888 <mbedtls_mpi_free>
    6538:	e1a00009 	mov	r0, r9
    653c:	ebfff4d1 	bl	3888 <mbedtls_mpi_free>
    6540:	e1a00008 	mov	r0, r8
    6544:	ebfff4cf 	bl	3888 <mbedtls_mpi_free>
/home/rossierd/soo.tech/soo/optee_os/lib/libmbedtls/mbedtls/library/bignum.c:2185
    6548:	e1a00007 	mov	r0, r7
    654c:	ebfff4cd 	bl	3888 <mbedtls_mpi_free>
    6550:	e51b00a0 	ldr	r0, [fp, #-160]	; 0xffffff60
    6554:	ebfff4cb 	bl	3888 <mbedtls_mpi_free>
    6558:	e51b00a4 	ldr	r0, [fp, #-164]	; 0xffffff5c
    655c:	ebfff4c9 	bl	3888 <mbedtls_mpi_free>
/home/rossierd/soo.tech/soo/optee_os/lib/libmbedtls/mbedtls/library/bignum.c:2186
    6560:	e51b00a8 	ldr	r0, [fp, #-168]	; 0xffffff58
    6564:	ebfff4c7 	bl	3888 <mbedtls_mpi_free>
    6568:	e24b0038 	sub	r0, fp, #56	; 0x38
    656c:	ebfff4c5 	bl	3888 <mbedtls_mpi_free>
/home/rossierd/soo.tech/soo/optee_os/lib/libmbedtls/mbedtls/library/bignum.c:2188
    6570:	e51b10ac 	ldr	r1, [fp, #-172]	; 0xffffff54
/home/rossierd/soo.tech/soo/optee_os/lib/libmbedtls/mbedtls/library/bignum.c:2189
    6574:	e1a00001 	mov	r0, r1
    6578:	e24bd028 	sub	sp, fp, #40	; 0x28
    657c:	e89daff0 	ldm	sp, {r4, r5, r6, r7, r8, r9, sl, fp, sp, pc}
/home/rossierd/soo.tech/soo/optee_os/lib/libmbedtls/mbedtls/library/bignum.c:2133
    6580:	e3a01001 	mov	r1, #1
    6584:	e24b0080 	sub	r0, fp, #128	; 0x80
    6588:	ebfff725 	bl	4224 <mbedtls_mpi_shift_r>
    658c:	e2501000 	subs	r1, r0, #0
    6590:	1affffe3 	bne	6524 <mbedtls_mpi_inv_mod+0x178>
/home/rossierd/soo.tech/soo/optee_os/lib/libmbedtls/mbedtls/library/bignum.c:2135
    6594:	e51b306c 	ldr	r3, [fp, #-108]	; 0xffffff94
    6598:	e5933000 	ldr	r3, [r3]
    659c:	e3130001 	tst	r3, #1
    65a0:	1a000044 	bne	66b8 <mbedtls_mpi_inv_mod+0x30c>
/home/rossierd/soo.tech/soo/optee_os/lib/libmbedtls/mbedtls/library/bignum.c:2135 (discriminator 1)
    65a4:	e51b3060 	ldr	r3, [fp, #-96]	; 0xffffffa0
    65a8:	e5933000 	ldr	r3, [r3]
    65ac:	e3130001 	tst	r3, #1
    65b0:	1a000040 	bne	66b8 <mbedtls_mpi_inv_mod+0x30c>
/home/rossierd/soo.tech/soo/optee_os/lib/libmbedtls/mbedtls/library/bignum.c:2141
    65b4:	e3a01001 	mov	r1, #1
    65b8:	e24b0074 	sub	r0, fp, #116	; 0x74
    65bc:	ebfff718 	bl	4224 <mbedtls_mpi_shift_r>
    65c0:	e2501000 	subs	r1, r0, #0
    65c4:	1affffd6 	bne	6524 <mbedtls_mpi_inv_mod+0x178>
/home/rossierd/soo.tech/soo/optee_os/lib/libmbedtls/mbedtls/library/bignum.c:2142
    65c8:	e3a01001 	mov	r1, #1
    65cc:	e24b0068 	sub	r0, fp, #104	; 0x68
    65d0:	ebfff713 	bl	4224 <mbedtls_mpi_shift_r>
    65d4:	e2501000 	subs	r1, r0, #0
    65d8:	1affffd1 	bne	6524 <mbedtls_mpi_inv_mod+0x178>
/home/rossierd/soo.tech/soo/optee_os/lib/libmbedtls/mbedtls/library/bignum.c:2131
    65dc:	e51b3078 	ldr	r3, [fp, #-120]	; 0xffffff88
    65e0:	e5933000 	ldr	r3, [r3]
    65e4:	e3130001 	tst	r3, #1
    65e8:	0affffe4 	beq	6580 <mbedtls_mpi_inv_mod+0x1d4>
/home/rossierd/soo.tech/soo/optee_os/lib/libmbedtls/mbedtls/library/bignum.c:2145
    65ec:	e51b3048 	ldr	r3, [fp, #-72]	; 0xffffffb8
    65f0:	e5933000 	ldr	r3, [r3]
    65f4:	e3130001 	tst	r3, #1
    65f8:	0a00003b 	beq	66ec <mbedtls_mpi_inv_mod+0x340>
/home/rossierd/soo.tech/soo/optee_os/lib/libmbedtls/mbedtls/library/bignum.c:2159
    65fc:	e24b3080 	sub	r3, fp, #128	; 0x80
    6600:	e1a01006 	mov	r1, r6
    6604:	e1a00003 	mov	r0, r3
    6608:	e50b30b0 	str	r3, [fp, #-176]	; 0xffffff50
    660c:	ebfff774 	bl	43e4 <mbedtls_mpi_cmp_mpi>
    6610:	e3500000 	cmp	r0, #0
    6614:	e51b30b0 	ldr	r3, [fp, #-176]	; 0xffffff50
    6618:	ba000058 	blt	6780 <mbedtls_mpi_inv_mod+0x3d4>
/home/rossierd/soo.tech/soo/optee_os/lib/libmbedtls/mbedtls/library/bignum.c:2161
    661c:	e1a01003 	mov	r1, r3
    6620:	e1a02006 	mov	r2, r6
    6624:	e1a00003 	mov	r0, r3
    6628:	ebfff86b 	bl	47dc <mbedtls_mpi_sub_mpi>
    662c:	e2501000 	subs	r1, r0, #0
    6630:	1affffbb 	bne	6524 <mbedtls_mpi_inv_mod+0x178>
/home/rossierd/soo.tech/soo/optee_os/lib/libmbedtls/mbedtls/library/bignum.c:2162
    6634:	e24b1074 	sub	r1, fp, #116	; 0x74
    6638:	e24b2044 	sub	r2, fp, #68	; 0x44
    663c:	e1a00001 	mov	r0, r1
    6640:	ebfff865 	bl	47dc <mbedtls_mpi_sub_mpi>
    6644:	e2501000 	subs	r1, r0, #0
    6648:	1affffb5 	bne	6524 <mbedtls_mpi_inv_mod+0x178>
/home/rossierd/soo.tech/soo/optee_os/lib/libmbedtls/mbedtls/library/bignum.c:2163
    664c:	e24b2038 	sub	r2, fp, #56	; 0x38
    6650:	e24b1068 	sub	r1, fp, #104	; 0x68
    6654:	e1a00001 	mov	r0, r1
    6658:	ebfff85f 	bl	47dc <mbedtls_mpi_sub_mpi>
    665c:	e2501000 	subs	r1, r0, #0
    6660:	1affffaf 	bne	6524 <mbedtls_mpi_inv_mod+0x178>
/home/rossierd/soo.tech/soo/optee_os/lib/libmbedtls/mbedtls/library/bignum.c:2172
    6664:	e3a01000 	mov	r1, #0
    6668:	e24b0080 	sub	r0, fp, #128	; 0x80
    666c:	ebfff79f 	bl	44f0 <mbedtls_mpi_cmp_int>
    6670:	e3500000 	cmp	r0, #0
    6674:	1affffd8 	bne	65dc <mbedtls_mpi_inv_mod+0x230>
/home/rossierd/soo.tech/soo/optee_os/lib/libmbedtls/mbedtls/library/bignum.c:2174
    6678:	e24b6044 	sub	r6, fp, #68	; 0x44
    667c:	e3a01000 	mov	r1, #0
    6680:	e1a00006 	mov	r0, r6
    6684:	ebfff799 	bl	44f0 <mbedtls_mpi_cmp_int>
    6688:	e3500000 	cmp	r0, #0
    668c:	ba00004a 	blt	67bc <mbedtls_mpi_inv_mod+0x410>
/home/rossierd/soo.tech/soo/optee_os/lib/libmbedtls/mbedtls/library/bignum.c:2177
    6690:	e1a01004 	mov	r1, r4
    6694:	e1a00006 	mov	r0, r6
    6698:	ebfff751 	bl	43e4 <mbedtls_mpi_cmp_mpi>
    669c:	e3500000 	cmp	r0, #0
    66a0:	aa00004c 	bge	67d8 <mbedtls_mpi_inv_mod+0x42c>
/home/rossierd/soo.tech/soo/optee_os/lib/libmbedtls/mbedtls/library/bignum.c:2180
    66a4:	e1a01006 	mov	r1, r6
    66a8:	e51b00ac 	ldr	r0, [fp, #-172]	; 0xffffff54
    66ac:	ebfff522 	bl	3b3c <mbedtls_mpi_copy>
    66b0:	e1a01000 	mov	r1, r0
    66b4:	eaffff9a 	b	6524 <mbedtls_mpi_inv_mod+0x178>
/home/rossierd/soo.tech/soo/optee_os/lib/libmbedtls/mbedtls/library/bignum.c:2137
    66b8:	e24b1074 	sub	r1, fp, #116	; 0x74
    66bc:	e24b205c 	sub	r2, fp, #92	; 0x5c
    66c0:	e1a00001 	mov	r0, r1
    66c4:	ebfff823 	bl	4758 <mbedtls_mpi_add_mpi>
    66c8:	e2501000 	subs	r1, r0, #0
    66cc:	1affff94 	bne	6524 <mbedtls_mpi_inv_mod+0x178>
/home/rossierd/soo.tech/soo/optee_os/lib/libmbedtls/mbedtls/library/bignum.c:2138
    66d0:	e24b1068 	sub	r1, fp, #104	; 0x68
    66d4:	e1a02005 	mov	r2, r5
    66d8:	e1a00001 	mov	r0, r1
    66dc:	ebfff83e 	bl	47dc <mbedtls_mpi_sub_mpi>
    66e0:	e2501000 	subs	r1, r0, #0
    66e4:	0affffb2 	beq	65b4 <mbedtls_mpi_inv_mod+0x208>
    66e8:	eaffff8d 	b	6524 <mbedtls_mpi_inv_mod+0x178>
/home/rossierd/soo.tech/soo/optee_os/lib/libmbedtls/mbedtls/library/bignum.c:2147
    66ec:	e3a01001 	mov	r1, #1
    66f0:	e1a00006 	mov	r0, r6
    66f4:	ebfff6ca 	bl	4224 <mbedtls_mpi_shift_r>
    66f8:	e2501000 	subs	r1, r0, #0
    66fc:	1affff88 	bne	6524 <mbedtls_mpi_inv_mod+0x178>
/home/rossierd/soo.tech/soo/optee_os/lib/libmbedtls/mbedtls/library/bignum.c:2149
    6700:	e51b303c 	ldr	r3, [fp, #-60]	; 0xffffffc4
    6704:	e5933000 	ldr	r3, [r3]
    6708:	e3130001 	tst	r3, #1
    670c:	1a00000e 	bne	674c <mbedtls_mpi_inv_mod+0x3a0>
/home/rossierd/soo.tech/soo/optee_os/lib/libmbedtls/mbedtls/library/bignum.c:2149 (discriminator 1)
    6710:	e51b3030 	ldr	r3, [fp, #-48]	; 0xffffffd0
    6714:	e5933000 	ldr	r3, [r3]
    6718:	e3130001 	tst	r3, #1
    671c:	1a00000a 	bne	674c <mbedtls_mpi_inv_mod+0x3a0>
/home/rossierd/soo.tech/soo/optee_os/lib/libmbedtls/mbedtls/library/bignum.c:2155
    6720:	e3a01001 	mov	r1, #1
    6724:	e24b0044 	sub	r0, fp, #68	; 0x44
    6728:	ebfff6bd 	bl	4224 <mbedtls_mpi_shift_r>
    672c:	e2501000 	subs	r1, r0, #0
    6730:	1affff7b 	bne	6524 <mbedtls_mpi_inv_mod+0x178>
/home/rossierd/soo.tech/soo/optee_os/lib/libmbedtls/mbedtls/library/bignum.c:2156
    6734:	e3a01001 	mov	r1, #1
    6738:	e24b0038 	sub	r0, fp, #56	; 0x38
    673c:	ebfff6b8 	bl	4224 <mbedtls_mpi_shift_r>
    6740:	e2501000 	subs	r1, r0, #0
    6744:	0affffa8 	beq	65ec <mbedtls_mpi_inv_mod+0x240>
    6748:	eaffff75 	b	6524 <mbedtls_mpi_inv_mod+0x178>
/home/rossierd/soo.tech/soo/optee_os/lib/libmbedtls/mbedtls/library/bignum.c:2151
    674c:	e24b1044 	sub	r1, fp, #68	; 0x44
    6750:	e24b205c 	sub	r2, fp, #92	; 0x5c
    6754:	e1a00001 	mov	r0, r1
    6758:	ebfff7fe 	bl	4758 <mbedtls_mpi_add_mpi>
    675c:	e2501000 	subs	r1, r0, #0
    6760:	1affff6f 	bne	6524 <mbedtls_mpi_inv_mod+0x178>
/home/rossierd/soo.tech/soo/optee_os/lib/libmbedtls/mbedtls/library/bignum.c:2152
    6764:	e24b1038 	sub	r1, fp, #56	; 0x38
    6768:	e1a02005 	mov	r2, r5
    676c:	e1a00001 	mov	r0, r1
    6770:	ebfff819 	bl	47dc <mbedtls_mpi_sub_mpi>
    6774:	e2501000 	subs	r1, r0, #0
    6778:	0affffe8 	beq	6720 <mbedtls_mpi_inv_mod+0x374>
    677c:	eaffff68 	b	6524 <mbedtls_mpi_inv_mod+0x178>
/home/rossierd/soo.tech/soo/optee_os/lib/libmbedtls/mbedtls/library/bignum.c:2167
    6780:	e1a01006 	mov	r1, r6
    6784:	e1a02003 	mov	r2, r3
    6788:	e1a00006 	mov	r0, r6
    678c:	ebfff812 	bl	47dc <mbedtls_mpi_sub_mpi>
    6790:	e2501000 	subs	r1, r0, #0
    6794:	1affff62 	bne	6524 <mbedtls_mpi_inv_mod+0x178>
/home/rossierd/soo.tech/soo/optee_os/lib/libmbedtls/mbedtls/library/bignum.c:2168
    6798:	e24b1044 	sub	r1, fp, #68	; 0x44
    679c:	e24b2074 	sub	r2, fp, #116	; 0x74
    67a0:	e1a00001 	mov	r0, r1
    67a4:	ebfff80c 	bl	47dc <mbedtls_mpi_sub_mpi>
    67a8:	e2501000 	subs	r1, r0, #0
    67ac:	1affff5c 	bne	6524 <mbedtls_mpi_inv_mod+0x178>
/home/rossierd/soo.tech/soo/optee_os/lib/libmbedtls/mbedtls/library/bignum.c:2169
    67b0:	e24b2068 	sub	r2, fp, #104	; 0x68
    67b4:	e24b1038 	sub	r1, fp, #56	; 0x38
    67b8:	eaffffa5 	b	6654 <mbedtls_mpi_inv_mod+0x2a8>
/home/rossierd/soo.tech/soo/optee_os/lib/libmbedtls/mbedtls/library/bignum.c:2175
    67bc:	e1a01006 	mov	r1, r6
    67c0:	e1a02004 	mov	r2, r4
    67c4:	e1a00006 	mov	r0, r6
    67c8:	ebfff7e2 	bl	4758 <mbedtls_mpi_add_mpi>
    67cc:	e2501000 	subs	r1, r0, #0
    67d0:	0affffa9 	beq	667c <mbedtls_mpi_inv_mod+0x2d0>
    67d4:	eaffff52 	b	6524 <mbedtls_mpi_inv_mod+0x178>
/home/rossierd/soo.tech/soo/optee_os/lib/libmbedtls/mbedtls/library/bignum.c:2178
    67d8:	e1a01006 	mov	r1, r6
    67dc:	e1a02004 	mov	r2, r4
    67e0:	e1a00006 	mov	r0, r6
    67e4:	ebfff7fc 	bl	47dc <mbedtls_mpi_sub_mpi>
    67e8:	e2501000 	subs	r1, r0, #0
    67ec:	0affffa7 	beq	6690 <mbedtls_mpi_inv_mod+0x2e4>
    67f0:	eaffff4b 	b	6524 <mbedtls_mpi_inv_mod+0x178>

000067f4 <mbedtls_mpi_is_prime_ext>:
mbedtls_mpi_is_prime_ext():
/home/rossierd/soo.tech/soo/optee_os/lib/libmbedtls/mbedtls/library/bignum.c:2352
    67f4:	e1a0c00d 	mov	ip, sp
    67f8:	e92dd9f0 	push	{r4, r5, r6, r7, r8, fp, ip, lr, pc}
    67fc:	e24cb004 	sub	fp, ip, #4
    6800:	e24dd014 	sub	sp, sp, #20
    6804:	e1a08003 	mov	r8, r3
/home/rossierd/soo.tech/soo/optee_os/lib/libmbedtls/mbedtls/library/bignum.c:2358
    6808:	e3a05001 	mov	r5, #1
/home/rossierd/soo.tech/soo/optee_os/lib/libmbedtls/mbedtls/library/bignum.c:2362
    680c:	e24b4030 	sub	r4, fp, #48	; 0x30
/home/rossierd/soo.tech/soo/optee_os/lib/libmbedtls/mbedtls/library/bignum.c:2359
    6810:	e5903004 	ldr	r3, [r0, #4]
/home/rossierd/soo.tech/soo/optee_os/lib/libmbedtls/mbedtls/library/bignum.c:2352
    6814:	e1a06001 	mov	r6, r1
/home/rossierd/soo.tech/soo/optee_os/lib/libmbedtls/mbedtls/library/bignum.c:2362
    6818:	e3a01000 	mov	r1, #0
/home/rossierd/soo.tech/soo/optee_os/lib/libmbedtls/mbedtls/library/bignum.c:2352
    681c:	e1a07002 	mov	r7, r2
/home/rossierd/soo.tech/soo/optee_os/lib/libmbedtls/mbedtls/library/bignum.c:2358
    6820:	e14b53b0 	strh	r5, [fp, #-48]	; 0xffffffd0
/home/rossierd/soo.tech/soo/optee_os/lib/libmbedtls/mbedtls/library/bignum.c:2359
    6824:	e50b302c 	str	r3, [fp, #-44]	; 0xffffffd4
/home/rossierd/soo.tech/soo/optee_os/lib/libmbedtls/mbedtls/library/bignum.c:2360
    6828:	e5903008 	ldr	r3, [r0, #8]
/home/rossierd/soo.tech/soo/optee_os/lib/libmbedtls/mbedtls/library/bignum.c:2362
    682c:	e1a00004 	mov	r0, r4
/home/rossierd/soo.tech/soo/optee_os/lib/libmbedtls/mbedtls/library/bignum.c:2360
    6830:	e50b3028 	str	r3, [fp, #-40]	; 0xffffffd8
/home/rossierd/soo.tech/soo/optee_os/lib/libmbedtls/mbedtls/library/bignum.c:2362
    6834:	ebfff72d 	bl	44f0 <mbedtls_mpi_cmp_int>
    6838:	e3500000 	cmp	r0, #0
    683c:	1a000002 	bne	684c <mbedtls_mpi_is_prime_ext+0x58>
/home/rossierd/soo.tech/soo/optee_os/lib/libmbedtls/mbedtls/library/bignum.c:2364
    6840:	e3e0000d 	mvn	r0, #13
/home/rossierd/soo.tech/soo/optee_os/lib/libmbedtls/mbedtls/library/bignum.c:2378
    6844:	e24bd020 	sub	sp, fp, #32
    6848:	e89da9f0 	ldm	sp, {r4, r5, r6, r7, r8, fp, sp, pc}
/home/rossierd/soo.tech/soo/optee_os/lib/libmbedtls/mbedtls/library/bignum.c:2363 (discriminator 1)
    684c:	e1a01005 	mov	r1, r5
    6850:	e1a00004 	mov	r0, r4
    6854:	ebfff725 	bl	44f0 <mbedtls_mpi_cmp_int>
/home/rossierd/soo.tech/soo/optee_os/lib/libmbedtls/mbedtls/library/bignum.c:2362 (discriminator 1)
    6858:	e3500000 	cmp	r0, #0
    685c:	0afffff7 	beq	6840 <mbedtls_mpi_is_prime_ext+0x4c>
/home/rossierd/soo.tech/soo/optee_os/lib/libmbedtls/mbedtls/library/bignum.c:2366
    6860:	e3a01002 	mov	r1, #2
    6864:	e1a00004 	mov	r0, r4
    6868:	ebfff720 	bl	44f0 <mbedtls_mpi_cmp_int>
    686c:	e3500000 	cmp	r0, #0
    6870:	0a000005 	beq	688c <mbedtls_mpi_is_prime_ext+0x98>
/home/rossierd/soo.tech/soo/optee_os/lib/libmbedtls/mbedtls/library/bignum.c:2369
    6874:	e1a00004 	mov	r0, r4
    6878:	ebfffb70 	bl	5640 <mpi_check_small_factors>
    687c:	e3500000 	cmp	r0, #0
    6880:	0a000003 	beq	6894 <mbedtls_mpi_is_prime_ext+0xa0>
/home/rossierd/soo.tech/soo/optee_os/lib/libmbedtls/mbedtls/library/bignum.c:2371
    6884:	e3500001 	cmp	r0, #1
    6888:	1affffed 	bne	6844 <mbedtls_mpi_is_prime_ext+0x50>
/home/rossierd/soo.tech/soo/optee_os/lib/libmbedtls/mbedtls/library/bignum.c:2372
    688c:	e3a00000 	mov	r0, #0
    6890:	eaffffeb 	b	6844 <mbedtls_mpi_is_prime_ext+0x50>
/home/rossierd/soo.tech/soo/optee_os/lib/libmbedtls/mbedtls/library/bignum.c:2377
    6894:	e1a03008 	mov	r3, r8
    6898:	e1a02007 	mov	r2, r7
    689c:	e1a01006 	mov	r1, r6
    68a0:	e1a00004 	mov	r0, r4
    68a4:	ebfffe1e 	bl	6124 <mpi_miller_rabin>
    68a8:	eaffffe5 	b	6844 <mbedtls_mpi_is_prime_ext+0x50>

000068ac <mbedtls_mpi_is_prime>:
mbedtls_mpi_is_prime():
/home/rossierd/soo.tech/soo/optee_os/lib/libmbedtls/mbedtls/library/bignum.c:2387
    68ac:	e1a0c00d 	mov	ip, sp
/home/rossierd/soo.tech/soo/optee_os/lib/libmbedtls/mbedtls/library/bignum.c:2396
    68b0:	e1a03002 	mov	r3, r2
    68b4:	e1a02001 	mov	r2, r1
    68b8:	e3a01028 	mov	r1, #40	; 0x28
/home/rossierd/soo.tech/soo/optee_os/lib/libmbedtls/mbedtls/library/bignum.c:2387
    68bc:	e92dd800 	push	{fp, ip, lr, pc}
    68c0:	e24cb004 	sub	fp, ip, #4
/home/rossierd/soo.tech/soo/optee_os/lib/libmbedtls/mbedtls/library/bignum.c:2397
    68c4:	e24bd00c 	sub	sp, fp, #12
    68c8:	e89d6800 	ldm	sp, {fp, sp, lr}
/home/rossierd/soo.tech/soo/optee_os/lib/libmbedtls/mbedtls/library/bignum.c:2396
    68cc:	eaffffc8 	b	67f4 <mbedtls_mpi_is_prime_ext>

000068d0 <mbedtls_mpi_gen_prime>:
mbedtls_mpi_gen_prime():
/home/rossierd/soo.tech/soo/optee_os/lib/libmbedtls/mbedtls/library/bignum.c:2410
    68d0:	e1a0c00d 	mov	ip, sp
    68d4:	e92ddff0 	push	{r4, r5, r6, r7, r8, r9, sl, fp, ip, lr, pc}
    68d8:	e1a0a002 	mov	sl, r2
    68dc:	e1a08003 	mov	r8, r3
/home/rossierd/soo.tech/soo/optee_os/lib/libmbedtls/mbedtls/library/bignum.c:2427
    68e0:	e2412003 	sub	r2, r1, #3
    68e4:	e3013ffd 	movw	r3, #8189	; 0x1ffd
/home/rossierd/soo.tech/soo/optee_os/lib/libmbedtls/mbedtls/library/bignum.c:2410
    68e8:	e24cb004 	sub	fp, ip, #4
    68ec:	e24dd01c 	sub	sp, sp, #28
/home/rossierd/soo.tech/soo/optee_os/lib/libmbedtls/mbedtls/library/bignum.c:2427
    68f0:	e1520003 	cmp	r2, r3
/home/rossierd/soo.tech/soo/optee_os/lib/libmbedtls/mbedtls/library/bignum.c:2410
    68f4:	e1a06000 	mov	r6, r0
    68f8:	e1a04001 	mov	r4, r1
/home/rossierd/soo.tech/soo/optee_os/lib/libmbedtls/mbedtls/library/bignum.c:2428
    68fc:	83e03003 	mvnhi	r3, #3
/home/rossierd/soo.tech/soo/optee_os/lib/libmbedtls/mbedtls/library/bignum.c:2427
    6900:	8a00009c 	bhi	6b78 <mbedtls_mpi_gen_prime+0x2a8>
/home/rossierd/soo.tech/soo/optee_os/lib/libmbedtls/mbedtls/library/bignum.c:2430
    6904:	e24b0038 	sub	r0, fp, #56	; 0x38
    6908:	ebfff3cb 	bl	383c <mbedtls_mpi_init_mempool>
/home/rossierd/soo.tech/soo/optee_os/lib/libmbedtls/mbedtls/library/bignum.c:2432
    690c:	e214701f 	ands	r7, r4, #31
    6910:	13a07001 	movne	r7, #1
/home/rossierd/soo.tech/soo/optee_os/lib/libmbedtls/mbedtls/library/bignum.c:2434
    6914:	e31a0002 	tst	sl, #2
/home/rossierd/soo.tech/soo/optee_os/lib/libmbedtls/mbedtls/library/bignum.c:2432
    6918:	e08772a4 	add	r7, r7, r4, lsr #5
/home/rossierd/soo.tech/soo/optee_os/lib/libmbedtls/mbedtls/library/bignum.c:2434
    691c:	1a00006d 	bne	6ad8 <mbedtls_mpi_gen_prime+0x208>
/home/rossierd/soo.tech/soo/optee_os/lib/libmbedtls/mbedtls/library/bignum.c:2439
    6920:	e3003513 	movw	r3, #1299	; 0x513
    6924:	e1540003 	cmp	r4, r3
    6928:	83a05002 	movhi	r5, #2
    692c:	8a00000f 	bhi	6970 <mbedtls_mpi_gen_prime+0xa0>
/home/rossierd/soo.tech/soo/optee_os/lib/libmbedtls/mbedtls/library/bignum.c:2439 (discriminator 1)
    6930:	e3003351 	movw	r3, #849	; 0x351
    6934:	e1540003 	cmp	r4, r3
    6938:	83a05003 	movhi	r5, #3
    693c:	8a00000b 	bhi	6970 <mbedtls_mpi_gen_prime+0xa0>
/home/rossierd/soo.tech/soo/optee_os/lib/libmbedtls/mbedtls/library/bignum.c:2440
    6940:	e3003289 	movw	r3, #649	; 0x289
    6944:	e1540003 	cmp	r4, r3
    6948:	8a00007d 	bhi	6b44 <mbedtls_mpi_gen_prime+0x274>
/home/rossierd/soo.tech/soo/optee_os/lib/libmbedtls/mbedtls/library/bignum.c:2440 (discriminator 1)
    694c:	e300315d 	movw	r3, #349	; 0x15d
    6950:	e1540003 	cmp	r4, r3
    6954:	8a00007c 	bhi	6b4c <mbedtls_mpi_gen_prime+0x27c>
/home/rossierd/soo.tech/soo/optee_os/lib/libmbedtls/mbedtls/library/bignum.c:2441
    6958:	e35400f9 	cmp	r4, #249	; 0xf9
    695c:	83a0500c 	movhi	r5, #12
    6960:	8a000002 	bhi	6970 <mbedtls_mpi_gen_prime+0xa0>
/home/rossierd/soo.tech/soo/optee_os/lib/libmbedtls/mbedtls/library/bignum.c:2441 (discriminator 1)
    6964:	e3540095 	cmp	r4, #149	; 0x95
    6968:	83a05012 	movhi	r5, #18
    696c:	93a0501b 	movls	r5, #27
/home/rossierd/soo.tech/soo/optee_os/lib/libmbedtls/mbedtls/library/bignum.c:2457
    6970:	e1a09107 	lsl	r9, r7, #2
/home/rossierd/soo.tech/soo/optee_os/lib/libmbedtls/mbedtls/library/bignum.c:2461
    6974:	e1a07287 	lsl	r7, r7, #5
/home/rossierd/soo.tech/soo/optee_os/lib/libmbedtls/mbedtls/library/bignum.c:2459
    6978:	e2493004 	sub	r3, r9, #4
    697c:	e50b3040 	str	r3, [fp, #-64]	; 0xffffffc0
/home/rossierd/soo.tech/soo/optee_os/lib/libmbedtls/mbedtls/library/bignum.c:2462
    6980:	e0473004 	sub	r3, r7, r4
    6984:	e50b3044 	str	r3, [fp, #-68]	; 0xffffffbc
/home/rossierd/soo.tech/soo/optee_os/lib/libmbedtls/mbedtls/library/bignum.c:2457
    6988:	e59b3004 	ldr	r3, [fp, #4]
    698c:	e1a02008 	mov	r2, r8
    6990:	e1a01009 	mov	r1, r9
    6994:	e1a00006 	mov	r0, r6
    6998:	ebfffdc4 	bl	60b0 <mbedtls_mpi_fill_random>
    699c:	e2503000 	subs	r3, r0, #0
    69a0:	1a000070 	bne	6b68 <mbedtls_mpi_gen_prime+0x298>
/home/rossierd/soo.tech/soo/optee_os/lib/libmbedtls/mbedtls/library/bignum.c:2459
    69a4:	e51b2040 	ldr	r2, [fp, #-64]	; 0xffffffc0
    69a8:	e5963008 	ldr	r3, [r6, #8]
    69ac:	e7933002 	ldr	r3, [r3, r2]
    69b0:	e59f2200 	ldr	r2, [pc, #512]	; 6bb8 <mbedtls_mpi_gen_prime+0x2e8>
    69b4:	e1530002 	cmp	r3, r2
    69b8:	9afffff2 	bls	6988 <mbedtls_mpi_gen_prime+0xb8>
/home/rossierd/soo.tech/soo/optee_os/lib/libmbedtls/mbedtls/library/bignum.c:2462
    69bc:	e1540007 	cmp	r4, r7
    69c0:	3a000063 	bcc	6b54 <mbedtls_mpi_gen_prime+0x284>
/home/rossierd/soo.tech/soo/optee_os/lib/libmbedtls/mbedtls/library/bignum.c:2463
    69c4:	e5962008 	ldr	r2, [r6, #8]
/home/rossierd/soo.tech/soo/optee_os/lib/libmbedtls/mbedtls/library/bignum.c:2465
    69c8:	e31a0001 	tst	sl, #1
/home/rossierd/soo.tech/soo/optee_os/lib/libmbedtls/mbedtls/library/bignum.c:2463
    69cc:	e5923000 	ldr	r3, [r2]
    69d0:	e3831001 	orr	r1, r3, #1
    69d4:	e5821000 	str	r1, [r2]
/home/rossierd/soo.tech/soo/optee_os/lib/libmbedtls/mbedtls/library/bignum.c:2465
    69d8:	0a000069 	beq	6b84 <mbedtls_mpi_gen_prime+0x2b4>
/home/rossierd/soo.tech/soo/optee_os/lib/libmbedtls/mbedtls/library/bignum.c:2480
    69dc:	e3833003 	orr	r3, r3, #3
/home/rossierd/soo.tech/soo/optee_os/lib/libmbedtls/mbedtls/library/bignum.c:2482
    69e0:	e1a01006 	mov	r1, r6
    69e4:	e24b003c 	sub	r0, fp, #60	; 0x3c
/home/rossierd/soo.tech/soo/optee_os/lib/libmbedtls/mbedtls/library/bignum.c:2480
    69e8:	e5823000 	str	r3, [r2]
/home/rossierd/soo.tech/soo/optee_os/lib/libmbedtls/mbedtls/library/bignum.c:2482
    69ec:	e3a02003 	mov	r2, #3
    69f0:	ebfffa43 	bl	5304 <mbedtls_mpi_mod_int>
    69f4:	e2503000 	subs	r3, r0, #0
    69f8:	1a00005a 	bne	6b68 <mbedtls_mpi_gen_prime+0x298>
/home/rossierd/soo.tech/soo/optee_os/lib/libmbedtls/mbedtls/library/bignum.c:2483
    69fc:	e51b303c 	ldr	r3, [fp, #-60]	; 0xffffffc4
    6a00:	e3530000 	cmp	r3, #0
    6a04:	1a000067 	bne	6ba8 <mbedtls_mpi_gen_prime+0x2d8>
/home/rossierd/soo.tech/soo/optee_os/lib/libmbedtls/mbedtls/library/bignum.c:2484
    6a08:	e3a02008 	mov	r2, #8
    6a0c:	e1a01006 	mov	r1, r6
    6a10:	e1a00006 	mov	r0, r6
    6a14:	ebfff792 	bl	4864 <mbedtls_mpi_add_int>
    6a18:	e2503000 	subs	r3, r0, #0
    6a1c:	1a000051 	bne	6b68 <mbedtls_mpi_gen_prime+0x298>
/home/rossierd/soo.tech/soo/optee_os/lib/libmbedtls/mbedtls/library/bignum.c:2489
    6a20:	e24b4038 	sub	r4, fp, #56	; 0x38
    6a24:	e1a01006 	mov	r1, r6
    6a28:	e1a00004 	mov	r0, r4
    6a2c:	ebfff442 	bl	3b3c <mbedtls_mpi_copy>
    6a30:	e2503000 	subs	r3, r0, #0
    6a34:	1a00004b 	bne	6b68 <mbedtls_mpi_gen_prime+0x298>
/home/rossierd/soo.tech/soo/optee_os/lib/libmbedtls/mbedtls/library/bignum.c:2490
    6a38:	e3a01001 	mov	r1, #1
    6a3c:	e1a00004 	mov	r0, r4
    6a40:	ebfff5f7 	bl	4224 <mbedtls_mpi_shift_r>
    6a44:	e2503000 	subs	r3, r0, #0
    6a48:	1a000046 	bne	6b68 <mbedtls_mpi_gen_prime+0x298>
/home/rossierd/soo.tech/soo/optee_os/lib/libmbedtls/mbedtls/library/bignum.c:2498
    6a4c:	e1a00006 	mov	r0, r6
    6a50:	ebfffafa 	bl	5640 <mpi_check_small_factors>
    6a54:	e2503000 	subs	r3, r0, #0
    6a58:	1a000011 	bne	6aa4 <mbedtls_mpi_gen_prime+0x1d4>
/home/rossierd/soo.tech/soo/optee_os/lib/libmbedtls/mbedtls/library/bignum.c:2498 (discriminator 1)
    6a5c:	e1a00004 	mov	r0, r4
    6a60:	ebfffaf6 	bl	5640 <mpi_check_small_factors>
    6a64:	e2503000 	subs	r3, r0, #0
    6a68:	1a00000d 	bne	6aa4 <mbedtls_mpi_gen_prime+0x1d4>
/home/rossierd/soo.tech/soo/optee_os/lib/libmbedtls/mbedtls/library/bignum.c:2499
    6a6c:	e59b3004 	ldr	r3, [fp, #4]
    6a70:	e1a02008 	mov	r2, r8
    6a74:	e1a01005 	mov	r1, r5
    6a78:	e1a00006 	mov	r0, r6
    6a7c:	ebfffda8 	bl	6124 <mpi_miller_rabin>
    6a80:	e2503000 	subs	r3, r0, #0
    6a84:	1a000006 	bne	6aa4 <mbedtls_mpi_gen_prime+0x1d4>
/home/rossierd/soo.tech/soo/optee_os/lib/libmbedtls/mbedtls/library/bignum.c:2501
    6a88:	e59b3004 	ldr	r3, [fp, #4]
    6a8c:	e1a02008 	mov	r2, r8
    6a90:	e1a01005 	mov	r1, r5
    6a94:	e1a00004 	mov	r0, r4
    6a98:	ebfffda1 	bl	6124 <mpi_miller_rabin>
    6a9c:	e2503000 	subs	r3, r0, #0
    6aa0:	0a000030 	beq	6b68 <mbedtls_mpi_gen_prime+0x298>
/home/rossierd/soo.tech/soo/optee_os/lib/libmbedtls/mbedtls/library/bignum.c:2506
    6aa4:	e373000e 	cmn	r3, #14
    6aa8:	1a00002e 	bne	6b68 <mbedtls_mpi_gen_prime+0x298>
/home/rossierd/soo.tech/soo/optee_os/lib/libmbedtls/mbedtls/library/bignum.c:2514
    6aac:	e3a0200c 	mov	r2, #12
    6ab0:	e1a01006 	mov	r1, r6
    6ab4:	e1a00006 	mov	r0, r6
    6ab8:	ebfff769 	bl	4864 <mbedtls_mpi_add_int>
    6abc:	e2503000 	subs	r3, r0, #0
    6ac0:	1a000028 	bne	6b68 <mbedtls_mpi_gen_prime+0x298>
/home/rossierd/soo.tech/soo/optee_os/lib/libmbedtls/mbedtls/library/bignum.c:2515
    6ac4:	e3a02006 	mov	r2, #6
    6ac8:	e1a01004 	mov	r1, r4
    6acc:	e1a00004 	mov	r0, r4
    6ad0:	ebfff763 	bl	4864 <mbedtls_mpi_add_int>
    6ad4:	eaffffda 	b	6a44 <mbedtls_mpi_gen_prime+0x174>
/home/rossierd/soo.tech/soo/optee_os/lib/libmbedtls/mbedtls/library/bignum.c:2449
    6ad8:	e30035a9 	movw	r3, #1449	; 0x5a9
    6adc:	e1540003 	cmp	r4, r3
    6ae0:	8a000017 	bhi	6b44 <mbedtls_mpi_gen_prime+0x274>
/home/rossierd/soo.tech/soo/optee_os/lib/libmbedtls/mbedtls/library/bignum.c:2449 (discriminator 1)
    6ae4:	e300347d 	movw	r3, #1149	; 0x47d
    6ae8:	e1540003 	cmp	r4, r3
    6aec:	83a05005 	movhi	r5, #5
    6af0:	8affff9e 	bhi	6970 <mbedtls_mpi_gen_prime+0xa0>
/home/rossierd/soo.tech/soo/optee_os/lib/libmbedtls/mbedtls/library/bignum.c:2450
    6af4:	e3540ffa 	cmp	r4, #1000	; 0x3e8
    6af8:	23a05006 	movcs	r5, #6
    6afc:	2affff9b 	bcs	6970 <mbedtls_mpi_gen_prime+0xa0>
/home/rossierd/soo.tech/soo/optee_os/lib/libmbedtls/mbedtls/library/bignum.c:2450 (discriminator 1)
    6b00:	e3003351 	movw	r3, #849	; 0x351
    6b04:	e1540003 	cmp	r4, r3
    6b08:	83a05007 	movhi	r5, #7
    6b0c:	8affff97 	bhi	6970 <mbedtls_mpi_gen_prime+0xa0>
/home/rossierd/soo.tech/soo/optee_os/lib/libmbedtls/mbedtls/library/bignum.c:2451
    6b10:	e30032ed 	movw	r3, #749	; 0x2ed
    6b14:	e1540003 	cmp	r4, r3
    6b18:	8a00000b 	bhi	6b4c <mbedtls_mpi_gen_prime+0x27c>
/home/rossierd/soo.tech/soo/optee_os/lib/libmbedtls/mbedtls/library/bignum.c:2451 (discriminator 1)
    6b1c:	e3540f7d 	cmp	r4, #500	; 0x1f4
    6b20:	23a0500d 	movcs	r5, #13
    6b24:	2affff91 	bcs	6970 <mbedtls_mpi_gen_prime+0xa0>
/home/rossierd/soo.tech/soo/optee_os/lib/libmbedtls/mbedtls/library/bignum.c:2452
    6b28:	e35400f9 	cmp	r4, #249	; 0xf9
    6b2c:	83a0501c 	movhi	r5, #28
    6b30:	8affff8e 	bhi	6970 <mbedtls_mpi_gen_prime+0xa0>
/home/rossierd/soo.tech/soo/optee_os/lib/libmbedtls/mbedtls/library/bignum.c:2452 (discriminator 1)
    6b34:	e3540095 	cmp	r4, #149	; 0x95
    6b38:	83a05028 	movhi	r5, #40	; 0x28
    6b3c:	93a05033 	movls	r5, #51	; 0x33
    6b40:	eaffff8a 	b	6970 <mbedtls_mpi_gen_prime+0xa0>
/home/rossierd/soo.tech/soo/optee_os/lib/libmbedtls/mbedtls/library/bignum.c:2440
    6b44:	e3a05004 	mov	r5, #4
    6b48:	eaffff88 	b	6970 <mbedtls_mpi_gen_prime+0xa0>
    6b4c:	e3a05008 	mov	r5, #8
    6b50:	eaffff86 	b	6970 <mbedtls_mpi_gen_prime+0xa0>
/home/rossierd/soo.tech/soo/optee_os/lib/libmbedtls/mbedtls/library/bignum.c:2462 (discriminator 1)
    6b54:	e1a00006 	mov	r0, r6
    6b58:	e51b1044 	ldr	r1, [fp, #-68]	; 0xffffffbc
    6b5c:	ebfff5b0 	bl	4224 <mbedtls_mpi_shift_r>
    6b60:	e2503000 	subs	r3, r0, #0
    6b64:	0affff96 	beq	69c4 <mbedtls_mpi_gen_prime+0xf4>
/home/rossierd/soo.tech/soo/optee_os/lib/libmbedtls/mbedtls/library/bignum.c:2522
    6b68:	e24b0038 	sub	r0, fp, #56	; 0x38
    6b6c:	e50b3040 	str	r3, [fp, #-64]	; 0xffffffc0
    6b70:	ebfff344 	bl	3888 <mbedtls_mpi_free>
/home/rossierd/soo.tech/soo/optee_os/lib/libmbedtls/mbedtls/library/bignum.c:2524
    6b74:	e51b3040 	ldr	r3, [fp, #-64]	; 0xffffffc0
/home/rossierd/soo.tech/soo/optee_os/lib/libmbedtls/mbedtls/library/bignum.c:2525
    6b78:	e1a00003 	mov	r0, r3
    6b7c:	e24bd028 	sub	sp, fp, #40	; 0x28
    6b80:	e89daff0 	ldm	sp, {r4, r5, r6, r7, r8, r9, sl, fp, sp, pc}
/home/rossierd/soo.tech/soo/optee_os/lib/libmbedtls/mbedtls/library/bignum.c:2467
    6b84:	e59b3004 	ldr	r3, [fp, #4]
    6b88:	e1a02008 	mov	r2, r8
    6b8c:	e1a01005 	mov	r1, r5
    6b90:	e1a00006 	mov	r0, r6
    6b94:	ebffff16 	bl	67f4 <mbedtls_mpi_is_prime_ext>
/home/rossierd/soo.tech/soo/optee_os/lib/libmbedtls/mbedtls/library/bignum.c:2469
    6b98:	e370000e 	cmn	r0, #14
/home/rossierd/soo.tech/soo/optee_os/lib/libmbedtls/mbedtls/library/bignum.c:2467
    6b9c:	e1a03000 	mov	r3, r0
/home/rossierd/soo.tech/soo/optee_os/lib/libmbedtls/mbedtls/library/bignum.c:2469
    6ba0:	0affff78 	beq	6988 <mbedtls_mpi_gen_prime+0xb8>
    6ba4:	eaffffef 	b	6b68 <mbedtls_mpi_gen_prime+0x298>
/home/rossierd/soo.tech/soo/optee_os/lib/libmbedtls/mbedtls/library/bignum.c:2485
    6ba8:	e3530001 	cmp	r3, #1
/home/rossierd/soo.tech/soo/optee_os/lib/libmbedtls/mbedtls/library/bignum.c:2486
    6bac:	03a02004 	moveq	r2, #4
/home/rossierd/soo.tech/soo/optee_os/lib/libmbedtls/mbedtls/library/bignum.c:2485
    6bb0:	1affff9a 	bne	6a20 <mbedtls_mpi_gen_prime+0x150>
    6bb4:	eaffff94 	b	6a0c <mbedtls_mpi_gen_prime+0x13c>
    6bb8:	b504f333 	.word	0xb504f333

00006bbc <mbedtls_mpi_self_test>:
mbedtls_mpi_self_test():
/home/rossierd/soo.tech/soo/optee_os/lib/libmbedtls/mbedtls/library/bignum.c:2544
    6bbc:	e1a0c00d 	mov	ip, sp
    6bc0:	e92ddff0 	push	{r4, r5, r6, r7, r8, r9, sl, fp, ip, lr, pc}
    6bc4:	e24cb004 	sub	fp, ip, #4
    6bc8:	e24dd074 	sub	sp, sp, #116	; 0x74
/home/rossierd/soo.tech/soo/optee_os/lib/libmbedtls/mbedtls/library/bignum.c:2548
    6bcc:	e24b6080 	sub	r6, fp, #128	; 0x80
/home/rossierd/soo.tech/soo/optee_os/lib/libmbedtls/mbedtls/library/bignum.c:2544
    6bd0:	e1a04000 	mov	r4, r0
/home/rossierd/soo.tech/soo/optee_os/lib/libmbedtls/mbedtls/library/bignum.c:2548
    6bd4:	e1a00006 	mov	r0, r6
    6bd8:	ebfff317 	bl	383c <mbedtls_mpi_init_mempool>
    6bdc:	e24b3074 	sub	r3, fp, #116	; 0x74
/home/rossierd/soo.tech/soo/optee_os/lib/libmbedtls/mbedtls/library/bignum.c:2549
    6be0:	e24b7068 	sub	r7, fp, #104	; 0x68
/home/rossierd/soo.tech/soo/optee_os/lib/libmbedtls/mbedtls/library/bignum.c:2548
    6be4:	e1a00003 	mov	r0, r3
/home/rossierd/soo.tech/soo/optee_os/lib/libmbedtls/mbedtls/library/bignum.c:2549
    6be8:	e24b505c 	sub	r5, fp, #92	; 0x5c
/home/rossierd/soo.tech/soo/optee_os/lib/libmbedtls/mbedtls/library/bignum.c:2548
    6bec:	e50b308c 	str	r3, [fp, #-140]	; 0xffffff74
    6bf0:	ebfff311 	bl	383c <mbedtls_mpi_init_mempool>
/home/rossierd/soo.tech/soo/optee_os/lib/libmbedtls/mbedtls/library/bignum.c:2549
    6bf4:	e1a00007 	mov	r0, r7
    6bf8:	ebfff30f 	bl	383c <mbedtls_mpi_init_mempool>
    6bfc:	e1a00005 	mov	r0, r5
    6c00:	ebfff30d 	bl	383c <mbedtls_mpi_init_mempool>
/home/rossierd/soo.tech/soo/optee_os/lib/libmbedtls/mbedtls/library/bignum.c:2550
    6c04:	e24b3050 	sub	r3, fp, #80	; 0x50
    6c08:	e1a00003 	mov	r0, r3
    6c0c:	e50b3088 	str	r3, [fp, #-136]	; 0xffffff78
    6c10:	ebfff309 	bl	383c <mbedtls_mpi_init_mempool>
    6c14:	e24b3044 	sub	r3, fp, #68	; 0x44
    6c18:	e1a00003 	mov	r0, r3
    6c1c:	e50b3090 	str	r3, [fp, #-144]	; 0xffffff70
    6c20:	ebfff305 	bl	383c <mbedtls_mpi_init_mempool>
/home/rossierd/soo.tech/soo/optee_os/lib/libmbedtls/mbedtls/library/bignum.c:2551
    6c24:	e24b0038 	sub	r0, fp, #56	; 0x38
    6c28:	ebfff303 	bl	383c <mbedtls_mpi_init_mempool>
/home/rossierd/soo.tech/soo/optee_os/lib/libmbedtls/mbedtls/library/bignum.c:2553
    6c2c:	e59f23b4 	ldr	r2, [pc, #948]	; 6fe8 <mbedtls_mpi_self_test+0x42c>
    6c30:	e3a01010 	mov	r1, #16
    6c34:	e1a00006 	mov	r0, r6
    6c38:	e08f2002 	add	r2, pc, r2
    6c3c:	ebfff796 	bl	4a9c <mbedtls_mpi_read_string>
    6c40:	e2509000 	subs	r9, r0, #0
    6c44:	1a00002b 	bne	6cf8 <mbedtls_mpi_self_test+0x13c>
/home/rossierd/soo.tech/soo/optee_os/lib/libmbedtls/mbedtls/library/bignum.c:2559
    6c48:	e59f239c 	ldr	r2, [pc, #924]	; 6fec <mbedtls_mpi_self_test+0x430>
    6c4c:	e3a01010 	mov	r1, #16
    6c50:	e51b008c 	ldr	r0, [fp, #-140]	; 0xffffff74
    6c54:	e08f2002 	add	r2, pc, r2
    6c58:	ebfff78f 	bl	4a9c <mbedtls_mpi_read_string>
    6c5c:	e2509000 	subs	r9, r0, #0
    6c60:	1a000024 	bne	6cf8 <mbedtls_mpi_self_test+0x13c>
/home/rossierd/soo.tech/soo/optee_os/lib/libmbedtls/mbedtls/library/bignum.c:2565
    6c64:	e59f2384 	ldr	r2, [pc, #900]	; 6ff0 <mbedtls_mpi_self_test+0x434>
    6c68:	e3a01010 	mov	r1, #16
    6c6c:	e1a00007 	mov	r0, r7
    6c70:	e08f2002 	add	r2, pc, r2
    6c74:	ebfff788 	bl	4a9c <mbedtls_mpi_read_string>
    6c78:	e2509000 	subs	r9, r0, #0
    6c7c:	1a00001d 	bne	6cf8 <mbedtls_mpi_self_test+0x13c>
/home/rossierd/soo.tech/soo/optee_os/lib/libmbedtls/mbedtls/library/bignum.c:2570
    6c80:	e1a02007 	mov	r2, r7
    6c84:	e1a01006 	mov	r1, r6
    6c88:	e1a00005 	mov	r0, r5
    6c8c:	ebfff71a 	bl	48fc <mbedtls_mpi_mul_mpi>
    6c90:	e2509000 	subs	r9, r0, #0
    6c94:	1a000017 	bne	6cf8 <mbedtls_mpi_self_test+0x13c>
/home/rossierd/soo.tech/soo/optee_os/lib/libmbedtls/mbedtls/library/bignum.c:2572
    6c98:	e59f2354 	ldr	r2, [pc, #852]	; 6ff4 <mbedtls_mpi_self_test+0x438>
    6c9c:	e3a01010 	mov	r1, #16
    6ca0:	e51b0090 	ldr	r0, [fp, #-144]	; 0xffffff70
    6ca4:	e08f2002 	add	r2, pc, r2
    6ca8:	ebfff77b 	bl	4a9c <mbedtls_mpi_read_string>
    6cac:	e2509000 	subs	r9, r0, #0
    6cb0:	1a000010 	bne	6cf8 <mbedtls_mpi_self_test+0x13c>
/home/rossierd/soo.tech/soo/optee_os/lib/libmbedtls/mbedtls/library/bignum.c:2581
    6cb4:	e3540000 	cmp	r4, #0
    6cb8:	0a000002 	beq	6cc8 <mbedtls_mpi_self_test+0x10c>
/home/rossierd/soo.tech/soo/optee_os/lib/libmbedtls/mbedtls/library/bignum.c:2582
    6cbc:	e59f0334 	ldr	r0, [pc, #820]	; 6ff8 <mbedtls_mpi_self_test+0x43c>
    6cc0:	e08f0000 	add	r0, pc, r0
    6cc4:	ebfff114 	bl	311c <printf>
/home/rossierd/soo.tech/soo/optee_os/lib/libmbedtls/mbedtls/library/bignum.c:2584
    6cc8:	e24b8044 	sub	r8, fp, #68	; 0x44
    6ccc:	e1a00005 	mov	r0, r5
    6cd0:	e1a01008 	mov	r1, r8
    6cd4:	ebfff5c2 	bl	43e4 <mbedtls_mpi_cmp_mpi>
    6cd8:	e3500000 	cmp	r0, #0
    6cdc:	0a000026 	beq	6d7c <mbedtls_mpi_self_test+0x1c0>
/home/rossierd/soo.tech/soo/optee_os/lib/libmbedtls/mbedtls/library/bignum.c:2586
    6ce0:	e3540000 	cmp	r4, #0
    6ce4:	0a0000bb 	beq	6fd8 <mbedtls_mpi_self_test+0x41c>
/home/rossierd/soo.tech/soo/optee_os/lib/libmbedtls/mbedtls/library/bignum.c:2587
    6ce8:	e59f030c 	ldr	r0, [pc, #780]	; 6ffc <mbedtls_mpi_self_test+0x440>
    6cec:	e08f0000 	add	r0, pc, r0
    6cf0:	ebfff120 	bl	3178 <puts>
/home/rossierd/soo.tech/soo/optee_os/lib/libmbedtls/mbedtls/library/bignum.c:2681
    6cf4:	e3a09001 	mov	r9, #1
/home/rossierd/soo.tech/soo/optee_os/lib/libmbedtls/mbedtls/library/bignum.c:2691
    6cf8:	e2944000 	adds	r4, r4, #0
    6cfc:	13a04001 	movne	r4, #1
    6d00:	e3590000 	cmp	r9, #0
    6d04:	03a08000 	moveq	r8, #0
    6d08:	12048001 	andne	r8, r4, #1
    6d0c:	e3580000 	cmp	r8, #0
    6d10:	0a000004 	beq	6d28 <mbedtls_mpi_self_test+0x16c>
/home/rossierd/soo.tech/soo/optee_os/lib/libmbedtls/mbedtls/library/bignum.c:2692
    6d14:	e59f02e4 	ldr	r0, [pc, #740]	; 7000 <mbedtls_mpi_self_test+0x444>
    6d18:	e1a01009 	mov	r1, r9
    6d1c:	e1a04008 	mov	r4, r8
    6d20:	e08f0000 	add	r0, pc, r0
    6d24:	ebfff0fc 	bl	311c <printf>
/home/rossierd/soo.tech/soo/optee_os/lib/libmbedtls/mbedtls/library/bignum.c:2694
    6d28:	e1a00006 	mov	r0, r6
    6d2c:	ebfff2d5 	bl	3888 <mbedtls_mpi_free>
    6d30:	e51b008c 	ldr	r0, [fp, #-140]	; 0xffffff74
    6d34:	ebfff2d3 	bl	3888 <mbedtls_mpi_free>
    6d38:	e1a00007 	mov	r0, r7
    6d3c:	ebfff2d1 	bl	3888 <mbedtls_mpi_free>
    6d40:	e1a00005 	mov	r0, r5
    6d44:	ebfff2cf 	bl	3888 <mbedtls_mpi_free>
/home/rossierd/soo.tech/soo/optee_os/lib/libmbedtls/mbedtls/library/bignum.c:2695
    6d48:	e51b0088 	ldr	r0, [fp, #-136]	; 0xffffff78
    6d4c:	ebfff2cd 	bl	3888 <mbedtls_mpi_free>
    6d50:	e51b0090 	ldr	r0, [fp, #-144]	; 0xffffff70
    6d54:	ebfff2cb 	bl	3888 <mbedtls_mpi_free>
    6d58:	e24b0038 	sub	r0, fp, #56	; 0x38
    6d5c:	ebfff2c9 	bl	3888 <mbedtls_mpi_free>
/home/rossierd/soo.tech/soo/optee_os/lib/libmbedtls/mbedtls/library/bignum.c:2697
    6d60:	e3540000 	cmp	r4, #0
    6d64:	0a000001 	beq	6d70 <mbedtls_mpi_self_test+0x1b4>
/home/rossierd/soo.tech/soo/optee_os/lib/libmbedtls/mbedtls/library/bignum.c:2698
    6d68:	e3a0000a 	mov	r0, #10
    6d6c:	ebfff110 	bl	31b4 <putchar>
/home/rossierd/soo.tech/soo/optee_os/lib/libmbedtls/mbedtls/library/bignum.c:2701
    6d70:	e1a00009 	mov	r0, r9
    6d74:	e24bd028 	sub	sp, fp, #40	; 0x28
    6d78:	e89daff0 	ldm	sp, {r4, r5, r6, r7, r8, r9, sl, fp, sp, pc}
/home/rossierd/soo.tech/soo/optee_os/lib/libmbedtls/mbedtls/library/bignum.c:2593
    6d7c:	e3540000 	cmp	r4, #0
    6d80:	0a000002 	beq	6d90 <mbedtls_mpi_self_test+0x1d4>
/home/rossierd/soo.tech/soo/optee_os/lib/libmbedtls/mbedtls/library/bignum.c:2594
    6d84:	e59f0278 	ldr	r0, [pc, #632]	; 7004 <mbedtls_mpi_self_test+0x448>
    6d88:	e08f0000 	add	r0, pc, r0
    6d8c:	ebfff0f9 	bl	3178 <puts>
/home/rossierd/soo.tech/soo/optee_os/lib/libmbedtls/mbedtls/library/bignum.c:2596
    6d90:	e1a03007 	mov	r3, r7
    6d94:	e1a02006 	mov	r2, r6
    6d98:	e51b1088 	ldr	r1, [fp, #-136]	; 0xffffff78
    6d9c:	e1a00005 	mov	r0, r5
    6da0:	ebfff7af 	bl	4c64 <mbedtls_mpi_div_mpi>
    6da4:	e2509000 	subs	r9, r0, #0
    6da8:	1affffd2 	bne	6cf8 <mbedtls_mpi_self_test+0x13c>
/home/rossierd/soo.tech/soo/optee_os/lib/libmbedtls/mbedtls/library/bignum.c:2598
    6dac:	e59f2254 	ldr	r2, [pc, #596]	; 7008 <mbedtls_mpi_self_test+0x44c>
    6db0:	e3a01010 	mov	r1, #16
    6db4:	e1a00008 	mov	r0, r8
    6db8:	e08f2002 	add	r2, pc, r2
    6dbc:	ebfff736 	bl	4a9c <mbedtls_mpi_read_string>
    6dc0:	e2509000 	subs	r9, r0, #0
    6dc4:	1affffcb 	bne	6cf8 <mbedtls_mpi_self_test+0x13c>
/home/rossierd/soo.tech/soo/optee_os/lib/libmbedtls/mbedtls/library/bignum.c:2601
    6dc8:	e59f223c 	ldr	r2, [pc, #572]	; 700c <mbedtls_mpi_self_test+0x450>
    6dcc:	e24ba038 	sub	sl, fp, #56	; 0x38
    6dd0:	e3a01010 	mov	r1, #16
    6dd4:	e1a0000a 	mov	r0, sl
    6dd8:	e08f2002 	add	r2, pc, r2
    6ddc:	ebfff72e 	bl	4a9c <mbedtls_mpi_read_string>
    6de0:	e2509000 	subs	r9, r0, #0
    6de4:	1affffc3 	bne	6cf8 <mbedtls_mpi_self_test+0x13c>
/home/rossierd/soo.tech/soo/optee_os/lib/libmbedtls/mbedtls/library/bignum.c:2606
    6de8:	e3540000 	cmp	r4, #0
    6dec:	0a000002 	beq	6dfc <mbedtls_mpi_self_test+0x240>
/home/rossierd/soo.tech/soo/optee_os/lib/libmbedtls/mbedtls/library/bignum.c:2607
    6df0:	e59f0218 	ldr	r0, [pc, #536]	; 7010 <mbedtls_mpi_self_test+0x454>
    6df4:	e08f0000 	add	r0, pc, r0
    6df8:	ebfff0c7 	bl	311c <printf>
/home/rossierd/soo.tech/soo/optee_os/lib/libmbedtls/mbedtls/library/bignum.c:2609
    6dfc:	e1a01008 	mov	r1, r8
    6e00:	e1a00005 	mov	r0, r5
    6e04:	ebfff576 	bl	43e4 <mbedtls_mpi_cmp_mpi>
    6e08:	e3500000 	cmp	r0, #0
    6e0c:	1affffb3 	bne	6ce0 <mbedtls_mpi_self_test+0x124>
/home/rossierd/soo.tech/soo/optee_os/lib/libmbedtls/mbedtls/library/bignum.c:2610 (discriminator 1)
    6e10:	e1a0100a 	mov	r1, sl
    6e14:	e51b0088 	ldr	r0, [fp, #-136]	; 0xffffff78
    6e18:	ebfff571 	bl	43e4 <mbedtls_mpi_cmp_mpi>
/home/rossierd/soo.tech/soo/optee_os/lib/libmbedtls/mbedtls/library/bignum.c:2609 (discriminator 1)
    6e1c:	e3500000 	cmp	r0, #0
    6e20:	1affffae 	bne	6ce0 <mbedtls_mpi_self_test+0x124>
/home/rossierd/soo.tech/soo/optee_os/lib/libmbedtls/mbedtls/library/bignum.c:2619
    6e24:	e3540000 	cmp	r4, #0
    6e28:	0a000002 	beq	6e38 <mbedtls_mpi_self_test+0x27c>
/home/rossierd/soo.tech/soo/optee_os/lib/libmbedtls/mbedtls/library/bignum.c:2620
    6e2c:	e59f01e0 	ldr	r0, [pc, #480]	; 7014 <mbedtls_mpi_self_test+0x458>
    6e30:	e08f0000 	add	r0, pc, r0
    6e34:	ebfff0cf 	bl	3178 <puts>
/home/rossierd/soo.tech/soo/optee_os/lib/libmbedtls/mbedtls/library/bignum.c:2622
    6e38:	e3a03000 	mov	r3, #0
    6e3c:	e1a01006 	mov	r1, r6
    6e40:	e51b208c 	ldr	r2, [fp, #-140]	; 0xffffff74
    6e44:	e1a00005 	mov	r0, r5
    6e48:	e58d3000 	str	r3, [sp]
    6e4c:	e1a03007 	mov	r3, r7
    6e50:	ebfffa96 	bl	58b0 <mbedtls_mpi_exp_mod>
    6e54:	e2509000 	subs	r9, r0, #0
    6e58:	1affffa6 	bne	6cf8 <mbedtls_mpi_self_test+0x13c>
/home/rossierd/soo.tech/soo/optee_os/lib/libmbedtls/mbedtls/library/bignum.c:2624
    6e5c:	e59f21b4 	ldr	r2, [pc, #436]	; 7018 <mbedtls_mpi_self_test+0x45c>
    6e60:	e3a01010 	mov	r1, #16
    6e64:	e1a00008 	mov	r0, r8
    6e68:	e08f2002 	add	r2, pc, r2
    6e6c:	ebfff70a 	bl	4a9c <mbedtls_mpi_read_string>
    6e70:	e2509000 	subs	r9, r0, #0
    6e74:	1affff9f 	bne	6cf8 <mbedtls_mpi_self_test+0x13c>
/home/rossierd/soo.tech/soo/optee_os/lib/libmbedtls/mbedtls/library/bignum.c:2629
    6e78:	e3540000 	cmp	r4, #0
    6e7c:	0a000002 	beq	6e8c <mbedtls_mpi_self_test+0x2d0>
/home/rossierd/soo.tech/soo/optee_os/lib/libmbedtls/mbedtls/library/bignum.c:2630
    6e80:	e59f0194 	ldr	r0, [pc, #404]	; 701c <mbedtls_mpi_self_test+0x460>
    6e84:	e08f0000 	add	r0, pc, r0
    6e88:	ebfff0a3 	bl	311c <printf>
/home/rossierd/soo.tech/soo/optee_os/lib/libmbedtls/mbedtls/library/bignum.c:2632
    6e8c:	e1a01008 	mov	r1, r8
    6e90:	e1a00005 	mov	r0, r5
    6e94:	ebfff552 	bl	43e4 <mbedtls_mpi_cmp_mpi>
    6e98:	e3500000 	cmp	r0, #0
    6e9c:	1affff8f 	bne	6ce0 <mbedtls_mpi_self_test+0x124>
/home/rossierd/soo.tech/soo/optee_os/lib/libmbedtls/mbedtls/library/bignum.c:2641
    6ea0:	e3540000 	cmp	r4, #0
    6ea4:	0a000002 	beq	6eb4 <mbedtls_mpi_self_test+0x2f8>
/home/rossierd/soo.tech/soo/optee_os/lib/libmbedtls/mbedtls/library/bignum.c:2642
    6ea8:	e59f0170 	ldr	r0, [pc, #368]	; 7020 <mbedtls_mpi_self_test+0x464>
    6eac:	e08f0000 	add	r0, pc, r0
    6eb0:	ebfff0b0 	bl	3178 <puts>
/home/rossierd/soo.tech/soo/optee_os/lib/libmbedtls/mbedtls/library/bignum.c:2644
    6eb4:	e1a02007 	mov	r2, r7
    6eb8:	e1a01006 	mov	r1, r6
    6ebc:	e1a00005 	mov	r0, r5
    6ec0:	ebfffd39 	bl	63ac <mbedtls_mpi_inv_mod>
    6ec4:	e2509000 	subs	r9, r0, #0
    6ec8:	1affff8a 	bne	6cf8 <mbedtls_mpi_self_test+0x13c>
/home/rossierd/soo.tech/soo/optee_os/lib/libmbedtls/mbedtls/library/bignum.c:2646
    6ecc:	e59f2150 	ldr	r2, [pc, #336]	; 7024 <mbedtls_mpi_self_test+0x468>
    6ed0:	e3a01010 	mov	r1, #16
    6ed4:	e1a00008 	mov	r0, r8
    6ed8:	e08f2002 	add	r2, pc, r2
    6edc:	ebfff6ee 	bl	4a9c <mbedtls_mpi_read_string>
    6ee0:	e2509000 	subs	r9, r0, #0
    6ee4:	1affff83 	bne	6cf8 <mbedtls_mpi_self_test+0x13c>
/home/rossierd/soo.tech/soo/optee_os/lib/libmbedtls/mbedtls/library/bignum.c:2651
    6ee8:	e3540000 	cmp	r4, #0
    6eec:	0a000002 	beq	6efc <mbedtls_mpi_self_test+0x340>
/home/rossierd/soo.tech/soo/optee_os/lib/libmbedtls/mbedtls/library/bignum.c:2652
    6ef0:	e59f0130 	ldr	r0, [pc, #304]	; 7028 <mbedtls_mpi_self_test+0x46c>
    6ef4:	e08f0000 	add	r0, pc, r0
    6ef8:	ebfff087 	bl	311c <printf>
/home/rossierd/soo.tech/soo/optee_os/lib/libmbedtls/mbedtls/library/bignum.c:2654
    6efc:	e1a01008 	mov	r1, r8
    6f00:	e1a00005 	mov	r0, r5
    6f04:	ebfff536 	bl	43e4 <mbedtls_mpi_cmp_mpi>
    6f08:	e250a000 	subs	sl, r0, #0
    6f0c:	1affff73 	bne	6ce0 <mbedtls_mpi_self_test+0x124>
/home/rossierd/soo.tech/soo/optee_os/lib/libmbedtls/mbedtls/library/bignum.c:2663
    6f10:	e3540000 	cmp	r4, #0
    6f14:	0a000005 	beq	6f30 <mbedtls_mpi_self_test+0x374>
/home/rossierd/soo.tech/soo/optee_os/lib/libmbedtls/mbedtls/library/bignum.c:2664
    6f18:	e59f010c 	ldr	r0, [pc, #268]	; 702c <mbedtls_mpi_self_test+0x470>
    6f1c:	e08f0000 	add	r0, pc, r0
    6f20:	ebfff094 	bl	3178 <puts>
/home/rossierd/soo.tech/soo/optee_os/lib/libmbedtls/mbedtls/library/bignum.c:2667
    6f24:	e59f0104 	ldr	r0, [pc, #260]	; 7030 <mbedtls_mpi_self_test+0x474>
    6f28:	e08f0000 	add	r0, pc, r0
    6f2c:	ebfff07a 	bl	311c <printf>
    6f30:	e59f80fc 	ldr	r8, [pc, #252]	; 7034 <mbedtls_mpi_self_test+0x478>
    6f34:	e08f8008 	add	r8, pc, r8
    6f38:	e2888e2a 	add	r8, r8, #672	; 0x2a0
/home/rossierd/soo.tech/soo/optee_os/lib/libmbedtls/mbedtls/library/bignum.c:2671
    6f3c:	e1a00005 	mov	r0, r5
    6f40:	e5981000 	ldr	r1, [r8]
    6f44:	ebfff39c 	bl	3dbc <mbedtls_mpi_lset>
    6f48:	e2509000 	subs	r9, r0, #0
    6f4c:	1affff69 	bne	6cf8 <mbedtls_mpi_self_test+0x13c>
/home/rossierd/soo.tech/soo/optee_os/lib/libmbedtls/mbedtls/library/bignum.c:2672
    6f50:	e5981004 	ldr	r1, [r8, #4]
    6f54:	e51b0088 	ldr	r0, [fp, #-136]	; 0xffffff78
    6f58:	ebfff397 	bl	3dbc <mbedtls_mpi_lset>
    6f5c:	e2509000 	subs	r9, r0, #0
    6f60:	1affff64 	bne	6cf8 <mbedtls_mpi_self_test+0x13c>
/home/rossierd/soo.tech/soo/optee_os/lib/libmbedtls/mbedtls/library/bignum.c:2674
    6f64:	e1a01005 	mov	r1, r5
    6f68:	e1a00006 	mov	r0, r6
    6f6c:	e51b2088 	ldr	r2, [fp, #-136]	; 0xffffff78
    6f70:	ebfffbe1 	bl	5efc <mbedtls_mpi_gcd>
    6f74:	e2509000 	subs	r9, r0, #0
    6f78:	1affff5e 	bne	6cf8 <mbedtls_mpi_self_test+0x13c>
/home/rossierd/soo.tech/soo/optee_os/lib/libmbedtls/mbedtls/library/bignum.c:2676
    6f7c:	e1a00006 	mov	r0, r6
    6f80:	e5981008 	ldr	r1, [r8, #8]
    6f84:	ebfff559 	bl	44f0 <mbedtls_mpi_cmp_int>
    6f88:	e2509000 	subs	r9, r0, #0
    6f8c:	0a000006 	beq	6fac <mbedtls_mpi_self_test+0x3f0>
/home/rossierd/soo.tech/soo/optee_os/lib/libmbedtls/mbedtls/library/bignum.c:2678
    6f90:	e3540000 	cmp	r4, #0
    6f94:	0a00000f 	beq	6fd8 <mbedtls_mpi_self_test+0x41c>
/home/rossierd/soo.tech/soo/optee_os/lib/libmbedtls/mbedtls/library/bignum.c:2679
    6f98:	e59f0098 	ldr	r0, [pc, #152]	; 7038 <mbedtls_mpi_self_test+0x47c>
    6f9c:	e1a0100a 	mov	r1, sl
    6fa0:	e08f0000 	add	r0, pc, r0
    6fa4:	ebfff05c 	bl	311c <printf>
    6fa8:	eaffff51 	b	6cf4 <mbedtls_mpi_self_test+0x138>
/home/rossierd/soo.tech/soo/optee_os/lib/libmbedtls/mbedtls/library/bignum.c:2669 (discriminator 2)
    6fac:	e28aa001 	add	sl, sl, #1
    6fb0:	e288800c 	add	r8, r8, #12
    6fb4:	e35a0003 	cmp	sl, #3
    6fb8:	1affffdf 	bne	6f3c <mbedtls_mpi_self_test+0x380>
/home/rossierd/soo.tech/soo/optee_os/lib/libmbedtls/mbedtls/library/bignum.c:2686
    6fbc:	e3540000 	cmp	r4, #0
    6fc0:	01a09004 	moveq	r9, r4
    6fc4:	0affff4b 	beq	6cf8 <mbedtls_mpi_self_test+0x13c>
/home/rossierd/soo.tech/soo/optee_os/lib/libmbedtls/mbedtls/library/bignum.c:2687
    6fc8:	e59f006c 	ldr	r0, [pc, #108]	; 703c <mbedtls_mpi_self_test+0x480>
    6fcc:	e08f0000 	add	r0, pc, r0
    6fd0:	ebfff068 	bl	3178 <puts>
    6fd4:	eaffff47 	b	6cf8 <mbedtls_mpi_self_test+0x13c>
/home/rossierd/soo.tech/soo/optee_os/lib/libmbedtls/mbedtls/library/bignum.c:2691
    6fd8:	e2944000 	adds	r4, r4, #0
/home/rossierd/soo.tech/soo/optee_os/lib/libmbedtls/mbedtls/library/bignum.c:2589
    6fdc:	e3a09001 	mov	r9, #1
/home/rossierd/soo.tech/soo/optee_os/lib/libmbedtls/mbedtls/library/bignum.c:2691
    6fe0:	13a04001 	movne	r4, #1
    6fe4:	eaffff4f 	b	6d28 <mbedtls_mpi_self_test+0x16c>
    6fe8:	00002b8f 	.word	0x00002b8f
    6fec:	00002bf4 	.word	0x00002bf4
    6ff0:	00002c59 	.word	0x00002c59
    6ff4:	00002c86 	.word	0x00002c86
    6ff8:	00002d49 	.word	0x00002d49
    6ffc:	00002d37 	.word	0x00002d37
    7000:	00002ecd 	.word	0x00002ecd
    7004:	00002ca2 	.word	0x00002ca2
    7008:	00002c79 	.word	0x00002c79
    700c:	00002c7d 	.word	0x00002c7d
    7010:	00002cc0 	.word	0x00002cc0
    7014:	00002bfa 	.word	0x00002bfa
    7018:	00002c66 	.word	0x00002c66
    701c:	00002ca9 	.word	0x00002ca9
    7020:	00002b7e 	.word	0x00002b7e
    7024:	00002c6f 	.word	0x00002c6f
    7028:	00002cb4 	.word	0x00002cb4
    702c:	00002b0e 	.word	0x00002b0e
    7030:	00002c9a 	.word	0x00002c9a
    7034:	0000225c 	.word	0x0000225c
    7038:	00002c3f 	.word	0x00002c3f
    703c:	00002a5e 	.word	0x00002a5e

00007040 <mbedtls_platform_zeroize>:
mbedtls_platform_zeroize():
/home/rossierd/soo.tech/soo/optee_os/lib/libmbedtls/mbedtls/library/platform_util.c:75
    7040:	e59f3024 	ldr	r3, [pc, #36]	; 706c <mbedtls_platform_zeroize+0x2c>
/home/rossierd/soo.tech/soo/optee_os/lib/libmbedtls/mbedtls/library/platform_util.c:74
    7044:	e1a0c00d 	mov	ip, sp
/home/rossierd/soo.tech/soo/optee_os/lib/libmbedtls/mbedtls/library/platform_util.c:75
    7048:	e1a02001 	mov	r2, r1
    704c:	e3a01000 	mov	r1, #0
/home/rossierd/soo.tech/soo/optee_os/lib/libmbedtls/mbedtls/library/platform_util.c:74
    7050:	e92dd800 	push	{fp, ip, lr, pc}
    7054:	e24cb004 	sub	fp, ip, #4
/home/rossierd/soo.tech/soo/optee_os/lib/libmbedtls/mbedtls/library/platform_util.c:75
    7058:	e08f3003 	add	r3, pc, r3
    705c:	e5933000 	ldr	r3, [r3]
/home/rossierd/soo.tech/soo/optee_os/lib/libmbedtls/mbedtls/library/platform_util.c:76
    7060:	e24bd00c 	sub	sp, fp, #12
    7064:	e89d6800 	ldm	sp, {fp, sp, lr}
/home/rossierd/soo.tech/soo/optee_os/lib/libmbedtls/mbedtls/library/platform_util.c:75
    7068:	e12fff13 	bx	r3
    706c:	000051e4 	.word	0x000051e4

00007070 <raw_malloc_return_hook.constprop.21>:
raw_malloc_return_hook():
/home/rossierd/soo.tech/soo/optee_os/lib/libutils/isoc/bget_malloc.c:198
    7070:	e59f304c 	ldr	r3, [pc, #76]	; 70c4 <raw_malloc_return_hook.constprop.21+0x54>
/home/rossierd/soo.tech/soo/optee_os/lib/libutils/isoc/bget_malloc.c:195
    7074:	e1a0c00d 	mov	ip, sp
    7078:	e92dd800 	push	{fp, ip, lr, pc}
    707c:	e24cb004 	sub	fp, ip, #4
/home/rossierd/soo.tech/soo/optee_os/lib/libutils/isoc/bget_malloc.c:198
    7080:	e08f3003 	add	r3, pc, r3
    7084:	e5932010 	ldr	r2, [r3, #16]
    7088:	e593c048 	ldr	ip, [r3, #72]	; 0x48
    708c:	e152000c 	cmp	r2, ip
/home/rossierd/soo.tech/soo/optee_os/lib/libutils/isoc/bget_malloc.c:199
    7090:	85832048 	strhi	r2, [r3, #72]	; 0x48
/home/rossierd/soo.tech/soo/optee_os/lib/libutils/isoc/bget_malloc.c:201
    7094:	e3500000 	cmp	r0, #0
    7098:	189da800 	ldmne	sp, {fp, sp, pc}
/home/rossierd/soo.tech/soo/optee_os/lib/libutils/isoc/bget_malloc.c:202
    709c:	e59f3024 	ldr	r3, [pc, #36]	; 70c8 <raw_malloc_return_hook.constprop.21+0x58>
    70a0:	e08f3003 	add	r3, pc, r3
    70a4:	e5930050 	ldr	r0, [r3, #80]	; 0x50
    70a8:	e2800001 	add	r0, r0, #1
    70ac:	e5830050 	str	r0, [r3, #80]	; 0x50
/home/rossierd/soo.tech/soo/optee_os/lib/libutils/isoc/bget_malloc.c:204
    70b0:	e5930054 	ldr	r0, [r3, #84]	; 0x54
    70b4:	e1500001 	cmp	r0, r1
/home/rossierd/soo.tech/soo/optee_os/lib/libutils/isoc/bget_malloc.c:205
    70b8:	35831054 	strcc	r1, [r3, #84]	; 0x54
/home/rossierd/soo.tech/soo/optee_os/lib/libutils/isoc/bget_malloc.c:206
    70bc:	35832058 	strcc	r2, [r3, #88]	; 0x58
    70c0:	e89da800 	ldm	sp, {fp, sp, pc}
    70c4:	000051c0 	.word	0x000051c0
    70c8:	000051a0 	.word	0x000051a0

000070cc <bget>:
bget():
/home/rossierd/soo.tech/soo/optee_os/lib/libutils/isoc/bget.c:583
    70cc:	e1a0c00d 	mov	ip, sp
/home/rossierd/soo.tech/soo/optee_os/lib/libutils/isoc/bget.c:594
    70d0:	e3500000 	cmp	r0, #0
/home/rossierd/soo.tech/soo/optee_os/lib/libutils/isoc/bget.c:583
    70d4:	e92dd830 	push	{r4, r5, fp, ip, lr, pc}
    70d8:	e24cb004 	sub	fp, ip, #4
/home/rossierd/soo.tech/soo/optee_os/lib/libutils/isoc/bget.c:594
    70dc:	ca000008 	bgt	7104 <bget+0x38>
/home/rossierd/soo.tech/soo/optee_os/lib/libutils/isoc/bget.c:594 (discriminator 1)
    70e0:	e59f31a8 	ldr	r3, [pc, #424]	; 7290 <bget+0x1c4>
    70e4:	e3002252 	movw	r2, #594	; 0x252
    70e8:	e59f11a4 	ldr	r1, [pc, #420]	; 7294 <bget+0x1c8>
    70ec:	e59f01a4 	ldr	r0, [pc, #420]	; 7298 <bget+0x1cc>
    70f0:	e08f3003 	add	r3, pc, r3
    70f4:	e08f1001 	add	r1, pc, r1
    70f8:	e08f0000 	add	r0, pc, r0
/home/rossierd/soo.tech/soo/optee_os/lib/libutils/isoc/bget.c:685 (discriminator 1)
    70fc:	eb000800 	bl	9104 <_assert_log>
    7100:	eb00080f 	bl	9144 <_assert_break>
/home/rossierd/soo.tech/soo/optee_os/lib/libutils/isoc/bget.c:601
    7104:	e3500008 	cmp	r0, #8
    7108:	b3a00008 	movlt	r0, #8
    710c:	e2903007 	adds	r3, r0, #7
    7110:	4a000006 	bmi	7130 <bget+0x64>
    7114:	e1530000 	cmp	r3, r0
    7118:	3a000004 	bcc	7130 <bget+0x64>
/home/rossierd/soo.tech/soo/optee_os/lib/libutils/isoc/bget.c:604
    711c:	e3c33007 	bic	r3, r3, #7
/home/rossierd/soo.tech/soo/optee_os/lib/libutils/isoc/bget.c:609
    7120:	e3a02008 	mov	r2, #8
    7124:	e0933002 	adds	r3, r3, r2
/home/rossierd/soo.tech/soo/optee_os/lib/libutils/isoc/bget.c:619
    7128:	75910008 	ldrvc	r0, [r1, #8]
/home/rossierd/soo.tech/soo/optee_os/lib/libutils/isoc/bget.c:609
    712c:	7a000043 	bvc	7240 <bget+0x174>
/home/rossierd/soo.tech/soo/optee_os/lib/libutils/isoc/bget.c:602
    7130:	e3a00000 	mov	r0, #0
/home/rossierd/soo.tech/soo/optee_os/lib/libutils/isoc/bget.c:770
    7134:	e89da830 	ldm	sp, {r4, r5, fp, sp, pc}
/home/rossierd/soo.tech/soo/optee_os/lib/libutils/isoc/bget.c:664
    7138:	e2632000 	rsb	r2, r3, #0
/home/rossierd/soo.tech/soo/optee_os/lib/libutils/isoc/bget.c:660
    713c:	e580c004 	str	ip, [r0, #4]
/home/rossierd/soo.tech/soo/optee_os/lib/libutils/isoc/bget.c:662
    7140:	e780c00c 	str	ip, [r0, ip]
/home/rossierd/soo.tech/soo/optee_os/lib/libutils/isoc/bget.c:672
    7144:	e28e0008 	add	r0, lr, #8
/home/rossierd/soo.tech/soo/optee_os/lib/libutils/isoc/bget.c:664
    7148:	e58e2004 	str	r2, [lr, #4]
/home/rossierd/soo.tech/soo/optee_os/lib/libutils/isoc/bget.c:666
    714c:	e3a02000 	mov	r2, #0
    7150:	e78e2003 	str	r2, [lr, r3]
/home/rossierd/soo.tech/soo/optee_os/lib/libutils/isoc/bget.c:669
    7154:	e5912010 	ldr	r2, [r1, #16]
    7158:	e0823003 	add	r3, r2, r3
    715c:	e5813010 	str	r3, [r1, #16]
/home/rossierd/soo.tech/soo/optee_os/lib/libutils/isoc/bget.c:670
    7160:	e5913014 	ldr	r3, [r1, #20]
    7164:	e2833001 	add	r3, r3, #1
    7168:	e5813014 	str	r3, [r1, #20]
/home/rossierd/soo.tech/soo/optee_os/lib/libutils/isoc/bget.c:674
    716c:	e89da830 	ldm	sp, {r4, r5, fp, sp, pc}
/home/rossierd/soo.tech/soo/optee_os/lib/libutils/isoc/bget.c:679
    7170:	e7903002 	ldr	r3, [r0, r2]
/home/rossierd/soo.tech/soo/optee_os/lib/libutils/isoc/bget.c:678
    7174:	e080e002 	add	lr, r0, r2
/home/rossierd/soo.tech/soo/optee_os/lib/libutils/isoc/bget.c:679
    7178:	e1520003 	cmp	r2, r3
    717c:	0a000007 	beq	71a0 <bget+0xd4>
/home/rossierd/soo.tech/soo/optee_os/lib/libutils/isoc/bget.c:679 (discriminator 1)
    7180:	e59f3114 	ldr	r3, [pc, #276]	; 729c <bget+0x1d0>
    7184:	e30022a7 	movw	r2, #679	; 0x2a7
    7188:	e59f1110 	ldr	r1, [pc, #272]	; 72a0 <bget+0x1d4>
    718c:	e59f0110 	ldr	r0, [pc, #272]	; 72a4 <bget+0x1d8>
    7190:	e08f3003 	add	r3, pc, r3
    7194:	e08f1001 	add	r1, pc, r1
    7198:	e08f0000 	add	r0, pc, r0
    719c:	eaffffd6 	b	70fc <bget+0x30>
/home/rossierd/soo.tech/soo/optee_os/lib/libutils/isoc/bget.c:684
    71a0:	e590300c 	ldr	r3, [r0, #12]
    71a4:	e593c008 	ldr	ip, [r3, #8]
    71a8:	e150000c 	cmp	r0, ip
    71ac:	0a000007 	beq	71d0 <bget+0x104>
/home/rossierd/soo.tech/soo/optee_os/lib/libutils/isoc/bget.c:684 (discriminator 1)
    71b0:	e59f30f0 	ldr	r3, [pc, #240]	; 72a8 <bget+0x1dc>
    71b4:	e3a02fab 	mov	r2, #684	; 0x2ac
    71b8:	e59f10ec 	ldr	r1, [pc, #236]	; 72ac <bget+0x1e0>
    71bc:	e59f00ec 	ldr	r0, [pc, #236]	; 72b0 <bget+0x1e4>
    71c0:	e08f3003 	add	r3, pc, r3
    71c4:	e08f1001 	add	r1, pc, r1
    71c8:	e08f0000 	add	r0, pc, r0
    71cc:	eaffffca 	b	70fc <bget+0x30>
/home/rossierd/soo.tech/soo/optee_os/lib/libutils/isoc/bget.c:685
    71d0:	e590c008 	ldr	ip, [r0, #8]
    71d4:	e59c400c 	ldr	r4, [ip, #12]
    71d8:	e1500004 	cmp	r0, r4
    71dc:	0a000007 	beq	7200 <bget+0x134>
/home/rossierd/soo.tech/soo/optee_os/lib/libutils/isoc/bget.c:685 (discriminator 1)
    71e0:	e59f30cc 	ldr	r3, [pc, #204]	; 72b4 <bget+0x1e8>
    71e4:	e30022ad 	movw	r2, #685	; 0x2ad
    71e8:	e59f10c8 	ldr	r1, [pc, #200]	; 72b8 <bget+0x1ec>
    71ec:	e59f00c8 	ldr	r0, [pc, #200]	; 72bc <bget+0x1f0>
    71f0:	e08f3003 	add	r3, pc, r3
    71f4:	e08f1001 	add	r1, pc, r1
    71f8:	e08f0000 	add	r0, pc, r0
    71fc:	eaffffbe 	b	70fc <bget+0x30>
/home/rossierd/soo.tech/soo/optee_os/lib/libutils/isoc/bget.c:686
    7200:	e583c008 	str	ip, [r3, #8]
/home/rossierd/soo.tech/soo/optee_os/lib/libutils/isoc/bget.c:687
    7204:	e590c008 	ldr	ip, [r0, #8]
/home/rossierd/soo.tech/soo/optee_os/lib/libutils/isoc/bget.c:701
    7208:	e2800008 	add	r0, r0, #8
/home/rossierd/soo.tech/soo/optee_os/lib/libutils/isoc/bget.c:687
    720c:	e58c300c 	str	r3, [ip, #12]
/home/rossierd/soo.tech/soo/optee_os/lib/libutils/isoc/bget.c:690
    7210:	e5913010 	ldr	r3, [r1, #16]
    7214:	e0833002 	add	r3, r3, r2
/home/rossierd/soo.tech/soo/optee_os/lib/libutils/isoc/bget.c:694
    7218:	e2622000 	rsb	r2, r2, #0
/home/rossierd/soo.tech/soo/optee_os/lib/libutils/isoc/bget.c:690
    721c:	e5813010 	str	r3, [r1, #16]
/home/rossierd/soo.tech/soo/optee_os/lib/libutils/isoc/bget.c:691
    7220:	e5913014 	ldr	r3, [r1, #20]
    7224:	e2833001 	add	r3, r3, #1
    7228:	e5813014 	str	r3, [r1, #20]
/home/rossierd/soo.tech/soo/optee_os/lib/libutils/isoc/bget.c:698
    722c:	e3a03000 	mov	r3, #0
/home/rossierd/soo.tech/soo/optee_os/lib/libutils/isoc/bget.c:694
    7230:	e5002004 	str	r2, [r0, #-4]
/home/rossierd/soo.tech/soo/optee_os/lib/libutils/isoc/bget.c:698
    7234:	e58e3000 	str	r3, [lr]
/home/rossierd/soo.tech/soo/optee_os/lib/libutils/isoc/bget.c:703
    7238:	e89da830 	ldm	sp, {r4, r5, fp, sp, pc}
/home/rossierd/soo.tech/soo/optee_os/lib/libutils/isoc/bget.c:706
    723c:	e5900008 	ldr	r0, [r0, #8]
/home/rossierd/soo.tech/soo/optee_os/lib/libutils/isoc/bget.c:641
    7240:	e1500001 	cmp	r0, r1
    7244:	0affffb9 	beq	7130 <bget+0x64>
/home/rossierd/soo.tech/soo/optee_os/lib/libutils/isoc/bget.c:642
    7248:	e5902004 	ldr	r2, [r0, #4]
    724c:	e1530002 	cmp	r3, r2
    7250:	cafffff9 	bgt	723c <bget+0x170>
/home/rossierd/soo.tech/soo/optee_os/lib/libutils/isoc/bget.c:653
    7254:	e042c003 	sub	ip, r2, r3
    7258:	e35c0010 	cmp	ip, #16
    725c:	daffffc3 	ble	7170 <bget+0xa4>
/home/rossierd/soo.tech/soo/optee_os/lib/libutils/isoc/bget.c:656
    7260:	e080e00c 	add	lr, r0, ip
/home/rossierd/soo.tech/soo/optee_os/lib/libutils/isoc/bget.c:658
    7264:	e79e4003 	ldr	r4, [lr, r3]
    7268:	e1520004 	cmp	r2, r4
    726c:	0affffb1 	beq	7138 <bget+0x6c>
/home/rossierd/soo.tech/soo/optee_os/lib/libutils/isoc/bget.c:658 (discriminator 1)
    7270:	e59f3048 	ldr	r3, [pc, #72]	; 72c0 <bget+0x1f4>
    7274:	e3002292 	movw	r2, #658	; 0x292
    7278:	e59f1044 	ldr	r1, [pc, #68]	; 72c4 <bget+0x1f8>
    727c:	e59f0044 	ldr	r0, [pc, #68]	; 72c8 <bget+0x1fc>
    7280:	e08f3003 	add	r3, pc, r3
    7284:	e08f1001 	add	r1, pc, r1
    7288:	e08f0000 	add	r0, pc, r0
    728c:	eaffff9a 	b	70fc <bget+0x30>
    7290:	00002b23 	.word	0x00002b23
    7294:	00002b77 	.word	0x00002b77
    7298:	00002de0 	.word	0x00002de0
    729c:	00002a83 	.word	0x00002a83
    72a0:	00002ad7 	.word	0x00002ad7
    72a4:	00002b08 	.word	0x00002b08
    72a8:	00002a53 	.word	0x00002a53
    72ac:	00002aa7 	.word	0x00002aa7
    72b0:	00002af4 	.word	0x00002af4
    72b4:	00002a23 	.word	0x00002a23
    72b8:	00002a77 	.word	0x00002a77
    72bc:	00002adf 	.word	0x00002adf
    72c0:	00002993 	.word	0x00002993
    72c4:	000029e7 	.word	0x000029e7
    72c8:	000029fc 	.word	0x000029fc

000072cc <bgetz>:
bgetz():
/home/rossierd/soo.tech/soo/optee_os/lib/libutils/isoc/bget.c:779
    72cc:	e1a0c00d 	mov	ip, sp
    72d0:	e92dd830 	push	{r4, r5, fp, ip, lr, pc}
    72d4:	e24cb004 	sub	fp, ip, #4
    72d8:	e1a05000 	mov	r5, r0
/home/rossierd/soo.tech/soo/optee_os/lib/libutils/isoc/bget.c:780
    72dc:	ebffff7a 	bl	70cc <bget>
/home/rossierd/soo.tech/soo/optee_os/lib/libutils/isoc/bget.c:782
    72e0:	e2504000 	subs	r4, r0, #0
    72e4:	0a000016 	beq	7344 <bgetz+0x78>
/home/rossierd/soo.tech/soo/optee_os/lib/libutils/isoc/bget.c:787
    72e8:	e5142004 	ldr	r2, [r4, #-4]
/home/rossierd/soo.tech/soo/optee_os/lib/libutils/isoc/bget.c:788
    72ec:	e3520000 	cmp	r2, #0
/home/rossierd/soo.tech/soo/optee_os/lib/libutils/isoc/bget.c:792
    72f0:	0514200c 	ldreq	r2, [r4, #-12]
/home/rossierd/soo.tech/soo/optee_os/lib/libutils/isoc/bget.c:794
    72f4:	126224ff 	rsbne	r2, r2, #-16777216	; 0xff000000
    72f8:	128228ff 	addne	r2, r2, #16711680	; 0xff0000
    72fc:	12822cff 	addne	r2, r2, #65280	; 0xff00
    7300:	128220f8 	addne	r2, r2, #248	; 0xf8
/home/rossierd/soo.tech/soo/optee_os/lib/libutils/isoc/bget.c:792
    7304:	0242200c 	subeq	r2, r2, #12
/home/rossierd/soo.tech/soo/optee_os/lib/libutils/isoc/bget.c:796
    7308:	e1520005 	cmp	r2, r5
    730c:	aa000009 	bge	7338 <bgetz+0x6c>
    7310:	e59f3034 	ldr	r3, [pc, #52]	; 734c <bgetz+0x80>
    7314:	e3a02fc7 	mov	r2, #796	; 0x31c
    7318:	e59f1030 	ldr	r1, [pc, #48]	; 7350 <bgetz+0x84>
    731c:	e59f0030 	ldr	r0, [pc, #48]	; 7354 <bgetz+0x88>
    7320:	e08f3003 	add	r3, pc, r3
    7324:	e2833005 	add	r3, r3, #5
    7328:	e08f1001 	add	r1, pc, r1
    732c:	e08f0000 	add	r0, pc, r0
    7330:	eb000773 	bl	9104 <_assert_log>
    7334:	eb000782 	bl	9144 <_assert_break>
memset_unchecked():
/home/rossierd/soo.tech/soo/optee_os/lib/libutils/isoc/bget_malloc.c:124
    7338:	e3a01000 	mov	r1, #0
    733c:	e1a00004 	mov	r0, r4
    7340:	eb0002e1 	bl	7ecc <memset>
bgetz():
/home/rossierd/soo.tech/soo/optee_os/lib/libutils/isoc/bget.c:800
    7344:	e1a00004 	mov	r0, r4
    7348:	e89da830 	ldm	sp, {r4, r5, fp, sp, pc}
    734c:	000028f3 	.word	0x000028f3
    7350:	00002943 	.word	0x00002943
    7354:	000029c6 	.word	0x000029c6

00007358 <brel>:
brel():
/home/rossierd/soo.tech/soo/optee_os/lib/libutils/isoc/bget.c:858
    7358:	e5913018 	ldr	r3, [r1, #24]
/home/rossierd/soo.tech/soo/optee_os/lib/libutils/isoc/bget.c:852
    735c:	e1a0c00d 	mov	ip, sp
/home/rossierd/soo.tech/soo/optee_os/lib/libutils/isoc/bget.c:860
    7360:	e3500000 	cmp	r0, #0
/home/rossierd/soo.tech/soo/optee_os/lib/libutils/isoc/bget.c:852
    7364:	e92dd830 	push	{r4, r5, fp, ip, lr, pc}
    7368:	e24cb004 	sub	fp, ip, #4
/home/rossierd/soo.tech/soo/optee_os/lib/libutils/isoc/bget.c:856
    736c:	e2404008 	sub	r4, r0, #8
/home/rossierd/soo.tech/soo/optee_os/lib/libutils/isoc/bget.c:858
    7370:	e2833001 	add	r3, r3, #1
    7374:	e5813018 	str	r3, [r1, #24]
/home/rossierd/soo.tech/soo/optee_os/lib/libutils/isoc/bget.c:860
    7378:	1a000009 	bne	73a4 <brel+0x4c>
/home/rossierd/soo.tech/soo/optee_os/lib/libutils/isoc/bget.c:860 (discriminator 1)
    737c:	e59f32a0 	ldr	r3, [pc, #672]	; 7624 <brel+0x2cc>
    7380:	e3a02fd7 	mov	r2, #860	; 0x35c
    7384:	e59f129c 	ldr	r1, [pc, #668]	; 7628 <brel+0x2d0>
    7388:	e59f029c 	ldr	r0, [pc, #668]	; 762c <brel+0x2d4>
    738c:	e08f3003 	add	r3, pc, r3
    7390:	e283300b 	add	r3, r3, #11
    7394:	e08f1001 	add	r1, pc, r1
    7398:	e08f0000 	add	r0, pc, r0
/home/rossierd/soo.tech/soo/optee_os/lib/libutils/isoc/bget.c:895 (discriminator 1)
    739c:	eb000758 	bl	9104 <_assert_log>
    73a0:	eb000767 	bl	9144 <_assert_break>
/home/rossierd/soo.tech/soo/optee_os/lib/libutils/isoc/bget.c:892
    73a4:	e5103004 	ldr	r3, [r0, #-4]
/home/rossierd/soo.tech/soo/optee_os/lib/libutils/isoc/bget.c:895
    73a8:	e3530000 	cmp	r3, #0
    73ac:	ba000008 	blt	73d4 <brel+0x7c>
/home/rossierd/soo.tech/soo/optee_os/lib/libutils/isoc/bget.c:895 (discriminator 1)
    73b0:	e59f3278 	ldr	r3, [pc, #632]	; 7630 <brel+0x2d8>
    73b4:	e300237f 	movw	r2, #895	; 0x37f
    73b8:	e59f1274 	ldr	r1, [pc, #628]	; 7634 <brel+0x2dc>
    73bc:	e59f0274 	ldr	r0, [pc, #628]	; 7638 <brel+0x2e0>
    73c0:	e08f3003 	add	r3, pc, r3
    73c4:	e283300b 	add	r3, r3, #11
    73c8:	e08f1001 	add	r1, pc, r1
    73cc:	e08f0000 	add	r0, pc, r0
    73d0:	eafffff1 	b	739c <brel+0x44>
/home/rossierd/soo.tech/soo/optee_os/lib/libutils/isoc/bget.c:901
    73d4:	e044c003 	sub	ip, r4, r3
    73d8:	e59cc000 	ldr	ip, [ip]
    73dc:	e35c0000 	cmp	ip, #0
    73e0:	0a000008 	beq	7408 <brel+0xb0>
/home/rossierd/soo.tech/soo/optee_os/lib/libutils/isoc/bget.c:901 (discriminator 1)
    73e4:	e59f3250 	ldr	r3, [pc, #592]	; 763c <brel+0x2e4>
    73e8:	e3002385 	movw	r2, #901	; 0x385
    73ec:	e59f124c 	ldr	r1, [pc, #588]	; 7640 <brel+0x2e8>
    73f0:	e59f024c 	ldr	r0, [pc, #588]	; 7644 <brel+0x2ec>
    73f4:	e08f3003 	add	r3, pc, r3
    73f8:	e283300b 	add	r3, r3, #11
    73fc:	e08f1001 	add	r1, pc, r1
    7400:	e08f0000 	add	r0, pc, r0
    7404:	eaffffe4 	b	739c <brel+0x44>
/home/rossierd/soo.tech/soo/optee_os/lib/libutils/isoc/bget.c:904
    7408:	e591c010 	ldr	ip, [r1, #16]
    740c:	e083c00c 	add	ip, r3, ip
/home/rossierd/soo.tech/soo/optee_os/lib/libutils/isoc/bget.c:905
    7410:	e35c0000 	cmp	ip, #0
/home/rossierd/soo.tech/soo/optee_os/lib/libutils/isoc/bget.c:904
    7414:	e581c010 	str	ip, [r1, #16]
/home/rossierd/soo.tech/soo/optee_os/lib/libutils/isoc/bget.c:905
    7418:	aa000008 	bge	7440 <brel+0xe8>
/home/rossierd/soo.tech/soo/optee_os/lib/libutils/isoc/bget.c:905 (discriminator 1)
    741c:	e59f3224 	ldr	r3, [pc, #548]	; 7648 <brel+0x2f0>
    7420:	e3002389 	movw	r2, #905	; 0x389
    7424:	e59f1220 	ldr	r1, [pc, #544]	; 764c <brel+0x2f4>
    7428:	e59f0220 	ldr	r0, [pc, #544]	; 7650 <brel+0x2f8>
    742c:	e08f3003 	add	r3, pc, r3
    7430:	e283300b 	add	r3, r3, #11
    7434:	e08f1001 	add	r1, pc, r1
    7438:	e08f0000 	add	r0, pc, r0
    743c:	eaffffd6 	b	739c <brel+0x44>
/home/rossierd/soo.tech/soo/optee_os/lib/libutils/isoc/bget.c:910
    7440:	e510c008 	ldr	ip, [r0, #-8]
    7444:	e35c0000 	cmp	ip, #0
    7448:	0a00000e 	beq	7488 <brel+0x130>
/home/rossierd/soo.tech/soo/optee_os/lib/libutils/isoc/bget.c:921
    744c:	e044400c 	sub	r4, r4, ip
    7450:	e5941004 	ldr	r1, [r4, #4]
    7454:	e15c0001 	cmp	ip, r1
/home/rossierd/soo.tech/soo/optee_os/lib/libutils/isoc/bget.c:923
    7458:	004c3003 	subeq	r3, ip, r3
    745c:	05843004 	streq	r3, [r4, #4]
/home/rossierd/soo.tech/soo/optee_os/lib/libutils/isoc/bget.c:921
    7460:	0a000028 	beq	7508 <brel+0x1b0>
/home/rossierd/soo.tech/soo/optee_os/lib/libutils/isoc/bget.c:921 (discriminator 1)
    7464:	e59f31e8 	ldr	r3, [pc, #488]	; 7654 <brel+0x2fc>
    7468:	e3002399 	movw	r2, #921	; 0x399
    746c:	e59f11e4 	ldr	r1, [pc, #484]	; 7658 <brel+0x300>
    7470:	e59f01e4 	ldr	r0, [pc, #484]	; 765c <brel+0x304>
    7474:	e08f3003 	add	r3, pc, r3
    7478:	e283300b 	add	r3, r3, #11
    747c:	e08f1001 	add	r1, pc, r1
    7480:	e08f0000 	add	r0, pc, r0
    7484:	eaffffc4 	b	739c <brel+0x44>
/home/rossierd/soo.tech/soo/optee_os/lib/libutils/isoc/bget.c:929
    7488:	e591e00c 	ldr	lr, [r1, #12]
    748c:	e59ec008 	ldr	ip, [lr, #8]
    7490:	e15c0001 	cmp	ip, r1
    7494:	0a000008 	beq	74bc <brel+0x164>
/home/rossierd/soo.tech/soo/optee_os/lib/libutils/isoc/bget.c:929 (discriminator 1)
    7498:	e59f31c0 	ldr	r3, [pc, #448]	; 7660 <brel+0x308>
    749c:	e30023a1 	movw	r2, #929	; 0x3a1
    74a0:	e59f11bc 	ldr	r1, [pc, #444]	; 7664 <brel+0x30c>
    74a4:	e59f01bc 	ldr	r0, [pc, #444]	; 7668 <brel+0x310>
    74a8:	e08f3003 	add	r3, pc, r3
    74ac:	e283300b 	add	r3, r3, #11
    74b0:	e08f1001 	add	r1, pc, r1
    74b4:	e08f0000 	add	r0, pc, r0
    74b8:	eaffffb7 	b	739c <brel+0x44>
/home/rossierd/soo.tech/soo/optee_os/lib/libutils/isoc/bget.c:930
    74bc:	e59c1008 	ldr	r1, [ip, #8]
    74c0:	e591100c 	ldr	r1, [r1, #12]
    74c4:	e15c0001 	cmp	ip, r1
    74c8:	0a000008 	beq	74f0 <brel+0x198>
/home/rossierd/soo.tech/soo/optee_os/lib/libutils/isoc/bget.c:930 (discriminator 1)
    74cc:	e59f3198 	ldr	r3, [pc, #408]	; 766c <brel+0x314>
    74d0:	e30023a2 	movw	r2, #930	; 0x3a2
    74d4:	e59f1194 	ldr	r1, [pc, #404]	; 7670 <brel+0x318>
    74d8:	e59f0194 	ldr	r0, [pc, #404]	; 7674 <brel+0x31c>
    74dc:	e08f3003 	add	r3, pc, r3
    74e0:	e283300b 	add	r3, r3, #11
    74e4:	e08f1001 	add	r1, pc, r1
    74e8:	e08f0000 	add	r0, pc, r0
    74ec:	eaffffaa 	b	739c <brel+0x44>
/home/rossierd/soo.tech/soo/optee_os/lib/libutils/isoc/bget.c:932
    74f0:	e8805000 	stm	r0, {ip, lr}
/home/rossierd/soo.tech/soo/optee_os/lib/libutils/isoc/bget.c:896
    74f4:	e2633000 	rsb	r3, r3, #0
/home/rossierd/soo.tech/soo/optee_os/lib/libutils/isoc/bget.c:933
    74f8:	e58c400c 	str	r4, [ip, #12]
/home/rossierd/soo.tech/soo/optee_os/lib/libutils/isoc/bget.c:934
    74fc:	e5901004 	ldr	r1, [r0, #4]
    7500:	e5814008 	str	r4, [r1, #8]
/home/rossierd/soo.tech/soo/optee_os/lib/libutils/isoc/bget.c:935
    7504:	e5003004 	str	r3, [r0, #-4]
/home/rossierd/soo.tech/soo/optee_os/lib/libutils/isoc/bget.c:943
    7508:	e5943004 	ldr	r3, [r4, #4]
    750c:	e0845003 	add	r5, r4, r3
/home/rossierd/soo.tech/soo/optee_os/lib/libutils/isoc/bget.c:944
    7510:	e5951004 	ldr	r1, [r5, #4]
    7514:	e3510000 	cmp	r1, #0
    7518:	da00002b 	ble	75cc <brel+0x274>
/home/rossierd/soo.tech/soo/optee_os/lib/libutils/isoc/bget.c:949
    751c:	e7950001 	ldr	r0, [r5, r1]
    7520:	e1510000 	cmp	r1, r0
    7524:	0a000008 	beq	754c <brel+0x1f4>
/home/rossierd/soo.tech/soo/optee_os/lib/libutils/isoc/bget.c:949 (discriminator 1)
    7528:	e59f3148 	ldr	r3, [pc, #328]	; 7678 <brel+0x320>
    752c:	e30023b5 	movw	r2, #949	; 0x3b5
    7530:	e59f1144 	ldr	r1, [pc, #324]	; 767c <brel+0x324>
    7534:	e59f0144 	ldr	r0, [pc, #324]	; 7680 <brel+0x328>
    7538:	e08f3003 	add	r3, pc, r3
    753c:	e283300b 	add	r3, r3, #11
    7540:	e08f1001 	add	r1, pc, r1
    7544:	e08f0000 	add	r0, pc, r0
    7548:	eaffff93 	b	739c <brel+0x44>
/home/rossierd/soo.tech/soo/optee_os/lib/libutils/isoc/bget.c:950
    754c:	e595000c 	ldr	r0, [r5, #12]
    7550:	e590c008 	ldr	ip, [r0, #8]
    7554:	e155000c 	cmp	r5, ip
    7558:	0a000008 	beq	7580 <brel+0x228>
/home/rossierd/soo.tech/soo/optee_os/lib/libutils/isoc/bget.c:950 (discriminator 1)
    755c:	e59f3120 	ldr	r3, [pc, #288]	; 7684 <brel+0x32c>
    7560:	e30023b6 	movw	r2, #950	; 0x3b6
    7564:	e59f111c 	ldr	r1, [pc, #284]	; 7688 <brel+0x330>
    7568:	e59f011c 	ldr	r0, [pc, #284]	; 768c <brel+0x334>
    756c:	e08f3003 	add	r3, pc, r3
    7570:	e283300b 	add	r3, r3, #11
    7574:	e08f1001 	add	r1, pc, r1
    7578:	e08f0000 	add	r0, pc, r0
    757c:	eaffff86 	b	739c <brel+0x44>
/home/rossierd/soo.tech/soo/optee_os/lib/libutils/isoc/bget.c:951
    7580:	e595c008 	ldr	ip, [r5, #8]
    7584:	e59ce00c 	ldr	lr, [ip, #12]
    7588:	e155000e 	cmp	r5, lr
    758c:	0a000008 	beq	75b4 <brel+0x25c>
/home/rossierd/soo.tech/soo/optee_os/lib/libutils/isoc/bget.c:951 (discriminator 1)
    7590:	e59f30f8 	ldr	r3, [pc, #248]	; 7690 <brel+0x338>
    7594:	e30023b7 	movw	r2, #951	; 0x3b7
    7598:	e59f10f4 	ldr	r1, [pc, #244]	; 7694 <brel+0x33c>
    759c:	e59f00f4 	ldr	r0, [pc, #244]	; 7698 <brel+0x340>
    75a0:	e08f3003 	add	r3, pc, r3
    75a4:	e283300b 	add	r3, r3, #11
    75a8:	e08f1001 	add	r1, pc, r1
    75ac:	e08f0000 	add	r0, pc, r0
    75b0:	eaffff79 	b	739c <brel+0x44>
/home/rossierd/soo.tech/soo/optee_os/lib/libutils/isoc/bget.c:952
    75b4:	e580c008 	str	ip, [r0, #8]
/home/rossierd/soo.tech/soo/optee_os/lib/libutils/isoc/bget.c:953
    75b8:	e595c008 	ldr	ip, [r5, #8]
/home/rossierd/soo.tech/soo/optee_os/lib/libutils/isoc/bget.c:954
    75bc:	e0835001 	add	r5, r3, r1
/home/rossierd/soo.tech/soo/optee_os/lib/libutils/isoc/bget.c:953
    75c0:	e58c000c 	str	r0, [ip, #12]
/home/rossierd/soo.tech/soo/optee_os/lib/libutils/isoc/bget.c:954
    75c4:	e5845004 	str	r5, [r4, #4]
/home/rossierd/soo.tech/soo/optee_os/lib/libutils/isoc/bget.c:963
    75c8:	e0845005 	add	r5, r4, r5
/home/rossierd/soo.tech/soo/optee_os/lib/libutils/isoc/bget.c:965
    75cc:	e3520000 	cmp	r2, #0
    75d0:	0a000004 	beq	75e8 <brel+0x290>
/home/rossierd/soo.tech/soo/optee_os/lib/libutils/isoc/bget.c:967
    75d4:	e5942004 	ldr	r2, [r4, #4]
memset_unchecked():
/home/rossierd/soo.tech/soo/optee_os/lib/libutils/isoc/bget_malloc.c:124
    75d8:	e3a01055 	mov	r1, #85	; 0x55
    75dc:	e2840010 	add	r0, r4, #16
    75e0:	e2422010 	sub	r2, r2, #16
    75e4:	eb000238 	bl	7ecc <memset>
brel():
/home/rossierd/soo.tech/soo/optee_os/lib/libutils/isoc/bget.c:969
    75e8:	e5953004 	ldr	r3, [r5, #4]
    75ec:	e3530000 	cmp	r3, #0
    75f0:	ba000008 	blt	7618 <brel+0x2c0>
/home/rossierd/soo.tech/soo/optee_os/lib/libutils/isoc/bget.c:969 (discriminator 1)
    75f4:	e59f30a0 	ldr	r3, [pc, #160]	; 769c <brel+0x344>
    75f8:	e30023c9 	movw	r2, #969	; 0x3c9
    75fc:	e59f109c 	ldr	r1, [pc, #156]	; 76a0 <brel+0x348>
    7600:	e59f009c 	ldr	r0, [pc, #156]	; 76a4 <brel+0x34c>
    7604:	e08f3003 	add	r3, pc, r3
    7608:	e283300b 	add	r3, r3, #11
    760c:	e08f1001 	add	r1, pc, r1
    7610:	e08f0000 	add	r0, pc, r0
    7614:	eaffff60 	b	739c <brel+0x44>
/home/rossierd/soo.tech/soo/optee_os/lib/libutils/isoc/bget.c:974
    7618:	e5943004 	ldr	r3, [r4, #4]
    761c:	e5853000 	str	r3, [r5]
    7620:	e89da830 	ldm	sp, {r4, r5, fp, sp, pc}
    7624:	00002887 	.word	0x00002887
    7628:	000028d7 	.word	0x000028d7
    762c:	00002968 	.word	0x00002968
    7630:	00002853 	.word	0x00002853
    7634:	000028a3 	.word	0x000028a3
    7638:	00002940 	.word	0x00002940
    763c:	0000281f 	.word	0x0000281f
    7640:	0000286f 	.word	0x0000286f
    7644:	0000291c 	.word	0x0000291c
    7648:	000027e7 	.word	0x000027e7
    764c:	00002837 	.word	0x00002837
    7650:	00002910 	.word	0x00002910
    7654:	0000279f 	.word	0x0000279f
    7658:	000027ef 	.word	0x000027ef
    765c:	000028df 	.word	0x000028df
    7660:	0000276b 	.word	0x0000276b
    7664:	000027bb 	.word	0x000027bb
    7668:	000028e4 	.word	0x000028e4
    766c:	00002737 	.word	0x00002737
    7670:	00002787 	.word	0x00002787
    7674:	000028eb 	.word	0x000028eb
    7678:	000026db 	.word	0x000026db
    767c:	0000272b 	.word	0x0000272b
    7680:	000028ca 	.word	0x000028ca
    7684:	000026a7 	.word	0x000026a7
    7688:	000026f7 	.word	0x000026f7
    768c:	000028cf 	.word	0x000028cf
    7690:	00002673 	.word	0x00002673
    7694:	000026c3 	.word	0x000026c3
    7698:	000028b8 	.word	0x000028b8
    769c:	0000260f 	.word	0x0000260f
    76a0:	0000265f 	.word	0x0000265f
    76a4:	00002871 	.word	0x00002871

000076a8 <bgetr>:
bgetr():
/home/rossierd/soo.tech/soo/optee_os/lib/libutils/isoc/bget.c:811
    76a8:	e1a0c00d 	mov	ip, sp
    76ac:	e92ddbf0 	push	{r4, r5, r6, r7, r8, r9, fp, ip, lr, pc}
    76b0:	e1a05001 	mov	r5, r1
    76b4:	e24cb004 	sub	fp, ip, #4
    76b8:	e1a06000 	mov	r6, r0
/home/rossierd/soo.tech/soo/optee_os/lib/libutils/isoc/bget.c:816
    76bc:	e1a01002 	mov	r1, r2
    76c0:	e1a00005 	mov	r0, r5
/home/rossierd/soo.tech/soo/optee_os/lib/libutils/isoc/bget.c:811
    76c4:	e1a08002 	mov	r8, r2
/home/rossierd/soo.tech/soo/optee_os/lib/libutils/isoc/bget.c:816
    76c8:	ebfffe7f 	bl	70cc <bget>
    76cc:	e2507000 	subs	r7, r0, #0
    76d0:	0a000021 	beq	775c <bgetr+0xb4>
/home/rossierd/soo.tech/soo/optee_os/lib/libutils/isoc/bget.c:819
    76d4:	e3560000 	cmp	r6, #0
    76d8:	0a00001f 	beq	775c <bgetr+0xb4>
    76dc:	e5164004 	ldr	r4, [r6, #-4]
    76e0:	e26444ff 	rsb	r4, r4, #-16777216	; 0xff000000
    76e4:	e28448ff 	add	r4, r4, #16711680	; 0xff0000
    76e8:	e2844cff 	add	r4, r4, #65280	; 0xff00
    76ec:	e28440f8 	add	r4, r4, #248	; 0xf8
/home/rossierd/soo.tech/soo/optee_os/lib/libutils/isoc/bget.c:834
    76f0:	e3540000 	cmp	r4, #0
    76f4:	ca000009 	bgt	7720 <bgetr+0x78>
    76f8:	e59f3064 	ldr	r3, [pc, #100]	; 7764 <bgetr+0xbc>
    76fc:	e3002342 	movw	r2, #834	; 0x342
    7700:	e59f1060 	ldr	r1, [pc, #96]	; 7768 <bgetr+0xc0>
    7704:	e59f0060 	ldr	r0, [pc, #96]	; 776c <bgetr+0xc4>
    7708:	e08f3003 	add	r3, pc, r3
    770c:	e2833010 	add	r3, r3, #16
    7710:	e08f1001 	add	r1, pc, r1
    7714:	e08f0000 	add	r0, pc, r0
    7718:	eb000679 	bl	9104 <_assert_log>
    771c:	eb000688 	bl	9144 <_assert_break>
/home/rossierd/soo.tech/soo/optee_os/lib/libutils/isoc/bget.c:835
    7720:	e1550004 	cmp	r5, r4
    7724:	e1a01006 	mov	r1, r6
    7728:	b1a02005 	movlt	r2, r5
    772c:	a1a02004 	movge	r2, r4
    7730:	eb0001c3 	bl	7e44 <memcpy>
/home/rossierd/soo.tech/soo/optee_os/lib/libutils/isoc/bget.c:839
    7734:	e1550004 	cmp	r5, r4
    7738:	da000003 	ble	774c <bgetr+0xa4>
/home/rossierd/soo.tech/soo/optee_os/lib/libutils/isoc/bget.c:840
    773c:	e0452004 	sub	r2, r5, r4
    7740:	e3a01000 	mov	r1, #0
    7744:	e0870004 	add	r0, r7, r4
    7748:	eb0001df 	bl	7ecc <memset>
/home/rossierd/soo.tech/soo/optee_os/lib/libutils/isoc/bget.c:842
    774c:	e3a02000 	mov	r2, #0
    7750:	e1a01008 	mov	r1, r8
    7754:	e1a00006 	mov	r0, r6
    7758:	ebfffefe 	bl	7358 <brel>
/home/rossierd/soo.tech/soo/optee_os/lib/libutils/isoc/bget.c:844
    775c:	e1a00007 	mov	r0, r7
    7760:	e89dabf0 	ldm	sp, {r4, r5, r6, r7, r8, r9, fp, sp, pc}
    7764:	0000250b 	.word	0x0000250b
    7768:	0000255b 	.word	0x0000255b
    776c:	0000277e 	.word	0x0000277e

00007770 <bpool>:
bpool():
/home/rossierd/soo.tech/soo/optee_os/lib/libutils/isoc/bget.c:1033
    7770:	e3c11007 	bic	r1, r1, #7
/home/rossierd/soo.tech/soo/optee_os/lib/libutils/isoc/bget.c:1028
    7774:	e1a0c00d 	mov	ip, sp
/home/rossierd/soo.tech/soo/optee_os/lib/libutils/isoc/bget.c:1052
    7778:	e2511008 	subs	r1, r1, #8
/home/rossierd/soo.tech/soo/optee_os/lib/libutils/isoc/bget.c:1028
    777c:	e92dd800 	push	{fp, ip, lr, pc}
    7780:	e24cb004 	sub	fp, ip, #4
/home/rossierd/soo.tech/soo/optee_os/lib/libutils/isoc/bget.c:1052
    7784:	5a000009 	bpl	77b0 <bpool+0x40>
    7788:	e59f30bc 	ldr	r3, [pc, #188]	; 784c <bpool+0xdc>
    778c:	e300241c 	movw	r2, #1052	; 0x41c
    7790:	e59f10b8 	ldr	r1, [pc, #184]	; 7850 <bpool+0xe0>
    7794:	e59f00b8 	ldr	r0, [pc, #184]	; 7854 <bpool+0xe4>
    7798:	e08f3003 	add	r3, pc, r3
    779c:	e2833016 	add	r3, r3, #22
    77a0:	e08f1001 	add	r1, pc, r1
    77a4:	e08f0000 	add	r0, pc, r0
/home/rossierd/soo.tech/soo/optee_os/lib/libutils/isoc/bget.c:1062 (discriminator 1)
    77a8:	eb000655 	bl	9104 <_assert_log>
    77ac:	eb000664 	bl	9144 <_assert_break>
/home/rossierd/soo.tech/soo/optee_os/lib/libutils/isoc/bget.c:1062
    77b0:	e592c00c 	ldr	ip, [r2, #12]
/home/rossierd/soo.tech/soo/optee_os/lib/libutils/isoc/bget.c:1058
    77b4:	e3a03000 	mov	r3, #0
    77b8:	e5803000 	str	r3, [r0]
/home/rossierd/soo.tech/soo/optee_os/lib/libutils/isoc/bget.c:1062
    77bc:	e59c3008 	ldr	r3, [ip, #8]
    77c0:	e1530002 	cmp	r3, r2
    77c4:	0a000008 	beq	77ec <bpool+0x7c>
/home/rossierd/soo.tech/soo/optee_os/lib/libutils/isoc/bget.c:1062 (discriminator 1)
    77c8:	e59f3088 	ldr	r3, [pc, #136]	; 7858 <bpool+0xe8>
    77cc:	e3002426 	movw	r2, #1062	; 0x426
    77d0:	e59f1084 	ldr	r1, [pc, #132]	; 785c <bpool+0xec>
    77d4:	e59f0084 	ldr	r0, [pc, #132]	; 7860 <bpool+0xf0>
    77d8:	e08f3003 	add	r3, pc, r3
    77dc:	e2833016 	add	r3, r3, #22
    77e0:	e08f1001 	add	r1, pc, r1
    77e4:	e08f0000 	add	r0, pc, r0
    77e8:	eaffffee 	b	77a8 <bpool+0x38>
/home/rossierd/soo.tech/soo/optee_os/lib/libutils/isoc/bget.c:1063
    77ec:	e5932008 	ldr	r2, [r3, #8]
    77f0:	e592200c 	ldr	r2, [r2, #12]
    77f4:	e1530002 	cmp	r3, r2
    77f8:	0a000008 	beq	7820 <bpool+0xb0>
/home/rossierd/soo.tech/soo/optee_os/lib/libutils/isoc/bget.c:1063 (discriminator 1)
    77fc:	e59f3060 	ldr	r3, [pc, #96]	; 7864 <bpool+0xf4>
    7800:	e3002427 	movw	r2, #1063	; 0x427
    7804:	e59f105c 	ldr	r1, [pc, #92]	; 7868 <bpool+0xf8>
    7808:	e59f005c 	ldr	r0, [pc, #92]	; 786c <bpool+0xfc>
    780c:	e08f3003 	add	r3, pc, r3
    7810:	e2833016 	add	r3, r3, #22
    7814:	e08f1001 	add	r1, pc, r1
    7818:	e08f0000 	add	r0, pc, r0
    781c:	eaffffe1 	b	77a8 <bpool+0x38>
/home/rossierd/soo.tech/soo/optee_os/lib/libutils/isoc/bget.c:1064
    7820:	e5803008 	str	r3, [r0, #8]
/home/rossierd/soo.tech/soo/optee_os/lib/libutils/isoc/bget.c:1087
    7824:	e3a02102 	mov	r2, #-2147483648	; 0x80000000
/home/rossierd/soo.tech/soo/optee_os/lib/libutils/isoc/bget.c:1065
    7828:	e580c00c 	str	ip, [r0, #12]
/home/rossierd/soo.tech/soo/optee_os/lib/libutils/isoc/bget.c:1066
    782c:	e583000c 	str	r0, [r3, #12]
/home/rossierd/soo.tech/soo/optee_os/lib/libutils/isoc/bget.c:1067
    7830:	e590300c 	ldr	r3, [r0, #12]
    7834:	e5830008 	str	r0, [r3, #8]
/home/rossierd/soo.tech/soo/optee_os/lib/libutils/isoc/bget.c:1083
    7838:	e0803001 	add	r3, r0, r1
/home/rossierd/soo.tech/soo/optee_os/lib/libutils/isoc/bget.c:1078
    783c:	e5801004 	str	r1, [r0, #4]
/home/rossierd/soo.tech/soo/optee_os/lib/libutils/isoc/bget.c:1084
    7840:	e7801001 	str	r1, [r0, r1]
/home/rossierd/soo.tech/soo/optee_os/lib/libutils/isoc/bget.c:1087
    7844:	e5832004 	str	r2, [r3, #4]
    7848:	e89da800 	ldm	sp, {fp, sp, pc}
    784c:	0000247b 	.word	0x0000247b
    7850:	000024cb 	.word	0x000024cb
    7854:	000026f8 	.word	0x000026f8
    7858:	0000243b 	.word	0x0000243b
    785c:	0000248b 	.word	0x0000248b
    7860:	000025b4 	.word	0x000025b4
    7864:	00002407 	.word	0x00002407
    7868:	00002457 	.word	0x00002457
    786c:	000025bb 	.word	0x000025bb

00007870 <bstats>:
bstats():
/home/rossierd/soo.tech/soo/optee_os/lib/libutils/isoc/bget.c:1098
    7870:	e1a0c00d 	mov	ip, sp
    7874:	e92dd830 	push	{r4, r5, fp, ip, lr, pc}
    7878:	e24cb004 	sub	fp, ip, #4
    787c:	e59bc008 	ldr	ip, [fp, #8]
/home/rossierd/soo.tech/soo/optee_os/lib/libutils/isoc/bget.c:1099
    7880:	e59ce008 	ldr	lr, [ip, #8]
/home/rossierd/soo.tech/soo/optee_os/lib/libutils/isoc/bget.c:1101
    7884:	e59c4014 	ldr	r4, [ip, #20]
    7888:	e5834000 	str	r4, [r3]
/home/rossierd/soo.tech/soo/optee_os/lib/libutils/isoc/bget.c:1102
    788c:	e59b3004 	ldr	r3, [fp, #4]
    7890:	e59c4018 	ldr	r4, [ip, #24]
    7894:	e5834000 	str	r4, [r3]
/home/rossierd/soo.tech/soo/optee_os/lib/libutils/isoc/bget.c:1103
    7898:	e59c3010 	ldr	r3, [ip, #16]
    789c:	e5803000 	str	r3, [r0]
/home/rossierd/soo.tech/soo/optee_os/lib/libutils/isoc/bget.c:1104
    78a0:	e3a03000 	mov	r3, #0
    78a4:	e5813000 	str	r3, [r1]
/home/rossierd/soo.tech/soo/optee_os/lib/libutils/isoc/bget.c:1105
    78a8:	e3e03000 	mvn	r3, #0
    78ac:	e5823000 	str	r3, [r2]
/home/rossierd/soo.tech/soo/optee_os/lib/libutils/isoc/bget.c:1106
    78b0:	e15e000c 	cmp	lr, ip
    78b4:	1a000000 	bne	78bc <bstats+0x4c>
/home/rossierd/soo.tech/soo/optee_os/lib/libutils/isoc/bget.c:1114
    78b8:	e89da830 	ldm	sp, {r4, r5, fp, sp, pc}
/home/rossierd/soo.tech/soo/optee_os/lib/libutils/isoc/bget.c:1107
    78bc:	e59e0004 	ldr	r0, [lr, #4]
    78c0:	e3500000 	cmp	r0, #0
    78c4:	ca000009 	bgt	78f0 <bstats+0x80>
/home/rossierd/soo.tech/soo/optee_os/lib/libutils/isoc/bget.c:1107 (discriminator 1)
    78c8:	e59f3044 	ldr	r3, [pc, #68]	; 7914 <bstats+0xa4>
    78cc:	e3002453 	movw	r2, #1107	; 0x453
    78d0:	e59f1040 	ldr	r1, [pc, #64]	; 7918 <bstats+0xa8>
    78d4:	e59f0040 	ldr	r0, [pc, #64]	; 791c <bstats+0xac>
    78d8:	e08f3003 	add	r3, pc, r3
    78dc:	e283301c 	add	r3, r3, #28
    78e0:	e08f1001 	add	r1, pc, r1
    78e4:	e08f0000 	add	r0, pc, r0
    78e8:	eb000605 	bl	9104 <_assert_log>
    78ec:	eb000614 	bl	9144 <_assert_break>
/home/rossierd/soo.tech/soo/optee_os/lib/libutils/isoc/bget.c:1108
    78f0:	e5913000 	ldr	r3, [r1]
    78f4:	e0833000 	add	r3, r3, r0
    78f8:	e5813000 	str	r3, [r1]
/home/rossierd/soo.tech/soo/optee_os/lib/libutils/isoc/bget.c:1109
    78fc:	e59e3004 	ldr	r3, [lr, #4]
    7900:	e5920000 	ldr	r0, [r2]
/home/rossierd/soo.tech/soo/optee_os/lib/libutils/isoc/bget.c:1112
    7904:	e59ee008 	ldr	lr, [lr, #8]
/home/rossierd/soo.tech/soo/optee_os/lib/libutils/isoc/bget.c:1109
    7908:	e1530000 	cmp	r3, r0
/home/rossierd/soo.tech/soo/optee_os/lib/libutils/isoc/bget.c:1110
    790c:	c5823000 	strgt	r3, [r2]
    7910:	eaffffe6 	b	78b0 <bstats+0x40>
    7914:	0000233b 	.word	0x0000233b
    7918:	0000238b 	.word	0x0000238b
    791c:	000025ed 	.word	0x000025ed

00007920 <malloc_reset_stats>:
gen_malloc_reset_stats():
/home/rossierd/soo.tech/soo/optee_os/lib/libutils/isoc/bget_malloc.c:216
    7920:	e59f3024 	ldr	r3, [pc, #36]	; 794c <malloc_reset_stats+0x2c>
    7924:	e3a02000 	mov	r2, #0
malloc_reset_stats():
/home/rossierd/soo.tech/soo/optee_os/lib/libutils/isoc/bget_malloc.c:224
    7928:	e1a0c00d 	mov	ip, sp
    792c:	e92dd800 	push	{fp, ip, lr, pc}
    7930:	e24cb004 	sub	fp, ip, #4
gen_malloc_reset_stats():
/home/rossierd/soo.tech/soo/optee_os/lib/libutils/isoc/bget_malloc.c:216
    7934:	e08f3003 	add	r3, pc, r3
    7938:	e5832048 	str	r2, [r3, #72]	; 0x48
/home/rossierd/soo.tech/soo/optee_os/lib/libutils/isoc/bget_malloc.c:217
    793c:	e5832050 	str	r2, [r3, #80]	; 0x50
/home/rossierd/soo.tech/soo/optee_os/lib/libutils/isoc/bget_malloc.c:218
    7940:	e5832054 	str	r2, [r3, #84]	; 0x54
/home/rossierd/soo.tech/soo/optee_os/lib/libutils/isoc/bget_malloc.c:219
    7944:	e5832058 	str	r2, [r3, #88]	; 0x58
    7948:	e89da800 	ldm	sp, {fp, sp, pc}
    794c:	0000490c 	.word	0x0000490c

00007950 <malloc_get_stats>:
malloc_get_stats():
/home/rossierd/soo.tech/soo/optee_os/lib/libutils/isoc/bget_malloc.c:239
    7950:	e1a0c00d 	mov	ip, sp
gen_malloc_get_stats():
/home/rossierd/soo.tech/soo/optee_os/lib/libutils/isoc/bget_malloc.c:233
    7954:	e3a02038 	mov	r2, #56	; 0x38
malloc_get_stats():
/home/rossierd/soo.tech/soo/optee_os/lib/libutils/isoc/bget_malloc.c:239
    7958:	e92dd830 	push	{r4, r5, fp, ip, lr, pc}
    795c:	e24cb004 	sub	fp, ip, #4
gen_malloc_get_stats():
/home/rossierd/soo.tech/soo/optee_os/lib/libutils/isoc/bget_malloc.c:233
    7960:	e59f4014 	ldr	r4, [pc, #20]	; 797c <malloc_get_stats+0x2c>
    7964:	e08f4004 	add	r4, pc, r4
    7968:	e2841024 	add	r1, r4, #36	; 0x24
    796c:	eb000134 	bl	7e44 <memcpy>
/home/rossierd/soo.tech/soo/optee_os/lib/libutils/isoc/bget_malloc.c:234
    7970:	e5942010 	ldr	r2, [r4, #16]
    7974:	e5802020 	str	r2, [r0, #32]
    7978:	e89da830 	ldm	sp, {r4, r5, fp, sp, pc}
    797c:	000048dc 	.word	0x000048dc

00007980 <malloc>:
malloc():
/home/rossierd/soo.tech/soo/optee_os/lib/libutils/isoc/bget_malloc.c:656
    7980:	e1a0c00d 	mov	ip, sp
    7984:	e92dd830 	push	{r4, r5, fp, ip, lr, pc}
raw_malloc():
/home/rossierd/soo.tech/soo/optee_os/lib/libutils/isoc/bget_malloc.c:352
    7988:	e2505000 	subs	r5, r0, #0
malloc():
/home/rossierd/soo.tech/soo/optee_os/lib/libutils/isoc/bget_malloc.c:656
    798c:	e24cb004 	sub	fp, ip, #4
raw_malloc():
/home/rossierd/soo.tech/soo/optee_os/lib/libutils/isoc/bget_malloc.c:339
    7990:	b3a04000 	movlt	r4, #0
/home/rossierd/soo.tech/soo/optee_os/lib/libutils/isoc/bget_malloc.c:352
    7994:	ba000005 	blt	79b0 <malloc+0x30>
/home/rossierd/soo.tech/soo/optee_os/lib/libutils/isoc/bget_malloc.c:361
    7998:	e59f1024 	ldr	r1, [pc, #36]	; 79c4 <malloc+0x44>
    799c:	11a00005 	movne	r0, r5
    79a0:	03a00001 	moveq	r0, #1
    79a4:	e08f1001 	add	r1, pc, r1
    79a8:	ebfffdc7 	bl	70cc <bget>
    79ac:	e1a04000 	mov	r4, r0
/home/rossierd/soo.tech/soo/optee_os/lib/libutils/isoc/bget_malloc.c:363
    79b0:	e1a00004 	mov	r0, r4
    79b4:	e1a01005 	mov	r1, r5
    79b8:	ebfffdac 	bl	7070 <raw_malloc_return_hook.constprop.21>
malloc():
/home/rossierd/soo.tech/soo/optee_os/lib/libutils/isoc/bget_malloc.c:663
    79bc:	e1a00004 	mov	r0, r4
    79c0:	e89da830 	ldm	sp, {r4, r5, fp, sp, pc}
    79c4:	0000489c 	.word	0x0000489c

000079c8 <calloc>:
raw_calloc():
/home/rossierd/soo.tech/soo/optee_os/lib/libutils/isoc/bget_malloc.c:385
    79c8:	e0832190 	umull	r2, r3, r0, r1
calloc():
/home/rossierd/soo.tech/soo/optee_os/lib/libutils/isoc/bget_malloc.c:674
    79cc:	e1a0c00d 	mov	ip, sp
    79d0:	e92dd8f0 	push	{r4, r5, r6, r7, fp, ip, lr, pc}
    79d4:	e1a05000 	mov	r5, r0
    79d8:	e24cb004 	sub	fp, ip, #4
    79dc:	e1a06001 	mov	r6, r1
raw_calloc():
/home/rossierd/soo.tech/soo/optee_os/lib/libutils/isoc/bget_malloc.c:385
    79e0:	e3520000 	cmp	r2, #0
    79e4:	a3530000 	cmpge	r3, #0
    79e8:	e1a00002 	mov	r0, r2
/home/rossierd/soo.tech/soo/optee_os/lib/libutils/isoc/bget_malloc.c:379
    79ec:	13a04000 	movne	r4, #0
/home/rossierd/soo.tech/soo/optee_os/lib/libutils/isoc/bget_malloc.c:385
    79f0:	1a000005 	bne	7a0c <calloc+0x44>
/home/rossierd/soo.tech/soo/optee_os/lib/libutils/isoc/bget_malloc.c:396
    79f4:	e59f1024 	ldr	r1, [pc, #36]	; 7a20 <calloc+0x58>
/home/rossierd/soo.tech/soo/optee_os/lib/libutils/isoc/bget_malloc.c:393
    79f8:	e3520000 	cmp	r2, #0
/home/rossierd/soo.tech/soo/optee_os/lib/libutils/isoc/bget_malloc.c:396
    79fc:	03a00001 	moveq	r0, #1
    7a00:	e08f1001 	add	r1, pc, r1
    7a04:	ebfffe30 	bl	72cc <bgetz>
    7a08:	e1a04000 	mov	r4, r0
/home/rossierd/soo.tech/soo/optee_os/lib/libutils/isoc/bget_malloc.c:398
    7a0c:	e1a00004 	mov	r0, r4
    7a10:	e0010596 	mul	r1, r6, r5
    7a14:	ebfffd95 	bl	7070 <raw_malloc_return_hook.constprop.21>
calloc():
/home/rossierd/soo.tech/soo/optee_os/lib/libutils/isoc/bget_malloc.c:681
    7a18:	e1a00004 	mov	r0, r4
    7a1c:	e89da8f0 	ldm	sp, {r4, r5, r6, r7, fp, sp, pc}
    7a20:	00004840 	.word	0x00004840

00007a24 <realloc>:
realloc():
/home/rossierd/soo.tech/soo/optee_os/lib/libutils/isoc/bget_malloc.c:690
    7a24:	e1a0c00d 	mov	ip, sp
    7a28:	e92dd830 	push	{r4, r5, fp, ip, lr, pc}
raw_realloc():
/home/rossierd/soo.tech/soo/optee_os/lib/libutils/isoc/bget_malloc.c:410
    7a2c:	e2515000 	subs	r5, r1, #0
realloc():
/home/rossierd/soo.tech/soo/optee_os/lib/libutils/isoc/bget_malloc.c:690
    7a30:	e24cb004 	sub	fp, ip, #4
raw_realloc():
/home/rossierd/soo.tech/soo/optee_os/lib/libutils/isoc/bget_malloc.c:406
    7a34:	b3a04000 	movlt	r4, #0
/home/rossierd/soo.tech/soo/optee_os/lib/libutils/isoc/bget_malloc.c:410
    7a38:	ba000005 	blt	7a54 <realloc+0x30>
/home/rossierd/soo.tech/soo/optee_os/lib/libutils/isoc/bget_malloc.c:421
    7a3c:	e59f2024 	ldr	r2, [pc, #36]	; 7a68 <realloc+0x44>
    7a40:	11a01005 	movne	r1, r5
    7a44:	03a01001 	moveq	r1, #1
    7a48:	e08f2002 	add	r2, pc, r2
    7a4c:	ebffff15 	bl	76a8 <bgetr>
    7a50:	e1a04000 	mov	r4, r0
/home/rossierd/soo.tech/soo/optee_os/lib/libutils/isoc/bget_malloc.c:423
    7a54:	e1a00004 	mov	r0, r4
    7a58:	e1a01005 	mov	r1, r5
    7a5c:	ebfffd83 	bl	7070 <raw_malloc_return_hook.constprop.21>
realloc():
/home/rossierd/soo.tech/soo/optee_os/lib/libutils/isoc/bget_malloc.c:697
    7a60:	e1a00004 	mov	r0, r4
    7a64:	e89da830 	ldm	sp, {r4, r5, fp, sp, pc}
    7a68:	000047f8 	.word	0x000047f8

00007a6c <free>:
free():
/home/rossierd/soo.tech/soo/optee_os/lib/libutils/isoc/bget_malloc.c:708
    7a6c:	e1a0c00d 	mov	ip, sp
raw_free():
/home/rossierd/soo.tech/soo/optee_os/lib/libutils/isoc/bget_malloc.c:372
    7a70:	e3500000 	cmp	r0, #0
free():
/home/rossierd/soo.tech/soo/optee_os/lib/libutils/isoc/bget_malloc.c:708
    7a74:	e92dd800 	push	{fp, ip, lr, pc}
    7a78:	e24cb004 	sub	fp, ip, #4
raw_free():
/home/rossierd/soo.tech/soo/optee_os/lib/libutils/isoc/bget_malloc.c:372
    7a7c:	089da800 	ldmeq	sp, {fp, sp, pc}
/home/rossierd/soo.tech/soo/optee_os/lib/libutils/isoc/bget_malloc.c:373
    7a80:	e59f1010 	ldr	r1, [pc, #16]	; 7a98 <free+0x2c>
    7a84:	e3a02000 	mov	r2, #0
    7a88:	e08f1001 	add	r1, pc, r1
free():
/home/rossierd/soo.tech/soo/optee_os/lib/libutils/isoc/bget_malloc.c:710
    7a8c:	e24bd00c 	sub	sp, fp, #12
    7a90:	e89d6800 	ldm	sp, {fp, sp, lr}
raw_free():
/home/rossierd/soo.tech/soo/optee_os/lib/libutils/isoc/bget_malloc.c:373
    7a94:	eafffe2f 	b	7358 <brel>
    7a98:	000047b8 	.word	0x000047b8

00007a9c <free_wipe>:
free_wipe():
/home/rossierd/soo.tech/soo/optee_os/lib/libutils/isoc/bget_malloc.c:713
    7a9c:	e1a0c00d 	mov	ip, sp
raw_free():
/home/rossierd/soo.tech/soo/optee_os/lib/libutils/isoc/bget_malloc.c:372
    7aa0:	e3500000 	cmp	r0, #0
free_wipe():
/home/rossierd/soo.tech/soo/optee_os/lib/libutils/isoc/bget_malloc.c:713
    7aa4:	e92dd800 	push	{fp, ip, lr, pc}
    7aa8:	e24cb004 	sub	fp, ip, #4
raw_free():
/home/rossierd/soo.tech/soo/optee_os/lib/libutils/isoc/bget_malloc.c:372
    7aac:	089da800 	ldmeq	sp, {fp, sp, pc}
/home/rossierd/soo.tech/soo/optee_os/lib/libutils/isoc/bget_malloc.c:373
    7ab0:	e59f1010 	ldr	r1, [pc, #16]	; 7ac8 <free_wipe+0x2c>
    7ab4:	e3a02001 	mov	r2, #1
    7ab8:	e08f1001 	add	r1, pc, r1
free_wipe():
/home/rossierd/soo.tech/soo/optee_os/lib/libutils/isoc/bget_malloc.c:715
    7abc:	e24bd00c 	sub	sp, fp, #12
    7ac0:	e89d6800 	ldm	sp, {fp, sp, lr}
raw_free():
/home/rossierd/soo.tech/soo/optee_os/lib/libutils/isoc/bget_malloc.c:373
    7ac4:	eafffe23 	b	7358 <brel>
    7ac8:	00004788 	.word	0x00004788

00007acc <malloc_add_pool>:
malloc_add_pool():
/home/rossierd/soo.tech/soo/optee_os/lib/libutils/isoc/bget_malloc.c:823
    7acc:	e1a0c00d 	mov	ip, sp
    7ad0:	e92ddbf0 	push	{r4, r5, r6, r7, r8, r9, fp, ip, lr, pc}
gen_malloc_add_pool():
/home/rossierd/soo.tech/soo/optee_os/lib/libutils/isoc/bget_malloc.c:723
    7ad4:	e0804001 	add	r4, r0, r1
/home/rossierd/soo.tech/soo/optee_os/lib/libutils/isoc/bget_malloc.c:729
    7ad8:	e2800007 	add	r0, r0, #7
/home/rossierd/soo.tech/soo/optee_os/lib/libutils/isoc/bget_malloc.c:730
    7adc:	e3c44007 	bic	r4, r4, #7
/home/rossierd/soo.tech/soo/optee_os/lib/libutils/isoc/bget_malloc.c:729
    7ae0:	e3c06007 	bic	r6, r0, #7
malloc_add_pool():
/home/rossierd/soo.tech/soo/optee_os/lib/libutils/isoc/bget_malloc.c:823
    7ae4:	e24cb004 	sub	fp, ip, #4
gen_malloc_add_pool():
/home/rossierd/soo.tech/soo/optee_os/lib/libutils/isoc/bget_malloc.c:731
    7ae8:	e1560004 	cmp	r6, r4
    7aec:	3a000009 	bcc	7b18 <malloc_add_pool+0x4c>
    7af0:	e59f30dc 	ldr	r3, [pc, #220]	; 7bd4 <malloc_add_pool+0x108>
    7af4:	e30022db 	movw	r2, #731	; 0x2db
    7af8:	e59f10d8 	ldr	r1, [pc, #216]	; 7bd8 <malloc_add_pool+0x10c>
    7afc:	e59f00d8 	ldr	r0, [pc, #216]	; 7bdc <malloc_add_pool+0x110>
    7b00:	e08f3003 	add	r3, pc, r3
    7b04:	e2833023 	add	r3, r3, #35	; 0x23
    7b08:	e08f1001 	add	r1, pc, r1
    7b0c:	e08f0000 	add	r0, pc, r0
/home/rossierd/soo.tech/soo/optee_os/lib/libutils/isoc/bget_malloc.c:744
    7b10:	eb00057b 	bl	9104 <_assert_log>
    7b14:	eb00058a 	bl	9144 <_assert_break>
/home/rossierd/soo.tech/soo/optee_os/lib/libutils/isoc/bget_malloc.c:733
    7b18:	e0444006 	sub	r4, r4, r6
    7b1c:	e3540017 	cmp	r4, #23
    7b20:	989dabf0 	ldmls	sp, {r4, r5, r6, r7, r8, r9, fp, sp, pc}
/home/rossierd/soo.tech/soo/optee_os/lib/libutils/isoc/bget_malloc.c:741
    7b24:	e59f50b4 	ldr	r5, [pc, #180]	; 7be0 <malloc_add_pool+0x114>
    7b28:	e1a01004 	mov	r1, r4
    7b2c:	e1a00006 	mov	r0, r6
    7b30:	e08f5005 	add	r5, pc, r5
    7b34:	e1a02005 	mov	r2, r5
    7b38:	ebffff0c 	bl	7770 <bpool>
/home/rossierd/soo.tech/soo/optee_os/lib/libutils/isoc/bget_malloc.c:742
    7b3c:	e5957020 	ldr	r7, [r5, #32]
    7b40:	e2877001 	add	r7, r7, #1
raw_realloc():
/home/rossierd/soo.tech/soo/optee_os/lib/libutils/isoc/bget_malloc.c:410
    7b44:	e1b08187 	lsls	r8, r7, #3
/home/rossierd/soo.tech/soo/optee_os/lib/libutils/isoc/bget_malloc.c:406
    7b48:	43a05000 	movmi	r5, #0
/home/rossierd/soo.tech/soo/optee_os/lib/libutils/isoc/bget_malloc.c:410
    7b4c:	4a000006 	bmi	7b6c <malloc_add_pool+0xa0>
/home/rossierd/soo.tech/soo/optee_os/lib/libutils/isoc/bget_malloc.c:419
    7b50:	e3580000 	cmp	r8, #0
/home/rossierd/soo.tech/soo/optee_os/lib/libutils/isoc/bget_malloc.c:421
    7b54:	e1a02005 	mov	r2, r5
    7b58:	e595001c 	ldr	r0, [r5, #28]
    7b5c:	11a01008 	movne	r1, r8
    7b60:	03a01001 	moveq	r1, #1
    7b64:	ebfffecf 	bl	76a8 <bgetr>
    7b68:	e1a05000 	mov	r5, r0
/home/rossierd/soo.tech/soo/optee_os/lib/libutils/isoc/bget_malloc.c:423
    7b6c:	e1a01008 	mov	r1, r8
    7b70:	e1a00005 	mov	r0, r5
    7b74:	ebfffd3d 	bl	7070 <raw_malloc_return_hook.constprop.21>
gen_malloc_add_pool():
/home/rossierd/soo.tech/soo/optee_os/lib/libutils/isoc/bget_malloc.c:744
    7b78:	e3550000 	cmp	r5, #0
    7b7c:	1a000008 	bne	7ba4 <malloc_add_pool+0xd8>
    7b80:	e59f305c 	ldr	r3, [pc, #92]	; 7be4 <malloc_add_pool+0x118>
    7b84:	e3a02fba 	mov	r2, #744	; 0x2e8
    7b88:	e59f1058 	ldr	r1, [pc, #88]	; 7be8 <malloc_add_pool+0x11c>
    7b8c:	e59f0058 	ldr	r0, [pc, #88]	; 7bec <malloc_add_pool+0x120>
    7b90:	e08f3003 	add	r3, pc, r3
    7b94:	e2833023 	add	r3, r3, #35	; 0x23
    7b98:	e08f1001 	add	r1, pc, r1
    7b9c:	e08f0000 	add	r0, pc, r0
    7ba0:	eaffffda 	b	7b10 <malloc_add_pool+0x44>
/home/rossierd/soo.tech/soo/optee_os/lib/libutils/isoc/bget_malloc.c:745
    7ba4:	e59f3044 	ldr	r3, [pc, #68]	; 7bf0 <malloc_add_pool+0x124>
    7ba8:	e08f3003 	add	r3, pc, r3
/home/rossierd/soo.tech/soo/optee_os/lib/libutils/isoc/bget_malloc.c:746
    7bac:	e5932020 	ldr	r2, [r3, #32]
/home/rossierd/soo.tech/soo/optee_os/lib/libutils/isoc/bget_malloc.c:745
    7bb0:	e583501c 	str	r5, [r3, #28]
/home/rossierd/soo.tech/soo/optee_os/lib/libutils/isoc/bget_malloc.c:746
    7bb4:	e0851182 	add	r1, r5, r2, lsl #3
    7bb8:	e7856182 	str	r6, [r5, r2, lsl #3]
/home/rossierd/soo.tech/soo/optee_os/lib/libutils/isoc/bget_malloc.c:747
    7bbc:	e5814004 	str	r4, [r1, #4]
/home/rossierd/soo.tech/soo/optee_os/lib/libutils/isoc/bget_malloc.c:749
    7bc0:	e593104c 	ldr	r1, [r3, #76]	; 0x4c
/home/rossierd/soo.tech/soo/optee_os/lib/libutils/isoc/bget_malloc.c:751
    7bc4:	e5837020 	str	r7, [r3, #32]
/home/rossierd/soo.tech/soo/optee_os/lib/libutils/isoc/bget_malloc.c:749
    7bc8:	e0814004 	add	r4, r1, r4
    7bcc:	e583404c 	str	r4, [r3, #76]	; 0x4c
    7bd0:	e89dabf0 	ldm	sp, {r4, r5, r6, r7, r8, r9, fp, sp, pc}
    7bd4:	00002113 	.word	0x00002113
    7bd8:	000023d9 	.word	0x000023d9
    7bdc:	000023f5 	.word	0x000023f5
    7be0:	00004710 	.word	0x00004710
    7be4:	00002083 	.word	0x00002083
    7be8:	00002349 	.word	0x00002349
    7bec:	00002371 	.word	0x00002371
    7bf0:	00004698 	.word	0x00004698

00007bf4 <malloc_buffer_is_within_alloced>:
malloc_buffer_is_within_alloced():
/home/rossierd/soo.tech/soo/optee_os/lib/libutils/isoc/bget_malloc.c:828
    7bf4:	e1a0c00d 	mov	ip, sp
gen_malloc_buffer_is_within_alloced():
/home/rossierd/soo.tech/soo/optee_os/lib/libutils/isoc/bget_malloc.c:768
    7bf8:	e0901001 	adds	r1, r0, r1
malloc_buffer_is_within_alloced():
/home/rossierd/soo.tech/soo/optee_os/lib/libutils/isoc/bget_malloc.c:828
    7bfc:	e92ddbf0 	push	{r4, r5, r6, r7, r8, r9, fp, ip, lr, pc}
    7c00:	e24cb004 	sub	fp, ip, #4
gen_malloc_buffer_is_within_alloced():
/home/rossierd/soo.tech/soo/optee_os/lib/libutils/isoc/bget_malloc.c:768
    7c04:	2a00004a 	bcs	7d34 <malloc_buffer_is_within_alloced+0x140>
    7c08:	e59f312c 	ldr	r3, [pc, #300]	; 7d3c <malloc_buffer_is_within_alloced+0x148>
bpool_foreach_iterator_init():
/home/rossierd/soo.tech/soo/optee_os/lib/libutils/isoc/bget_malloc.c:276
    7c0c:	e3a0e000 	mov	lr, #0
    7c10:	e3e06007 	mvn	r6, #7
    7c14:	e08f3003 	add	r3, pc, r3
    7c18:	e593401c 	ldr	r4, [r3, #28]
bpool_foreach():
/home/rossierd/soo.tech/soo/optee_os/lib/libutils/isoc/bget_malloc.c:323
    7c1c:	e5937020 	ldr	r7, [r3, #32]
bpool_foreach_iterator_init():
/home/rossierd/soo.tech/soo/optee_os/lib/libutils/isoc/bget_malloc.c:277
    7c20:	e5942000 	ldr	r2, [r4]
bpool_foreach_pool():
/home/rossierd/soo.tech/soo/optee_os/lib/libutils/isoc/bget_malloc.c:284
    7c24:	e5923004 	ldr	r3, [r2, #4]
bpool_foreach():
/home/rossierd/soo.tech/soo/optee_os/lib/libutils/isoc/bget_malloc.c:327
    7c28:	e1a0c002 	mov	ip, r2
bpool_foreach_pool():
/home/rossierd/soo.tech/soo/optee_os/lib/libutils/isoc/bget_malloc.c:286
    7c2c:	e3530102 	cmp	r3, #-2147483648	; 0x80000000
    7c30:	0a00003c 	beq	7d28 <malloc_buffer_is_within_alloced+0x134>
/home/rossierd/soo.tech/soo/optee_os/lib/libutils/isoc/bget_malloc.c:289
    7c34:	e3530000 	cmp	r3, #0
/home/rossierd/soo.tech/soo/optee_os/lib/libutils/isoc/bget_malloc.c:291
    7c38:	b2638000 	rsblt	r8, r3, #0
/home/rossierd/soo.tech/soo/optee_os/lib/libutils/isoc/bget_malloc.c:293
    7c3c:	b3a05000 	movlt	r5, #0
/home/rossierd/soo.tech/soo/optee_os/lib/libutils/isoc/bget_malloc.c:289
    7c40:	ba000026 	blt	7ce0 <malloc_buffer_is_within_alloced+0xec>
/home/rossierd/soo.tech/soo/optee_os/lib/libutils/isoc/bget_malloc.c:299
    7c44:	e592500c 	ldr	r5, [r2, #12]
    7c48:	e5955008 	ldr	r5, [r5, #8]
    7c4c:	e1520005 	cmp	r2, r5
    7c50:	0a000013 	beq	7ca4 <malloc_buffer_is_within_alloced+0xb0>
    7c54:	e59f30e4 	ldr	r3, [pc, #228]	; 7d40 <malloc_buffer_is_within_alloced+0x14c>
    7c58:	e300212b 	movw	r2, #299	; 0x12b
    7c5c:	e59f10e0 	ldr	r1, [pc, #224]	; 7d44 <malloc_buffer_is_within_alloced+0x150>
    7c60:	e59f00e0 	ldr	r0, [pc, #224]	; 7d48 <malloc_buffer_is_within_alloced+0x154>
    7c64:	e08f3003 	add	r3, pc, r3
    7c68:	e2833045 	add	r3, r3, #69	; 0x45
    7c6c:	e08f1001 	add	r1, pc, r1
    7c70:	e08f0000 	add	r0, pc, r0
    7c74:	ea000027 	b	7d18 <malloc_buffer_is_within_alloced+0x124>
/home/rossierd/soo.tech/soo/optee_os/lib/libutils/isoc/bget_malloc.c:303
    7c78:	e28cc008 	add	ip, ip, #8
gen_malloc_buffer_is_within_alloced():
/home/rossierd/soo.tech/soo/optee_os/lib/libutils/isoc/bget_malloc.c:777
    7c7c:	e08c3003 	add	r3, ip, r3
/home/rossierd/soo.tech/soo/optee_os/lib/libutils/isoc/bget_malloc.c:779
    7c80:	e1510003 	cmp	r1, r3
    7c84:	83a03000 	movhi	r3, #0
    7c88:	93a03001 	movls	r3, #1
    7c8c:	e150000c 	cmp	r0, ip
    7c90:	33a03000 	movcc	r3, #0
    7c94:	e3530000 	cmp	r3, #0
    7c98:	0affffe1 	beq	7c24 <malloc_buffer_is_within_alloced+0x30>
malloc_buffer_is_within_alloced():
/home/rossierd/soo.tech/soo/optee_os/lib/libutils/isoc/bget_malloc.c:830
    7c9c:	e1a00003 	mov	r0, r3
    7ca0:	e89dabf0 	ldm	sp, {r4, r5, r6, r7, r8, r9, fp, sp, pc}
bpool_foreach_pool():
/home/rossierd/soo.tech/soo/optee_os/lib/libutils/isoc/bget_malloc.c:300
    7ca4:	e5925008 	ldr	r5, [r2, #8]
    7ca8:	e595500c 	ldr	r5, [r5, #12]
    7cac:	e1520005 	cmp	r2, r5
    7cb0:	0a000008 	beq	7cd8 <malloc_buffer_is_within_alloced+0xe4>
    7cb4:	e59f3090 	ldr	r3, [pc, #144]	; 7d4c <malloc_buffer_is_within_alloced+0x158>
    7cb8:	e3a02f4b 	mov	r2, #300	; 0x12c
    7cbc:	e59f108c 	ldr	r1, [pc, #140]	; 7d50 <malloc_buffer_is_within_alloced+0x15c>
    7cc0:	e59f008c 	ldr	r0, [pc, #140]	; 7d54 <malloc_buffer_is_within_alloced+0x160>
    7cc4:	e08f3003 	add	r3, pc, r3
    7cc8:	e2833045 	add	r3, r3, #69	; 0x45
    7ccc:	e08f1001 	add	r1, pc, r1
    7cd0:	e08f0000 	add	r0, pc, r0
    7cd4:	ea00000f 	b	7d18 <malloc_buffer_is_within_alloced+0x124>
    7cd8:	e1a08003 	mov	r8, r3
/home/rossierd/soo.tech/soo/optee_os/lib/libutils/isoc/bget_malloc.c:296
    7cdc:	e3a05001 	mov	r5, #1
bpool_foreach():
/home/rossierd/soo.tech/soo/optee_os/lib/libutils/isoc/bget_malloc.c:318
    7ce0:	e3550000 	cmp	r5, #0
bpool_foreach_pool():
/home/rossierd/soo.tech/soo/optee_os/lib/libutils/isoc/bget_malloc.c:306
    7ce4:	e0822008 	add	r2, r2, r8
bpool_foreach():
/home/rossierd/soo.tech/soo/optee_os/lib/libutils/isoc/bget_malloc.c:318
    7ce8:	1affffcd 	bne	7c24 <malloc_buffer_is_within_alloced+0x30>
    7cec:	e0463003 	sub	r3, r6, r3
bget_buf_size():
/home/rossierd/soo.tech/soo/optee_os/lib/libutils/isoc/bget_malloc.c:446
    7cf0:	e3530000 	cmp	r3, #0
    7cf4:	caffffdf 	bgt	7c78 <malloc_buffer_is_within_alloced+0x84>
    7cf8:	e59f3058 	ldr	r3, [pc, #88]	; 7d58 <malloc_buffer_is_within_alloced+0x164>
    7cfc:	e30021be 	movw	r2, #446	; 0x1be
    7d00:	e59f1054 	ldr	r1, [pc, #84]	; 7d5c <malloc_buffer_is_within_alloced+0x168>
    7d04:	e59f0054 	ldr	r0, [pc, #84]	; 7d60 <malloc_buffer_is_within_alloced+0x16c>
    7d08:	e08f3003 	add	r3, pc, r3
    7d0c:	e2833037 	add	r3, r3, #55	; 0x37
    7d10:	e08f1001 	add	r1, pc, r1
    7d14:	e08f0000 	add	r0, pc, r0
bpool_foreach_pool():
/home/rossierd/soo.tech/soo/optee_os/lib/libutils/isoc/bget_malloc.c:299
    7d18:	eb0004f9 	bl	9104 <_assert_log>
    7d1c:	eb000508 	bl	9144 <_assert_break>
bpool_foreach():
/home/rossierd/soo.tech/soo/optee_os/lib/libutils/isoc/bget_malloc.c:327
    7d20:	e794218e 	ldr	r2, [r4, lr, lsl #3]
    7d24:	eaffffbe 	b	7c24 <malloc_buffer_is_within_alloced+0x30>
/home/rossierd/soo.tech/soo/optee_os/lib/libutils/isoc/bget_malloc.c:323
    7d28:	e28ee001 	add	lr, lr, #1
    7d2c:	e15e0007 	cmp	lr, r7
    7d30:	3afffffa 	bcc	7d20 <malloc_buffer_is_within_alloced+0x12c>
gen_malloc_buffer_is_within_alloced():
/home/rossierd/soo.tech/soo/optee_os/lib/libutils/isoc/bget_malloc.c:762
    7d34:	e3a03000 	mov	r3, #0
malloc_buffer_is_within_alloced():
/home/rossierd/soo.tech/soo/optee_os/lib/libutils/isoc/bget_malloc.c:829
    7d38:	eaffffd7 	b	7c9c <malloc_buffer_is_within_alloced+0xa8>
    7d3c:	0000462c 	.word	0x0000462c
    7d40:	00001faf 	.word	0x00001faf
    7d44:	00002275 	.word	0x00002275
    7d48:	0000204c 	.word	0x0000204c
    7d4c:	00001f4f 	.word	0x00001f4f
    7d50:	00002215 	.word	0x00002215
    7d54:	00002007 	.word	0x00002007
    7d58:	00001f0b 	.word	0x00001f0b
    7d5c:	000021d1 	.word	0x000021d1
    7d60:	0000217e 	.word	0x0000217e

00007d64 <malloc_buffer_overlaps_heap>:
gen_malloc_buffer_overlaps_heap():
/home/rossierd/soo.tech/soo/optee_os/lib/libutils/isoc/bget_malloc.c:802
    7d64:	e59f307c 	ldr	r3, [pc, #124]	; 7de8 <malloc_buffer_overlaps_heap+0x84>
malloc_buffer_overlaps_heap():
/home/rossierd/soo.tech/soo/optee_os/lib/libutils/isoc/bget_malloc.c:833
    7d68:	e1a0c00d 	mov	ip, sp
    7d6c:	e0911000 	adds	r1, r1, r0
    7d70:	e92dd870 	push	{r4, r5, r6, fp, ip, lr, pc}
    7d74:	e24cb004 	sub	fp, ip, #4
    7d78:	23a05001 	movcs	r5, #1
    7d7c:	33a05000 	movcc	r5, #0
gen_malloc_buffer_overlaps_heap():
/home/rossierd/soo.tech/soo/optee_os/lib/libutils/isoc/bget_malloc.c:802
    7d80:	e08f3003 	add	r3, pc, r3
    7d84:	e3a0c000 	mov	ip, #0
/home/rossierd/soo.tech/soo/optee_os/lib/libutils/isoc/bget_malloc.c:803
    7d88:	e593401c 	ldr	r4, [r3, #28]
/home/rossierd/soo.tech/soo/optee_os/lib/libutils/isoc/bget_malloc.c:802
    7d8c:	e5936020 	ldr	r6, [r3, #32]
    7d90:	e15c0006 	cmp	ip, r6
    7d94:	1a000002 	bne	7da4 <malloc_buffer_overlaps_heap+0x40>
/home/rossierd/soo.tech/soo/optee_os/lib/libutils/isoc/bget_malloc.c:797
    7d98:	e3a03000 	mov	r3, #0
malloc_buffer_overlaps_heap():
/home/rossierd/soo.tech/soo/optee_os/lib/libutils/isoc/bget_malloc.c:835
    7d9c:	e1a00003 	mov	r0, r3
    7da0:	e89da870 	ldm	sp, {r4, r5, r6, fp, sp, pc}
gen_malloc_buffer_overlaps_heap():
/home/rossierd/soo.tech/soo/optee_os/lib/libutils/isoc/bget_malloc.c:804
    7da4:	e084218c 	add	r2, r4, ip, lsl #3
/home/rossierd/soo.tech/soo/optee_os/lib/libutils/isoc/bget_malloc.c:803
    7da8:	e794e18c 	ldr	lr, [r4, ip, lsl #3]
    7dac:	e3a03000 	mov	r3, #0
    7db0:	e5922004 	ldr	r2, [r2, #4]
    7db4:	e09e2002 	adds	r2, lr, r2
    7db8:	23a03001 	movcs	r3, #1
/home/rossierd/soo.tech/soo/optee_os/lib/libutils/isoc/bget_malloc.c:806
    7dbc:	e1953003 	orrs	r3, r5, r3
    7dc0:	1afffff5 	bne	7d9c <malloc_buffer_overlaps_heap+0x38>
/home/rossierd/soo.tech/soo/optee_os/lib/libutils/isoc/bget_malloc.c:811
    7dc4:	e1500002 	cmp	r0, r2
    7dc8:	23a03000 	movcs	r3, #0
    7dcc:	33a03001 	movcc	r3, #1
    7dd0:	e151000e 	cmp	r1, lr
    7dd4:	83833001 	orrhi	r3, r3, #1
    7dd8:	e3530000 	cmp	r3, #0
    7ddc:	1affffee 	bne	7d9c <malloc_buffer_overlaps_heap+0x38>
/home/rossierd/soo.tech/soo/optee_os/lib/libutils/isoc/bget_malloc.c:802
    7de0:	e28cc001 	add	ip, ip, #1
    7de4:	eaffffe9 	b	7d90 <malloc_buffer_overlaps_heap+0x2c>
    7de8:	000044c0 	.word	0x000044c0

00007dec <snprintf>:
snprintf():
/home/rossierd/soo.tech/soo/optee_os/lib/libutils/isoc/snprintf.c:10
    7dec:	e1a0c00d 	mov	ip, sp
    7df0:	e92d000c 	push	{r2, r3}
/home/rossierd/soo.tech/soo/optee_os/lib/libutils/isoc/snprintf.c:15
    7df4:	e3a02000 	mov	r2, #0
/home/rossierd/soo.tech/soo/optee_os/lib/libutils/isoc/snprintf.c:10
    7df8:	e92dd800 	push	{fp, ip, lr, pc}
    7dfc:	e24cb00c 	sub	fp, ip, #12
    7e00:	e24dd010 	sub	sp, sp, #16
/home/rossierd/soo.tech/soo/optee_os/lib/libutils/isoc/snprintf.c:14
    7e04:	e28b3008 	add	r3, fp, #8
/home/rossierd/soo.tech/soo/optee_os/lib/libutils/isoc/snprintf.c:15
    7e08:	e58d2000 	str	r2, [sp]
    7e0c:	e59b2004 	ldr	r2, [fp, #4]
/home/rossierd/soo.tech/soo/optee_os/lib/libutils/isoc/snprintf.c:14
    7e10:	e50b3010 	str	r3, [fp, #-16]
/home/rossierd/soo.tech/soo/optee_os/lib/libutils/isoc/snprintf.c:15
    7e14:	eb0000c0 	bl	811c <__vsnprintf>
/home/rossierd/soo.tech/soo/optee_os/lib/libutils/isoc/snprintf.c:19
    7e18:	e24bd00c 	sub	sp, fp, #12
    7e1c:	e89da800 	ldm	sp, {fp, sp, pc}

00007e20 <vsnprintf>:
vsnprintf():
/home/rossierd/soo.tech/soo/optee_os/lib/libutils/isoc/snprintf.c:22
    7e20:	e1a0c00d 	mov	ip, sp
    7e24:	e92dd800 	push	{fp, ip, lr, pc}
    7e28:	e24cb004 	sub	fp, ip, #4
    7e2c:	e24dd008 	sub	sp, sp, #8
/home/rossierd/soo.tech/soo/optee_os/lib/libutils/isoc/snprintf.c:23
    7e30:	e3a0c000 	mov	ip, #0
    7e34:	e58dc000 	str	ip, [sp]
    7e38:	eb0000b7 	bl	811c <__vsnprintf>
/home/rossierd/soo.tech/soo/optee_os/lib/libutils/isoc/snprintf.c:24
    7e3c:	e24bd00c 	sub	sp, fp, #12
    7e40:	e89da800 	ldm	sp, {fp, sp, pc}

00007e44 <memcpy>:
memcpy():
/home/rossierd/soo.tech/soo/optee_os/lib/libutils/isoc/newlib/memcpy.c:87
    7e44:	e1a0c00d 	mov	ip, sp
    7e48:	e2403001 	sub	r3, r0, #1
    7e4c:	e0812002 	add	r2, r1, r2
    7e50:	e92dd800 	push	{fp, ip, lr, pc}
    7e54:	e24cb004 	sub	fp, ip, #4
/home/rossierd/soo.tech/soo/optee_os/lib/libutils/isoc/newlib/memcpy.c:94
    7e58:	e1510002 	cmp	r1, r2
    7e5c:	1a000000 	bne	7e64 <memcpy+0x20>
/home/rossierd/soo.tech/soo/optee_os/lib/libutils/isoc/newlib/memcpy.c:135
    7e60:	e89da800 	ldm	sp, {fp, sp, pc}
/home/rossierd/soo.tech/soo/optee_os/lib/libutils/isoc/newlib/memcpy.c:95
    7e64:	e4d1c001 	ldrb	ip, [r1], #1
    7e68:	e5e3c001 	strb	ip, [r3, #1]!
    7e6c:	eafffff9 	b	7e58 <memcpy+0x14>

00007e70 <memmove>:
memmove():
/home/rossierd/soo.tech/soo/optee_os/lib/libutils/isoc/newlib/memmove.c:91
    7e70:	e1a0c00d 	mov	ip, sp
/home/rossierd/soo.tech/soo/optee_os/lib/libutils/isoc/newlib/memmove.c:96
    7e74:	e1500001 	cmp	r0, r1
    7e78:	e0813002 	add	r3, r1, r2
/home/rossierd/soo.tech/soo/optee_os/lib/libutils/isoc/newlib/memmove.c:91
    7e7c:	e92dd800 	push	{fp, ip, lr, pc}
    7e80:	e24cb004 	sub	fp, ip, #4
/home/rossierd/soo.tech/soo/optee_os/lib/libutils/isoc/newlib/memmove.c:96
    7e84:	8a000003 	bhi	7e98 <memmove+0x28>
    7e88:	e2402001 	sub	r2, r0, #1
/home/rossierd/soo.tech/soo/optee_os/lib/libutils/isoc/newlib/memmove.c:103
    7e8c:	e1510003 	cmp	r1, r3
    7e90:	1a00000a 	bne	7ec0 <memmove+0x50>
/home/rossierd/soo.tech/soo/optee_os/lib/libutils/isoc/newlib/memmove.c:157
    7e94:	e89da800 	ldm	sp, {fp, sp, pc}
/home/rossierd/soo.tech/soo/optee_os/lib/libutils/isoc/newlib/memmove.c:96 (discriminator 1)
    7e98:	e1500003 	cmp	r0, r3
/home/rossierd/soo.tech/soo/optee_os/lib/libutils/isoc/newlib/memmove.c:99 (discriminator 1)
    7e9c:	30801002 	addcc	r1, r0, r2
    7ea0:	30422003 	subcc	r2, r2, r3
/home/rossierd/soo.tech/soo/optee_os/lib/libutils/isoc/newlib/memmove.c:96 (discriminator 1)
    7ea4:	2afffff7 	bcs	7e88 <memmove+0x18>
/home/rossierd/soo.tech/soo/optee_os/lib/libutils/isoc/newlib/memmove.c:100
    7ea8:	e1730002 	cmn	r3, r2
    7eac:	1a000000 	bne	7eb4 <memmove+0x44>
    7eb0:	e89da800 	ldm	sp, {fp, sp, pc}
/home/rossierd/soo.tech/soo/optee_os/lib/libutils/isoc/newlib/memmove.c:101
    7eb4:	e573c001 	ldrb	ip, [r3, #-1]!
    7eb8:	e561c001 	strb	ip, [r1, #-1]!
    7ebc:	eafffff9 	b	7ea8 <memmove+0x38>
/home/rossierd/soo.tech/soo/optee_os/lib/libutils/isoc/newlib/memmove.c:104
    7ec0:	e4d1c001 	ldrb	ip, [r1], #1
    7ec4:	e5e2c001 	strb	ip, [r2, #1]!
    7ec8:	eaffffef 	b	7e8c <memmove+0x1c>

00007ecc <memset>:
memset():
/home/rossierd/soo.tech/soo/optee_os/lib/libutils/isoc/newlib/memset.c:76
    7ecc:	e1a0c00d 	mov	ip, sp
    7ed0:	e0802002 	add	r2, r0, r2
/home/rossierd/soo.tech/soo/optee_os/lib/libutils/isoc/newlib/memset.c:77
    7ed4:	e1a03000 	mov	r3, r0
/home/rossierd/soo.tech/soo/optee_os/lib/libutils/isoc/newlib/memset.c:76
    7ed8:	e92dd800 	push	{fp, ip, lr, pc}
    7edc:	e24cb004 	sub	fp, ip, #4
/home/rossierd/soo.tech/soo/optee_os/lib/libutils/isoc/newlib/memset.c:125
    7ee0:	e1530002 	cmp	r3, r2
    7ee4:	1a000000 	bne	7eec <memset+0x20>
/home/rossierd/soo.tech/soo/optee_os/lib/libutils/isoc/newlib/memset.c:129
    7ee8:	e89da800 	ldm	sp, {fp, sp, pc}
/home/rossierd/soo.tech/soo/optee_os/lib/libutils/isoc/newlib/memset.c:126
    7eec:	e4c31001 	strb	r1, [r3], #1
    7ef0:	eafffffa 	b	7ee0 <memset+0x14>

00007ef4 <strlen>:
strlen():
/home/rossierd/soo.tech/soo/optee_os/lib/libutils/isoc/newlib/strlen.c:92
    7ef4:	e1a0c00d 	mov	ip, sp
    7ef8:	e1a03000 	mov	r3, r0
    7efc:	e92dd800 	push	{fp, ip, lr, pc}
    7f00:	e24cb004 	sub	fp, ip, #4
/home/rossierd/soo.tech/soo/optee_os/lib/libutils/isoc/newlib/strlen.c:117
    7f04:	e5d32000 	ldrb	r2, [r3]
    7f08:	e2831001 	add	r1, r3, #1
    7f0c:	e3520000 	cmp	r2, #0
    7f10:	1a000001 	bne	7f1c <strlen+0x28>
/home/rossierd/soo.tech/soo/optee_os/lib/libutils/isoc/newlib/strlen.c:120
    7f14:	e0430000 	sub	r0, r3, r0
    7f18:	e89da800 	ldm	sp, {fp, sp, pc}
    7f1c:	e1a03001 	mov	r3, r1
    7f20:	eafffff7 	b	7f04 <strlen+0x10>

00007f24 <__aeabi_ldivmod>:
__aeabi_ldivmod():
/home/rossierd/soo.tech/soo/optee_os/lib/libutils/isoc/arch/arm/arm32_aeabi_ldivmod_a32.S:24
    7f24:	e92d5000 	push	{ip, lr}
/home/rossierd/soo.tech/soo/optee_os/lib/libutils/isoc/arch/arm/arm32_aeabi_ldivmod_a32.S:26
    7f28:	e92d000f 	push	{r0, r1, r2, r3}
/home/rossierd/soo.tech/soo/optee_os/lib/libutils/isoc/arch/arm/arm32_aeabi_ldivmod_a32.S:28
    7f2c:	e1a0000d 	mov	r0, sp
/home/rossierd/soo.tech/soo/optee_os/lib/libutils/isoc/arch/arm/arm32_aeabi_ldivmod_a32.S:29
    7f30:	eb000031 	bl	7ffc <__l_divmod>
/home/rossierd/soo.tech/soo/optee_os/lib/libutils/isoc/arch/arm/arm32_aeabi_ldivmod_a32.S:30
    7f34:	e8bd000f 	pop	{r0, r1, r2, r3}
/home/rossierd/soo.tech/soo/optee_os/lib/libutils/isoc/arch/arm/arm32_aeabi_ldivmod_a32.S:31
    7f38:	e8bd9000 	pop	{ip, pc}

00007f3c <__aeabi_uldivmod>:
__aeabi_uldivmod():
/home/rossierd/soo.tech/soo/optee_os/lib/libutils/isoc/arch/arm/arm32_aeabi_ldivmod_a32.S:42
    7f3c:	e92d5000 	push	{ip, lr}
/home/rossierd/soo.tech/soo/optee_os/lib/libutils/isoc/arch/arm/arm32_aeabi_ldivmod_a32.S:44
    7f40:	e92d000f 	push	{r0, r1, r2, r3}
/home/rossierd/soo.tech/soo/optee_os/lib/libutils/isoc/arch/arm/arm32_aeabi_ldivmod_a32.S:46
    7f44:	e1a0000d 	mov	r0, sp
/home/rossierd/soo.tech/soo/optee_os/lib/libutils/isoc/arch/arm/arm32_aeabi_ldivmod_a32.S:47
    7f48:	eb000001 	bl	7f54 <__ul_divmod>
/home/rossierd/soo.tech/soo/optee_os/lib/libutils/isoc/arch/arm/arm32_aeabi_ldivmod_a32.S:48
    7f4c:	e8bd000f 	pop	{r0, r1, r2, r3}
/home/rossierd/soo.tech/soo/optee_os/lib/libutils/isoc/arch/arm/arm32_aeabi_ldivmod_a32.S:49
    7f50:	e8bd9000 	pop	{ip, pc}

00007f54 <__ul_divmod>:
__ul_divmod():
/home/rossierd/soo.tech/soo/optee_os/lib/libutils/isoc/arch/arm/arm32_aeabi_ldivmod.c:68
    7f54:	e1c020d8 	ldrd	r2, [r0, #8]
/home/rossierd/soo.tech/soo/optee_os/lib/libutils/isoc/arch/arm/arm32_aeabi_ldivmod.c:66
    7f58:	e1a0c00d 	mov	ip, sp
    7f5c:	e92ddbf0 	push	{r4, r5, r6, r7, r8, r9, fp, ip, lr, pc}
    7f60:	e24cb004 	sub	fp, ip, #4
/home/rossierd/soo.tech/soo/optee_os/lib/libutils/isoc/arch/arm/arm32_aeabi_ldivmod.c:67
    7f64:	e1c080d0 	ldrd	r8, [r0]
division_lqr():
/home/rossierd/soo.tech/soo/optee_os/lib/libutils/isoc/arch/arm/arm32_aeabi_ldivmod.c:22
    7f68:	e1921003 	orrs	r1, r2, r3
/home/rossierd/soo.tech/soo/optee_os/lib/libutils/isoc/arch/arm/arm32_aeabi_ldivmod.c:23
    7f6c:	03e08000 	mvneq	r8, #0
    7f70:	03e09000 	mvneq	r9, #0
/home/rossierd/soo.tech/soo/optee_os/lib/libutils/isoc/arch/arm/arm32_aeabi_ldivmod.c:22
    7f74:	0a00000a 	beq	7fa4 <__ul_divmod+0x50>
    7f78:	e3a06001 	mov	r6, #1
    7f7c:	e3a07000 	mov	r7, #0
    7f80:	e1a04002 	mov	r4, r2
    7f84:	e1a05003 	mov	r5, r3
/home/rossierd/soo.tech/soo/optee_os/lib/libutils/isoc/arch/arm/arm32_aeabi_ldivmod.c:27
    7f88:	e3540000 	cmp	r4, #0
    7f8c:	e2d53000 	sbcs	r3, r5, #0
    7f90:	aa000006 	bge	7fb0 <__ul_divmod+0x5c>
    7f94:	e3a02000 	mov	r2, #0
    7f98:	e3a03000 	mov	r3, #0
/home/rossierd/soo.tech/soo/optee_os/lib/libutils/isoc/arch/arm/arm32_aeabi_ldivmod.c:32
    7f9c:	e1961007 	orrs	r1, r6, r7
    7fa0:	1a000007 	bne	7fc4 <__ul_divmod+0x70>
__ul_divmod():
/home/rossierd/soo.tech/soo/optee_os/lib/libutils/isoc/arch/arm/arm32_aeabi_ldivmod.c:73
    7fa4:	e1c020f0 	strd	r2, [r0]
/home/rossierd/soo.tech/soo/optee_os/lib/libutils/isoc/arch/arm/arm32_aeabi_ldivmod.c:74
    7fa8:	e1c080f8 	strd	r8, [r0, #8]
    7fac:	e89dabf0 	ldm	sp, {r4, r5, r6, r7, r8, r9, fp, sp, pc}
division_lqr():
/home/rossierd/soo.tech/soo/optee_os/lib/libutils/isoc/arch/arm/arm32_aeabi_ldivmod.c:28
    7fb0:	e0966006 	adds	r6, r6, r6
    7fb4:	e0a77007 	adc	r7, r7, r7
/home/rossierd/soo.tech/soo/optee_os/lib/libutils/isoc/arch/arm/arm32_aeabi_ldivmod.c:29
    7fb8:	e0944004 	adds	r4, r4, r4
    7fbc:	e0a55005 	adc	r5, r5, r5
    7fc0:	eafffff0 	b	7f88 <__ul_divmod+0x34>
/home/rossierd/soo.tech/soo/optee_os/lib/libutils/isoc/arch/arm/arm32_aeabi_ldivmod.c:33
    7fc4:	e0922002 	adds	r2, r2, r2
    7fc8:	e0a33003 	adc	r3, r3, r3
/home/rossierd/soo.tech/soo/optee_os/lib/libutils/isoc/arch/arm/arm32_aeabi_ldivmod.c:34
    7fcc:	e1590005 	cmp	r9, r5
    7fd0:	01580004 	cmpeq	r8, r4
    7fd4:	3a000003 	bcc	7fe8 <__ul_divmod+0x94>
/home/rossierd/soo.tech/soo/optee_os/lib/libutils/isoc/arch/arm/arm32_aeabi_ldivmod.c:35
    7fd8:	e0588004 	subs	r8, r8, r4
    7fdc:	e0c99005 	sbc	r9, r9, r5
/home/rossierd/soo.tech/soo/optee_os/lib/libutils/isoc/arch/arm/arm32_aeabi_ldivmod.c:36
    7fe0:	e2922001 	adds	r2, r2, #1
    7fe4:	e2a33000 	adc	r3, r3, #0
/home/rossierd/soo.tech/soo/optee_os/lib/libutils/isoc/arch/arm/arm32_aeabi_ldivmod.c:38
    7fe8:	e1b050a5 	lsrs	r5, r5, #1
    7fec:	e1a04064 	rrx	r4, r4
/home/rossierd/soo.tech/soo/optee_os/lib/libutils/isoc/arch/arm/arm32_aeabi_ldivmod.c:39
    7ff0:	e1b070a7 	lsrs	r7, r7, #1
    7ff4:	e1a06066 	rrx	r6, r6
    7ff8:	eaffffe7 	b	7f9c <__ul_divmod+0x48>

00007ffc <__l_divmod>:
__l_divmod():
/home/rossierd/soo.tech/soo/optee_os/lib/libutils/isoc/arch/arm/arm32_aeabi_ldivmod.c:87
    7ffc:	e1c020d8 	ldrd	r2, [r0, #8]
/home/rossierd/soo.tech/soo/optee_os/lib/libutils/isoc/arch/arm/arm32_aeabi_ldivmod.c:85
    8000:	e1a0c00d 	mov	ip, sp
    8004:	e92ddbf0 	push	{r4, r5, r6, r7, r8, r9, fp, ip, lr, pc}
    8008:	e24cb004 	sub	fp, ip, #4
/home/rossierd/soo.tech/soo/optee_os/lib/libutils/isoc/arch/arm/arm32_aeabi_ldivmod.c:86
    800c:	e1c040d0 	ldrd	r4, [r0]
/home/rossierd/soo.tech/soo/optee_os/lib/libutils/isoc/arch/arm/arm32_aeabi_ldivmod.c:90
    8010:	e3520001 	cmp	r2, #1
    8014:	e2d31000 	sbcs	r1, r3, #0
    8018:	a3a0c001 	movge	ip, #1
    801c:	b3a0c000 	movlt	ip, #0
    8020:	e01ccfa5 	ands	ip, ip, r5, lsr #31
    8024:	1a000027 	bne	80c8 <__l_divmod+0xcc>
/home/rossierd/soo.tech/soo/optee_os/lib/libutils/isoc/arch/arm/arm32_aeabi_ldivmod.c:91 (discriminator 1)
    8028:	e3540001 	cmp	r4, #1
    802c:	e2d51000 	sbcs	r1, r5, #0
    8030:	e1a01fa3 	lsr	r1, r3, #31
/home/rossierd/soo.tech/soo/optee_os/lib/libutils/isoc/arch/arm/arm32_aeabi_ldivmod.c:88 (discriminator 1)
    8034:	b3a01000 	movlt	r1, #0
    8038:	a2011001 	andge	r1, r1, #1
/home/rossierd/soo.tech/soo/optee_os/lib/libutils/isoc/arch/arm/arm32_aeabi_ldivmod.c:93 (discriminator 1)
    803c:	e3540000 	cmp	r4, #0
    8040:	e2d5e000 	sbcs	lr, r5, #0
    8044:	aa000002 	bge	8054 <__l_divmod+0x58>
/home/rossierd/soo.tech/soo/optee_os/lib/libutils/isoc/arch/arm/arm32_aeabi_ldivmod.c:94
    8048:	e2744000 	rsbs	r4, r4, #0
/home/rossierd/soo.tech/soo/optee_os/lib/libutils/isoc/arch/arm/arm32_aeabi_ldivmod.c:95
    804c:	e3a0c001 	mov	ip, #1
/home/rossierd/soo.tech/soo/optee_os/lib/libutils/isoc/arch/arm/arm32_aeabi_ldivmod.c:94
    8050:	e2e55000 	rsc	r5, r5, #0
division_lqr():
/home/rossierd/soo.tech/soo/optee_os/lib/libutils/isoc/arch/arm/arm32_aeabi_ldivmod.c:22
    8054:	e192e003 	orrs	lr, r2, r3
/home/rossierd/soo.tech/soo/optee_os/lib/libutils/isoc/arch/arm/arm32_aeabi_ldivmod.c:23
    8058:	03e04000 	mvneq	r4, #0
    805c:	03e05000 	mvneq	r5, #0
/home/rossierd/soo.tech/soo/optee_os/lib/libutils/isoc/arch/arm/arm32_aeabi_ldivmod.c:22
    8060:	0a00000d 	beq	809c <__l_divmod+0xa0>
__l_divmod():
/home/rossierd/soo.tech/soo/optee_os/lib/libutils/isoc/arch/arm/arm32_aeabi_ldivmod.c:100
    8064:	e1a08fc3 	asr	r8, r3, #31
    8068:	e3a09000 	mov	r9, #0
    806c:	e0286002 	eor	r6, r8, r2
    8070:	e0287003 	eor	r7, r8, r3
    8074:	e0566008 	subs	r6, r6, r8
    8078:	e0c77008 	sbc	r7, r7, r8
    807c:	e3a08001 	mov	r8, #1
division_lqr():
/home/rossierd/soo.tech/soo/optee_os/lib/libutils/isoc/arch/arm/arm32_aeabi_ldivmod.c:27
    8080:	e3560000 	cmp	r6, #0
    8084:	e2d73000 	sbcs	r3, r7, #0
    8088:	aa000010 	bge	80d0 <__l_divmod+0xd4>
__l_divmod():
/home/rossierd/soo.tech/soo/optee_os/lib/libutils/isoc/arch/arm/arm32_aeabi_ldivmod.c:100
    808c:	e3a02000 	mov	r2, #0
    8090:	e3a03000 	mov	r3, #0
division_lqr():
/home/rossierd/soo.tech/soo/optee_os/lib/libutils/isoc/arch/arm/arm32_aeabi_ldivmod.c:32
    8094:	e198e009 	orrs	lr, r8, r9
    8098:	1a000011 	bne	80e4 <__l_divmod+0xe8>
ul_div_qr():
/home/rossierd/soo.tech/soo/optee_os/lib/libutils/isoc/arch/arm/arm32_aeabi_ldivmod.c:52
    809c:	e3510000 	cmp	r1, #0
    80a0:	0a000001 	beq	80ac <__l_divmod+0xb0>
/home/rossierd/soo.tech/soo/optee_os/lib/libutils/isoc/arch/arm/arm32_aeabi_ldivmod.c:53
    80a4:	e2722000 	rsbs	r2, r2, #0
    80a8:	e2e33000 	rsc	r3, r3, #0
/home/rossierd/soo.tech/soo/optee_os/lib/libutils/isoc/arch/arm/arm32_aeabi_ldivmod.c:54
    80ac:	e35c0000 	cmp	ip, #0
    80b0:	0a000001 	beq	80bc <__l_divmod+0xc0>
/home/rossierd/soo.tech/soo/optee_os/lib/libutils/isoc/arch/arm/arm32_aeabi_ldivmod.c:55
    80b4:	e2744000 	rsbs	r4, r4, #0
    80b8:	e2e55000 	rsc	r5, r5, #0
__l_divmod():
/home/rossierd/soo.tech/soo/optee_os/lib/libutils/isoc/arch/arm/arm32_aeabi_ldivmod.c:102
    80bc:	e1c020f0 	strd	r2, [r0]
/home/rossierd/soo.tech/soo/optee_os/lib/libutils/isoc/arch/arm/arm32_aeabi_ldivmod.c:103
    80c0:	e1c040f8 	strd	r4, [r0, #8]
    80c4:	e89dabf0 	ldm	sp, {r4, r5, r6, r7, r8, r9, fp, sp, pc}
/home/rossierd/soo.tech/soo/optee_os/lib/libutils/isoc/arch/arm/arm32_aeabi_ldivmod.c:92
    80c8:	e3a01001 	mov	r1, #1
    80cc:	eaffffdd 	b	8048 <__l_divmod+0x4c>
division_lqr():
/home/rossierd/soo.tech/soo/optee_os/lib/libutils/isoc/arch/arm/arm32_aeabi_ldivmod.c:28
    80d0:	e0988008 	adds	r8, r8, r8
    80d4:	e0a99009 	adc	r9, r9, r9
/home/rossierd/soo.tech/soo/optee_os/lib/libutils/isoc/arch/arm/arm32_aeabi_ldivmod.c:29
    80d8:	e0966006 	adds	r6, r6, r6
    80dc:	e0a77007 	adc	r7, r7, r7
    80e0:	eaffffe6 	b	8080 <__l_divmod+0x84>
/home/rossierd/soo.tech/soo/optee_os/lib/libutils/isoc/arch/arm/arm32_aeabi_ldivmod.c:33
    80e4:	e0922002 	adds	r2, r2, r2
    80e8:	e0a33003 	adc	r3, r3, r3
/home/rossierd/soo.tech/soo/optee_os/lib/libutils/isoc/arch/arm/arm32_aeabi_ldivmod.c:34
    80ec:	e1550007 	cmp	r5, r7
    80f0:	01540006 	cmpeq	r4, r6
    80f4:	3a000003 	bcc	8108 <__l_divmod+0x10c>
/home/rossierd/soo.tech/soo/optee_os/lib/libutils/isoc/arch/arm/arm32_aeabi_ldivmod.c:35
    80f8:	e0544006 	subs	r4, r4, r6
    80fc:	e0c55007 	sbc	r5, r5, r7
/home/rossierd/soo.tech/soo/optee_os/lib/libutils/isoc/arch/arm/arm32_aeabi_ldivmod.c:36
    8100:	e2922001 	adds	r2, r2, #1
    8104:	e2a33000 	adc	r3, r3, #0
/home/rossierd/soo.tech/soo/optee_os/lib/libutils/isoc/arch/arm/arm32_aeabi_ldivmod.c:38
    8108:	e1b070a7 	lsrs	r7, r7, #1
    810c:	e1a06066 	rrx	r6, r6
/home/rossierd/soo.tech/soo/optee_os/lib/libutils/isoc/arch/arm/arm32_aeabi_ldivmod.c:39
    8110:	e1b090a9 	lsrs	r9, r9, #1
    8114:	e1a08068 	rrx	r8, r8
    8118:	eaffffdd 	b	8094 <__l_divmod+0x98>

0000811c <__vsnprintf>:
__vsnprintf():
/home/rossierd/soo.tech/soo/optee_os/lib/libutils/ext/snprintk.c:137
    811c:	e1a0c00d 	mov	ip, sp
    8120:	e92ddff0 	push	{r4, r5, r6, r7, r8, r9, sl, fp, ip, lr, pc}
    8124:	e24cb004 	sub	fp, ip, #4
    8128:	e24dd084 	sub	sp, sp, #132	; 0x84
    812c:	e1a07003 	mov	r7, r3
kprintf():
/home/rossierd/soo.tech/soo/optee_os/lib/libutils/ext/snprintk.c:269
    8130:	e3a03000 	mov	r3, #0
__vsnprintf():
/home/rossierd/soo.tech/soo/optee_os/lib/libutils/ext/snprintk.c:141
    8134:	e1a0a000 	mov	sl, r0
/home/rossierd/soo.tech/soo/optee_os/lib/libutils/ext/snprintk.c:137
    8138:	e50b1078 	str	r1, [fp, #-120]	; 0xffffff88
kprintf():
/home/rossierd/soo.tech/soo/optee_os/lib/libutils/ext/snprintk.c:269
    813c:	e50b3074 	str	r3, [fp, #-116]	; 0xffffff8c
/home/rossierd/soo.tech/soo/optee_os/lib/libutils/ext/snprintk.c:267
    8140:	e50b3060 	str	r3, [fp, #-96]	; 0xffffffa0
/home/rossierd/soo.tech/soo/optee_os/lib/libutils/ext/snprintk.c:474
    8144:	e59f3a18 	ldr	r3, [pc, #2584]	; 8b64 <__vsnprintf+0xa48>
__vsnprintf():
/home/rossierd/soo.tech/soo/optee_os/lib/libutils/ext/snprintk.c:137
    8148:	e50b205c 	str	r2, [fp, #-92]	; 0xffffffa4
    814c:	e5db2004 	ldrb	r2, [fp, #4]
kprintf():
/home/rossierd/soo.tech/soo/optee_os/lib/libutils/ext/snprintk.c:474
    8150:	e08f3003 	add	r3, pc, r3
    8154:	e2833011 	add	r3, r3, #17
__vsnprintf():
/home/rossierd/soo.tech/soo/optee_os/lib/libutils/ext/snprintk.c:137
    8158:	e50b006c 	str	r0, [fp, #-108]	; 0xffffff94
    815c:	e50b207c 	str	r2, [fp, #-124]	; 0xffffff84
/home/rossierd/soo.tech/soo/optee_os/lib/libutils/ext/snprintk.c:141
    8160:	e0802001 	add	r2, r0, r1
kprintf():
/home/rossierd/soo.tech/soo/optee_os/lib/libutils/ext/snprintk.c:474
    8164:	e50b3080 	str	r3, [fp, #-128]	; 0xffffff80
__vsnprintf():
/home/rossierd/soo.tech/soo/optee_os/lib/libutils/ext/snprintk.c:141
    8168:	e50b2068 	str	r2, [fp, #-104]	; 0xffffff98
kprintf():
/home/rossierd/soo.tech/soo/optee_os/lib/libutils/ext/snprintk.c:275
    816c:	e51b305c 	ldr	r3, [fp, #-92]	; 0xffffffa4
    8170:	e5d33000 	ldrb	r3, [r3]
    8174:	e3530025 	cmp	r3, #37	; 0x25
    8178:	13530000 	cmpne	r3, #0
    817c:	13a08001 	movne	r8, #1
    8180:	03a08000 	moveq	r8, #0
    8184:	1a000021 	bne	8210 <__vsnprintf+0xf4>
/home/rossierd/soo.tech/soo/optee_os/lib/libutils/ext/snprintk.c:279
    8188:	e3530000 	cmp	r3, #0
    818c:	0a000262 	beq	8b1c <__vsnprintf+0xa00>
/home/rossierd/soo.tech/soo/optee_os/lib/libutils/ext/snprintk.c:282
    8190:	e51b305c 	ldr	r3, [fp, #-92]	; 0xffffffa4
/home/rossierd/soo.tech/soo/optee_os/lib/libutils/ext/snprintk.c:287
    8194:	e3e01000 	mvn	r1, #0
/home/rossierd/soo.tech/soo/optee_os/lib/libutils/ext/snprintk.c:282
    8198:	e1a02007 	mov	r2, r7
/home/rossierd/soo.tech/soo/optee_os/lib/libutils/ext/snprintk.c:284
    819c:	e1a06008 	mov	r6, r8
/home/rossierd/soo.tech/soo/optee_os/lib/libutils/ext/snprintk.c:324
    81a0:	e3e00000 	mvn	r0, #0
/home/rossierd/soo.tech/soo/optee_os/lib/libutils/ext/snprintk.c:286
    81a4:	e50b8064 	str	r8, [fp, #-100]	; 0xffffff9c
/home/rossierd/soo.tech/soo/optee_os/lib/libutils/ext/snprintk.c:287
    81a8:	e50b1058 	str	r1, [fp, #-88]	; 0xffffffa8
/home/rossierd/soo.tech/soo/optee_os/lib/libutils/ext/snprintk.c:346
    81ac:	e3a0100a 	mov	r1, #10
/home/rossierd/soo.tech/soo/optee_os/lib/libutils/ext/snprintk.c:282
    81b0:	e2833001 	add	r3, r3, #1
/home/rossierd/soo.tech/soo/optee_os/lib/libutils/ext/snprintk.c:290
    81b4:	e5d39000 	ldrb	r9, [r3]
    81b8:	e283c001 	add	ip, r3, #1
    81bc:	e50bc05c 	str	ip, [fp, #-92]	; 0xffffffa4
/home/rossierd/soo.tech/soo/optee_os/lib/libutils/ext/snprintk.c:291
    81c0:	e3590063 	cmp	r9, #99	; 0x63
    81c4:	0a0000d3 	beq	8518 <__vsnprintf+0x3fc>
    81c8:	ca000048 	bgt	82f0 <__vsnprintf+0x1d4>
    81cc:	e3590030 	cmp	r9, #48	; 0x30
    81d0:	0a0000c0 	beq	84d8 <__vsnprintf+0x3bc>
    81d4:	ca000023 	bgt	8268 <__vsnprintf+0x14c>
    81d8:	e359002a 	cmp	r9, #42	; 0x2a
    81dc:	0a000099 	beq	8448 <__vsnprintf+0x32c>
    81e0:	ca000017 	bgt	8244 <__vsnprintf+0x128>
    81e4:	e3590020 	cmp	r9, #32
    81e8:	0a000091 	beq	8434 <__vsnprintf+0x318>
    81ec:	e3590023 	cmp	r9, #35	; 0x23
    81f0:	0a000092 	beq	8440 <__vsnprintf+0x324>
/home/rossierd/soo.tech/soo/optee_os/lib/libutils/ext/snprintk.c:541
    81f4:	e3590000 	cmp	r9, #0
    81f8:	0a000247 	beq	8b1c <__vsnprintf+0xa00>
/home/rossierd/soo.tech/soo/optee_os/lib/libutils/ext/snprintk.c:545
    81fc:	e24b302c 	sub	r3, fp, #44	; 0x2c
    8200:	e1a07002 	mov	r7, r2
/home/rossierd/soo.tech/soo/optee_os/lib/libutils/ext/snprintk.c:546
    8204:	e3a02001 	mov	r2, #1
/home/rossierd/soo.tech/soo/optee_os/lib/libutils/ext/snprintk.c:545
    8208:	e5639028 	strb	r9, [r3, #-40]!	; 0xffffffd8
    820c:	ea000066 	b	83ac <__vsnprintf+0x290>
/home/rossierd/soo.tech/soo/optee_os/lib/libutils/ext/snprintk.c:276
    8210:	e51b2060 	ldr	r2, [fp, #-96]	; 0xffffffa0
/home/rossierd/soo.tech/soo/optee_os/lib/libutils/ext/snprintk.c:277
    8214:	e35a0000 	cmp	sl, #0
/home/rossierd/soo.tech/soo/optee_os/lib/libutils/ext/snprintk.c:276
    8218:	e2822001 	add	r2, r2, #1
    821c:	e50b2060 	str	r2, [fp, #-96]	; 0xffffffa0
/home/rossierd/soo.tech/soo/optee_os/lib/libutils/ext/snprintk.c:277
    8220:	0a000003 	beq	8234 <__vsnprintf+0x118>
    8224:	e51b2068 	ldr	r2, [fp, #-104]	; 0xffffff98
    8228:	e152000a 	cmp	r2, sl
    822c:	85ca3000 	strbhi	r3, [sl]
    8230:	828aa001 	addhi	sl, sl, #1
/home/rossierd/soo.tech/soo/optee_os/lib/libutils/ext/snprintk.c:275
    8234:	e51b305c 	ldr	r3, [fp, #-92]	; 0xffffffa4
    8238:	e2833001 	add	r3, r3, #1
    823c:	e50b305c 	str	r3, [fp, #-92]	; 0xffffffa4
    8240:	eaffffc9 	b	816c <__vsnprintf+0x50>
/home/rossierd/soo.tech/soo/optee_os/lib/libutils/ext/snprintk.c:291
    8244:	e359002d 	cmp	r9, #45	; 0x2d
    8248:	0a000087 	beq	846c <__vsnprintf+0x350>
    824c:	e359002e 	cmp	r9, #46	; 0x2e
    8250:	0a000087 	beq	8474 <__vsnprintf+0x358>
    8254:	e359002b 	cmp	r9, #43	; 0x2b
    8258:	1affffe5 	bne	81f4 <__vsnprintf+0xd8>
/home/rossierd/soo.tech/soo/optee_os/lib/libutils/ext/snprintk.c:319
    825c:	e1a08009 	mov	r8, r9
/home/rossierd/soo.tech/soo/optee_os/lib/libutils/ext/snprintk.c:322
    8260:	e51b305c 	ldr	r3, [fp, #-92]	; 0xffffffa4
    8264:	eaffffd2 	b	81b4 <__vsnprintf+0x98>
/home/rossierd/soo.tech/soo/optee_os/lib/libutils/ext/snprintk.c:291
    8268:	e3590044 	cmp	r9, #68	; 0x44
    826c:	0a0000e8 	beq	8614 <__vsnprintf+0x4f8>
    8270:	ca00000e 	bgt	82b0 <__vsnprintf+0x194>
    8274:	e3590039 	cmp	r9, #57	; 0x39
    8278:	caffffdd 	bgt	81f4 <__vsnprintf+0xd8>
    827c:	e3a03000 	mov	r3, #0
    8280:	e50b3064 	str	r3, [fp, #-100]	; 0xffffff9c
/home/rossierd/soo.tech/soo/optee_os/lib/libutils/ext/snprintk.c:346
    8284:	e51b3064 	ldr	r3, [fp, #-100]	; 0xffffff9c
    8288:	e2499030 	sub	r9, r9, #48	; 0x30
    828c:	e0239391 	mla	r3, r1, r3, r9
    8290:	e50b3064 	str	r3, [fp, #-100]	; 0xffffff9c
/home/rossierd/soo.tech/soo/optee_os/lib/libutils/ext/snprintk.c:347
    8294:	e51b305c 	ldr	r3, [fp, #-92]	; 0xffffffa4
    8298:	e4d39001 	ldrb	r9, [r3], #1
    829c:	e50b305c 	str	r3, [fp, #-92]	; 0xffffffa4
/home/rossierd/soo.tech/soo/optee_os/lib/libutils/ext/snprintk.c:348
    82a0:	e2493030 	sub	r3, r9, #48	; 0x30
    82a4:	e3530009 	cmp	r3, #9
    82a8:	9afffff5 	bls	8284 <__vsnprintf+0x168>
    82ac:	eaffffc3 	b	81c0 <__vsnprintf+0xa4>
/home/rossierd/soo.tech/soo/optee_os/lib/libutils/ext/snprintk.c:291
    82b0:	e3590055 	cmp	r9, #85	; 0x55
    82b4:	0a00018d 	beq	88f0 <__vsnprintf+0x7d4>
    82b8:	e3590058 	cmp	r9, #88	; 0x58
    82bc:	0a00004c 	beq	83f4 <__vsnprintf+0x2d8>
    82c0:	e359004f 	cmp	r9, #79	; 0x4f
    82c4:	1affffca 	bne	81f4 <__vsnprintf+0xd8>
/home/rossierd/soo.tech/soo/optee_os/lib/libutils/ext/snprintk.c:408
    82c8:	e3866010 	orr	r6, r6, #16
/home/rossierd/soo.tech/soo/optee_os/lib/libutils/ext/snprintk.c:411
    82cc:	e2161080 	ands	r1, r6, #128	; 0x80
    82d0:	0a00012d 	beq	878c <__vsnprintf+0x670>
    82d4:	e2822007 	add	r2, r2, #7
    82d8:	e3c22007 	bic	r2, r2, #7
    82dc:	e1c240d0 	ldrd	r4, [r2]
    82e0:	e2827008 	add	r7, r2, #8
/home/rossierd/soo.tech/soo/optee_os/lib/libutils/ext/snprintk.c:412
    82e4:	e3a02000 	mov	r2, #0
/home/rossierd/soo.tech/soo/optee_os/lib/libutils/ext/snprintk.c:482
    82e8:	e3a08000 	mov	r8, #0
    82ec:	ea0000d6 	b	864c <__vsnprintf+0x530>
/home/rossierd/soo.tech/soo/optee_os/lib/libutils/ext/snprintk.c:291
    82f0:	e359006f 	cmp	r9, #111	; 0x6f
    82f4:	0afffff4 	beq	82cc <__vsnprintf+0x1b0>
    82f8:	ca000010 	bgt	8340 <__vsnprintf+0x224>
    82fc:	e3590069 	cmp	r9, #105	; 0x69
    8300:	0a0000c4 	beq	8618 <__vsnprintf+0x4fc>
    8304:	ca000005 	bgt	8320 <__vsnprintf+0x204>
    8308:	e3590064 	cmp	r9, #100	; 0x64
    830c:	0a0000c1 	beq	8618 <__vsnprintf+0x4fc>
    8310:	e3590068 	cmp	r9, #104	; 0x68
    8314:	1affffb6 	bne	81f4 <__vsnprintf+0xd8>
/home/rossierd/soo.tech/soo/optee_os/lib/libutils/ext/snprintk.c:352
    8318:	e3866040 	orr	r6, r6, #64	; 0x40
    831c:	eaffffcf 	b	8260 <__vsnprintf+0x144>
/home/rossierd/soo.tech/soo/optee_os/lib/libutils/ext/snprintk.c:291
    8320:	e359006c 	cmp	r9, #108	; 0x6c
    8324:	0a00006d 	beq	84e0 <__vsnprintf+0x3c4>
    8328:	e359006e 	cmp	r9, #110	; 0x6e
    832c:	0a0000fc 	beq	8724 <__vsnprintf+0x608>
    8330:	e359006a 	cmp	r9, #106	; 0x6a
    8334:	1affffae 	bne	81f4 <__vsnprintf+0xd8>
/home/rossierd/soo.tech/soo/optee_os/lib/libutils/ext/snprintk.c:355
    8338:	e3866080 	orr	r6, r6, #128	; 0x80
    833c:	eaffffc7 	b	8260 <__vsnprintf+0x144>
/home/rossierd/soo.tech/soo/optee_os/lib/libutils/ext/snprintk.c:291
    8340:	e3590074 	cmp	r9, #116	; 0x74
    8344:	0a00006f 	beq	8508 <__vsnprintf+0x3ec>
    8348:	ca00001b 	bgt	83bc <__vsnprintf+0x2a0>
    834c:	e3590071 	cmp	r9, #113	; 0x71
    8350:	0a00006a 	beq	8500 <__vsnprintf+0x3e4>
    8354:	ba000121 	blt	87e0 <__vsnprintf+0x6c4>
    8358:	e3590073 	cmp	r9, #115	; 0x73
    835c:	1affffa4 	bne	81f4 <__vsnprintf+0xd8>
/home/rossierd/soo.tech/soo/optee_os/lib/libutils/ext/snprintk.c:442
    8360:	e5923000 	ldr	r3, [r2]
    8364:	e2827004 	add	r7, r2, #4
    8368:	e3530000 	cmp	r3, #0
/home/rossierd/soo.tech/soo/optee_os/lib/libutils/ext/snprintk.c:444
    836c:	059f37f4 	ldreq	r3, [pc, #2036]	; 8b68 <__vsnprintf+0xa4c>
    8370:	008f3003 	addeq	r3, pc, r3
/home/rossierd/soo.tech/soo/optee_os/lib/libutils/ext/snprintk.c:445
    8374:	e51b2058 	ldr	r2, [fp, #-88]	; 0xffffffa8
    8378:	e3720001 	cmn	r2, #1
    837c:	0a000153 	beq	88d0 <__vsnprintf+0x7b4>
/home/rossierd/soo.tech/soo/optee_os/lib/libutils/ext/snprintk.c:451
    8380:	e1a00003 	mov	r0, r3
    8384:	e3a01000 	mov	r1, #0
    8388:	e50b3070 	str	r3, [fp, #-112]	; 0xffffff90
    838c:	eb00034c 	bl	90c4 <memchr>
/home/rossierd/soo.tech/soo/optee_os/lib/libutils/ext/snprintk.c:453
    8390:	e3500000 	cmp	r0, #0
    8394:	e51b3070 	ldr	r3, [fp, #-112]	; 0xffffff90
    8398:	0a000005 	beq	83b4 <__vsnprintf+0x298>
    839c:	e51b2058 	ldr	r2, [fp, #-88]	; 0xffffffa8
/home/rossierd/soo.tech/soo/optee_os/lib/libutils/ext/snprintk.c:454
    83a0:	e0400003 	sub	r0, r0, r3
    83a4:	e1520000 	cmp	r2, r0
    83a8:	a1a02000 	movge	r2, r0
/home/rossierd/soo.tech/soo/optee_os/lib/libutils/ext/snprintk.c:285
    83ac:	e3a00000 	mov	r0, #0
/home/rossierd/soo.tech/soo/optee_os/lib/libutils/ext/snprintk.c:546
    83b0:	e50b2058 	str	r2, [fp, #-88]	; 0xffffffa8
/home/rossierd/soo.tech/soo/optee_os/lib/libutils/ext/snprintk.c:461
    83b4:	e1a08000 	mov	r8, r0
    83b8:	ea00005e 	b	8538 <__vsnprintf+0x41c>
/home/rossierd/soo.tech/soo/optee_os/lib/libutils/ext/snprintk.c:291
    83bc:	e3590078 	cmp	r9, #120	; 0x78
    83c0:	0a000161 	beq	894c <__vsnprintf+0x830>
    83c4:	e359007a 	cmp	r9, #122	; 0x7a
    83c8:	0a000050 	beq	8510 <__vsnprintf+0x3f4>
    83cc:	e3590075 	cmp	r9, #117	; 0x75
    83d0:	1affff87 	bne	81f4 <__vsnprintf+0xd8>
/home/rossierd/soo.tech/soo/optee_os/lib/libutils/ext/snprintk.c:467
    83d4:	e2163080 	ands	r3, r6, #128	; 0x80
    83d8:	0a000146 	beq	88f8 <__vsnprintf+0x7dc>
    83dc:	e2822007 	add	r2, r2, #7
    83e0:	e3c22007 	bic	r2, r2, #7
    83e4:	e1c240d0 	ldrd	r4, [r2]
    83e8:	e2827008 	add	r7, r2, #8
/home/rossierd/soo.tech/soo/optee_os/lib/libutils/ext/snprintk.c:468
    83ec:	e3a02001 	mov	r2, #1
    83f0:	eaffffbc 	b	82e8 <__vsnprintf+0x1cc>
/home/rossierd/soo.tech/soo/optee_os/lib/libutils/ext/snprintk.c:471
    83f4:	e59f3770 	ldr	r3, [pc, #1904]	; 8b6c <__vsnprintf+0xa50>
    83f8:	e08f3003 	add	r3, pc, r3
/home/rossierd/soo.tech/soo/optee_os/lib/libutils/ext/snprintk.c:475
    83fc:	e3160080 	tst	r6, #128	; 0x80
/home/rossierd/soo.tech/soo/optee_os/lib/libutils/ext/snprintk.c:474
    8400:	e50b3074 	str	r3, [fp, #-116]	; 0xffffff8c
/home/rossierd/soo.tech/soo/optee_os/lib/libutils/ext/snprintk.c:475
    8404:	0a000152 	beq	8954 <__vsnprintf+0x838>
    8408:	e2822007 	add	r2, r2, #7
    840c:	e3c22007 	bic	r2, r2, #7
    8410:	e1c240d0 	ldrd	r4, [r2]
    8414:	e2827008 	add	r7, r2, #8
/home/rossierd/soo.tech/soo/optee_os/lib/libutils/ext/snprintk.c:478
    8418:	e2168001 	ands	r8, r6, #1
/home/rossierd/soo.tech/soo/optee_os/lib/libutils/ext/snprintk.c:476
    841c:	03a02002 	moveq	r2, #2
/home/rossierd/soo.tech/soo/optee_os/lib/libutils/ext/snprintk.c:478
    8420:	0a000089 	beq	864c <__vsnprintf+0x530>
    8424:	e1943005 	orrs	r3, r4, r5
/home/rossierd/soo.tech/soo/optee_os/lib/libutils/ext/snprintk.c:476
    8428:	e3a02002 	mov	r2, #2
/home/rossierd/soo.tech/soo/optee_os/lib/libutils/ext/snprintk.c:479
    842c:	13866002 	orrne	r6, r6, #2
    8430:	eaffffac 	b	82e8 <__vsnprintf+0x1cc>
/home/rossierd/soo.tech/soo/optee_os/lib/libutils/ext/snprintk.c:299
    8434:	e3580000 	cmp	r8, #0
    8438:	03a08020 	moveq	r8, #32
    843c:	eaffff87 	b	8260 <__vsnprintf+0x144>
/home/rossierd/soo.tech/soo/optee_os/lib/libutils/ext/snprintk.c:302
    8440:	e3866001 	orr	r6, r6, #1
    8444:	eaffff85 	b	8260 <__vsnprintf+0x144>
/home/rossierd/soo.tech/soo/optee_os/lib/libutils/ext/snprintk.c:311
    8448:	e2823004 	add	r3, r2, #4
    844c:	e5922000 	ldr	r2, [r2]
    8450:	e3520000 	cmp	r2, #0
    8454:	e50b2064 	str	r2, [fp, #-100]	; 0xffffff9c
    8458:	a1a02003 	movge	r2, r3
    845c:	aaffff7f 	bge	8260 <__vsnprintf+0x144>
/home/rossierd/soo.tech/soo/optee_os/lib/libutils/ext/snprintk.c:313
    8460:	e2622000 	rsb	r2, r2, #0
    8464:	e50b2064 	str	r2, [fp, #-100]	; 0xffffff9c
/home/rossierd/soo.tech/soo/optee_os/lib/libutils/ext/snprintk.c:311
    8468:	e1a02003 	mov	r2, r3
/home/rossierd/soo.tech/soo/optee_os/lib/libutils/ext/snprintk.c:316
    846c:	e3866004 	orr	r6, r6, #4
    8470:	eaffff7a 	b	8260 <__vsnprintf+0x144>
/home/rossierd/soo.tech/soo/optee_os/lib/libutils/ext/snprintk.c:322
    8474:	e51bc05c 	ldr	ip, [fp, #-92]	; 0xffffffa4
    8478:	e51b305c 	ldr	r3, [fp, #-92]	; 0xffffffa4
    847c:	e5dc9000 	ldrb	r9, [ip]
    8480:	e2833001 	add	r3, r3, #1
    8484:	e359002a 	cmp	r9, #42	; 0x2a
    8488:	0a00000b 	beq	84bc <__vsnprintf+0x3a0>
    848c:	e3a0c000 	mov	ip, #0
    8490:	e50bc058 	str	ip, [fp, #-88]	; 0xffffffa8
/home/rossierd/soo.tech/soo/optee_os/lib/libutils/ext/snprintk.c:330
    8494:	e50b305c 	str	r3, [fp, #-92]	; 0xffffffa4
/home/rossierd/soo.tech/soo/optee_os/lib/libutils/ext/snprintk.c:328
    8498:	e2493030 	sub	r3, r9, #48	; 0x30
    849c:	e3530009 	cmp	r3, #9
    84a0:	8affff46 	bhi	81c0 <__vsnprintf+0xa4>
/home/rossierd/soo.tech/soo/optee_os/lib/libutils/ext/snprintk.c:329
    84a4:	e51bc058 	ldr	ip, [fp, #-88]	; 0xffffffa8
    84a8:	e0233c91 	mla	r3, r1, ip, r3
    84ac:	e50b3058 	str	r3, [fp, #-88]	; 0xffffffa8
/home/rossierd/soo.tech/soo/optee_os/lib/libutils/ext/snprintk.c:330
    84b0:	e51b305c 	ldr	r3, [fp, #-92]	; 0xffffffa4
    84b4:	e4d39001 	ldrb	r9, [r3], #1
    84b8:	eafffff5 	b	8494 <__vsnprintf+0x378>
/home/rossierd/soo.tech/soo/optee_os/lib/libutils/ext/snprintk.c:324
    84bc:	e592c000 	ldr	ip, [r2]
/home/rossierd/soo.tech/soo/optee_os/lib/libutils/ext/snprintk.c:322
    84c0:	e50b305c 	str	r3, [fp, #-92]	; 0xffffffa4
/home/rossierd/soo.tech/soo/optee_os/lib/libutils/ext/snprintk.c:323
    84c4:	e2822004 	add	r2, r2, #4
/home/rossierd/soo.tech/soo/optee_os/lib/libutils/ext/snprintk.c:324
    84c8:	e15c0000 	cmp	ip, r0
    84cc:	b1a0c000 	movlt	ip, r0
    84d0:	e50bc058 	str	ip, [fp, #-88]	; 0xffffffa8
    84d4:	eaffff61 	b	8260 <__vsnprintf+0x144>
/home/rossierd/soo.tech/soo/optee_os/lib/libutils/ext/snprintk.c:340
    84d8:	e3866b01 	orr	r6, r6, #1024	; 0x400
    84dc:	eaffff5f 	b	8260 <__vsnprintf+0x144>
/home/rossierd/soo.tech/soo/optee_os/lib/libutils/ext/snprintk.c:358
    84e0:	e51b305c 	ldr	r3, [fp, #-92]	; 0xffffffa4
    84e4:	e5d33000 	ldrb	r3, [r3]
    84e8:	e353006c 	cmp	r3, #108	; 0x6c
/home/rossierd/soo.tech/soo/optee_os/lib/libutils/ext/snprintk.c:359
    84ec:	051b305c 	ldreq	r3, [fp, #-92]	; 0xffffffa4
/home/rossierd/soo.tech/soo/optee_os/lib/libutils/ext/snprintk.c:362
    84f0:	13866010 	orrne	r6, r6, #16
/home/rossierd/soo.tech/soo/optee_os/lib/libutils/ext/snprintk.c:359
    84f4:	02833001 	addeq	r3, r3, #1
    84f8:	050b305c 	streq	r3, [fp, #-92]	; 0xffffffa4
/home/rossierd/soo.tech/soo/optee_os/lib/libutils/ext/snprintk.c:358
    84fc:	1affff57 	bne	8260 <__vsnprintf+0x144>
/home/rossierd/soo.tech/soo/optee_os/lib/libutils/ext/snprintk.c:366
    8500:	e3866020 	orr	r6, r6, #32
    8504:	eaffff55 	b	8260 <__vsnprintf+0x144>
/home/rossierd/soo.tech/soo/optee_os/lib/libutils/ext/snprintk.c:369
    8508:	e3866c01 	orr	r6, r6, #256	; 0x100
    850c:	eaffff53 	b	8260 <__vsnprintf+0x144>
/home/rossierd/soo.tech/soo/optee_os/lib/libutils/ext/snprintk.c:372
    8510:	e3866c02 	orr	r6, r6, #512	; 0x200
    8514:	eaffff51 	b	8260 <__vsnprintf+0x144>
/home/rossierd/soo.tech/soo/optee_os/lib/libutils/ext/snprintk.c:375
    8518:	e2827004 	add	r7, r2, #4
    851c:	e5922000 	ldr	r2, [r2]
    8520:	e24b302c 	sub	r3, fp, #44	; 0x2c
/home/rossierd/soo.tech/soo/optee_os/lib/libutils/ext/snprintk.c:285
    8524:	e3a08000 	mov	r8, #0
/home/rossierd/soo.tech/soo/optee_os/lib/libutils/ext/snprintk.c:377
    8528:	e1a00008 	mov	r0, r8
/home/rossierd/soo.tech/soo/optee_os/lib/libutils/ext/snprintk.c:375
    852c:	e5632028 	strb	r2, [r3, #-40]!	; 0xffffffd8
/home/rossierd/soo.tech/soo/optee_os/lib/libutils/ext/snprintk.c:376
    8530:	e3a02001 	mov	r2, #1
    8534:	e50b2058 	str	r2, [fp, #-88]	; 0xffffffa8
/home/rossierd/soo.tech/soo/optee_os/lib/libutils/ext/snprintk.c:565
    8538:	e51b2058 	ldr	r2, [fp, #-88]	; 0xffffffa8
    853c:	e1500002 	cmp	r0, r2
    8540:	a1a01000 	movge	r1, r0
    8544:	b1a01002 	movlt	r1, r2
/home/rossierd/soo.tech/soo/optee_os/lib/libutils/ext/snprintk.c:566
    8548:	e3580000 	cmp	r8, #0
/home/rossierd/soo.tech/soo/optee_os/lib/libutils/ext/snprintk.c:567
    854c:	12811001 	addne	r1, r1, #1
/home/rossierd/soo.tech/soo/optee_os/lib/libutils/ext/snprintk.c:566
    8550:	1a000001 	bne	855c <__vsnprintf+0x440>
/home/rossierd/soo.tech/soo/optee_os/lib/libutils/ext/snprintk.c:568
    8554:	e3160002 	tst	r6, #2
/home/rossierd/soo.tech/soo/optee_os/lib/libutils/ext/snprintk.c:569
    8558:	12811002 	addne	r1, r1, #2
/home/rossierd/soo.tech/soo/optee_os/lib/libutils/ext/snprintk.c:572
    855c:	e51bc064 	ldr	ip, [fp, #-100]	; 0xffffff9c
    8560:	e51b2060 	ldr	r2, [fp, #-96]	; 0xffffffa0
    8564:	e15c0001 	cmp	ip, r1
    8568:	a082200c 	addge	r2, r2, ip
    856c:	b0822001 	addlt	r2, r2, r1
    8570:	e50b2060 	str	r2, [fp, #-96]	; 0xffffffa0
/home/rossierd/soo.tech/soo/optee_os/lib/libutils/ext/snprintk.c:575
    8574:	e3002404 	movw	r2, #1028	; 0x404
    8578:	e016c002 	ands	ip, r6, r2
/home/rossierd/soo.tech/soo/optee_os/lib/libutils/ext/snprintk.c:576
    857c:	051b2064 	ldreq	r2, [fp, #-100]	; 0xffffff9c
/home/rossierd/soo.tech/soo/optee_os/lib/libutils/ext/snprintk.c:578
    8580:	03a0e020 	moveq	lr, #32
/home/rossierd/soo.tech/soo/optee_os/lib/libutils/ext/snprintk.c:576
    8584:	00422001 	subeq	r2, r2, r1
/home/rossierd/soo.tech/soo/optee_os/lib/libutils/ext/snprintk.c:575
    8588:	0a00012f 	beq	8a4c <__vsnprintf+0x930>
/home/rossierd/soo.tech/soo/optee_os/lib/libutils/ext/snprintk.c:582
    858c:	e3580000 	cmp	r8, #0
    8590:	0a000135 	beq	8a6c <__vsnprintf+0x950>
/home/rossierd/soo.tech/soo/optee_os/lib/libutils/ext/snprintk.c:583
    8594:	e35a0000 	cmp	sl, #0
    8598:	1a00012e 	bne	8a58 <__vsnprintf+0x93c>
/home/rossierd/soo.tech/soo/optee_os/lib/libutils/ext/snprintk.c:586
    859c:	e3a0a000 	mov	sl, #0
/home/rossierd/soo.tech/soo/optee_os/lib/libutils/ext/snprintk.c:590
    85a0:	e35c0b01 	cmp	ip, #1024	; 0x400
/home/rossierd/soo.tech/soo/optee_os/lib/libutils/ext/snprintk.c:591
    85a4:	051b2064 	ldreq	r2, [fp, #-100]	; 0xffffff9c
/home/rossierd/soo.tech/soo/optee_os/lib/libutils/ext/snprintk.c:593
    85a8:	03a0c030 	moveq	ip, #48	; 0x30
/home/rossierd/soo.tech/soo/optee_os/lib/libutils/ext/snprintk.c:591
    85ac:	00422001 	subeq	r2, r2, r1
/home/rossierd/soo.tech/soo/optee_os/lib/libutils/ext/snprintk.c:590
    85b0:	0a000145 	beq	8acc <__vsnprintf+0x9b0>
/home/rossierd/soo.tech/soo/optee_os/lib/libutils/ext/snprintk.c:597
    85b4:	e51b2058 	ldr	r2, [fp, #-88]	; 0xffffffa8
    85b8:	e0400002 	sub	r0, r0, r2
/home/rossierd/soo.tech/soo/optee_os/lib/libutils/ext/snprintk.c:599
    85bc:	e3a02030 	mov	r2, #48	; 0x30
/home/rossierd/soo.tech/soo/optee_os/lib/libutils/ext/snprintk.c:598
    85c0:	e3500000 	cmp	r0, #0
    85c4:	ca000143 	bgt	8ad8 <__vsnprintf+0x9bc>
    85c8:	e51b2058 	ldr	r2, [fp, #-88]	; 0xffffffa8
    85cc:	e0832002 	add	r2, r3, r2
/home/rossierd/soo.tech/soo/optee_os/lib/libutils/ext/snprintk.c:602
    85d0:	e1520003 	cmp	r2, r3
    85d4:	1a000147 	bne	8af8 <__vsnprintf+0x9dc>
/home/rossierd/soo.tech/soo/optee_os/lib/libutils/ext/snprintk.c:605
    85d8:	e3160004 	tst	r6, #4
/home/rossierd/soo.tech/soo/optee_os/lib/libutils/ext/snprintk.c:606
    85dc:	151b3064 	ldrne	r3, [fp, #-100]	; 0xffffff9c
/home/rossierd/soo.tech/soo/optee_os/lib/libutils/ext/snprintk.c:608
    85e0:	13a02020 	movne	r2, #32
/home/rossierd/soo.tech/soo/optee_os/lib/libutils/ext/snprintk.c:606
    85e4:	10433001 	subne	r3, r3, r1
/home/rossierd/soo.tech/soo/optee_os/lib/libutils/ext/snprintk.c:605
    85e8:	0afffedf 	beq	816c <__vsnprintf+0x50>
/home/rossierd/soo.tech/soo/optee_os/lib/libutils/ext/snprintk.c:607
    85ec:	e3530000 	cmp	r3, #0
    85f0:	dafffedd 	ble	816c <__vsnprintf+0x50>
/home/rossierd/soo.tech/soo/optee_os/lib/libutils/ext/snprintk.c:608
    85f4:	e35a0000 	cmp	sl, #0
    85f8:	0a000003 	beq	860c <__vsnprintf+0x4f0>
    85fc:	e51b1068 	ldr	r1, [fp, #-104]	; 0xffffff98
    8600:	e151000a 	cmp	r1, sl
    8604:	85ca2000 	strbhi	r2, [sl]
    8608:	828aa001 	addhi	sl, sl, #1
    860c:	e2433001 	sub	r3, r3, #1
    8610:	eafffff5 	b	85ec <__vsnprintf+0x4d0>
/home/rossierd/soo.tech/soo/optee_os/lib/libutils/ext/snprintk.c:380
    8614:	e3866010 	orr	r6, r6, #16
/home/rossierd/soo.tech/soo/optee_os/lib/libutils/ext/snprintk.c:384
    8618:	e3160080 	tst	r6, #128	; 0x80
    861c:	0a00002f 	beq	86e0 <__vsnprintf+0x5c4>
    8620:	e2822007 	add	r2, r2, #7
    8624:	e3c22007 	bic	r2, r2, #7
    8628:	e1c240d0 	ldrd	r4, [r2]
    862c:	e2827008 	add	r7, r2, #8
/home/rossierd/soo.tech/soo/optee_os/lib/libutils/ext/snprintk.c:385
    8630:	e3540000 	cmp	r4, #0
    8634:	e2d53000 	sbcs	r3, r5, #0
    8638:	aa0000bc 	bge	8930 <__vsnprintf+0x814>
/home/rossierd/soo.tech/soo/optee_os/lib/libutils/ext/snprintk.c:386
    863c:	e2744000 	rsbs	r4, r4, #0
/home/rossierd/soo.tech/soo/optee_os/lib/libutils/ext/snprintk.c:389
    8640:	e3a02001 	mov	r2, #1
/home/rossierd/soo.tech/soo/optee_os/lib/libutils/ext/snprintk.c:386
    8644:	e2e55000 	rsc	r5, r5, #0
/home/rossierd/soo.tech/soo/optee_os/lib/libutils/ext/snprintk.c:387
    8648:	e3a0802d 	mov	r8, #45	; 0x2d
/home/rossierd/soo.tech/soo/optee_os/lib/libutils/ext/snprintk.c:488
    864c:	e51b3058 	ldr	r3, [fp, #-88]	; 0xffffffa8
/home/rossierd/soo.tech/soo/optee_os/lib/libutils/ext/snprintk.c:497
    8650:	e51b1058 	ldr	r1, [fp, #-88]	; 0xffffffa8
/home/rossierd/soo.tech/soo/optee_os/lib/libutils/ext/snprintk.c:488
    8654:	e3730001 	cmn	r3, #1
/home/rossierd/soo.tech/soo/optee_os/lib/libutils/ext/snprintk.c:497
    8658:	e1843005 	orr	r3, r4, r5
/home/rossierd/soo.tech/soo/optee_os/lib/libutils/ext/snprintk.c:489
    865c:	13c66b01 	bicne	r6, r6, #1024	; 0x400
/home/rossierd/soo.tech/soo/optee_os/lib/libutils/ext/snprintk.c:497
    8660:	e3530000 	cmp	r3, #0
    8664:	03510000 	cmpeq	r1, #0
    8668:	e24b302f 	sub	r3, fp, #47	; 0x2f
    866c:	0a000016 	beq	86cc <__vsnprintf+0x5b0>
/home/rossierd/soo.tech/soo/optee_os/lib/libutils/ext/snprintk.c:503
    8670:	e3520001 	cmp	r2, #1
    8674:	0a0000c7 	beq	8998 <__vsnprintf+0x87c>
    8678:	e3520002 	cmp	r2, #2
    867c:	0a0000df 	beq	8a00 <__vsnprintf+0x8e4>
/home/rossierd/soo.tech/soo/optee_os/lib/libutils/ext/snprintk.c:507
    8680:	e1a011a4 	lsr	r1, r4, #3
    8684:	e1a001a5 	lsr	r0, r5, #3
    8688:	e1811e85 	orr	r1, r1, r5, lsl #29
/home/rossierd/soo.tech/soo/optee_os/lib/libutils/ext/snprintk.c:506
    868c:	e2042007 	and	r2, r4, #7
/home/rossierd/soo.tech/soo/optee_os/lib/libutils/ext/snprintk.c:507
    8690:	e1a05000 	mov	r5, r0
    8694:	e1a04001 	mov	r4, r1
/home/rossierd/soo.tech/soo/optee_os/lib/libutils/ext/snprintk.c:508
    8698:	e1a0c003 	mov	ip, r3
/home/rossierd/soo.tech/soo/optee_os/lib/libutils/ext/snprintk.c:506
    869c:	e2822030 	add	r2, r2, #48	; 0x30
/home/rossierd/soo.tech/soo/optee_os/lib/libutils/ext/snprintk.c:508
    86a0:	e1941005 	orrs	r1, r4, r5
/home/rossierd/soo.tech/soo/optee_os/lib/libutils/ext/snprintk.c:506
    86a4:	e2433001 	sub	r3, r3, #1
    86a8:	e54c2001 	strb	r2, [ip, #-1]
/home/rossierd/soo.tech/soo/optee_os/lib/libutils/ext/snprintk.c:508
    86ac:	1afffff3 	bne	8680 <__vsnprintf+0x564>
/home/rossierd/soo.tech/soo/optee_os/lib/libutils/ext/snprintk.c:510
    86b0:	e3520030 	cmp	r2, #48	; 0x30
    86b4:	03a02000 	moveq	r2, #0
    86b8:	12062001 	andne	r2, r6, #1
    86bc:	e3520000 	cmp	r2, #0
/home/rossierd/soo.tech/soo/optee_os/lib/libutils/ext/snprintk.c:511
    86c0:	13a02030 	movne	r2, #48	; 0x30
    86c4:	15432001 	strbne	r2, [r3, #-1]
    86c8:	124c3002 	subne	r3, ip, #2
/home/rossierd/soo.tech/soo/optee_os/lib/libutils/ext/snprintk.c:537
    86cc:	e24b202f 	sub	r2, fp, #47	; 0x2f
    86d0:	e51b0058 	ldr	r0, [fp, #-88]	; 0xffffffa8
    86d4:	e0422003 	sub	r2, r2, r3
    86d8:	e50b2058 	str	r2, [fp, #-88]	; 0xffffffa8
    86dc:	eaffff95 	b	8538 <__vsnprintf+0x41c>
/home/rossierd/soo.tech/soo/optee_os/lib/libutils/ext/snprintk.c:384
    86e0:	e3160c01 	tst	r6, #256	; 0x100
    86e4:	0a000003 	beq	86f8 <__vsnprintf+0x5dc>
    86e8:	e2827004 	add	r7, r2, #4
    86ec:	e5924000 	ldr	r4, [r2]
    86f0:	e1a05fc4 	asr	r5, r4, #31
    86f4:	eaffffcd 	b	8630 <__vsnprintf+0x514>
    86f8:	e3160c02 	tst	r6, #512	; 0x200
    86fc:	1afffff9 	bne	86e8 <__vsnprintf+0x5cc>
    8700:	e3160020 	tst	r6, #32
    8704:	1affffc5 	bne	8620 <__vsnprintf+0x504>
    8708:	e3160010 	tst	r6, #16
    870c:	e2827004 	add	r7, r2, #4
    8710:	1afffff5 	bne	86ec <__vsnprintf+0x5d0>
    8714:	e5924000 	ldr	r4, [r2]
    8718:	e3160040 	tst	r6, #64	; 0x40
    871c:	16bf4074 	sxthne	r4, r4
    8720:	eafffff2 	b	86f0 <__vsnprintf+0x5d4>
/home/rossierd/soo.tech/soo/optee_os/lib/libutils/ext/snprintk.c:392
    8724:	e3160080 	tst	r6, #128	; 0x80
    8728:	e2827004 	add	r7, r2, #4
    872c:	0a000004 	beq	8744 <__vsnprintf+0x628>
/home/rossierd/soo.tech/soo/optee_os/lib/libutils/ext/snprintk.c:399
    8730:	e51b0060 	ldr	r0, [fp, #-96]	; 0xffffffa0
    8734:	e5923000 	ldr	r3, [r2]
    8738:	e1a01fc0 	asr	r1, r0, #31
    873c:	e1c300f0 	strd	r0, [r3]
    8740:	eafffe89 	b	816c <__vsnprintf+0x50>
/home/rossierd/soo.tech/soo/optee_os/lib/libutils/ext/snprintk.c:394
    8744:	e3160c01 	tst	r6, #256	; 0x100
    8748:	0a000003 	beq	875c <__vsnprintf+0x640>
/home/rossierd/soo.tech/soo/optee_os/lib/libutils/ext/snprintk.c:405
    874c:	e5923000 	ldr	r3, [r2]
    8750:	e51b2060 	ldr	r2, [fp, #-96]	; 0xffffffa0
    8754:	e5832000 	str	r2, [r3]
    8758:	eafffe83 	b	816c <__vsnprintf+0x50>
/home/rossierd/soo.tech/soo/optee_os/lib/libutils/ext/snprintk.c:396
    875c:	e3160c02 	tst	r6, #512	; 0x200
    8760:	1afffff9 	bne	874c <__vsnprintf+0x630>
/home/rossierd/soo.tech/soo/optee_os/lib/libutils/ext/snprintk.c:398
    8764:	e3160020 	tst	r6, #32
    8768:	1afffff0 	bne	8730 <__vsnprintf+0x614>
/home/rossierd/soo.tech/soo/optee_os/lib/libutils/ext/snprintk.c:400
    876c:	e3160010 	tst	r6, #16
    8770:	1afffff5 	bne	874c <__vsnprintf+0x630>
/home/rossierd/soo.tech/soo/optee_os/lib/libutils/ext/snprintk.c:402
    8774:	e3160040 	tst	r6, #64	; 0x40
/home/rossierd/soo.tech/soo/optee_os/lib/libutils/ext/snprintk.c:403
    8778:	15923000 	ldrne	r3, [r2]
    877c:	115b26b0 	ldrhne	r2, [fp, #-96]	; 0xffffffa0
    8780:	11c320b0 	strhne	r2, [r3]
/home/rossierd/soo.tech/soo/optee_os/lib/libutils/ext/snprintk.c:402
    8784:	1afffe78 	bne	816c <__vsnprintf+0x50>
    8788:	eaffffef 	b	874c <__vsnprintf+0x630>
/home/rossierd/soo.tech/soo/optee_os/lib/libutils/ext/snprintk.c:411
    878c:	e2163c01 	ands	r3, r6, #256	; 0x100
    8790:	0a000002 	beq	87a0 <__vsnprintf+0x684>
    8794:	e2827004 	add	r7, r2, #4
    8798:	e5924000 	ldr	r4, [r2]
    879c:	ea00000d 	b	87d8 <__vsnprintf+0x6bc>
    87a0:	e2161c02 	ands	r1, r6, #512	; 0x200
    87a4:	1afffffa 	bne	8794 <__vsnprintf+0x678>
    87a8:	e2163020 	ands	r3, r6, #32
    87ac:	12823007 	addne	r3, r2, #7
    87b0:	13c33007 	bicne	r3, r3, #7
    87b4:	12837008 	addne	r7, r3, #8
    87b8:	11c340d0 	ldrdne	r4, [r3]
    87bc:	1afffec8 	bne	82e4 <__vsnprintf+0x1c8>
    87c0:	e2161010 	ands	r1, r6, #16
    87c4:	e2827004 	add	r7, r2, #4
    87c8:	1afffff2 	bne	8798 <__vsnprintf+0x67c>
    87cc:	e2163040 	ands	r3, r6, #64	; 0x40
    87d0:	11d240b0 	ldrhne	r4, [r2]
    87d4:	0affffef 	beq	8798 <__vsnprintf+0x67c>
    87d8:	e3a05000 	mov	r5, #0
    87dc:	eafffec0 	b	82e4 <__vsnprintf+0x1c8>
/home/rossierd/soo.tech/soo/optee_os/lib/libutils/ext/snprintk.c:415
    87e0:	e51b307c 	ldr	r3, [fp, #-124]	; 0xffffff84
    87e4:	e3530000 	cmp	r3, #0
    87e8:	0a00002c 	beq	88a0 <__vsnprintf+0x784>
    87ec:	e51b305c 	ldr	r3, [fp, #-92]	; 0xffffffa4
    87f0:	e5d33000 	ldrb	r3, [r3]
    87f4:	e3530055 	cmp	r3, #85	; 0x55
    87f8:	1a000028 	bne	88a0 <__vsnprintf+0x784>
    87fc:	e51b305c 	ldr	r3, [fp, #-92]	; 0xffffffa4
    8800:	e5d33001 	ldrb	r3, [r3, #1]
    8804:	e353006c 	cmp	r3, #108	; 0x6c
    8808:	1a000024 	bne	88a0 <__vsnprintf+0x784>
/home/rossierd/soo.tech/soo/optee_os/lib/libutils/ext/snprintk.c:420
    880c:	e51b305c 	ldr	r3, [fp, #-92]	; 0xffffffa4
/home/rossierd/soo.tech/soo/optee_os/lib/libutils/ext/snprintk.c:421
    8810:	e2827004 	add	r7, r2, #4
uuid2str():
/home/rossierd/soo.tech/soo/optee_os/lib/libutils/ext/snprintk.c:223
    8814:	e24b4054 	sub	r4, fp, #84	; 0x54
    8818:	e3a01025 	mov	r1, #37	; 0x25
    881c:	e1a00004 	mov	r0, r4
kprintf():
/home/rossierd/soo.tech/soo/optee_os/lib/libutils/ext/snprintk.c:420
    8820:	e2833002 	add	r3, r3, #2
    8824:	e50b305c 	str	r3, [fp, #-92]	; 0xffffffa4
/home/rossierd/soo.tech/soo/optee_os/lib/libutils/ext/snprintk.c:421
    8828:	e5923000 	ldr	r3, [r2]
uuid2str():
/home/rossierd/soo.tech/soo/optee_os/lib/libutils/ext/snprintk.c:223
    882c:	e5d3200f 	ldrb	r2, [r3, #15]
    8830:	e58d2024 	str	r2, [sp, #36]	; 0x24
    8834:	e5d3200e 	ldrb	r2, [r3, #14]
    8838:	e58d2020 	str	r2, [sp, #32]
    883c:	e5d3200d 	ldrb	r2, [r3, #13]
    8840:	e58d201c 	str	r2, [sp, #28]
    8844:	e5d3200c 	ldrb	r2, [r3, #12]
    8848:	e58d2018 	str	r2, [sp, #24]
    884c:	e5d3200b 	ldrb	r2, [r3, #11]
    8850:	e58d2014 	str	r2, [sp, #20]
    8854:	e5d3200a 	ldrb	r2, [r3, #10]
    8858:	e58d2010 	str	r2, [sp, #16]
    885c:	e5d32009 	ldrb	r2, [r3, #9]
    8860:	e58d200c 	str	r2, [sp, #12]
    8864:	e5d32008 	ldrb	r2, [r3, #8]
    8868:	e58d2008 	str	r2, [sp, #8]
    886c:	e1d320b6 	ldrh	r2, [r3, #6]
    8870:	e58d2004 	str	r2, [sp, #4]
    8874:	e1d320b4 	ldrh	r2, [r3, #4]
    8878:	e58d2000 	str	r2, [sp]
    887c:	e59f22ec 	ldr	r2, [pc, #748]	; 8b70 <__vsnprintf+0xa54>
    8880:	e5933000 	ldr	r3, [r3]
    8884:	e08f2002 	add	r2, pc, r2
    8888:	eb0000c3 	bl	8b9c <snprintk>
    888c:	e50b0058 	str	r0, [fp, #-88]	; 0xffffffa8
kprintf():
/home/rossierd/soo.tech/soo/optee_os/lib/libutils/ext/snprintk.c:285
    8890:	e3a00000 	mov	r0, #0
/home/rossierd/soo.tech/soo/optee_os/lib/libutils/ext/snprintk.c:423
    8894:	e1a03004 	mov	r3, r4
/home/rossierd/soo.tech/soo/optee_os/lib/libutils/ext/snprintk.c:424
    8898:	e1a08000 	mov	r8, r0
    889c:	eaffff25 	b	8538 <__vsnprintf+0x41c>
/home/rossierd/soo.tech/soo/optee_os/lib/libutils/ext/snprintk.c:437
    88a0:	e59f32cc 	ldr	r3, [pc, #716]	; 8b74 <__vsnprintf+0xa58>
/home/rossierd/soo.tech/soo/optee_os/lib/libutils/ext/snprintk.c:435
    88a4:	e2827004 	add	r7, r2, #4
    88a8:	e3a05000 	mov	r5, #0
    88ac:	e5924000 	ldr	r4, [r2]
/home/rossierd/soo.tech/soo/optee_os/lib/libutils/ext/snprintk.c:438
    88b0:	e3866002 	orr	r6, r6, #2
/home/rossierd/soo.tech/soo/optee_os/lib/libutils/ext/snprintk.c:482
    88b4:	e3a08000 	mov	r8, #0
/home/rossierd/soo.tech/soo/optee_os/lib/libutils/ext/snprintk.c:439
    88b8:	e3a09078 	mov	r9, #120	; 0x78
/home/rossierd/soo.tech/soo/optee_os/lib/libutils/ext/snprintk.c:436
    88bc:	e3a02002 	mov	r2, #2
/home/rossierd/soo.tech/soo/optee_os/lib/libutils/ext/snprintk.c:437
    88c0:	e08f3003 	add	r3, pc, r3
    88c4:	e2833011 	add	r3, r3, #17
    88c8:	e50b3074 	str	r3, [fp, #-116]	; 0xffffff8c
    88cc:	eaffff5e 	b	864c <__vsnprintf+0x530>
/home/rossierd/soo.tech/soo/optee_os/lib/libutils/ext/snprintk.c:460
    88d0:	e1a00003 	mov	r0, r3
    88d4:	e50b3070 	str	r3, [fp, #-112]	; 0xffffff90
    88d8:	ebfffd85 	bl	7ef4 <strlen>
    88dc:	e50b0058 	str	r0, [fp, #-88]	; 0xffffffa8
/home/rossierd/soo.tech/soo/optee_os/lib/libutils/ext/snprintk.c:285
    88e0:	e3a00000 	mov	r0, #0
    88e4:	e51b3070 	ldr	r3, [fp, #-112]	; 0xffffff90
/home/rossierd/soo.tech/soo/optee_os/lib/libutils/ext/snprintk.c:461
    88e8:	e1a08000 	mov	r8, r0
    88ec:	eaffff11 	b	8538 <__vsnprintf+0x41c>
/home/rossierd/soo.tech/soo/optee_os/lib/libutils/ext/snprintk.c:464
    88f0:	e3866010 	orr	r6, r6, #16
    88f4:	eafffeb6 	b	83d4 <__vsnprintf+0x2b8>
/home/rossierd/soo.tech/soo/optee_os/lib/libutils/ext/snprintk.c:467
    88f8:	e2168c01 	ands	r8, r6, #256	; 0x100
    88fc:	12827004 	addne	r7, r2, #4
    8900:	15924000 	ldrne	r4, [r2]
    8904:	1a00000e 	bne	8944 <__vsnprintf+0x828>
    8908:	e2163c02 	ands	r3, r6, #512	; 0x200
    890c:	12827004 	addne	r7, r2, #4
    8910:	1a000004 	bne	8928 <__vsnprintf+0x80c>
    8914:	e2168020 	ands	r8, r6, #32
    8918:	1afffeaf 	bne	83dc <__vsnprintf+0x2c0>
    891c:	e2163010 	ands	r3, r6, #16
    8920:	e2827004 	add	r7, r2, #4
    8924:	0a000003 	beq	8938 <__vsnprintf+0x81c>
    8928:	e5924000 	ldr	r4, [r2]
    892c:	e3a05000 	mov	r5, #0
/home/rossierd/soo.tech/soo/optee_os/lib/libutils/ext/snprintk.c:389
    8930:	e3a02001 	mov	r2, #1
    8934:	eaffff44 	b	864c <__vsnprintf+0x530>
/home/rossierd/soo.tech/soo/optee_os/lib/libutils/ext/snprintk.c:467
    8938:	e2168040 	ands	r8, r6, #64	; 0x40
    893c:	0afffff9 	beq	8928 <__vsnprintf+0x80c>
    8940:	e1d240b0 	ldrh	r4, [r2]
    8944:	e3a05000 	mov	r5, #0
    8948:	eafffea7 	b	83ec <__vsnprintf+0x2d0>
/home/rossierd/soo.tech/soo/optee_os/lib/libutils/ext/snprintk.c:474
    894c:	e51b3080 	ldr	r3, [fp, #-128]	; 0xffffff80
    8950:	eafffea9 	b	83fc <__vsnprintf+0x2e0>
/home/rossierd/soo.tech/soo/optee_os/lib/libutils/ext/snprintk.c:475
    8954:	e3160c01 	tst	r6, #256	; 0x100
    8958:	0a000002 	beq	8968 <__vsnprintf+0x84c>
    895c:	e2827004 	add	r7, r2, #4
    8960:	e5924000 	ldr	r4, [r2]
    8964:	ea000009 	b	8990 <__vsnprintf+0x874>
    8968:	e3160c02 	tst	r6, #512	; 0x200
    896c:	1afffffa 	bne	895c <__vsnprintf+0x840>
    8970:	e3160020 	tst	r6, #32
    8974:	1afffea3 	bne	8408 <__vsnprintf+0x2ec>
    8978:	e3160010 	tst	r6, #16
    897c:	e2827004 	add	r7, r2, #4
    8980:	1afffff6 	bne	8960 <__vsnprintf+0x844>
    8984:	e3160040 	tst	r6, #64	; 0x40
    8988:	11d240b0 	ldrhne	r4, [r2]
    898c:	0afffff3 	beq	8960 <__vsnprintf+0x844>
    8990:	e3a05000 	mov	r5, #0
    8994:	eafffe9f 	b	8418 <__vsnprintf+0x2fc>
/home/rossierd/soo.tech/soo/optee_os/lib/libutils/ext/snprintk.c:503
    8998:	e50b3070 	str	r3, [fp, #-112]	; 0xffffff90
    899c:	e51b3070 	ldr	r3, [fp, #-112]	; 0xffffff90
/home/rossierd/soo.tech/soo/optee_os/lib/libutils/ext/snprintk.c:516
    89a0:	e3550000 	cmp	r5, #0
    89a4:	03540009 	cmpeq	r4, #9
    89a8:	e2433001 	sub	r3, r3, #1
/home/rossierd/soo.tech/soo/optee_os/lib/libutils/ext/snprintk.c:520
    89ac:	951b2070 	ldrls	r2, [fp, #-112]	; 0xffffff90
    89b0:	92844030 	addls	r4, r4, #48	; 0x30
    89b4:	95424001 	strbls	r4, [r2, #-1]
    89b8:	9affff43 	bls	86cc <__vsnprintf+0x5b0>
/home/rossierd/soo.tech/soo/optee_os/lib/libutils/ext/snprintk.c:517
    89bc:	e1a00004 	mov	r0, r4
    89c0:	e1a01005 	mov	r1, r5
    89c4:	e50b3070 	str	r3, [fp, #-112]	; 0xffffff90
    89c8:	e3a0200a 	mov	r2, #10
    89cc:	e3a03000 	mov	r3, #0
    89d0:	ebfffd59 	bl	7f3c <__aeabi_uldivmod>
    89d4:	e51b3070 	ldr	r3, [fp, #-112]	; 0xffffff90
    89d8:	e2822030 	add	r2, r2, #48	; 0x30
/home/rossierd/soo.tech/soo/optee_os/lib/libutils/ext/snprintk.c:518
    89dc:	e1a00004 	mov	r0, r4
    89e0:	e1a01005 	mov	r1, r5
/home/rossierd/soo.tech/soo/optee_os/lib/libutils/ext/snprintk.c:517
    89e4:	e5c32000 	strb	r2, [r3]
/home/rossierd/soo.tech/soo/optee_os/lib/libutils/ext/snprintk.c:518
    89e8:	e3a0200a 	mov	r2, #10
    89ec:	e3a03000 	mov	r3, #0
    89f0:	ebfffd51 	bl	7f3c <__aeabi_uldivmod>
    89f4:	e1a04000 	mov	r4, r0
    89f8:	e1a05001 	mov	r5, r1
    89fc:	eaffffe6 	b	899c <__vsnprintf+0x880>
/home/rossierd/soo.tech/soo/optee_os/lib/libutils/ext/snprintk.c:525
    8a00:	e51b1074 	ldr	r1, [fp, #-116]	; 0xffffff8c
    8a04:	e204200f 	and	r2, r4, #15
    8a08:	e7d12002 	ldrb	r2, [r1, r2]
/home/rossierd/soo.tech/soo/optee_os/lib/libutils/ext/snprintk.c:526
    8a0c:	e1a01225 	lsr	r1, r5, #4
/home/rossierd/soo.tech/soo/optee_os/lib/libutils/ext/snprintk.c:525
    8a10:	e5632001 	strb	r2, [r3, #-1]!
/home/rossierd/soo.tech/soo/optee_os/lib/libutils/ext/snprintk.c:526
    8a14:	e1a02224 	lsr	r2, r4, #4
    8a18:	e1822e05 	orr	r2, r2, r5, lsl #28
    8a1c:	e1a05001 	mov	r5, r1
    8a20:	e1a04002 	mov	r4, r2
/home/rossierd/soo.tech/soo/optee_os/lib/libutils/ext/snprintk.c:527
    8a24:	e1942005 	orrs	r2, r4, r5
    8a28:	1afffff4 	bne	8a00 <__vsnprintf+0x8e4>
    8a2c:	eaffff26 	b	86cc <__vsnprintf+0x5b0>
/home/rossierd/soo.tech/soo/optee_os/lib/libutils/ext/snprintk.c:578
    8a30:	e35a0000 	cmp	sl, #0
    8a34:	0a000003 	beq	8a48 <__vsnprintf+0x92c>
    8a38:	e51b4068 	ldr	r4, [fp, #-104]	; 0xffffff98
    8a3c:	e154000a 	cmp	r4, sl
    8a40:	85cae000 	strbhi	lr, [sl]
    8a44:	828aa001 	addhi	sl, sl, #1
    8a48:	e2422001 	sub	r2, r2, #1
/home/rossierd/soo.tech/soo/optee_os/lib/libutils/ext/snprintk.c:577
    8a4c:	e3520000 	cmp	r2, #0
    8a50:	cafffff6 	bgt	8a30 <__vsnprintf+0x914>
    8a54:	eafffecc 	b	858c <__vsnprintf+0x470>
/home/rossierd/soo.tech/soo/optee_os/lib/libutils/ext/snprintk.c:583
    8a58:	e51b2068 	ldr	r2, [fp, #-104]	; 0xffffff98
    8a5c:	e152000a 	cmp	r2, sl
    8a60:	85ca8000 	strbhi	r8, [sl]
    8a64:	828aa001 	addhi	sl, sl, #1
    8a68:	eafffecc 	b	85a0 <__vsnprintf+0x484>
/home/rossierd/soo.tech/soo/optee_os/lib/libutils/ext/snprintk.c:584
    8a6c:	e3160002 	tst	r6, #2
    8a70:	0afffeca 	beq	85a0 <__vsnprintf+0x484>
/home/rossierd/soo.tech/soo/optee_os/lib/libutils/ext/snprintk.c:585
    8a74:	e35a0000 	cmp	sl, #0
    8a78:	0afffec7 	beq	859c <__vsnprintf+0x480>
    8a7c:	e51b2068 	ldr	r2, [fp, #-104]	; 0xffffff98
    8a80:	e152000a 	cmp	r2, sl
    8a84:	9afffec5 	bls	85a0 <__vsnprintf+0x484>
    8a88:	e3a02030 	mov	r2, #48	; 0x30
    8a8c:	e5ca2000 	strb	r2, [sl]
/home/rossierd/soo.tech/soo/optee_os/lib/libutils/ext/snprintk.c:586
    8a90:	e29a2001 	adds	r2, sl, #1
    8a94:	0afffec0 	beq	859c <__vsnprintf+0x480>
    8a98:	e51be068 	ldr	lr, [fp, #-104]	; 0xffffff98
    8a9c:	e15e0002 	cmp	lr, r2
    8aa0:	91a0a002 	movls	sl, r2
    8aa4:	85ca9001 	strbhi	r9, [sl, #1]
    8aa8:	828aa002 	addhi	sl, sl, #2
    8aac:	eafffebb 	b	85a0 <__vsnprintf+0x484>
/home/rossierd/soo.tech/soo/optee_os/lib/libutils/ext/snprintk.c:593
    8ab0:	e35a0000 	cmp	sl, #0
    8ab4:	0a000003 	beq	8ac8 <__vsnprintf+0x9ac>
    8ab8:	e51be068 	ldr	lr, [fp, #-104]	; 0xffffff98
    8abc:	e15e000a 	cmp	lr, sl
    8ac0:	85cac000 	strbhi	ip, [sl]
    8ac4:	828aa001 	addhi	sl, sl, #1
    8ac8:	e2422001 	sub	r2, r2, #1
/home/rossierd/soo.tech/soo/optee_os/lib/libutils/ext/snprintk.c:592
    8acc:	e3520000 	cmp	r2, #0
    8ad0:	cafffff6 	bgt	8ab0 <__vsnprintf+0x994>
    8ad4:	eafffeb6 	b	85b4 <__vsnprintf+0x498>
/home/rossierd/soo.tech/soo/optee_os/lib/libutils/ext/snprintk.c:599
    8ad8:	e35a0000 	cmp	sl, #0
    8adc:	0a000003 	beq	8af0 <__vsnprintf+0x9d4>
    8ae0:	e51bc068 	ldr	ip, [fp, #-104]	; 0xffffff98
    8ae4:	e15c000a 	cmp	ip, sl
    8ae8:	85ca2000 	strbhi	r2, [sl]
    8aec:	828aa001 	addhi	sl, sl, #1
    8af0:	e2400001 	sub	r0, r0, #1
    8af4:	eafffeb1 	b	85c0 <__vsnprintf+0x4a4>
/home/rossierd/soo.tech/soo/optee_os/lib/libutils/ext/snprintk.c:603
    8af8:	e35a0000 	cmp	sl, #0
    8afc:	0a000004 	beq	8b14 <__vsnprintf+0x9f8>
    8b00:	e51b0068 	ldr	r0, [fp, #-104]	; 0xffffff98
    8b04:	e150000a 	cmp	r0, sl
    8b08:	85d30000 	ldrbhi	r0, [r3]
    8b0c:	85ca0000 	strbhi	r0, [sl]
    8b10:	828aa001 	addhi	sl, sl, #1
/home/rossierd/soo.tech/soo/optee_os/lib/libutils/ext/snprintk.c:602
    8b14:	e2833001 	add	r3, r3, #1
    8b18:	eafffeac 	b	85d0 <__vsnprintf+0x4b4>
__vsnprintf():
/home/rossierd/soo.tech/soo/optee_os/lib/libutils/ext/snprintk.c:143
    8b1c:	e51b2078 	ldr	r2, [fp, #-120]	; 0xffffff88
    8b20:	e51b306c 	ldr	r3, [fp, #-108]	; 0xffffff94
    8b24:	e3530000 	cmp	r3, #0
    8b28:	13520000 	cmpne	r2, #0
    8b2c:	0a000009 	beq	8b58 <__vsnprintf+0xa3c>
/home/rossierd/soo.tech/soo/optee_os/lib/libutils/ext/snprintk.c:145
    8b30:	e1a03002 	mov	r3, r2
    8b34:	e51b2060 	ldr	r2, [fp, #-96]	; 0xffffffa0
    8b38:	e1530002 	cmp	r3, r2
/home/rossierd/soo.tech/soo/optee_os/lib/libutils/ext/snprintk.c:146
    8b3c:	e51b306c 	ldr	r3, [fp, #-108]	; 0xffffff94
    8b40:	e3a02000 	mov	r2, #0
    8b44:	951b1078 	ldrls	r1, [fp, #-120]	; 0xffffff88
/home/rossierd/soo.tech/soo/optee_os/lib/libutils/ext/snprintk.c:148
    8b48:	851b1060 	ldrhi	r1, [fp, #-96]	; 0xffffffa0
/home/rossierd/soo.tech/soo/optee_os/lib/libutils/ext/snprintk.c:146
    8b4c:	90833001 	addls	r3, r3, r1
/home/rossierd/soo.tech/soo/optee_os/lib/libutils/ext/snprintk.c:148
    8b50:	87c32001 	strbhi	r2, [r3, r1]
/home/rossierd/soo.tech/soo/optee_os/lib/libutils/ext/snprintk.c:146
    8b54:	95432001 	strbls	r2, [r3, #-1]
/home/rossierd/soo.tech/soo/optee_os/lib/libutils/ext/snprintk.c:151
    8b58:	e51b0060 	ldr	r0, [fp, #-96]	; 0xffffffa0
    8b5c:	e24bd028 	sub	sp, fp, #40	; 0x28
    8b60:	e89daff0 	ldm	sp, {r4, r5, r6, r7, r8, r9, sl, fp, sp, pc}
    8b64:	00001dbf 	.word	0x00001dbf
    8b68:	00001bc1 	.word	0x00001bc1
    8b6c:	00001b17 	.word	0x00001b17
    8b70:	000016b4 	.word	0x000016b4
    8b74:	0000164f 	.word	0x0000164f

00008b78 <vsnprintk>:
vsnprintk():
/home/rossierd/soo.tech/soo/optee_os/lib/libutils/ext/snprintk.c:129
    8b78:	e1a0c00d 	mov	ip, sp
    8b7c:	e92dd800 	push	{fp, ip, lr, pc}
    8b80:	e24cb004 	sub	fp, ip, #4
    8b84:	e24dd008 	sub	sp, sp, #8
/home/rossierd/soo.tech/soo/optee_os/lib/libutils/ext/snprintk.c:130
    8b88:	e3a0c001 	mov	ip, #1
    8b8c:	e58dc000 	str	ip, [sp]
    8b90:	ebfffd61 	bl	811c <__vsnprintf>
/home/rossierd/soo.tech/soo/optee_os/lib/libutils/ext/snprintk.c:131
    8b94:	e24bd00c 	sub	sp, fp, #12
    8b98:	e89da800 	ldm	sp, {fp, sp, pc}

00008b9c <snprintk>:
snprintk():
/home/rossierd/soo.tech/soo/optee_os/lib/libutils/ext/snprintk.c:112
    8b9c:	e1a0c00d 	mov	ip, sp
    8ba0:	e92d000c 	push	{r2, r3}
    8ba4:	e92dd800 	push	{fp, ip, lr, pc}
    8ba8:	e24cb00c 	sub	fp, ip, #12
    8bac:	e24dd008 	sub	sp, sp, #8
/home/rossierd/soo.tech/soo/optee_os/lib/libutils/ext/snprintk.c:116
    8bb0:	e28b3008 	add	r3, fp, #8
/home/rossierd/soo.tech/soo/optee_os/lib/libutils/ext/snprintk.c:117
    8bb4:	e59b2004 	ldr	r2, [fp, #4]
/home/rossierd/soo.tech/soo/optee_os/lib/libutils/ext/snprintk.c:116
    8bb8:	e50b3010 	str	r3, [fp, #-16]
/home/rossierd/soo.tech/soo/optee_os/lib/libutils/ext/snprintk.c:117
    8bbc:	ebffffed 	bl	8b78 <vsnprintk>
/home/rossierd/soo.tech/soo/optee_os/lib/libutils/ext/snprintk.c:121
    8bc0:	e24bd00c 	sub	sp, fp, #12
    8bc4:	e89da800 	ldm	sp, {fp, sp, pc}

00008bc8 <trace_set_level>:
trace_set_level():
/home/rossierd/soo.tech/soo/optee_os/lib/libutils/ext/trace.c:25
    8bc8:	e59f3028 	ldr	r3, [pc, #40]	; 8bf8 <trace_set_level+0x30>
    8bcc:	e1a0c00d 	mov	ip, sp
/home/rossierd/soo.tech/soo/optee_os/lib/libutils/ext/trace.c:26
    8bd0:	e3500004 	cmp	r0, #4
    8bd4:	e59f2020 	ldr	r2, [pc, #32]	; 8bfc <trace_set_level+0x34>
/home/rossierd/soo.tech/soo/optee_os/lib/libutils/ext/trace.c:25
    8bd8:	e92dd800 	push	{fp, ip, lr, pc}
    8bdc:	e24cb004 	sub	fp, ip, #4
    8be0:	e08f3003 	add	r3, pc, r3
    8be4:	e7933002 	ldr	r3, [r3, r2]
/home/rossierd/soo.tech/soo/optee_os/lib/libutils/ext/trace.c:29
    8be8:	83a02004 	movhi	r2, #4
/home/rossierd/soo.tech/soo/optee_os/lib/libutils/ext/trace.c:27
    8bec:	95830000 	strls	r0, [r3]
/home/rossierd/soo.tech/soo/optee_os/lib/libutils/ext/trace.c:29
    8bf0:	85832000 	strhi	r2, [r3]
    8bf4:	e89da800 	ldm	sp, {fp, sp, pc}
    8bf8:	00003498 	.word	0x00003498
    8bfc:	00000010 	.word	0x00000010

00008c00 <trace_get_level>:
trace_get_level():
/home/rossierd/soo.tech/soo/optee_os/lib/libutils/ext/trace.c:33
    8c00:	e59f301c 	ldr	r3, [pc, #28]	; 8c24 <trace_get_level+0x24>
    8c04:	e1a0c00d 	mov	ip, sp
/home/rossierd/soo.tech/soo/optee_os/lib/libutils/ext/trace.c:34
    8c08:	e59f2018 	ldr	r2, [pc, #24]	; 8c28 <trace_get_level+0x28>
/home/rossierd/soo.tech/soo/optee_os/lib/libutils/ext/trace.c:33
    8c0c:	e92dd800 	push	{fp, ip, lr, pc}
    8c10:	e24cb004 	sub	fp, ip, #4
    8c14:	e08f3003 	add	r3, pc, r3
/home/rossierd/soo.tech/soo/optee_os/lib/libutils/ext/trace.c:34
    8c18:	e7933002 	ldr	r3, [r3, r2]
/home/rossierd/soo.tech/soo/optee_os/lib/libutils/ext/trace.c:35
    8c1c:	e5930000 	ldr	r0, [r3]
    8c20:	e89da800 	ldm	sp, {fp, sp, pc}
    8c24:	00003464 	.word	0x00003464
    8c28:	00000010 	.word	0x00000010

00008c2c <trace_vprintf>:
trace_vprintf():
/home/rossierd/soo.tech/soo/optee_os/lib/libutils/ext/trace.c:106
    8c2c:	e1a0c00d 	mov	ip, sp
    8c30:	e92ddff0 	push	{r4, r5, r6, r7, r8, r9, sl, fp, ip, lr, pc}
    8c34:	e24cb004 	sub	fp, ip, #4
    8c38:	e59fa1d4 	ldr	sl, [pc, #468]	; 8e14 <trace_vprintf+0x1e8>
    8c3c:	e24ddf45 	sub	sp, sp, #276	; 0x114
/home/rossierd/soo.tech/soo/optee_os/lib/libutils/ext/trace.c:111
    8c40:	e2539000 	subs	r9, r3, #0
/home/rossierd/soo.tech/soo/optee_os/lib/libutils/ext/trace.c:106
    8c44:	e1a07000 	mov	r7, r0
    8c48:	e1a08001 	mov	r8, r1
    8c4c:	e1a04002 	mov	r4, r2
    8c50:	e08fa00a 	add	sl, pc, sl
/home/rossierd/soo.tech/soo/optee_os/lib/libutils/ext/trace.c:111
    8c54:	0a000040 	beq	8d5c <trace_vprintf+0x130>
/home/rossierd/soo.tech/soo/optee_os/lib/libutils/ext/trace.c:111 (discriminator 1)
    8c58:	e59f31b8 	ldr	r3, [pc, #440]	; 8e18 <trace_vprintf+0x1ec>
    8c5c:	e79a3003 	ldr	r3, [sl, r3]
    8c60:	e5933000 	ldr	r3, [r3]
    8c64:	e1530002 	cmp	r3, r2
    8c68:	ba000039 	blt	8d54 <trace_vprintf+0x128>
trace_level_to_string():
/home/rossierd/soo.tech/soo/optee_os/lib/libutils/ext/trace.c:52
    8c6c:	e3520004 	cmp	r2, #4
    8c70:	91a03002 	movls	r3, r2
/home/rossierd/soo.tech/soo/optee_os/lib/libutils/ext/trace.c:55
    8c74:	e59f21a0 	ldr	r2, [pc, #416]	; 8e1c <trace_vprintf+0x1f0>
/home/rossierd/soo.tech/soo/optee_os/lib/libutils/ext/trace.c:52
    8c78:	83a03000 	movhi	r3, #0
/home/rossierd/soo.tech/soo/optee_os/lib/libutils/ext/trace.c:55
    8c7c:	e08f2002 	add	r2, pc, r2
    8c80:	e7d23003 	ldrb	r3, [r2, r3]
trace_vprintf():
/home/rossierd/soo.tech/soo/optee_os/lib/libutils/ext/trace.c:115
    8c84:	e59f2194 	ldr	r2, [pc, #404]	; 8e20 <trace_vprintf+0x1f4>
    8c88:	e24b6f4b 	sub	r6, fp, #300	; 0x12c
    8c8c:	e3a01c01 	mov	r1, #256	; 0x100
    8c90:	e1a00006 	mov	r0, r6
    8c94:	e08f2002 	add	r2, pc, r2
    8c98:	ebffffbf 	bl	8b9c <snprintk>
/home/rossierd/soo.tech/soo/optee_os/lib/libutils/ext/trace.c:117
    8c9c:	e2505000 	subs	r5, r0, #0
    8ca0:	ba00002b 	blt	8d54 <trace_vprintf+0x128>
/home/rossierd/soo.tech/soo/optee_os/lib/libutils/ext/trace.c:122
    8ca4:	e59f3178 	ldr	r3, [pc, #376]	; 8e24 <trace_vprintf+0x1f8>
    8ca8:	e2651c01 	rsb	r1, r5, #256	; 0x100
    8cac:	e0860005 	add	r0, r6, r5
    8cb0:	e59f2170 	ldr	r2, [pc, #368]	; 8e28 <trace_vprintf+0x1fc>
    8cb4:	e79a3003 	ldr	r3, [sl, r3]
    8cb8:	e08f2002 	add	r2, pc, r2
    8cbc:	e50b3130 	str	r3, [fp, #-304]	; 0xfffffed0
    8cc0:	ebffffb5 	bl	8b9c <snprintk>
/home/rossierd/soo.tech/soo/optee_os/lib/libutils/ext/trace.c:124
    8cc4:	e3500000 	cmp	r0, #0
    8cc8:	ba000021 	blt	8d54 <trace_vprintf+0x128>
/home/rossierd/soo.tech/soo/optee_os/lib/libutils/ext/trace.c:128
    8ccc:	e3590000 	cmp	r9, #0
/home/rossierd/soo.tech/soo/optee_os/lib/libutils/ext/trace.c:126
    8cd0:	e0805005 	add	r5, r0, r5
/home/rossierd/soo.tech/soo/optee_os/lib/libutils/ext/trace.c:128
    8cd4:	0a000029 	beq	8d80 <trace_vprintf+0x154>
/home/rossierd/soo.tech/soo/optee_os/lib/libutils/ext/trace.c:128 (discriminator 1)
    8cd8:	e3a0301a 	mov	r3, #26
    8cdc:	e1a04433 	lsr	r4, r3, r4
    8ce0:	e3140001 	tst	r4, #1
    8ce4:	0a000025 	beq	8d80 <trace_vprintf+0x154>
print_thread_id():
/home/rossierd/soo.tech/soo/optee_os/lib/libutils/ext/trace.c:65
    8ce8:	ebffe906 	bl	3108 <trace_ext_get_thread_id>
/home/rossierd/soo.tech/soo/optee_os/lib/libutils/ext/trace.c:67
    8cec:	e3500000 	cmp	r0, #0
trace_vprintf():
/home/rossierd/soo.tech/soo/optee_os/lib/libutils/ext/trace.c:130
    8cf0:	e0864005 	add	r4, r6, r5
    8cf4:	e2659c01 	rsb	r9, r5, #256	; 0x100
print_thread_id():
/home/rossierd/soo.tech/soo/optee_os/lib/libutils/ext/trace.c:67
    8cf8:	ba000019 	blt	8d64 <trace_vprintf+0x138>
/home/rossierd/soo.tech/soo/optee_os/lib/libutils/ext/trace.c:68
    8cfc:	e59f2128 	ldr	r2, [pc, #296]	; 8e2c <trace_vprintf+0x200>
    8d00:	e3a03001 	mov	r3, #1
    8d04:	e58d0000 	str	r0, [sp]
    8d08:	e08f2002 	add	r2, pc, r2
/home/rossierd/soo.tech/soo/optee_os/lib/libutils/ext/trace.c:70
    8d0c:	e1a01009 	mov	r1, r9
    8d10:	e1a00004 	mov	r0, r4
    8d14:	ebffffa0 	bl	8b9c <snprintk>
trace_vprintf():
/home/rossierd/soo.tech/soo/optee_os/lib/libutils/ext/trace.c:137
    8d18:	e3500000 	cmp	r0, #0
    8d1c:	ba00000c 	blt	8d54 <trace_vprintf+0x128>
/home/rossierd/soo.tech/soo/optee_os/lib/libutils/ext/trace.c:141
    8d20:	e3570000 	cmp	r7, #0
/home/rossierd/soo.tech/soo/optee_os/lib/libutils/ext/trace.c:139
    8d24:	e0804005 	add	r4, r0, r5
/home/rossierd/soo.tech/soo/optee_os/lib/libutils/ext/trace.c:141
    8d28:	0a00001f 	beq	8dac <trace_vprintf+0x180>
/home/rossierd/soo.tech/soo/optee_os/lib/libutils/ext/trace.c:142
    8d2c:	e59f20fc 	ldr	r2, [pc, #252]	; 8e30 <trace_vprintf+0x204>
    8d30:	e2641c01 	rsb	r1, r4, #256	; 0x100
    8d34:	e0860004 	add	r0, r6, r4
    8d38:	e1a03007 	mov	r3, r7
    8d3c:	e58d8000 	str	r8, [sp]
    8d40:	e08f2002 	add	r2, pc, r2
    8d44:	ebffff94 	bl	8b9c <snprintk>
/home/rossierd/soo.tech/soo/optee_os/lib/libutils/ext/trace.c:144
    8d48:	e3500000 	cmp	r0, #0
/home/rossierd/soo.tech/soo/optee_os/lib/libutils/ext/trace.c:146
    8d4c:	a0844000 	addge	r4, r4, r0
/home/rossierd/soo.tech/soo/optee_os/lib/libutils/ext/trace.c:144
    8d50:	aa000015 	bge	8dac <trace_vprintf+0x180>
/home/rossierd/soo.tech/soo/optee_os/lib/libutils/ext/trace.c:170
    8d54:	e24bd028 	sub	sp, fp, #40	; 0x28
    8d58:	e89daff0 	ldm	sp, {r4, r5, r6, r7, r8, r9, sl, fp, sp, pc}
trace_level_to_string():
/home/rossierd/soo.tech/soo/optee_os/lib/libutils/ext/trace.c:50
    8d5c:	e3a0304d 	mov	r3, #77	; 0x4d
    8d60:	eaffffc7 	b	8c84 <trace_vprintf+0x58>
print_thread_id():
/home/rossierd/soo.tech/soo/optee_os/lib/libutils/ext/trace.c:70
    8d64:	e59f30c8 	ldr	r3, [pc, #200]	; 8e34 <trace_vprintf+0x208>
    8d68:	e59f20c8 	ldr	r2, [pc, #200]	; 8e38 <trace_vprintf+0x20c>
    8d6c:	e08f3003 	add	r3, pc, r3
    8d70:	e08f2002 	add	r2, pc, r2
    8d74:	e58d3000 	str	r3, [sp]
    8d78:	e3a03001 	mov	r3, #1
    8d7c:	eaffffe2 	b	8d0c <trace_vprintf+0xe0>
trace_vprintf():
/home/rossierd/soo.tech/soo/optee_os/lib/libutils/ext/trace.c:150
    8d80:	e35500fe 	cmp	r5, #254	; 0xfe
    8d84:	8afffff2 	bhi	8d54 <trace_vprintf+0x128>
/home/rossierd/soo.tech/soo/optee_os/lib/libutils/ext/trace.c:152
    8d88:	e24b302c 	sub	r3, fp, #44	; 0x2c
    8d8c:	e2854001 	add	r4, r5, #1
    8d90:	e0830005 	add	r0, r3, r5
    8d94:	e3a03020 	mov	r3, #32
/home/rossierd/soo.tech/soo/optee_os/lib/libutils/ext/trace.c:153
    8d98:	e3a02000 	mov	r2, #0
/home/rossierd/soo.tech/soo/optee_os/lib/libutils/ext/trace.c:152
    8d9c:	e5403100 	strb	r3, [r0, #-256]	; 0xffffff00
/home/rossierd/soo.tech/soo/optee_os/lib/libutils/ext/trace.c:153
    8da0:	e24b302c 	sub	r3, fp, #44	; 0x2c
    8da4:	e0833004 	add	r3, r3, r4
    8da8:	e5432100 	strb	r2, [r3, #-256]	; 0xffffff00
/home/rossierd/soo.tech/soo/optee_os/lib/libutils/ext/trace.c:156
    8dac:	e2641c01 	rsb	r1, r4, #256	; 0x100
    8db0:	e0860004 	add	r0, r6, r4
    8db4:	e99b000c 	ldmib	fp, {r2, r3}
    8db8:	ebffff6e 	bl	8b78 <vsnprintk>
/home/rossierd/soo.tech/soo/optee_os/lib/libutils/ext/trace.c:157
    8dbc:	e3500000 	cmp	r0, #0
/home/rossierd/soo.tech/soo/optee_os/lib/libutils/ext/trace.c:163
    8dc0:	e24b302c 	sub	r3, fp, #44	; 0x2c
/home/rossierd/soo.tech/soo/optee_os/lib/libutils/ext/trace.c:158
    8dc4:	c0844000 	addgt	r4, r4, r0
/home/rossierd/soo.tech/soo/optee_os/lib/libutils/ext/trace.c:163
    8dc8:	e3a0200a 	mov	r2, #10
    8dcc:	e35400fe 	cmp	r4, #254	; 0xfe
    8dd0:	23a040fe 	movcs	r4, #254	; 0xfe
    8dd4:	e0833004 	add	r3, r3, r4
    8dd8:	e5432100 	strb	r2, [r3, #-256]	; 0xffffff00
/home/rossierd/soo.tech/soo/optee_os/lib/libutils/ext/trace.c:164
    8ddc:	e3540000 	cmp	r4, #0
    8de0:	0a000002 	beq	8df0 <trace_vprintf+0x1c4>
/home/rossierd/soo.tech/soo/optee_os/lib/libutils/ext/trace.c:164 (discriminator 1)
    8de4:	e7d63004 	ldrb	r3, [r6, r4]
    8de8:	e353000a 	cmp	r3, #10
    8dec:	0a000006 	beq	8e0c <trace_vprintf+0x1e0>
/home/rossierd/soo.tech/soo/optee_os/lib/libutils/ext/trace.c:167
    8df0:	e24b302c 	sub	r3, fp, #44	; 0x2c
/home/rossierd/soo.tech/soo/optee_os/lib/libutils/ext/trace.c:169
    8df4:	e1a00006 	mov	r0, r6
/home/rossierd/soo.tech/soo/optee_os/lib/libutils/ext/trace.c:167
    8df8:	e0834004 	add	r4, r3, r4
    8dfc:	e3a03000 	mov	r3, #0
    8e00:	e54430fe 	strb	r3, [r4, #-254]	; 0xffffff02
/home/rossierd/soo.tech/soo/optee_os/lib/libutils/ext/trace.c:169
    8e04:	ebffe8b5 	bl	30e0 <trace_ext_puts>
    8e08:	eaffffd1 	b	8d54 <trace_vprintf+0x128>
/home/rossierd/soo.tech/soo/optee_os/lib/libutils/ext/trace.c:165
    8e0c:	e2444001 	sub	r4, r4, #1
    8e10:	eafffff1 	b	8ddc <trace_vprintf+0x1b0>
    8e14:	00003428 	.word	0x00003428
    8e18:	00000010 	.word	0x00000010
    8e1c:	000012ed 	.word	0x000012ed
    8e20:	000012da 	.word	0x000012da
    8e24:	00000014 	.word	0x00000014
    8e28:	000012ba 	.word	0x000012ba
    8e2c:	0000126e 	.word	0x0000126e
    8e30:	00001241 	.word	0x00001241
    8e34:	00000ea6 	.word	0x00000ea6
    8e38:	0000120c 	.word	0x0000120c

00008e3c <trace_printf>:
trace_printf():
/home/rossierd/soo.tech/soo/optee_os/lib/libutils/ext/trace.c:97
    8e3c:	e1a0c00d 	mov	ip, sp
    8e40:	e92dd800 	push	{fp, ip, lr, pc}
    8e44:	e24cb004 	sub	fp, ip, #4
    8e48:	e24dd010 	sub	sp, sp, #16
/home/rossierd/soo.tech/soo/optee_os/lib/libutils/ext/trace.c:100
    8e4c:	e28bc008 	add	ip, fp, #8
    8e50:	e50bc010 	str	ip, [fp, #-16]
/home/rossierd/soo.tech/soo/optee_os/lib/libutils/ext/trace.c:101
    8e54:	e58dc004 	str	ip, [sp, #4]
    8e58:	e59bc004 	ldr	ip, [fp, #4]
    8e5c:	e58dc000 	str	ip, [sp]
    8e60:	ebffff71 	bl	8c2c <trace_vprintf>
/home/rossierd/soo.tech/soo/optee_os/lib/libutils/ext/trace.c:103
    8e64:	e24bd00c 	sub	sp, fp, #12
    8e68:	e89da800 	ldm	sp, {fp, sp, pc}

00008e6c <dhex_dump>:
dhex_dump():
/home/rossierd/soo.tech/soo/optee_os/lib/libutils/ext/trace.c:279
    8e6c:	e1a0c00d 	mov	ip, sp
    8e70:	e92dd800 	push	{fp, ip, lr, pc}
    8e74:	e24cb004 	sub	fp, ip, #4
    8e78:	e89da800 	ldm	sp, {fp, sp, pc}

00008e7c <mempool_alloc_pool>:
mempool_alloc_pool():
/home/rossierd/soo.tech/soo/optee_os/lib/libutils/ext/mempool.c:133
    8e7c:	e1a0c00d 	mov	ip, sp
    8e80:	e92dd830 	push	{r4, r5, fp, ip, lr, pc}
    8e84:	e1a04000 	mov	r4, r0
    8e88:	e24cb004 	sub	fp, ip, #4
    8e8c:	e1a05001 	mov	r5, r1
/home/rossierd/soo.tech/soo/optee_os/lib/libutils/ext/mempool.c:134
    8e90:	e3a00001 	mov	r0, #1
    8e94:	e3a0100c 	mov	r1, #12
    8e98:	ebfffaca 	bl	79c8 <calloc>
/home/rossierd/soo.tech/soo/optee_os/lib/libutils/ext/mempool.c:137
    8e9c:	e3140003 	tst	r4, #3
    8ea0:	0a000008 	beq	8ec8 <mempool_alloc_pool+0x4c>
/home/rossierd/soo.tech/soo/optee_os/lib/libutils/ext/mempool.c:137 (discriminator 1)
    8ea4:	e59f3030 	ldr	r3, [pc, #48]	; 8edc <mempool_alloc_pool+0x60>
    8ea8:	e3a02089 	mov	r2, #137	; 0x89
    8eac:	e59f102c 	ldr	r1, [pc, #44]	; 8ee0 <mempool_alloc_pool+0x64>
    8eb0:	e59f002c 	ldr	r0, [pc, #44]	; 8ee4 <mempool_alloc_pool+0x68>
    8eb4:	e08f3003 	add	r3, pc, r3
    8eb8:	e08f1001 	add	r1, pc, r1
    8ebc:	e08f0000 	add	r0, pc, r0
    8ec0:	eb00008f 	bl	9104 <_assert_log>
    8ec4:	eb00009e 	bl	9144 <_assert_break>
/home/rossierd/soo.tech/soo/optee_os/lib/libutils/ext/mempool.c:139
    8ec8:	e3500000 	cmp	r0, #0
/home/rossierd/soo.tech/soo/optee_os/lib/libutils/ext/mempool.c:142
    8ecc:	13e03000 	mvnne	r3, #0
/home/rossierd/soo.tech/soo/optee_os/lib/libutils/ext/mempool.c:140
    8ed0:	15805000 	strne	r5, [r0]
/home/rossierd/soo.tech/soo/optee_os/lib/libutils/ext/mempool.c:141
    8ed4:	19800018 	stmibne	r0, {r3, r4}
/home/rossierd/soo.tech/soo/optee_os/lib/libutils/ext/mempool.c:152
    8ed8:	e89da830 	ldm	sp, {r4, r5, fp, sp, pc}
    8edc:	000010d4 	.word	0x000010d4
    8ee0:	000010f1 	.word	0x000010f1
    8ee4:	00001108 	.word	0x00001108

00008ee8 <mempool_alloc>:
mempool_alloc():
/home/rossierd/soo.tech/soo/optee_os/lib/libutils/ext/mempool.c:155
    8ee8:	e1a0c00d 	mov	ip, sp
    8eec:	e92dd810 	push	{r4, fp, ip, lr, pc}
    8ef0:	e24cb004 	sub	fp, ip, #4
    8ef4:	e24dd00c 	sub	sp, sp, #12
/home/rossierd/soo.tech/soo/optee_os/lib/libutils/ext/mempool.c:162
    8ef8:	e8901004 	ldm	r0, {r2, ip}
    8efc:	e35c0000 	cmp	ip, #0
    8f00:	ba000014 	blt	8f58 <mempool_alloc+0x70>
/home/rossierd/soo.tech/soo/optee_os/lib/libutils/ext/mempool.c:165
    8f04:	e5904008 	ldr	r4, [r0, #8]
/home/rossierd/soo.tech/soo/optee_os/lib/libutils/ext/mempool.c:169
    8f08:	e28c3003 	add	r3, ip, #3
/home/rossierd/soo.tech/soo/optee_os/lib/libutils/ext/mempool.c:165
    8f0c:	e08ce004 	add	lr, ip, r4
/home/rossierd/soo.tech/soo/optee_os/lib/libutils/ext/mempool.c:169
    8f10:	e79c4004 	ldr	r4, [ip, r4]
    8f14:	e0833004 	add	r3, r3, r4
    8f18:	e3c33003 	bic	r3, r3, #3
/home/rossierd/soo.tech/soo/optee_os/lib/libutils/ext/mempool.c:170
    8f1c:	e1530002 	cmp	r3, r2
    8f20:	9a00000e 	bls	8f60 <mempool_alloc+0x78>
/home/rossierd/soo.tech/soo/optee_os/lib/libutils/ext/mempool.c:197
    8f24:	e59f3078 	ldr	r3, [pc, #120]	; 8fa4 <mempool_alloc+0xbc>
    8f28:	e58d1004 	str	r1, [sp, #4]
    8f2c:	e3a010c5 	mov	r1, #197	; 0xc5
    8f30:	e59f0070 	ldr	r0, [pc, #112]	; 8fa8 <mempool_alloc+0xc0>
    8f34:	e08f3003 	add	r3, pc, r3
    8f38:	e08f0000 	add	r0, pc, r0
    8f3c:	e58d3000 	str	r3, [sp]
    8f40:	e3a03001 	mov	r3, #1
    8f44:	e2800013 	add	r0, r0, #19
    8f48:	e1a02003 	mov	r2, r3
    8f4c:	ebffffba 	bl	8e3c <trace_printf>
/home/rossierd/soo.tech/soo/optee_os/lib/libutils/ext/mempool.c:199
    8f50:	e3a00000 	mov	r0, #0
    8f54:	ea000010 	b	8f9c <mempool_alloc+0xb4>
/home/rossierd/soo.tech/soo/optee_os/lib/libutils/ext/mempool.c:158
    8f58:	e3a0e000 	mov	lr, #0
/home/rossierd/soo.tech/soo/optee_os/lib/libutils/ext/mempool.c:163
    8f5c:	e1a0300e 	mov	r3, lr
/home/rossierd/soo.tech/soo/optee_os/lib/libutils/ext/mempool.c:175
    8f60:	e281100f 	add	r1, r1, #15
    8f64:	e3c11003 	bic	r1, r1, #3
/home/rossierd/soo.tech/soo/optee_os/lib/libutils/ext/mempool.c:176
    8f68:	e0834001 	add	r4, r3, r1
    8f6c:	e1540002 	cmp	r4, r2
    8f70:	8affffeb 	bhi	8f24 <mempool_alloc+0x3c>
/home/rossierd/soo.tech/soo/optee_os/lib/libutils/ext/mempool.c:179
    8f74:	e5904008 	ldr	r4, [r0, #8]
/home/rossierd/soo.tech/soo/optee_os/lib/libutils/ext/mempool.c:182
    8f78:	e35e0000 	cmp	lr, #0
/home/rossierd/soo.tech/soo/optee_os/lib/libutils/ext/mempool.c:180
    8f7c:	e7831004 	str	r1, [r3, r4]
/home/rossierd/soo.tech/soo/optee_os/lib/libutils/ext/mempool.c:179
    8f80:	e0832004 	add	r2, r3, r4
/home/rossierd/soo.tech/soo/optee_os/lib/libutils/ext/mempool.c:184
    8f84:	e3e01000 	mvn	r1, #0
/home/rossierd/soo.tech/soo/optee_os/lib/libutils/ext/mempool.c:181
    8f88:	e582c004 	str	ip, [r2, #4]
/home/rossierd/soo.tech/soo/optee_os/lib/libutils/ext/mempool.c:183
    8f8c:	158e3008 	strne	r3, [lr, #8]
/home/rossierd/soo.tech/soo/optee_os/lib/libutils/ext/mempool.c:184
    8f90:	e5821008 	str	r1, [r2, #8]
/home/rossierd/soo.tech/soo/optee_os/lib/libutils/ext/mempool.c:185
    8f94:	e5803004 	str	r3, [r0, #4]
/home/rossierd/soo.tech/soo/optee_os/lib/libutils/ext/mempool.c:194
    8f98:	e282000c 	add	r0, r2, #12
/home/rossierd/soo.tech/soo/optee_os/lib/libutils/ext/mempool.c:200
    8f9c:	e24bd010 	sub	sp, fp, #16
    8fa0:	e89da810 	ldm	sp, {r4, fp, sp, pc}
    8fa4:	000010b7 	.word	0x000010b7
    8fa8:	00001050 	.word	0x00001050

00008fac <mempool_calloc>:
mempool_calloc():
/home/rossierd/soo.tech/soo/optee_os/lib/libutils/ext/mempool.c:203
    8fac:	e1a0c00d 	mov	ip, sp
    8fb0:	e92dd8f0 	push	{r4, r5, r6, r7, fp, ip, lr, pc}
/home/rossierd/soo.tech/soo/optee_os/lib/libutils/ext/mempool.c:207
    8fb4:	e0854291 	umull	r4, r5, r1, r2
/home/rossierd/soo.tech/soo/optee_os/lib/libutils/ext/mempool.c:203
    8fb8:	e24cb004 	sub	fp, ip, #4
/home/rossierd/soo.tech/soo/optee_os/lib/libutils/ext/mempool.c:207
    8fbc:	e3550000 	cmp	r5, #0
/home/rossierd/soo.tech/soo/optee_os/lib/libutils/ext/mempool.c:208
    8fc0:	13a06000 	movne	r6, #0
/home/rossierd/soo.tech/soo/optee_os/lib/libutils/ext/mempool.c:207
    8fc4:	1a000003 	bne	8fd8 <mempool_calloc+0x2c>
/home/rossierd/soo.tech/soo/optee_os/lib/libutils/ext/mempool.c:210
    8fc8:	e1a01004 	mov	r1, r4
    8fcc:	ebffffc5 	bl	8ee8 <mempool_alloc>
/home/rossierd/soo.tech/soo/optee_os/lib/libutils/ext/mempool.c:211
    8fd0:	e2506000 	subs	r6, r0, #0
    8fd4:	1a000001 	bne	8fe0 <mempool_calloc+0x34>
/home/rossierd/soo.tech/soo/optee_os/lib/libutils/ext/mempool.c:215
    8fd8:	e1a00006 	mov	r0, r6
    8fdc:	e89da8f0 	ldm	sp, {r4, r5, r6, r7, fp, sp, pc}
/home/rossierd/soo.tech/soo/optee_os/lib/libutils/ext/mempool.c:212
    8fe0:	e1a02004 	mov	r2, r4
    8fe4:	e1a01005 	mov	r1, r5
    8fe8:	ebfffbb7 	bl	7ecc <memset>
    8fec:	eafffff9 	b	8fd8 <mempool_calloc+0x2c>

00008ff0 <mempool_free>:
mempool_free():
/home/rossierd/soo.tech/soo/optee_os/lib/libutils/ext/mempool.c:218
    8ff0:	e1a0c00d 	mov	ip, sp
/home/rossierd/soo.tech/soo/optee_os/lib/libutils/ext/mempool.c:224
    8ff4:	e3510000 	cmp	r1, #0
/home/rossierd/soo.tech/soo/optee_os/lib/libutils/ext/mempool.c:218
    8ff8:	e92dd800 	push	{fp, ip, lr, pc}
    8ffc:	e24cb004 	sub	fp, ip, #4
/home/rossierd/soo.tech/soo/optee_os/lib/libutils/ext/mempool.c:224
    9000:	089da800 	ldmeq	sp, {fp, sp, pc}
/home/rossierd/soo.tech/soo/optee_os/lib/libutils/ext/mempool.c:227
    9004:	e241100c 	sub	r1, r1, #12
/home/rossierd/soo.tech/soo/optee_os/lib/libutils/ext/mempool.c:229
    9008:	e5913004 	ldr	r3, [r1, #4]
    900c:	e3530000 	cmp	r3, #0
/home/rossierd/soo.tech/soo/optee_os/lib/libutils/ext/mempool.c:232
    9010:	a5902008 	ldrge	r2, [r0, #8]
/home/rossierd/soo.tech/soo/optee_os/lib/libutils/ext/mempool.c:222
    9014:	b3e02000 	mvnlt	r2, #0
/home/rossierd/soo.tech/soo/optee_os/lib/libutils/ext/mempool.c:232
    9018:	a591c008 	ldrge	ip, [r1, #8]
    901c:	a0822003 	addge	r2, r2, r3
    9020:	a582c008 	strge	ip, [r2, #8]
/home/rossierd/soo.tech/soo/optee_os/lib/libutils/ext/mempool.c:236
    9024:	e5911008 	ldr	r1, [r1, #8]
/home/rossierd/soo.tech/soo/optee_os/lib/libutils/ext/mempool.c:232
    9028:	a1a02003 	movge	r2, r3
/home/rossierd/soo.tech/soo/optee_os/lib/libutils/ext/mempool.c:236
    902c:	e3510000 	cmp	r1, #0
/home/rossierd/soo.tech/soo/optee_os/lib/libutils/ext/mempool.c:239
    9030:	a5902008 	ldrge	r2, [r0, #8]
    9034:	a0822001 	addge	r2, r2, r1
    9038:	a5823004 	strge	r3, [r2, #4]
/home/rossierd/soo.tech/soo/optee_os/lib/libutils/ext/mempool.c:240
    903c:	a5902004 	ldrge	r2, [r0, #4]
/home/rossierd/soo.tech/soo/optee_os/lib/libutils/ext/mempool.c:243
    9040:	e5802004 	str	r2, [r0, #4]
    9044:	e89da800 	ldm	sp, {fp, sp, pc}

00009048 <consttime_memcmp>:
consttime_memcmp():
/home/rossierd/soo.tech/soo/optee_os/lib/libutils/ext/consttime_memcmp.c:36
    9048:	e1a0c00d 	mov	ip, sp
/home/rossierd/soo.tech/soo/optee_os/lib/libutils/ext/consttime_memcmp.c:41
    904c:	e3a03c01 	mov	r3, #256	; 0x100
    9050:	e0812002 	add	r2, r1, r2
/home/rossierd/soo.tech/soo/optee_os/lib/libutils/ext/consttime_memcmp.c:36
    9054:	e92dd870 	push	{r4, r5, r6, fp, ip, lr, pc}
    9058:	e24cb004 	sub	fp, ip, #4
    905c:	e24dd00c 	sub	sp, sp, #12
    9060:	e2404001 	sub	r4, r0, #1
/home/rossierd/soo.tech/soo/optee_os/lib/libutils/ext/consttime_memcmp.c:40
    9064:	e3a00000 	mov	r0, #0
/home/rossierd/soo.tech/soo/optee_os/lib/libutils/ext/consttime_memcmp.c:41
    9068:	e50b3020 	str	r3, [fp, #-32]	; 0xffffffe0
/home/rossierd/soo.tech/soo/optee_os/lib/libutils/ext/consttime_memcmp.c:39
    906c:	e1a03000 	mov	r3, r0
/home/rossierd/soo.tech/soo/optee_os/lib/libutils/ext/consttime_memcmp.c:43 (discriminator 1)
    9070:	e1510002 	cmp	r1, r2
    9074:	1a000003 	bne	9088 <consttime_memcmp+0x40>
/home/rossierd/soo.tech/soo/optee_os/lib/libutils/ext/consttime_memcmp.c:50
    9078:	e1a03423 	lsr	r3, r3, #8
/home/rossierd/soo.tech/soo/optee_os/lib/libutils/ext/consttime_memcmp.c:51
    907c:	e0630420 	rsb	r0, r3, r0, lsr #8
    9080:	e24bd018 	sub	sp, fp, #24
    9084:	e89da870 	ldm	sp, {r4, r5, r6, fp, sp, pc}
/home/rossierd/soo.tech/soo/optee_os/lib/libutils/ext/consttime_memcmp.c:45 (discriminator 2)
    9088:	e5f45001 	ldrb	r5, [r4, #1]!
    908c:	e4d1c001 	ldrb	ip, [r1], #1
/home/rossierd/soo.tech/soo/optee_os/lib/libutils/ext/consttime_memcmp.c:44 (discriminator 2)
    9090:	e51b6020 	ldr	r6, [fp, #-32]	; 0xffffffe0
/home/rossierd/soo.tech/soo/optee_os/lib/libutils/ext/consttime_memcmp.c:45 (discriminator 2)
    9094:	e045e00c 	sub	lr, r5, ip
/home/rossierd/soo.tech/soo/optee_os/lib/libutils/ext/consttime_memcmp.c:47 (discriminator 2)
    9098:	e04cc005 	sub	ip, ip, r5
/home/rossierd/soo.tech/soo/optee_os/lib/libutils/ext/consttime_memcmp.c:44 (discriminator 2)
    909c:	e00ee006 	and	lr, lr, r6
    90a0:	e183300e 	orr	r3, r3, lr
/home/rossierd/soo.tech/soo/optee_os/lib/libutils/ext/consttime_memcmp.c:46 (discriminator 2)
    90a4:	e51be020 	ldr	lr, [fp, #-32]	; 0xffffffe0
    90a8:	e00cc00e 	and	ip, ip, lr
    90ac:	e180000c 	orr	r0, r0, ip
/home/rossierd/soo.tech/soo/optee_os/lib/libutils/ext/consttime_memcmp.c:48 (discriminator 2)
    90b0:	e51bc020 	ldr	ip, [fp, #-32]	; 0xffffffe0
    90b4:	e183e000 	orr	lr, r3, r0
    90b8:	e1ccc00e 	bic	ip, ip, lr
    90bc:	e50bc020 	str	ip, [fp, #-32]	; 0xffffffe0
    90c0:	eaffffea 	b	9070 <consttime_memcmp+0x28>

000090c4 <memchr>:
memchr():
/home/rossierd/soo.tech/soo/optee_os/lib/libutils/isoc/newlib/memchr.c:107
    90c4:	e1a0c00d 	mov	ip, sp
/home/rossierd/soo.tech/soo/optee_os/lib/libutils/isoc/newlib/memchr.c:109
    90c8:	e6ef1071 	uxtb	r1, r1
    90cc:	e0802002 	add	r2, r0, r2
/home/rossierd/soo.tech/soo/optee_os/lib/libutils/isoc/newlib/memchr.c:107
    90d0:	e92dd800 	push	{fp, ip, lr, pc}
    90d4:	e24cb004 	sub	fp, ip, #4
/home/rossierd/soo.tech/soo/optee_os/lib/libutils/isoc/newlib/memchr.c:153
    90d8:	e1500002 	cmp	r0, r2
    90dc:	e1a03000 	mov	r3, r0
    90e0:	1a000001 	bne	90ec <memchr+0x28>
/home/rossierd/soo.tech/soo/optee_os/lib/libutils/isoc/newlib/memchr.c:159
    90e4:	e3a00000 	mov	r0, #0
    90e8:	e89da800 	ldm	sp, {fp, sp, pc}
/home/rossierd/soo.tech/soo/optee_os/lib/libutils/isoc/newlib/memchr.c:154
    90ec:	e5d3c000 	ldrb	ip, [r3]
    90f0:	e2800001 	add	r0, r0, #1
    90f4:	e15c0001 	cmp	ip, r1
    90f8:	1afffff6 	bne	90d8 <memchr+0x14>
    90fc:	e1a00003 	mov	r0, r3
/home/rossierd/soo.tech/soo/optee_os/lib/libutils/isoc/newlib/memchr.c:160
    9100:	e89da800 	ldm	sp, {fp, sp, pc}

00009104 <_assert_log>:
_assert_log():
/home/rossierd/soo.tech/soo/optee_os/lib/libutee/assert.c:17
    9104:	e1a0c00d 	mov	ip, sp
    9108:	e92dd800 	push	{fp, ip, lr, pc}
    910c:	e24cb004 	sub	fp, ip, #4
    9110:	e24dd018 	sub	sp, sp, #24
/home/rossierd/soo.tech/soo/optee_os/lib/libutee/assert.c:18
    9114:	e98d000f 	stmib	sp, {r0, r1, r2, r3}
    9118:	e3a01000 	mov	r1, #0
    911c:	e59f301c 	ldr	r3, [pc, #28]	; 9140 <_assert_log+0x3c>
    9120:	e1a00001 	mov	r0, r1
    9124:	e08f3003 	add	r3, pc, r3
    9128:	e58d3000 	str	r3, [sp]
    912c:	e3a03001 	mov	r3, #1
    9130:	e1a02003 	mov	r2, r3
    9134:	ebffff40 	bl	8e3c <trace_printf>
/home/rossierd/soo.tech/soo/optee_os/lib/libutee/assert.c:20
    9138:	e24bd00c 	sub	sp, fp, #12
    913c:	e89da800 	ldm	sp, {fp, sp, pc}
    9140:	00000eff 	.word	0x00000eff

00009144 <_assert_break>:
_assert_break():
/home/rossierd/soo.tech/soo/optee_os/lib/libutee/assert.c:23
    9144:	e1a0c00d 	mov	ip, sp
/home/rossierd/soo.tech/soo/optee_os/lib/libutee/assert.c:24
    9148:	e59f000c 	ldr	r0, [pc, #12]	; 915c <_assert_break+0x18>
/home/rossierd/soo.tech/soo/optee_os/lib/libutee/assert.c:23
    914c:	e92dd800 	push	{fp, ip, lr, pc}
    9150:	e24cb004 	sub	fp, ip, #4
/home/rossierd/soo.tech/soo/optee_os/lib/libutee/assert.c:24
    9154:	ebffdbf5 	bl	130 <utee_panic>
    9158:	eafffffe 	b	9158 <_assert_break+0x14>
    915c:	ffff0000 	.word	0xffff0000
