
8aaaf200-2450-11e4-abe2-0002a5d5c51b.elf:     file format elf32-littlearm
8aaaf200-2450-11e4-abe2-0002a5d5c51b.elf
architecture: arm, flags 0x00000150:
HAS_SYMS, DYNAMIC, D_PAGED
start address 0x000000f8

Program Header:
0x70000001 off    0x0000b93c vaddr 0x0000a93c paddr 0x0000a93c align 2**2
         filesz 0x00000600 memsz 0x00000600 flags r--
    LOAD off    0x00001000 vaddr 0x00000000 paddr 0x00000000 align 2**12
         filesz 0x0000b134 memsz 0x0000b134 flags r-x
    LOAD off    0x0000d000 vaddr 0x0000c000 paddr 0x0000c000 align 2**12
         filesz 0x000002a4 memsz 0x0000b2d8 flags rw-
 DYNAMIC off    0x0000d000 vaddr 0x0000c000 paddr 0x0000c000 align 2**2
         filesz 0x00000080 memsz 0x00000080 flags rw-
   STACK off    0x00000000 vaddr 0x00000000 paddr 0x00000000 align 2**4
         filesz 0x00000000 memsz 0x00000000 flags rwx

Dynamic Section:
  HASH                 0x0000b0e4
  STRTAB               0x0000b02c
  SYMTAB               0x0000af3c
  STRSZ                0x000000b8
  SYMENT               0x00000010
  DEBUG                0x00000000
  REL                  0x0000c0bc
  RELSZ                0x00000110
  RELENT               0x00000008
  FLAGS_1              0x08000000
  RELCOUNT             0x00000016
private flags = 5000400: [Version5 EABI] [hard-float ABI]

Sections:
Idx Name          Size      VMA       LMA       File off  Algn
  0 .ta_head      00000020  00000000  00000000  00001000  2**3
                  CONTENTS, ALLOC, LOAD, READONLY, DATA
  1 .text         00009140  00000020  00000020  00001020  2**2
                  CONTENTS, ALLOC, LOAD, READONLY, CODE
  2 .rodata       00000ef2  00009160  00009160  0000a160  2**2
                  CONTENTS, ALLOC, LOAD, READONLY, DATA
  3 .ARM.extab    000008b8  0000a054  0000a054  0000b054  2**2
                  CONTENTS, ALLOC, LOAD, READONLY, DATA
  4 .ARM.extab.text.utee_panic 0000000c  0000a90c  0000a90c  0000b90c  2**2
                  CONTENTS, ALLOC, LOAD, READONLY, DATA
  5 .ARM.extab.text.unlikely 0000000c  0000a918  0000a918  0000b918  2**2
                  CONTENTS, ALLOC, LOAD, READONLY, DATA
  6 .ARM.extab.text.__aeabi_ldivmod 0000000c  0000a924  0000a924  0000b924  2**2
                  CONTENTS, ALLOC, LOAD, READONLY, DATA
  7 .ARM.extab.text.__aeabi_uldivmod 0000000c  0000a930  0000a930  0000b930  2**2
                  CONTENTS, ALLOC, LOAD, READONLY, DATA
  8 .ARM.exidx    00000600  0000a93c  0000a93c  0000b93c  2**2
                  CONTENTS, ALLOC, LOAD, READONLY, DATA
  9 .dynsym       000000f0  0000af3c  0000af3c  0000bf3c  2**2
                  CONTENTS, ALLOC, LOAD, READONLY, DATA
 10 .dynstr       000000b8  0000b02c  0000b02c  0000c02c  2**0
                  CONTENTS, ALLOC, LOAD, READONLY, DATA
 11 .hash         00000050  0000b0e4  0000b0e4  0000c0e4  2**2
                  CONTENTS, ALLOC, LOAD, READONLY, DATA
 12 .dynamic      00000080  0000c000  0000c000  0000d000  2**2
                  CONTENTS, ALLOC, LOAD, DATA
 13 .got          0000003c  0000c080  0000c080  0000d080  2**2
                  CONTENTS, ALLOC, LOAD, DATA
 14 .rel.got      00000060  0000c16c  0000c16c  0000d16c  2**2
                  CONTENTS, ALLOC, LOAD, READONLY, DATA
 15 .data         000000d8  0000c1cc  0000c1cc  0000d1cc  2**2
                  CONTENTS, ALLOC, LOAD, DATA
 16 .bss          0000b034  0000c2a4  0000c2a4  0000d2a4  2**2
                  ALLOC
 17 .debug_info   0000dd6a  00000000  00000000  0000d2a4  2**0
                  CONTENTS, READONLY, DEBUGGING
 18 .debug_abbrev 00002938  00000000  00000000  0001b00e  2**0
                  CONTENTS, READONLY, DEBUGGING
 19 .debug_loc    0000c837  00000000  00000000  0001d946  2**0
                  CONTENTS, READONLY, DEBUGGING
 20 .debug_aranges 00000530  00000000  00000000  0002a180  2**3
                  CONTENTS, READONLY, DEBUGGING
 21 .debug_ranges 00000830  00000000  00000000  0002a6b0  2**3
                  CONTENTS, READONLY, DEBUGGING
 22 .debug_macro  00010ffd  00000000  00000000  0002aee0  2**0
                  CONTENTS, READONLY, DEBUGGING
 23 .debug_line   00005079  00000000  00000000  0003bedd  2**0
                  CONTENTS, READONLY, DEBUGGING
 24 .debug_str    0001147a  00000000  00000000  00040f56  2**0
                  CONTENTS, READONLY, DEBUGGING
 25 .comment      00000074  00000000  00000000  000523d0  2**0
                  CONTENTS, READONLY
 26 .ARM.attributes 00000038  00000000  00000000  00052444  2**0
                  CONTENTS, READONLY
 27 .debug_frame  00001eac  00000000  00000000  0005247c  2**2
                  CONTENTS, READONLY, DEBUGGING
 28 .rel.dyn      000000b0  0000c0bc  0000c0bc  0000d0bc  2**2
                  CONTENTS, ALLOC, LOAD, READONLY, DATA
SYMBOL TABLE:
00000000 l    d  .ta_head	00000000 .ta_head
00000020 l    d  .text	00000000 .text
00009160 l    d  .rodata	00000000 .rodata
0000a054 l    d  .ARM.extab	00000000 .ARM.extab
0000a90c l    d  .ARM.extab.text.utee_panic	00000000 .ARM.extab.text.utee_panic
0000a918 l    d  .ARM.extab.text.unlikely	00000000 .ARM.extab.text.unlikely
0000a924 l    d  .ARM.extab.text.__aeabi_ldivmod	00000000 .ARM.extab.text.__aeabi_ldivmod
0000a930 l    d  .ARM.extab.text.__aeabi_uldivmod	00000000 .ARM.extab.text.__aeabi_uldivmod
0000a93c l    d  .ARM.exidx	00000000 .ARM.exidx
0000af3c l    d  .dynsym	00000000 .dynsym
0000b02c l    d  .dynstr	00000000 .dynstr
0000b0e4 l    d  .hash	00000000 .hash
0000c000 l    d  .dynamic	00000000 .dynamic
0000c080 l    d  .got	00000000 .got
0000c16c l    d  .rel.got	00000000 .rel.got
0000c1cc l    d  .data	00000000 .data
0000c2a4 l    d  .bss	00000000 .bss
00000000 l    d  .debug_info	00000000 .debug_info
00000000 l    d  .debug_abbrev	00000000 .debug_abbrev
00000000 l    d  .debug_loc	00000000 .debug_loc
00000000 l    d  .debug_aranges	00000000 .debug_aranges
00000000 l    d  .debug_ranges	00000000 .debug_ranges
00000000 l    d  .debug_macro	00000000 .debug_macro
00000000 l    d  .debug_line	00000000 .debug_line
00000000 l    d  .debug_str	00000000 .debug_str
00000000 l    d  .comment	00000000 .comment
00000000 l    d  .ARM.attributes	00000000 .ARM.attributes
00000000 l    d  .debug_frame	00000000 .debug_frame
0000c0bc l    d  .rel.dyn	00000000 .rel.dyn
00000000 l    df *ABS*	00000000 user_ta_header.c
00009164 l     O .rodata	00000004 __compound_literal.5
00009168 l     O .rodata	00000004 __compound_literal.4
0000916c l     O .rodata	00000004 __compound_literal.3
00009170 l     O .rodata	00000001 __compound_literal.2
00009171 l     O .rodata	00000001 __compound_literal.1
00009172 l     O .rodata	00000001 __compound_literal.0
00000000 l    df *ABS*	00000000 hello_world_ta.c
00000000 l    df *ABS*	00000000 ./ta_entry_a32.o
00000000 l    df *ABS*	00000000 aeabi_unwind.c
00000000 l    df *ABS*	00000000 utee_syscalls_a32.o
00000000 l    df *ABS*	00000000 user_ta_entry.c
000005e0 l     F .text	00000040 ta_header_get_session
00000620 l     F .text	00000094 to_utee_params
000006b4 l     F .text	0000007c from_utee_params
00000730 l     F .text	000000c0 ta_header_remove_session
0000c2a4 l     O .bss	00000001 init_done
0000c23c l     O .data	00000008 ta_sessions
00000000 l    df *ABS*	00000000 tee_api.c
00000a54 l     F .text	000000a4 update_out_param
00000bf4 l     F .text	000001e8 copy_param.constprop.1
00009584 l     O .rodata	0000000b __func__.6776
0000c2cc l     O .bss	00000004 tee_api_instance_data
00000000 l    df *ABS*	00000000 tee_api_panic.c
00000000 l    df *ABS*	00000000 tee_system_pta.c
000012e4 l     F .text	0000008c invoke_system_pta
0000917c l     O .rodata	00000010 uuid.6213
0000918c l     O .rodata	0000000a __func__.6233
0000c2d0 l     O .bss	00000004 sess.6212
00000000 l    df *ABS*	00000000 tee_api_arith_mpi.c
000030a8 l     F .text	00000038 api_panic
00001470 l     F .text	00000038 mpi_panic
000014a8 l     F .text	00000090 get_mpi
00001538 l     F .text	00000080 copy_mpi_to_bigint
000015b8 l     F .text	00000104 bigint_binary
000016bc l     F .text	00000020 mpi_is_odd
000016dc l     F .text	00000028 rng_read
00001704 l     F .text	0000066c mpi_egcd
0000c2d4 l     O .bss	00003000 data.6739
00002150 l     F .text	0000018c bigint_binary_mod
000095ca l     O .rodata	00000008 __func__.6773
000095d2 l     O .rodata	0000000e __func__.6870
000095e0 l     O .rodata	00000009 __func__.7016
000095e9 l     O .rodata	00000012 __func__.6740
000095fb l     O .rodata	0000000f __func__.6779
0000960a l     O .rodata	0000001f __func__.6797
00009629 l     O .rodata	00000019 __func__.6804
00009642 l     O .rodata	00000012 __func__.6882
00009654 l     O .rodata	00000015 __func__.6835
00009669 l     O .rodata	0000000e __func__.6910
00009677 l     O .rodata	0000000e __func__.6939
00009685 l     O .rodata	0000000e __func__.6947
00009693 l     O .rodata	00000011 __func__.6976
000096a4 l     O .rodata	00000018 __func__.6993
000096bc l     O .rodata	0000001d __func__.7073
000096d9 l     O .rodata	00000019 __func__.7126
000096f2 l     O .rodata	00000015 __func__.7141
00000000 l    df *ABS*	00000000 trace_ext.c
00000000 l    df *ABS*	00000000 bignum.c
000031f4 l     F .text	00000054 mpi_get_digit
00003248 l     F .text	00000084 mpi_sub_hlp
000032cc l     F .text	00000548 mpi_mul_hlp
000053b8 l     F .text	000000c8 mpi_write_hlp
00005640 l     F .text	00000094 mpi_check_small_factors
00006124 l     F .text	00000288 mpi_miller_rabin
00009198 l     O .rodata	000002a0 small_prime
00009438 l     O .rodata	00000024 gcd_pairs
00000000 l    df *ABS*	00000000 platform_util.c
0000c244 l     O .data	00000004 memset_func
00000000 l    df *ABS*	00000000 bget_malloc.c
00007070 l     F .text	0000005c raw_malloc_return_hook.constprop.21
00009c1b l     O .rodata	00000005 __func__.5713
00009c20 l     O .rodata	00000006 __func__.5728
00009c26 l     O .rodata	00000005 __func__.5746
00009c2b l     O .rodata	00000006 __func__.5737
00009c31 l     O .rodata	00000006 __func__.5755
00009c37 l     O .rodata	00000007 __func__.5765
00009c3e l     O .rodata	00000014 __func__.5929
00009c52 l     O .rodata	0000000e __func__.5880
00009c60 l     O .rodata	00000013 __func__.5827
0000c248 l     O .data	0000005c malloc_ctx
00000000 l    df *ABS*	00000000 snprintf.c
00000000 l    df *ABS*	00000000 memcpy.c
00000000 l    df *ABS*	00000000 memmove.c
00000000 l    df *ABS*	00000000 memset.c
00000000 l    df *ABS*	00000000 strlen.c
00000000 l    df *ABS*	00000000 arm32_aeabi_ldivmod_a32.o
00000000 l    df *ABS*	00000000 arm32_aeabi_ldivmod.c
00000000 l    df *ABS*	00000000 snprintk.c
00009f17 l     O .rodata	00000011 HEXDIGITS
00009f28 l     O .rodata	00000011 hexdigits
00000000 l    df *ABS*	00000000 trace.c
00009f71 l     O .rodata	00000005 lvl_strs.5571
00000000 l    df *ABS*	00000000 mempool.c
00009f90 l     O .rodata	00000013 __func__.5626
00009fa3 l     O .rodata	0000000e __func__.5635
00000000 l    df *ABS*	00000000 consttime_memcmp.c
00000000 l    df *ABS*	00000000 memchr.c
00000000 l    df *ABS*	00000000 assert.c
00000000 l    df *ABS*	00000000 
0000c000 l     O *ABS*	00000000 _DYNAMIC
0000c080 l     O *ABS*	00000000 _GLOBAL_OFFSET_TABLE_
000031b4 g     F .text	00000040 putchar
00002ed4 g     F .text	00000018 TEE_BigIntConvertToFMM
000029c0 g     F .text	00000020 TEE_BigIntSquareMod
000022dc g     F .text	00000194 TEE_BigIntShiftRight
000004c4 g     F .text	00000018 utee_storage_obj_create
00003908 g     F .text	000000f8 mbedtls_mpi_grow
00007ffc g     F .text	00000120 __l_divmod
00000144 g     F .text	00000014 utee_return
00001248 g     F .text	00000018 TEE_Realloc
0000311c g     F .text	0000005c printf
00000158 g     F .text	00000014 utee_log
00000ddc g     F .text	00000120 TEE_InvokeTACommand
0000383c g     F .text	0000004c mbedtls_mpi_init_mempool
00004074 g     F .text	000000b4 mbedtls_mpi_write_binary
00008b78 g     F .text	00000024 vsnprintk
000048b0 g     F .text	0000004c mbedtls_mpi_sub_int
00007e70 g     F .text	0000005c memmove
00007dec g     F .text	00000034 snprintf
00002108 g     F .text	00000048 TEE_BigIntCmpS32
00003a00 g     F .text	0000013c mbedtls_mpi_shrink
00000100 g     F .text	00000010 __aeabi_unwind_cpp_pr0
000024fc g     F .text	00000038 TEE_BigIntAdd
00000198 g     F .text	00000014 utee_get_property_name_to_index
00009174 g     O .rodata	00000004 ta_heap_size
0000027c g     F .text	00000018 utee_cryp_state_alloc
0000044c g     F .text	00000018 utee_authenc_enc_final
00004a9c g     F .text	000001c8 mbedtls_mpi_read_string
0000256c g     F .text	000000b4 TEE_BigIntNeg
00000020 g       .text	00000000 __text_start
00004224 g     F .text	000000ec mbedtls_mpi_shift_r
00007d64 g     F .text	00000088 malloc_buffer_overlaps_heap
00002950 g     F .text	00000038 TEE_BigIntSubMod
000068d0 g     F .text	000002ec mbedtls_mpi_gen_prime
00003e1c g     F .text	00000034 mbedtls_mpi_get_bit
00003fbc g     F .text	000000b8 mbedtls_mpi_read_binary
00008e3c g     F .text	00000030 trace_printf
0000571c g     F .text	00000150 mbedtls_mpi_montmul
00007e44 g     F .text	0000002c memcpy
000002a8 g     F .text	00000014 utee_cryp_state_free
00002eec g     F .text	000000a4 TEE_BigIntConvertFromFMM
000012cc g     F .text	00000018 TEE_Panic
00007f3c g     F .text	00000018 __aeabi_uldivmod
00003178 g     F .text	0000003c puts
00002f90 g     F .text	00000118 TEE_BigIntComputeFMM
00007950 g     F .text	00000030 malloc_get_stats
00000328 g     F .text	00000018 utee_cipher_final
000011a0 g     F .text	0000002c TEE_GetREETime
0000c1d0 g     O .data	0000006c ta_props
00007980 g     F .text	00000048 malloc
000000d0 g     F .text	00000014 __ta_entry_c
00000390 g     F .text	00000014 utee_cryp_obj_close
00007e20 g     F .text	00000024 vsnprintf
0000c1cc g     O .data	00000004 trace_level
000020a8 g     F .text	00000060 TEE_BigIntCmp
00009160 g     O .rodata	00000004 ta_num_props
000076a8 g     F .text	000000c8 bgetr
00000434 g     F .text	00000018 utee_authenc_update_payload
00008ff0 g     F .text	00000058 mempool_free
00001ee0 g     F .text	00000094 TEE_BigIntConvertToOctetString
000005cc g     F .text	00000014 utee_cache_operation
00003f24 g     F .text	0000007c mbedtls_mpi_bitlen
00000408 g     F .text	00000018 utee_authenc_init
00002470 g     F .text	0000004c TEE_BigIntGetBit
00009178 g     O .rodata	00000003 trace_ext_prefix
000072cc g     F .text	0000008c bgetz
00001000 g     F .text	0000001c TEE_GetInstanceData
00001090 g     F .text	00000034 TEE_Wait
0000057c g     F .text	00000014 utee_storage_obj_write
000048fc g     F .text	00000168 mbedtls_mpi_mul_mpi
00000120 g     F .text	00000010 __aeabi_unwind_cpp_pr2
00001294 g     F .text	0000001c TEE_CacheFlush
00008c2c g     F .text	00000210 trace_vprintf
00000034 g     F .text	00000010 TA_DestroyEntryPoint
00003814 g     F .text	00000028 mbedtls_mpi_init
00003ec8 g     F .text	0000005c mbedtls_mpi_lsb
00009104 g     F .text	00000040 _assert_log
00002ec0 g     F .text	00000014 TEE_BigIntFMMContextSizeInU32
000013e8 g     F .text	00000088 tee_unmap
00001d70 g     F .text	0000006c _TEE_MathAPI_Init
00004758 g     F .text	00000084 mbedtls_mpi_add_mpi
00000554 g     F .text	00000014 utee_storage_next_enum
0000f2d8 g     O .bss	00008000 ta_heap
000029e0 g     F .text	00000124 TEE_BigIntInvMod
00000064 g     F .text	00000010 TA_CloseSessionEntryPoint
000047dc g     F .text	00000088 mbedtls_mpi_sub_mpi
00009048 g     F .text	0000007c consttime_memcmp
0000016c g     F .text	00000014 __utee_panic
00000294 g     F .text	00000014 utee_cryp_state_copy
00000074 g     F .text	0000005c TA_InvokeCommandEntryPoint
00007a9c g     F .text	00000030 free_wipe
00008ee8 g     F .text	000000c4 mempool_alloc
0000037c g     F .text	00000014 utee_cryp_obj_alloc
00000268 g     F .text	00000014 utee_set_ta_time
00000368 g     F .text	00000014 utee_cryp_obj_get_attr
00008fac g     F .text	00000044 mempool_calloc
000079c8 g     F .text	0000005c calloc
000011cc g     F .text	0000007c TEE_Malloc
0000022c g     F .text	00000014 utee_mask_cancellation
000003a4 g     F .text	00000014 utee_cryp_obj_reset
00000bcc g     F .text	00000028 TEE_CheckMemoryAccessRights
000172d8 g       .bss	00000000 __gprof_buf_end
00007f54 g     F .text	000000a8 __ul_divmod
00003dbc g     F .text	00000060 mbedtls_mpi_lset
00000044 g     F .text	00000020 TA_OpenSessionEntryPoint
00000540 g     F .text	00000014 utee_storage_start_enum
000004f0 g     F .text	00000014 utee_storage_obj_rename
000172d8 g       .bss	00000000 __ftrace_buf_end
0000c2c8 g     O .bss	00000004 ta_param_types
00005204 g     F .text	0000004c mbedtls_mpi_div_int
000067f4 g     F .text	000000b8 mbedtls_mpi_is_prime_ext
00002e28 g     F .text	00000054 TEE_BigIntIsProbablePrime
00004a64 g     F .text	00000038 mbedtls_mpi_mul_int
000058b0 g     F .text	0000064c mbedtls_mpi_exp_mod
00003c40 g     F .text	000000b4 mbedtls_mpi_safe_cond_assign
00000180 g     F .text	00000018 utee_get_property
00001ddc g     F .text	00000070 TEE_BigIntInit
0000101c g     F .text	00000018 TEE_MemMove
00007040 g     F .text	00000030 mbedtls_platform_zeroize
00001e4c g     F .text	00000094 TEE_BigIntConvertFromOctetString
00004310 g     F .text	000000d4 mbedtls_mpi_cmp_abs
000090c4 g     F .text	00000040 memchr
00000b5c g     F .text	00000038 TEE_UnmaskCancellation
00006bbc g     F .text	00000484 mbedtls_mpi_self_test
000004dc g     F .text	00000014 utee_storage_obj_del
000005a4 g     F .text	00000014 utee_storage_obj_seek
000044f0 g     F .text	0000004c mbedtls_mpi_cmp_int
000002d0 g     F .text	00000014 utee_hash_update
00002890 g     F .text	00000088 TEE_BigIntMod
00005304 g     F .text	000000b4 mbedtls_mpi_mod_int
000001c4 g     F .text	00000014 utee_close_ta_session
00002730 g     F .text	00000160 TEE_BigIntDiv
000172d8 g       .bss	00000000 __ftrace_buf_start
00003b3c g     F .text	000000ac mbedtls_mpi_copy
00007920 g     F .text	00000030 malloc_reset_stats
00000310 g     F .text	00000018 utee_cipher_update
00007a24 g     F .text	00000048 realloc
00003be8 g     F .text	00000058 mbedtls_mpi_swap
00008e7c g     F .text	0000006c mempool_alloc_pool
00000494 g     F .text	00000018 utee_asymm_verify
00002620 g     F .text	000000f4 TEE_BigIntMul
00004128 g     F .text	000000fc mbedtls_mpi_shift_l
000043e4 g     F .text	0000010c mbedtls_mpi_cmp_mpi
0000104c g     F .text	00000018 TEE_MemFill
00007acc g     F .text	00000128 malloc_add_pool
00008c00 g     F .text	0000002c trace_get_level
0000453c g     F .text	00000140 mbedtls_mpi_add_abs
000003f4 g     F .text	00000014 utee_cryp_random_number_generate
00002ea4 g     F .text	0000001c TEE_BigIntFMMSizeInU32
00002e7c g     F .text	00000018 TEE_BigIntInitFMM
0000047c g     F .text	00000018 utee_asymm_operate
000007f0 g     F .text	00000264 __utee_entry
00009160 g       .text	00000000 __text_end
00002b04 g     F .text	000000c4 TEE_BigIntRelativePrime
00005250 g     F .text	000000b4 mbedtls_mpi_mod_mpi
00007770 g     F .text	00000100 bpool
00000b24 g     F .text	00000038 TEE_GetCancellationFlag
00005efc g     F .text	000001b4 mbedtls_mpi_gcd
0000114c g     F .text	00000054 TEE_SetTAPersistentTime
00007ecc g     F .text	00000028 memset
000010c4 g     F .text	00000088 TEE_GetTAPersistentTime
00008e6c g     F .text	00000010 dhex_dump
00000b94 g     F .text	00000038 TEE_MaskCancellation
00000568 g     F .text	00000014 utee_storage_obj_read
000003b8 g     F .text	00000014 utee_cryp_obj_populate
00008bc8 g     F .text	00000038 trace_set_level
00000340 g     F .text	00000014 utee_cryp_obj_get_info
00000504 g     F .text	00000014 utee_storage_alloc_enum
0000052c g     F .text	00000014 utee_storage_reset_enum
00000590 g     F .text	00000014 utee_storage_obj_trunc
00001ffc g     F .text	000000ac TEE_BigIntConvertToS32
00002534 g     F .text	00000038 TEE_BigIntSub
000001f0 g     F .text	00000014 utee_get_cancellation_flag
000002bc g     F .text	00000014 utee_hash_init
000000e4 g     F .text	00000014 tahead_get_trace_level
00001370 g     F .text	00000078 tee_map_zi
0000586c g     F .text	00000044 mbedtls_mpi_montred
00001f74 g     F .text	00000088 TEE_BigIntConvertFromS32
00004864 g     F .text	0000004c mbedtls_mpi_add_int
00000354 g     F .text	00000014 utee_cryp_obj_restrict_usage
00007bf4 g     F .text	00000170 malloc_buffer_is_within_alloced
000003cc g     F .text	00000014 utee_cryp_obj_copy
00002e94 g     F .text	00000010 TEE_BigIntInitFMMContext
000003e0 g     F .text	00000014 utee_cryp_derive_key
00000464 g     F .text	00000018 utee_authenc_dec_final
00002714 g     F .text	0000001c TEE_BigIntSquare
00000020 g     F .text	00000014 TA_CreateEntryPoint
000000f8 g     F .text	00000008 __ta_entry
00008b9c g     F .text	0000002c snprintk
000056d4 g     F .text	00000048 mbedtls_mpi_montg_init
000024bc g     F .text	00000040 TEE_BigIntGetBitCount
00002988 g     F .text	00000038 TEE_BigIntMulMod
000063ac g     F .text	00000448 mbedtls_mpi_inv_mod
0000c2a8 g     O .bss	00000020 ta_params
00004c64 g     F .text	000005a0 mbedtls_mpi_div_mpi
00003fa0 g     F .text	0000001c mbedtls_mpi_size
000070cc g     F .text	00000200 bget
00003e50 g     F .text	00000078 mbedtls_mpi_set_bit
00001260 g     F .text	00000018 TEE_Free
000068ac g     F .text	00000024 mbedtls_mpi_is_prime
000012b0 g     F .text	0000001c TEE_CacheInvalidate
000002fc g     F .text	00000014 utee_cipher_init
00009144 g     F .text	0000001c _assert_break
00002918 g     F .text	00000038 TEE_BigIntAddMod
00000518 g     F .text	00000014 utee_storage_free_enum
00000420 g     F .text	00000014 utee_authenc_update_aad
00001034 g     F .text	00000018 TEE_MemCompare
0000811c g     F .text	00000a5c __vsnprintf
00000efc g     F .text	000000e4 TEE_OpenTASession
00000130 g     F .text	00000014 utee_panic
000030e0 g     F .text	00000028 trace_ext_puts
00003108 g     F .text	00000014 trace_ext_get_thread_id
00003888 g     F .text	00000080 mbedtls_mpi_free
00001278 g     F .text	0000001c TEE_CacheClean
000001ac g     F .text	00000018 utee_open_ta_session
00003cf4 g     F .text	000000c8 mbedtls_mpi_safe_cond_swap
000002e4 g     F .text	00000018 utee_hash_final
00007ef4 g     F .text	00000030 strlen
00002bc8 g     F .text	00000260 TEE_BigIntComputeExtendedGcd
00000110 g     F .text	00000010 __aeabi_unwind_cpp_pr1
000004ac g     F .text	00000018 utee_storage_obj_open
000001d8 g     F .text	00000018 utee_invoke_ta_command
00000240 g     F .text	00000014 utee_wait
00001064 g     F .text	0000002c TEE_GetSystemTime
00000000 g     O .ta_head	00000020 ta_head
00007358 g     F .text	00000350 brel
0000467c g     F .text	000000dc mbedtls_mpi_sub_abs
00000254 g     F .text	00000014 utee_get_time
000060b0 g     F .text	00000074 mbedtls_mpi_fill_random
00000fe0 g     F .text	00000020 TEE_SetInstanceData
00000218 g     F .text	00000014 utee_unmask_cancellation
00007f24 g     F .text	00000018 __aeabi_ldivmod
00000204 g     F .text	00000014 utee_check_access_rights
00005480 g     F .text	000001c0 mbedtls_mpi_write_string
000005b8 g     F .text	00000014 utee_cryp_obj_generate_key
00000af8 g     F .text	0000002c TEE_CloseTASession
000172d8 g       .bss	00000000 __gprof_buf_start
00007a6c g     F .text	00000030 free
00007870 g     F .text	000000b0 bstats
0000f2d4 g     O .bss	00000004 mbedtls_mpi_mempool



Disassembly of section .text:

00000020 <TA_CreateEntryPoint>:
TA_CreateEntryPoint():
/mnt/nvme0n1p4/soo/optee_ta/hello_world/hello_world_ta.c:38
      20:	e1a0c00d 	mov	ip, sp
/mnt/nvme0n1p4/soo/optee_ta/hello_world/hello_world_ta.c:42
      24:	e3a00000 	mov	r0, #0
/mnt/nvme0n1p4/soo/optee_ta/hello_world/hello_world_ta.c:38
      28:	e92dd800 	push	{fp, ip, lr, pc}
      2c:	e24cb004 	sub	fp, ip, #4
/mnt/nvme0n1p4/soo/optee_ta/hello_world/hello_world_ta.c:42
      30:	e89da800 	ldm	sp, {fp, sp, pc}

00000034 <TA_DestroyEntryPoint>:
TA_DestroyEntryPoint():
/mnt/nvme0n1p4/soo/optee_ta/hello_world/hello_world_ta.c:49
      34:	e1a0c00d 	mov	ip, sp
      38:	e92dd800 	push	{fp, ip, lr, pc}
      3c:	e24cb004 	sub	fp, ip, #4
      40:	e89da800 	ldm	sp, {fp, sp, pc}

00000044 <TA_OpenSessionEntryPoint>:
TA_OpenSessionEntryPoint():
/mnt/nvme0n1p4/soo/optee_ta/hello_world/hello_world_ta.c:62
      44:	e1a0c00d 	mov	ip, sp
/mnt/nvme0n1p4/soo/optee_ta/hello_world/hello_world_ta.c:70
      48:	e3500000 	cmp	r0, #0
/mnt/nvme0n1p4/soo/optee_ta/hello_world/hello_world_ta.c:85
      4c:	e59f000c 	ldr	r0, [pc, #12]	; 60 <TA_OpenSessionEntryPoint+0x1c>
      50:	03a00000 	moveq	r0, #0
/mnt/nvme0n1p4/soo/optee_ta/hello_world/hello_world_ta.c:62
      54:	e92dd800 	push	{fp, ip, lr, pc}
      58:	e24cb004 	sub	fp, ip, #4
/mnt/nvme0n1p4/soo/optee_ta/hello_world/hello_world_ta.c:85
      5c:	e89da800 	ldm	sp, {fp, sp, pc}
      60:	ffff0006 	.word	0xffff0006

00000064 <TA_CloseSessionEntryPoint>:
TA_CloseSessionEntryPoint():
/mnt/nvme0n1p4/soo/optee_ta/hello_world/hello_world_ta.c:92
      64:	e1a0c00d 	mov	ip, sp
      68:	e92dd800 	push	{fp, ip, lr, pc}
      6c:	e24cb004 	sub	fp, ip, #4
      70:	e89da800 	ldm	sp, {fp, sp, pc}

00000074 <TA_InvokeCommandEntryPoint>:
TA_InvokeCommandEntryPoint():
/mnt/nvme0n1p4/soo/optee_ta/hello_world/hello_world_ta.c:144
      74:	e1a0c00d 	mov	ip, sp
/mnt/nvme0n1p4/soo/optee_ta/hello_world/hello_world_ta.c:147
      78:	e2510000 	subs	r0, r1, #0
/mnt/nvme0n1p4/soo/optee_ta/hello_world/hello_world_ta.c:144
      7c:	e92dd800 	push	{fp, ip, lr, pc}
      80:	e24cb004 	sub	fp, ip, #4
/mnt/nvme0n1p4/soo/optee_ta/hello_world/hello_world_ta.c:147
      84:	0a000003 	beq	98 <TA_InvokeCommandEntryPoint+0x24>
      88:	e3500001 	cmp	r0, #1
      8c:	0a000007 	beq	b0 <TA_InvokeCommandEntryPoint+0x3c>
inc_value():
/mnt/nvme0n1p4/soo/optee_ta/hello_world/hello_world_ta.c:108
      90:	e59f0034 	ldr	r0, [pc, #52]	; cc <TA_InvokeCommandEntryPoint+0x58>
TA_InvokeCommandEntryPoint():
/mnt/nvme0n1p4/soo/optee_ta/hello_world/hello_world_ta.c:155
      94:	e89da800 	ldm	sp, {fp, sp, pc}
inc_value():
/mnt/nvme0n1p4/soo/optee_ta/hello_world/hello_world_ta.c:107
      98:	e3520003 	cmp	r2, #3
      9c:	1afffffb 	bne	90 <TA_InvokeCommandEntryPoint+0x1c>
/mnt/nvme0n1p4/soo/optee_ta/hello_world/hello_world_ta.c:111
      a0:	e5932000 	ldr	r2, [r3]
      a4:	e2822001 	add	r2, r2, #1
      a8:	e5832000 	str	r2, [r3]
      ac:	e89da800 	ldm	sp, {fp, sp, pc}
dec_value():
/mnt/nvme0n1p4/soo/optee_ta/hello_world/hello_world_ta.c:127
      b0:	e3520003 	cmp	r2, #3
      b4:	1afffff5 	bne	90 <TA_InvokeCommandEntryPoint+0x1c>
/mnt/nvme0n1p4/soo/optee_ta/hello_world/hello_world_ta.c:131
      b8:	e5932000 	ldr	r2, [r3]
/mnt/nvme0n1p4/soo/optee_ta/hello_world/hello_world_ta.c:134
      bc:	e3a00000 	mov	r0, #0
/mnt/nvme0n1p4/soo/optee_ta/hello_world/hello_world_ta.c:131
      c0:	e2422001 	sub	r2, r2, #1
      c4:	e5832000 	str	r2, [r3]
      c8:	e89da800 	ldm	sp, {fp, sp, pc}
      cc:	ffff0006 	.word	0xffff0006

000000d0 <__ta_entry_c>:
__ta_entry_c():
/mnt/nvme0n1p4/soo/optee_os/out/arm-plat-vexpress/export-ta_arm32/src/user_ta_header.c:47
      d0:	e1a0c00d 	mov	ip, sp
      d4:	e92dd800 	push	{fp, ip, lr, pc}
      d8:	e24cb004 	sub	fp, ip, #4
/mnt/nvme0n1p4/soo/optee_os/out/arm-plat-vexpress/export-ta_arm32/src/user_ta_header.c:48
      dc:	eb0001c3 	bl	7f0 <__utee_entry>
/mnt/nvme0n1p4/soo/optee_os/out/arm-plat-vexpress/export-ta_arm32/src/user_ta_header.c:59
      e0:	eb000017 	bl	144 <utee_return>

000000e4 <tahead_get_trace_level>:
tahead_get_trace_level():
/mnt/nvme0n1p4/soo/optee_os/out/arm-plat-vexpress/export-ta_arm32/src/user_ta_header.c:144
      e4:	e1a0c00d 	mov	ip, sp
/mnt/nvme0n1p4/soo/optee_os/out/arm-plat-vexpress/export-ta_arm32/src/user_ta_header.c:149
      e8:	e3a00001 	mov	r0, #1
/mnt/nvme0n1p4/soo/optee_os/out/arm-plat-vexpress/export-ta_arm32/src/user_ta_header.c:144
      ec:	e92dd800 	push	{fp, ip, lr, pc}
      f0:	e24cb004 	sub	fp, ip, #4
/mnt/nvme0n1p4/soo/optee_os/out/arm-plat-vexpress/export-ta_arm32/src/user_ta_header.c:149
      f4:	e89da800 	ldm	sp, {fp, sp, pc}

000000f8 <__ta_entry>:
__ta_entry():
/mnt/nvme0n1p4/soo/optee_os/out/arm-plat-vexpress/export-ta_arm32/src/ta_entry_a32.S:27
      f8:	ebfffff4 	bl	d0 <__ta_entry_c>
/mnt/nvme0n1p4/soo/optee_os/out/arm-plat-vexpress/export-ta_arm32/src/ta_entry_a32.S:32
      fc:	e320f000 	nop	{0}

00000100 <__aeabi_unwind_cpp_pr0>:
__aeabi_unwind_cpp_pr0():
     100:	e1a0c00d 	mov	ip, sp
     104:	e92dd800 	push	{fp, ip, lr, pc}
     108:	e24cb004 	sub	fp, ip, #4
     10c:	e89da800 	ldm	sp, {fp, sp, pc}

00000110 <__aeabi_unwind_cpp_pr1>:
__aeabi_unwind_cpp_pr1():
     110:	e1a0c00d 	mov	ip, sp
     114:	e92dd800 	push	{fp, ip, lr, pc}
     118:	e24cb004 	sub	fp, ip, #4
     11c:	e89da800 	ldm	sp, {fp, sp, pc}

00000120 <__aeabi_unwind_cpp_pr2>:
__aeabi_unwind_cpp_pr2():
/home/rossierd/soo.tech/soo/optee_os/lib/libutils/ext/arch/arm/aeabi_unwind.c:18
     120:	e1a0c00d 	mov	ip, sp
     124:	e92dd800 	push	{fp, ip, lr, pc}
     128:	e24cb004 	sub	fp, ip, #4
     12c:	e89da800 	ldm	sp, {fp, sp, pc}

00000130 <utee_panic>:
utee_panic():
/home/rossierd/soo.tech/soo/optee_os/lib/libutee/arch/arm/utee_syscalls_a32.S:47
     130:	e92d4fff 	push	{r0, r1, r2, r3, r4, r5, r6, r7, r8, r9, sl, fp, lr}
/home/rossierd/soo.tech/soo/optee_os/lib/libutee/arch/arm/utee_syscalls_a32.S:49
     134:	e1a0e00f 	mov	lr, pc
/home/rossierd/soo.tech/soo/optee_os/lib/libutee/arch/arm/utee_syscalls_a32.S:50
     138:	e52de004 	push	{lr}		; (str lr, [sp, #-4]!)
/home/rossierd/soo.tech/soo/optee_os/lib/libutee/arch/arm/utee_syscalls_a32.S:52
     13c:	e1a0100d 	mov	r1, sp
/home/rossierd/soo.tech/soo/optee_os/lib/libutee/arch/arm/utee_syscalls_a32.S:53
     140:	eb000009 	bl	16c <__utee_panic>

00000144 <utee_return>:
utee_return():
/home/rossierd/soo.tech/soo/optee_os/lib/libutee/arch/arm/utee_syscalls_asm.S:8
     144:	e92d40e0 	push	{r5, r6, r7, lr}
     148:	e3a07000 	mov	r7, #0
     14c:	e3a06000 	mov	r6, #0
     150:	ef000000 	svc	0x00000000
     154:	e8bd80e0 	pop	{r5, r6, r7, pc}

00000158 <utee_log>:
utee_log():
/home/rossierd/soo.tech/soo/optee_os/lib/libutee/arch/arm/utee_syscalls_asm.S:10
     158:	e92d40e0 	push	{r5, r6, r7, lr}
     15c:	e3a07001 	mov	r7, #1
     160:	e3a06000 	mov	r6, #0
     164:	ef000000 	svc	0x00000000
     168:	e8bd80e0 	pop	{r5, r6, r7, pc}

0000016c <__utee_panic>:
__utee_panic():
/home/rossierd/soo.tech/soo/optee_os/lib/libutee/arch/arm/utee_syscalls_asm.S:12
     16c:	e92d40e0 	push	{r5, r6, r7, lr}
     170:	e3a07002 	mov	r7, #2
     174:	e3a06000 	mov	r6, #0
     178:	ef000000 	svc	0x00000000
     17c:	e8bd80e0 	pop	{r5, r6, r7, pc}

00000180 <utee_get_property>:
utee_get_property():
/home/rossierd/soo.tech/soo/optee_os/lib/libutee/arch/arm/utee_syscalls_asm.S:14
     180:	e92d40e0 	push	{r5, r6, r7, lr}
     184:	e3a07003 	mov	r7, #3
     188:	e3a06003 	mov	r6, #3
     18c:	e28d5010 	add	r5, sp, #16
     190:	ef000000 	svc	0x00000000
     194:	e8bd80e0 	pop	{r5, r6, r7, pc}

00000198 <utee_get_property_name_to_index>:
utee_get_property_name_to_index():
/home/rossierd/soo.tech/soo/optee_os/lib/libutee/arch/arm/utee_syscalls_asm.S:16
     198:	e92d40e0 	push	{r5, r6, r7, lr}
     19c:	e3a07004 	mov	r7, #4
     1a0:	e3a06000 	mov	r6, #0
     1a4:	ef000000 	svc	0x00000000
     1a8:	e8bd80e0 	pop	{r5, r6, r7, pc}

000001ac <utee_open_ta_session>:
utee_open_ta_session():
/home/rossierd/soo.tech/soo/optee_os/lib/libutee/arch/arm/utee_syscalls_asm.S:19
     1ac:	e92d40e0 	push	{r5, r6, r7, lr}
     1b0:	e3a07005 	mov	r7, #5
     1b4:	e3a06001 	mov	r6, #1
     1b8:	e28d5010 	add	r5, sp, #16
     1bc:	ef000000 	svc	0x00000000
     1c0:	e8bd80e0 	pop	{r5, r6, r7, pc}

000001c4 <utee_close_ta_session>:
utee_close_ta_session():
/home/rossierd/soo.tech/soo/optee_os/lib/libutee/arch/arm/utee_syscalls_asm.S:21
     1c4:	e92d40e0 	push	{r5, r6, r7, lr}
     1c8:	e3a07006 	mov	r7, #6
     1cc:	e3a06000 	mov	r6, #0
     1d0:	ef000000 	svc	0x00000000
     1d4:	e8bd80e0 	pop	{r5, r6, r7, pc}

000001d8 <utee_invoke_ta_command>:
utee_invoke_ta_command():
/home/rossierd/soo.tech/soo/optee_os/lib/libutee/arch/arm/utee_syscalls_asm.S:23
     1d8:	e92d40e0 	push	{r5, r6, r7, lr}
     1dc:	e3a07007 	mov	r7, #7
     1e0:	e3a06001 	mov	r6, #1
     1e4:	e28d5010 	add	r5, sp, #16
     1e8:	ef000000 	svc	0x00000000
     1ec:	e8bd80e0 	pop	{r5, r6, r7, pc}

000001f0 <utee_get_cancellation_flag>:
utee_get_cancellation_flag():
/home/rossierd/soo.tech/soo/optee_os/lib/libutee/arch/arm/utee_syscalls_asm.S:25
     1f0:	e92d40e0 	push	{r5, r6, r7, lr}
     1f4:	e3a07009 	mov	r7, #9
     1f8:	e3a06000 	mov	r6, #0
     1fc:	ef000000 	svc	0x00000000
     200:	e8bd80e0 	pop	{r5, r6, r7, pc}

00000204 <utee_check_access_rights>:
utee_check_access_rights():
/home/rossierd/soo.tech/soo/optee_os/lib/libutee/arch/arm/utee_syscalls_asm.S:28
     204:	e92d40e0 	push	{r5, r6, r7, lr}
     208:	e3a07008 	mov	r7, #8
     20c:	e3a06000 	mov	r6, #0
     210:	ef000000 	svc	0x00000000
     214:	e8bd80e0 	pop	{r5, r6, r7, pc}

00000218 <utee_unmask_cancellation>:
utee_unmask_cancellation():
/home/rossierd/soo.tech/soo/optee_os/lib/libutee/arch/arm/utee_syscalls_asm.S:30
     218:	e92d40e0 	push	{r5, r6, r7, lr}
     21c:	e3a0700a 	mov	r7, #10
     220:	e3a06000 	mov	r6, #0
     224:	ef000000 	svc	0x00000000
     228:	e8bd80e0 	pop	{r5, r6, r7, pc}

0000022c <utee_mask_cancellation>:
utee_mask_cancellation():
/home/rossierd/soo.tech/soo/optee_os/lib/libutee/arch/arm/utee_syscalls_asm.S:32
     22c:	e92d40e0 	push	{r5, r6, r7, lr}
     230:	e3a0700b 	mov	r7, #11
     234:	e3a06000 	mov	r6, #0
     238:	ef000000 	svc	0x00000000
     23c:	e8bd80e0 	pop	{r5, r6, r7, pc}

00000240 <utee_wait>:
utee_wait():
/home/rossierd/soo.tech/soo/optee_os/lib/libutee/arch/arm/utee_syscalls_asm.S:34
     240:	e92d40e0 	push	{r5, r6, r7, lr}
     244:	e3a0700c 	mov	r7, #12
     248:	e3a06000 	mov	r6, #0
     24c:	ef000000 	svc	0x00000000
     250:	e8bd80e0 	pop	{r5, r6, r7, pc}

00000254 <utee_get_time>:
utee_get_time():
/home/rossierd/soo.tech/soo/optee_os/lib/libutee/arch/arm/utee_syscalls_asm.S:36
     254:	e92d40e0 	push	{r5, r6, r7, lr}
     258:	e3a0700d 	mov	r7, #13
     25c:	e3a06000 	mov	r6, #0
     260:	ef000000 	svc	0x00000000
     264:	e8bd80e0 	pop	{r5, r6, r7, pc}

00000268 <utee_set_ta_time>:
utee_set_ta_time():
/home/rossierd/soo.tech/soo/optee_os/lib/libutee/arch/arm/utee_syscalls_asm.S:38
     268:	e92d40e0 	push	{r5, r6, r7, lr}
     26c:	e3a0700e 	mov	r7, #14
     270:	e3a06000 	mov	r6, #0
     274:	ef000000 	svc	0x00000000
     278:	e8bd80e0 	pop	{r5, r6, r7, pc}

0000027c <utee_cryp_state_alloc>:
utee_cryp_state_alloc():
/home/rossierd/soo.tech/soo/optee_os/lib/libutee/arch/arm/utee_syscalls_asm.S:40
     27c:	e92d40e0 	push	{r5, r6, r7, lr}
     280:	e3a0700f 	mov	r7, #15
     284:	e3a06001 	mov	r6, #1
     288:	e28d5010 	add	r5, sp, #16
     28c:	ef000000 	svc	0x00000000
     290:	e8bd80e0 	pop	{r5, r6, r7, pc}

00000294 <utee_cryp_state_copy>:
utee_cryp_state_copy():
/home/rossierd/soo.tech/soo/optee_os/lib/libutee/arch/arm/utee_syscalls_asm.S:42
     294:	e92d40e0 	push	{r5, r6, r7, lr}
     298:	e3a07010 	mov	r7, #16
     29c:	e3a06000 	mov	r6, #0
     2a0:	ef000000 	svc	0x00000000
     2a4:	e8bd80e0 	pop	{r5, r6, r7, pc}

000002a8 <utee_cryp_state_free>:
utee_cryp_state_free():
/home/rossierd/soo.tech/soo/optee_os/lib/libutee/arch/arm/utee_syscalls_asm.S:44
     2a8:	e92d40e0 	push	{r5, r6, r7, lr}
     2ac:	e3a07011 	mov	r7, #17
     2b0:	e3a06000 	mov	r6, #0
     2b4:	ef000000 	svc	0x00000000
     2b8:	e8bd80e0 	pop	{r5, r6, r7, pc}

000002bc <utee_hash_init>:
utee_hash_init():
/home/rossierd/soo.tech/soo/optee_os/lib/libutee/arch/arm/utee_syscalls_asm.S:46
     2bc:	e92d40e0 	push	{r5, r6, r7, lr}
     2c0:	e3a07012 	mov	r7, #18
     2c4:	e3a06000 	mov	r6, #0
     2c8:	ef000000 	svc	0x00000000
     2cc:	e8bd80e0 	pop	{r5, r6, r7, pc}

000002d0 <utee_hash_update>:
utee_hash_update():
/home/rossierd/soo.tech/soo/optee_os/lib/libutee/arch/arm/utee_syscalls_asm.S:48
     2d0:	e92d40e0 	push	{r5, r6, r7, lr}
     2d4:	e3a07013 	mov	r7, #19
     2d8:	e3a06000 	mov	r6, #0
     2dc:	ef000000 	svc	0x00000000
     2e0:	e8bd80e0 	pop	{r5, r6, r7, pc}

000002e4 <utee_hash_final>:
utee_hash_final():
/home/rossierd/soo.tech/soo/optee_os/lib/libutee/arch/arm/utee_syscalls_asm.S:50
     2e4:	e92d40e0 	push	{r5, r6, r7, lr}
     2e8:	e3a07014 	mov	r7, #20
     2ec:	e3a06001 	mov	r6, #1
     2f0:	e28d5010 	add	r5, sp, #16
     2f4:	ef000000 	svc	0x00000000
     2f8:	e8bd80e0 	pop	{r5, r6, r7, pc}

000002fc <utee_cipher_init>:
utee_cipher_init():
/home/rossierd/soo.tech/soo/optee_os/lib/libutee/arch/arm/utee_syscalls_asm.S:52
     2fc:	e92d40e0 	push	{r5, r6, r7, lr}
     300:	e3a07015 	mov	r7, #21
     304:	e3a06000 	mov	r6, #0
     308:	ef000000 	svc	0x00000000
     30c:	e8bd80e0 	pop	{r5, r6, r7, pc}

00000310 <utee_cipher_update>:
utee_cipher_update():
/home/rossierd/soo.tech/soo/optee_os/lib/libutee/arch/arm/utee_syscalls_asm.S:54
     310:	e92d40e0 	push	{r5, r6, r7, lr}
     314:	e3a07016 	mov	r7, #22
     318:	e3a06001 	mov	r6, #1
     31c:	e28d5010 	add	r5, sp, #16
     320:	ef000000 	svc	0x00000000
     324:	e8bd80e0 	pop	{r5, r6, r7, pc}

00000328 <utee_cipher_final>:
utee_cipher_final():
/home/rossierd/soo.tech/soo/optee_os/lib/libutee/arch/arm/utee_syscalls_asm.S:56
     328:	e92d40e0 	push	{r5, r6, r7, lr}
     32c:	e3a07017 	mov	r7, #23
     330:	e3a06001 	mov	r6, #1
     334:	e28d5010 	add	r5, sp, #16
     338:	ef000000 	svc	0x00000000
     33c:	e8bd80e0 	pop	{r5, r6, r7, pc}

00000340 <utee_cryp_obj_get_info>:
utee_cryp_obj_get_info():
/home/rossierd/soo.tech/soo/optee_os/lib/libutee/arch/arm/utee_syscalls_asm.S:58
     340:	e92d40e0 	push	{r5, r6, r7, lr}
     344:	e3a07018 	mov	r7, #24
     348:	e3a06000 	mov	r6, #0
     34c:	ef000000 	svc	0x00000000
     350:	e8bd80e0 	pop	{r5, r6, r7, pc}

00000354 <utee_cryp_obj_restrict_usage>:
utee_cryp_obj_restrict_usage():
/home/rossierd/soo.tech/soo/optee_os/lib/libutee/arch/arm/utee_syscalls_asm.S:60
     354:	e92d40e0 	push	{r5, r6, r7, lr}
     358:	e3a07019 	mov	r7, #25
     35c:	e3a06000 	mov	r6, #0
     360:	ef000000 	svc	0x00000000
     364:	e8bd80e0 	pop	{r5, r6, r7, pc}

00000368 <utee_cryp_obj_get_attr>:
utee_cryp_obj_get_attr():
/home/rossierd/soo.tech/soo/optee_os/lib/libutee/arch/arm/utee_syscalls_asm.S:63
     368:	e92d40e0 	push	{r5, r6, r7, lr}
     36c:	e3a0701a 	mov	r7, #26
     370:	e3a06000 	mov	r6, #0
     374:	ef000000 	svc	0x00000000
     378:	e8bd80e0 	pop	{r5, r6, r7, pc}

0000037c <utee_cryp_obj_alloc>:
utee_cryp_obj_alloc():
/home/rossierd/soo.tech/soo/optee_os/lib/libutee/arch/arm/utee_syscalls_asm.S:65
     37c:	e92d40e0 	push	{r5, r6, r7, lr}
     380:	e3a0701b 	mov	r7, #27
     384:	e3a06000 	mov	r6, #0
     388:	ef000000 	svc	0x00000000
     38c:	e8bd80e0 	pop	{r5, r6, r7, pc}

00000390 <utee_cryp_obj_close>:
utee_cryp_obj_close():
/home/rossierd/soo.tech/soo/optee_os/lib/libutee/arch/arm/utee_syscalls_asm.S:67
     390:	e92d40e0 	push	{r5, r6, r7, lr}
     394:	e3a0701c 	mov	r7, #28
     398:	e3a06000 	mov	r6, #0
     39c:	ef000000 	svc	0x00000000
     3a0:	e8bd80e0 	pop	{r5, r6, r7, pc}

000003a4 <utee_cryp_obj_reset>:
utee_cryp_obj_reset():
/home/rossierd/soo.tech/soo/optee_os/lib/libutee/arch/arm/utee_syscalls_asm.S:69
     3a4:	e92d40e0 	push	{r5, r6, r7, lr}
     3a8:	e3a0701d 	mov	r7, #29
     3ac:	e3a06000 	mov	r6, #0
     3b0:	ef000000 	svc	0x00000000
     3b4:	e8bd80e0 	pop	{r5, r6, r7, pc}

000003b8 <utee_cryp_obj_populate>:
utee_cryp_obj_populate():
/home/rossierd/soo.tech/soo/optee_os/lib/libutee/arch/arm/utee_syscalls_asm.S:71
     3b8:	e92d40e0 	push	{r5, r6, r7, lr}
     3bc:	e3a0701e 	mov	r7, #30
     3c0:	e3a06000 	mov	r6, #0
     3c4:	ef000000 	svc	0x00000000
     3c8:	e8bd80e0 	pop	{r5, r6, r7, pc}

000003cc <utee_cryp_obj_copy>:
utee_cryp_obj_copy():
/home/rossierd/soo.tech/soo/optee_os/lib/libutee/arch/arm/utee_syscalls_asm.S:73
     3cc:	e92d40e0 	push	{r5, r6, r7, lr}
     3d0:	e3a0701f 	mov	r7, #31
     3d4:	e3a06000 	mov	r6, #0
     3d8:	ef000000 	svc	0x00000000
     3dc:	e8bd80e0 	pop	{r5, r6, r7, pc}

000003e0 <utee_cryp_derive_key>:
utee_cryp_derive_key():
/home/rossierd/soo.tech/soo/optee_os/lib/libutee/arch/arm/utee_syscalls_asm.S:75
     3e0:	e92d40e0 	push	{r5, r6, r7, lr}
     3e4:	e3a07020 	mov	r7, #32
     3e8:	e3a06000 	mov	r6, #0
     3ec:	ef000000 	svc	0x00000000
     3f0:	e8bd80e0 	pop	{r5, r6, r7, pc}

000003f4 <utee_cryp_random_number_generate>:
utee_cryp_random_number_generate():
/home/rossierd/soo.tech/soo/optee_os/lib/libutee/arch/arm/utee_syscalls_asm.S:77
     3f4:	e92d40e0 	push	{r5, r6, r7, lr}
     3f8:	e3a07021 	mov	r7, #33	; 0x21
     3fc:	e3a06000 	mov	r6, #0
     400:	ef000000 	svc	0x00000000
     404:	e8bd80e0 	pop	{r5, r6, r7, pc}

00000408 <utee_authenc_init>:
utee_authenc_init():
/home/rossierd/soo.tech/soo/optee_os/lib/libutee/arch/arm/utee_syscalls_asm.S:80
     408:	e92d40e0 	push	{r5, r6, r7, lr}
     40c:	e3a07022 	mov	r7, #34	; 0x22
     410:	e3a06002 	mov	r6, #2
     414:	e28d5010 	add	r5, sp, #16
     418:	ef000000 	svc	0x00000000
     41c:	e8bd80e0 	pop	{r5, r6, r7, pc}

00000420 <utee_authenc_update_aad>:
utee_authenc_update_aad():
/home/rossierd/soo.tech/soo/optee_os/lib/libutee/arch/arm/utee_syscalls_asm.S:82
     420:	e92d40e0 	push	{r5, r6, r7, lr}
     424:	e3a07023 	mov	r7, #35	; 0x23
     428:	e3a06000 	mov	r6, #0
     42c:	ef000000 	svc	0x00000000
     430:	e8bd80e0 	pop	{r5, r6, r7, pc}

00000434 <utee_authenc_update_payload>:
utee_authenc_update_payload():
/home/rossierd/soo.tech/soo/optee_os/lib/libutee/arch/arm/utee_syscalls_asm.S:84
     434:	e92d40e0 	push	{r5, r6, r7, lr}
     438:	e3a07024 	mov	r7, #36	; 0x24
     43c:	e3a06001 	mov	r6, #1
     440:	e28d5010 	add	r5, sp, #16
     444:	ef000000 	svc	0x00000000
     448:	e8bd80e0 	pop	{r5, r6, r7, pc}

0000044c <utee_authenc_enc_final>:
utee_authenc_enc_final():
/home/rossierd/soo.tech/soo/optee_os/lib/libutee/arch/arm/utee_syscalls_asm.S:87
     44c:	e92d40e0 	push	{r5, r6, r7, lr}
     450:	e3a07025 	mov	r7, #37	; 0x25
     454:	e3a06003 	mov	r6, #3
     458:	e28d5010 	add	r5, sp, #16
     45c:	ef000000 	svc	0x00000000
     460:	e8bd80e0 	pop	{r5, r6, r7, pc}

00000464 <utee_authenc_dec_final>:
utee_authenc_dec_final():
/home/rossierd/soo.tech/soo/optee_os/lib/libutee/arch/arm/utee_syscalls_asm.S:89
     464:	e92d40e0 	push	{r5, r6, r7, lr}
     468:	e3a07026 	mov	r7, #38	; 0x26
     46c:	e3a06003 	mov	r6, #3
     470:	e28d5010 	add	r5, sp, #16
     474:	ef000000 	svc	0x00000000
     478:	e8bd80e0 	pop	{r5, r6, r7, pc}

0000047c <utee_asymm_operate>:
utee_asymm_operate():
/home/rossierd/soo.tech/soo/optee_os/lib/libutee/arch/arm/utee_syscalls_asm.S:91
     47c:	e92d40e0 	push	{r5, r6, r7, lr}
     480:	e3a07027 	mov	r7, #39	; 0x27
     484:	e3a06003 	mov	r6, #3
     488:	e28d5010 	add	r5, sp, #16
     48c:	ef000000 	svc	0x00000000
     490:	e8bd80e0 	pop	{r5, r6, r7, pc}

00000494 <utee_asymm_verify>:
utee_asymm_verify():
/home/rossierd/soo.tech/soo/optee_os/lib/libutee/arch/arm/utee_syscalls_asm.S:93
     494:	e92d40e0 	push	{r5, r6, r7, lr}
     498:	e3a07028 	mov	r7, #40	; 0x28
     49c:	e3a06003 	mov	r6, #3
     4a0:	e28d5010 	add	r5, sp, #16
     4a4:	ef000000 	svc	0x00000000
     4a8:	e8bd80e0 	pop	{r5, r6, r7, pc}

000004ac <utee_storage_obj_open>:
utee_storage_obj_open():
/home/rossierd/soo.tech/soo/optee_os/lib/libutee/arch/arm/utee_syscalls_asm.S:95
     4ac:	e92d40e0 	push	{r5, r6, r7, lr}
     4b0:	e3a07029 	mov	r7, #41	; 0x29
     4b4:	e3a06001 	mov	r6, #1
     4b8:	e28d5010 	add	r5, sp, #16
     4bc:	ef000000 	svc	0x00000000
     4c0:	e8bd80e0 	pop	{r5, r6, r7, pc}

000004c4 <utee_storage_obj_create>:
utee_storage_obj_create():
/home/rossierd/soo.tech/soo/optee_os/lib/libutee/arch/arm/utee_syscalls_asm.S:97
     4c4:	e92d40e0 	push	{r5, r6, r7, lr}
     4c8:	e3a0702a 	mov	r7, #42	; 0x2a
     4cc:	e3a06004 	mov	r6, #4
     4d0:	e28d5010 	add	r5, sp, #16
     4d4:	ef000000 	svc	0x00000000
     4d8:	e8bd80e0 	pop	{r5, r6, r7, pc}

000004dc <utee_storage_obj_del>:
utee_storage_obj_del():
/home/rossierd/soo.tech/soo/optee_os/lib/libutee/arch/arm/utee_syscalls_asm.S:99
     4dc:	e92d40e0 	push	{r5, r6, r7, lr}
     4e0:	e3a0702b 	mov	r7, #43	; 0x2b
     4e4:	e3a06000 	mov	r6, #0
     4e8:	ef000000 	svc	0x00000000
     4ec:	e8bd80e0 	pop	{r5, r6, r7, pc}

000004f0 <utee_storage_obj_rename>:
utee_storage_obj_rename():
/home/rossierd/soo.tech/soo/optee_os/lib/libutee/arch/arm/utee_syscalls_asm.S:101
     4f0:	e92d40e0 	push	{r5, r6, r7, lr}
     4f4:	e3a0702c 	mov	r7, #44	; 0x2c
     4f8:	e3a06000 	mov	r6, #0
     4fc:	ef000000 	svc	0x00000000
     500:	e8bd80e0 	pop	{r5, r6, r7, pc}

00000504 <utee_storage_alloc_enum>:
utee_storage_alloc_enum():
/home/rossierd/soo.tech/soo/optee_os/lib/libutee/arch/arm/utee_syscalls_asm.S:103
     504:	e92d40e0 	push	{r5, r6, r7, lr}
     508:	e3a0702d 	mov	r7, #45	; 0x2d
     50c:	e3a06000 	mov	r6, #0
     510:	ef000000 	svc	0x00000000
     514:	e8bd80e0 	pop	{r5, r6, r7, pc}

00000518 <utee_storage_free_enum>:
utee_storage_free_enum():
/home/rossierd/soo.tech/soo/optee_os/lib/libutee/arch/arm/utee_syscalls_asm.S:105
     518:	e92d40e0 	push	{r5, r6, r7, lr}
     51c:	e3a0702e 	mov	r7, #46	; 0x2e
     520:	e3a06000 	mov	r6, #0
     524:	ef000000 	svc	0x00000000
     528:	e8bd80e0 	pop	{r5, r6, r7, pc}

0000052c <utee_storage_reset_enum>:
utee_storage_reset_enum():
/home/rossierd/soo.tech/soo/optee_os/lib/libutee/arch/arm/utee_syscalls_asm.S:107
     52c:	e92d40e0 	push	{r5, r6, r7, lr}
     530:	e3a0702f 	mov	r7, #47	; 0x2f
     534:	e3a06000 	mov	r6, #0
     538:	ef000000 	svc	0x00000000
     53c:	e8bd80e0 	pop	{r5, r6, r7, pc}

00000540 <utee_storage_start_enum>:
utee_storage_start_enum():
/home/rossierd/soo.tech/soo/optee_os/lib/libutee/arch/arm/utee_syscalls_asm.S:109
     540:	e92d40e0 	push	{r5, r6, r7, lr}
     544:	e3a07030 	mov	r7, #48	; 0x30
     548:	e3a06000 	mov	r6, #0
     54c:	ef000000 	svc	0x00000000
     550:	e8bd80e0 	pop	{r5, r6, r7, pc}

00000554 <utee_storage_next_enum>:
utee_storage_next_enum():
/home/rossierd/soo.tech/soo/optee_os/lib/libutee/arch/arm/utee_syscalls_asm.S:111
     554:	e92d40e0 	push	{r5, r6, r7, lr}
     558:	e3a07031 	mov	r7, #49	; 0x31
     55c:	e3a06000 	mov	r6, #0
     560:	ef000000 	svc	0x00000000
     564:	e8bd80e0 	pop	{r5, r6, r7, pc}

00000568 <utee_storage_obj_read>:
utee_storage_obj_read():
/home/rossierd/soo.tech/soo/optee_os/lib/libutee/arch/arm/utee_syscalls_asm.S:113
     568:	e92d40e0 	push	{r5, r6, r7, lr}
     56c:	e3a07032 	mov	r7, #50	; 0x32
     570:	e3a06000 	mov	r6, #0
     574:	ef000000 	svc	0x00000000
     578:	e8bd80e0 	pop	{r5, r6, r7, pc}

0000057c <utee_storage_obj_write>:
utee_storage_obj_write():
/home/rossierd/soo.tech/soo/optee_os/lib/libutee/arch/arm/utee_syscalls_asm.S:115
     57c:	e92d40e0 	push	{r5, r6, r7, lr}
     580:	e3a07033 	mov	r7, #51	; 0x33
     584:	e3a06000 	mov	r6, #0
     588:	ef000000 	svc	0x00000000
     58c:	e8bd80e0 	pop	{r5, r6, r7, pc}

00000590 <utee_storage_obj_trunc>:
utee_storage_obj_trunc():
/home/rossierd/soo.tech/soo/optee_os/lib/libutee/arch/arm/utee_syscalls_asm.S:117
     590:	e92d40e0 	push	{r5, r6, r7, lr}
     594:	e3a07034 	mov	r7, #52	; 0x34
     598:	e3a06000 	mov	r6, #0
     59c:	ef000000 	svc	0x00000000
     5a0:	e8bd80e0 	pop	{r5, r6, r7, pc}

000005a4 <utee_storage_obj_seek>:
utee_storage_obj_seek():
/home/rossierd/soo.tech/soo/optee_os/lib/libutee/arch/arm/utee_syscalls_asm.S:119
     5a4:	e92d40e0 	push	{r5, r6, r7, lr}
     5a8:	e3a07035 	mov	r7, #53	; 0x35
     5ac:	e3a06000 	mov	r6, #0
     5b0:	ef000000 	svc	0x00000000
     5b4:	e8bd80e0 	pop	{r5, r6, r7, pc}

000005b8 <utee_cryp_obj_generate_key>:
utee_cryp_obj_generate_key():
/home/rossierd/soo.tech/soo/optee_os/lib/libutee/arch/arm/utee_syscalls_asm.S:121
     5b8:	e92d40e0 	push	{r5, r6, r7, lr}
     5bc:	e3a07036 	mov	r7, #54	; 0x36
     5c0:	e3a06000 	mov	r6, #0
     5c4:	ef000000 	svc	0x00000000
     5c8:	e8bd80e0 	pop	{r5, r6, r7, pc}

000005cc <utee_cache_operation>:
utee_cache_operation():
/home/rossierd/soo.tech/soo/optee_os/lib/libutee/arch/arm/utee_syscalls_asm.S:124
     5cc:	e92d40e0 	push	{r5, r6, r7, lr}
     5d0:	e3a07046 	mov	r7, #70	; 0x46
     5d4:	e3a06000 	mov	r6, #0
     5d8:	ef000000 	svc	0x00000000
     5dc:	e8bd80e0 	pop	{r5, r6, r7, pc}

000005e0 <ta_header_get_session>:
ta_header_get_session():
/home/rossierd/soo.tech/soo/optee_os/lib/libutee/arch/arm/user_ta_entry.c:68
     5e0:	e59f3034 	ldr	r3, [pc, #52]	; 61c <ta_header_get_session+0x3c>
/home/rossierd/soo.tech/soo/optee_os/lib/libutee/arch/arm/user_ta_entry.c:65
     5e4:	e1a0c00d 	mov	ip, sp
     5e8:	e92dd800 	push	{fp, ip, lr, pc}
     5ec:	e24cb004 	sub	fp, ip, #4
/home/rossierd/soo.tech/soo/optee_os/lib/libutee/arch/arm/user_ta_entry.c:68
     5f0:	e08f3003 	add	r3, pc, r3
     5f4:	e5933000 	ldr	r3, [r3]
/home/rossierd/soo.tech/soo/optee_os/lib/libutee/arch/arm/user_ta_entry.c:68 (discriminator 1)
     5f8:	e3530000 	cmp	r3, #0
     5fc:	1a000001 	bne	608 <ta_header_get_session+0x28>
/home/rossierd/soo.tech/soo/optee_os/lib/libutee/arch/arm/user_ta_entry.c:73
     600:	e1a00003 	mov	r0, r3
     604:	e89da800 	ldm	sp, {fp, sp, pc}
/home/rossierd/soo.tech/soo/optee_os/lib/libutee/arch/arm/user_ta_entry.c:69
     608:	e5932000 	ldr	r2, [r3]
     60c:	e1520000 	cmp	r2, r0
     610:	0afffffa 	beq	600 <ta_header_get_session+0x20>
/home/rossierd/soo.tech/soo/optee_os/lib/libutee/arch/arm/user_ta_entry.c:68 (discriminator 2)
     614:	e5933008 	ldr	r3, [r3, #8]
     618:	eafffff6 	b	5f8 <ta_header_get_session+0x18>
     61c:	0000bc44 	.word	0x0000bc44

00000620 <to_utee_params>:
to_utee_params():
/home/rossierd/soo.tech/soo/optee_os/lib/libutee/arch/arm/user_ta_entry.c:124
     620:	e1a0c00d 	mov	ip, sp
/home/rossierd/soo.tech/soo/optee_os/lib/libutee/arch/arm/user_ta_entry.c:127
     624:	e3a03000 	mov	r3, #0
/home/rossierd/soo.tech/soo/optee_os/lib/libutee/arch/arm/user_ta_entry.c:124
     628:	e92dd870 	push	{r4, r5, r6, fp, ip, lr, pc}
     62c:	e24cb004 	sub	fp, ip, #4
     630:	e1a0e002 	mov	lr, r2
/home/rossierd/soo.tech/soo/optee_os/lib/libutee/arch/arm/user_ta_entry.c:143
     634:	e3a04000 	mov	r4, #0
     638:	e3a05000 	mov	r5, #0
/home/rossierd/soo.tech/soo/optee_os/lib/libutee/arch/arm/user_ta_entry.c:139
     63c:	e1a06003 	mov	r6, r3
/home/rossierd/soo.tech/soo/optee_os/lib/libutee/arch/arm/user_ta_entry.c:127
     640:	e880000a 	stm	r0, {r1, r3}
/home/rossierd/soo.tech/soo/optee_os/lib/libutee/arch/arm/user_ta_entry.c:129
     644:	e1a0c331 	lsr	ip, r1, r3
     648:	e20cc00f 	and	ip, ip, #15
     64c:	e24cc001 	sub	ip, ip, #1
     650:	e35c0006 	cmp	ip, #6
     654:	908ff10c 	addls	pc, pc, ip, lsl #2
     658:	ea000012 	b	6a8 <to_utee_params+0x88>
     65c:	ea000005 	b	678 <to_utee_params+0x58>
     660:	ea000004 	b	678 <to_utee_params+0x58>
     664:	ea000003 	b	678 <to_utee_params+0x58>
     668:	ea00000e 	b	6a8 <to_utee_params+0x88>
     66c:	ea000001 	b	678 <to_utee_params+0x58>
     670:	ea000000 	b	678 <to_utee_params+0x58>
     674:	eaffffff 	b	678 <to_utee_params+0x58>
/home/rossierd/soo.tech/soo/optee_os/lib/libutee/arch/arm/user_ta_entry.c:139
     678:	e792c083 	ldr	ip, [r2, r3, lsl #1]
     67c:	e580c008 	str	ip, [r0, #8]
     680:	e580600c 	str	r6, [r0, #12]
/home/rossierd/soo.tech/soo/optee_os/lib/libutee/arch/arm/user_ta_entry.c:140
     684:	e59ec004 	ldr	ip, [lr, #4]
     688:	e580c010 	str	ip, [r0, #16]
     68c:	e5806014 	str	r6, [r0, #20]
     690:	e2833004 	add	r3, r3, #4
     694:	e28ee008 	add	lr, lr, #8
/home/rossierd/soo.tech/soo/optee_os/lib/libutee/arch/arm/user_ta_entry.c:128 (discriminator 2)
     698:	e3530010 	cmp	r3, #16
     69c:	e2800010 	add	r0, r0, #16
     6a0:	1affffe7 	bne	644 <to_utee_params+0x24>
/home/rossierd/soo.tech/soo/optee_os/lib/libutee/arch/arm/user_ta_entry.c:148
     6a4:	e89da870 	ldm	sp, {r4, r5, r6, fp, sp, pc}
/home/rossierd/soo.tech/soo/optee_os/lib/libutee/arch/arm/user_ta_entry.c:143
     6a8:	e1c040f8 	strd	r4, [r0, #8]
/home/rossierd/soo.tech/soo/optee_os/lib/libutee/arch/arm/user_ta_entry.c:144
     6ac:	e1c041f0 	strd	r4, [r0, #16]
/home/rossierd/soo.tech/soo/optee_os/lib/libutee/arch/arm/user_ta_entry.c:145
     6b0:	eafffff6 	b	690 <to_utee_params+0x70>

000006b4 <from_utee_params>:
from_utee_params():
/home/rossierd/soo.tech/soo/optee_os/lib/libutee/arch/arm/user_ta_entry.c:153
     6b4:	e1a0c00d 	mov	ip, sp
/home/rossierd/soo.tech/soo/optee_os/lib/libutee/arch/arm/user_ta_entry.c:155
     6b8:	e3a03000 	mov	r3, #0
/home/rossierd/soo.tech/soo/optee_os/lib/libutee/arch/arm/user_ta_entry.c:153
     6bc:	e92dd870 	push	{r4, r5, r6, fp, ip, lr, pc}
     6c0:	e24cb004 	sub	fp, ip, #4
/home/rossierd/soo.tech/soo/optee_os/lib/libutee/arch/arm/user_ta_entry.c:155
     6c4:	e5924000 	ldr	r4, [r2]
     6c8:	e1a0e000 	mov	lr, r0
/home/rossierd/soo.tech/soo/optee_os/lib/libutee/arch/arm/user_ta_entry.c:161
     6cc:	e1a0c334 	lsr	ip, r4, r3
/home/rossierd/soo.tech/soo/optee_os/lib/libutee/arch/arm/user_ta_entry.c:158
     6d0:	e5926008 	ldr	r6, [r2, #8]
/home/rossierd/soo.tech/soo/optee_os/lib/libutee/arch/arm/user_ta_entry.c:159
     6d4:	e5925010 	ldr	r5, [r2, #16]
/home/rossierd/soo.tech/soo/optee_os/lib/libutee/arch/arm/user_ta_entry.c:161
     6d8:	e20cc00f 	and	ip, ip, #15
     6dc:	e24cc001 	sub	ip, ip, #1
     6e0:	e35c0006 	cmp	ip, #6
     6e4:	908ff10c 	addls	pc, pc, ip, lsl #2
     6e8:	ea000008 	b	710 <from_utee_params+0x5c>
     6ec:	ea000005 	b	708 <from_utee_params+0x54>
     6f0:	ea000004 	b	708 <from_utee_params+0x54>
     6f4:	ea000003 	b	708 <from_utee_params+0x54>
     6f8:	ea000004 	b	710 <from_utee_params+0x5c>
     6fc:	ea000001 	b	708 <from_utee_params+0x54>
     700:	ea000000 	b	708 <from_utee_params+0x54>
     704:	eaffffff 	b	708 <from_utee_params+0x54>
/home/rossierd/soo.tech/soo/optee_os/lib/libutee/arch/arm/user_ta_entry.c:171
     708:	e7806083 	str	r6, [r0, r3, lsl #1]
/home/rossierd/soo.tech/soo/optee_os/lib/libutee/arch/arm/user_ta_entry.c:172
     70c:	e58e5004 	str	r5, [lr, #4]
     710:	e2833004 	add	r3, r3, #4
     714:	e2822010 	add	r2, r2, #16
/home/rossierd/soo.tech/soo/optee_os/lib/libutee/arch/arm/user_ta_entry.c:157 (discriminator 2)
     718:	e3530010 	cmp	r3, #16
     71c:	e28ee008 	add	lr, lr, #8
     720:	1affffe9 	bne	6cc <from_utee_params+0x18>
/home/rossierd/soo.tech/soo/optee_os/lib/libutee/arch/arm/user_ta_entry.c:179
     724:	e3510000 	cmp	r1, #0
/home/rossierd/soo.tech/soo/optee_os/lib/libutee/arch/arm/user_ta_entry.c:180
     728:	15814000 	strne	r4, [r1]
     72c:	e89da870 	ldm	sp, {r4, r5, r6, fp, sp, pc}

00000730 <ta_header_remove_session>:
ta_header_remove_session():
/home/rossierd/soo.tech/soo/optee_os/lib/libutee/arch/arm/user_ta_entry.c:106
     730:	e59f30a4 	ldr	r3, [pc, #164]	; 7dc <ta_header_remove_session+0xac>
/home/rossierd/soo.tech/soo/optee_os/lib/libutee/arch/arm/user_ta_entry.c:102
     734:	e1a0c00d 	mov	ip, sp
     738:	e92dd830 	push	{r4, r5, fp, ip, lr, pc}
     73c:	e24cb004 	sub	fp, ip, #4
     740:	e59f4098 	ldr	r4, [pc, #152]	; 7e0 <ta_header_remove_session+0xb0>
/home/rossierd/soo.tech/soo/optee_os/lib/libutee/arch/arm/user_ta_entry.c:106
     744:	e08f3003 	add	r3, pc, r3
     748:	e5933000 	ldr	r3, [r3]
/home/rossierd/soo.tech/soo/optee_os/lib/libutee/arch/arm/user_ta_entry.c:102
     74c:	e08f4004 	add	r4, pc, r4
/home/rossierd/soo.tech/soo/optee_os/lib/libutee/arch/arm/user_ta_entry.c:106 (discriminator 1)
     750:	e3530000 	cmp	r3, #0
     754:	1a000000 	bne	75c <ta_header_remove_session+0x2c>
     758:	e89da830 	ldm	sp, {r4, r5, fp, sp, pc}
/home/rossierd/soo.tech/soo/optee_os/lib/libutee/arch/arm/user_ta_entry.c:107
     75c:	e5932000 	ldr	r2, [r3]
     760:	e1520000 	cmp	r2, r0
     764:	e5932008 	ldr	r2, [r3, #8]
     768:	1a000019 	bne	7d4 <ta_header_remove_session+0xa4>
     76c:	e593100c 	ldr	r1, [r3, #12]
/home/rossierd/soo.tech/soo/optee_os/lib/libutee/arch/arm/user_ta_entry.c:108
     770:	e3520000 	cmp	r2, #0
     774:	1582100c 	strne	r1, [r2, #12]
/home/rossierd/soo.tech/soo/optee_os/lib/libutee/arch/arm/user_ta_entry.c:108 (discriminator 2)
     778:	059f0064 	ldreq	r0, [pc, #100]	; 7e4 <ta_header_remove_session+0xb4>
     77c:	008f0000 	addeq	r0, pc, r0
     780:	05801004 	streq	r1, [r0, #4]
/home/rossierd/soo.tech/soo/optee_os/lib/libutee/arch/arm/user_ta_entry.c:108 (discriminator 4)
     784:	e593100c 	ldr	r1, [r3, #12]
/home/rossierd/soo.tech/soo/optee_os/lib/libutee/arch/arm/user_ta_entry.c:109 (discriminator 4)
     788:	e1a00003 	mov	r0, r3
/home/rossierd/soo.tech/soo/optee_os/lib/libutee/arch/arm/user_ta_entry.c:108 (discriminator 4)
     78c:	e5812000 	str	r2, [r1]
/home/rossierd/soo.tech/soo/optee_os/lib/libutee/arch/arm/user_ta_entry.c:109 (discriminator 4)
     790:	eb0002b2 	bl	1260 <TEE_Free>
/home/rossierd/soo.tech/soo/optee_os/lib/libutee/arch/arm/user_ta_entry.c:112 (discriminator 4)
     794:	e59f304c 	ldr	r3, [pc, #76]	; 7e8 <ta_header_remove_session+0xb8>
/home/rossierd/soo.tech/soo/optee_os/lib/libutee/arch/arm/user_ta_entry.c:114 (discriminator 4)
     798:	e59f204c 	ldr	r2, [pc, #76]	; 7ec <ta_header_remove_session+0xbc>
/home/rossierd/soo.tech/soo/optee_os/lib/libutee/arch/arm/user_ta_entry.c:112 (discriminator 4)
     79c:	e7943003 	ldr	r3, [r4, r3]
/home/rossierd/soo.tech/soo/optee_os/lib/libutee/arch/arm/user_ta_entry.c:114 (discriminator 4)
     7a0:	e08f2002 	add	r2, pc, r2
     7a4:	e5922000 	ldr	r2, [r2]
/home/rossierd/soo.tech/soo/optee_os/lib/libutee/arch/arm/user_ta_entry.c:112 (discriminator 4)
     7a8:	e5933014 	ldr	r3, [r3, #20]
     7ac:	e2033014 	and	r3, r3, #20
/home/rossierd/soo.tech/soo/optee_os/lib/libutee/arch/arm/user_ta_entry.c:114 (discriminator 4)
     7b0:	e2533014 	subs	r3, r3, #20
     7b4:	13a03001 	movne	r3, #1
     7b8:	e3520000 	cmp	r2, #0
     7bc:	13a03000 	movne	r3, #0
     7c0:	e3530000 	cmp	r3, #0
     7c4:	089da830 	ldmeq	sp, {r4, r5, fp, sp, pc}
/home/rossierd/soo.tech/soo/optee_os/lib/libutee/arch/arm/user_ta_entry.c:120
     7c8:	e24bd014 	sub	sp, fp, #20
     7cc:	e89d6830 	ldm	sp, {r4, r5, fp, sp, lr}
uninit_instance():
/home/rossierd/soo.tech/soo/optee_os/lib/libutee/arch/arm/user_ta_entry.c:50
     7d0:	eafffe17 	b	34 <TA_DestroyEntryPoint>
ta_header_remove_session():
/home/rossierd/soo.tech/soo/optee_os/lib/libutee/arch/arm/user_ta_entry.c:106 (discriminator 2)
     7d4:	e1a03002 	mov	r3, r2
     7d8:	eaffffdc 	b	750 <ta_header_remove_session+0x20>
     7dc:	0000baf0 	.word	0x0000baf0
     7e0:	0000b92c 	.word	0x0000b92c
     7e4:	0000bab8 	.word	0x0000bab8
     7e8:	00000034 	.word	0x00000034
     7ec:	0000ba94 	.word	0x0000ba94

000007f0 <__utee_entry>:
__utee_entry():
/home/rossierd/soo.tech/soo/optee_os/lib/libutee/arch/arm/user_ta_entry.c:248
     7f0:	e1a0c00d 	mov	ip, sp
/home/rossierd/soo.tech/soo/optee_os/lib/libutee/arch/arm/user_ta_entry.c:251
     7f4:	e3500001 	cmp	r0, #1
/home/rossierd/soo.tech/soo/optee_os/lib/libutee/arch/arm/user_ta_entry.c:248
     7f8:	e92ddff0 	push	{r4, r5, r6, r7, r8, r9, sl, fp, ip, lr, pc}
     7fc:	e1a09003 	mov	r9, r3
     800:	e59f4228 	ldr	r4, [pc, #552]	; a30 <__utee_entry+0x240>
     804:	e24cb004 	sub	fp, ip, #4
     808:	e24dd034 	sub	sp, sp, #52	; 0x34
     80c:	e59f3220 	ldr	r3, [pc, #544]	; a34 <__utee_entry+0x244>
     810:	e1a05001 	mov	r5, r1
     814:	e1a06002 	mov	r6, r2
     818:	e08f4004 	add	r4, pc, r4
     81c:	e7947003 	ldr	r7, [r4, r3]
     820:	e59f3210 	ldr	r3, [pc, #528]	; a38 <__utee_entry+0x248>
     824:	e7948003 	ldr	r8, [r4, r3]
/home/rossierd/soo.tech/soo/optee_os/lib/libutee/arch/arm/user_ta_entry.c:251
     828:	0a00005a 	beq	998 <__utee_entry+0x1a8>
     82c:	3a000005 	bcc	848 <__utee_entry+0x58>
     830:	e3500002 	cmp	r0, #2
     834:	0a000061 	beq	9c0 <__utee_entry+0x1d0>
/home/rossierd/soo.tech/soo/optee_os/lib/libutee/arch/arm/user_ta_entry.c:263
     838:	e3a00000 	mov	r0, #0
/home/rossierd/soo.tech/soo/optee_os/lib/libutee/arch/arm/user_ta_entry.c:262
     83c:	e3e04000 	mvn	r4, #0
/home/rossierd/soo.tech/soo/optee_os/lib/libutee/arch/arm/user_ta_entry.c:263
     840:	eb0002a1 	bl	12cc <TEE_Panic>
/home/rossierd/soo.tech/soo/optee_os/lib/libutee/arch/arm/user_ta_entry.c:264
     844:	ea00001f 	b	8c8 <__utee_entry+0xd8>
ta_header_add_session():
/home/rossierd/soo.tech/soo/optee_os/lib/libutee/arch/arm/user_ta_entry.c:77
     848:	e1a00001 	mov	r0, r1
     84c:	ebffff63 	bl	5e0 <ta_header_get_session>
/home/rossierd/soo.tech/soo/optee_os/lib/libutee/arch/arm/user_ta_entry.c:80
     850:	e3500000 	cmp	r0, #0
     854:	1a00002e 	bne	914 <__utee_entry+0x124>
/home/rossierd/soo.tech/soo/optee_os/lib/libutee/arch/arm/user_ta_entry.c:83
     858:	e59f31dc 	ldr	r3, [pc, #476]	; a3c <__utee_entry+0x24c>
     85c:	e08f3003 	add	r3, pc, r3
     860:	e5d32000 	ldrb	r2, [r3]
     864:	e3520000 	cmp	r2, #0
     868:	0a000006 	beq	888 <__utee_entry+0x98>
/home/rossierd/soo.tech/soo/optee_os/lib/libutee/arch/arm/user_ta_entry.c:90
     86c:	e3a01102 	mov	r1, #-2147483648	; 0x80000000
     870:	e3a00010 	mov	r0, #16
     874:	eb000254 	bl	11cc <TEE_Malloc>
/home/rossierd/soo.tech/soo/optee_os/lib/libutee/arch/arm/user_ta_entry.c:92
     878:	e3500000 	cmp	r0, #0
     87c:	1a000019 	bne	8e8 <__utee_entry+0xf8>
/home/rossierd/soo.tech/soo/optee_os/lib/libutee/arch/arm/user_ta_entry.c:93
     880:	e59f41b8 	ldr	r4, [pc, #440]	; a40 <__utee_entry+0x250>
     884:	ea00000f 	b	8c8 <__utee_entry+0xd8>
/home/rossierd/soo.tech/soo/optee_os/lib/libutee/arch/arm/user_ta_entry.c:84
     888:	e3a02001 	mov	r2, #1
     88c:	e5c32000 	strb	r2, [r3]
init_instance():
/home/rossierd/soo.tech/soo/optee_os/lib/libutee/arch/arm/user_ta_entry.c:40
     890:	ebfffe13 	bl	e4 <tahead_get_trace_level>
     894:	eb0020cb 	bl	8bc8 <trace_set_level>
/home/rossierd/soo.tech/soo/optee_os/lib/libutee/arch/arm/user_ta_entry.c:42
     898:	e59f31a4 	ldr	r3, [pc, #420]	; a44 <__utee_entry+0x254>
     89c:	e59f21a4 	ldr	r2, [pc, #420]	; a48 <__utee_entry+0x258>
     8a0:	e7943003 	ldr	r3, [r4, r3]
     8a4:	e7942002 	ldr	r2, [r4, r2]
     8a8:	e5931000 	ldr	r1, [r3]
     8ac:	e1a00002 	mov	r0, r2
     8b0:	e50b2058 	str	r2, [fp, #-88]	; 0xffffffa8
     8b4:	eb001c84 	bl	7acc <malloc_add_pool>
/home/rossierd/soo.tech/soo/optee_os/lib/libutee/arch/arm/user_ta_entry.c:43
     8b8:	eb00052c 	bl	1d70 <_TEE_MathAPI_Init>
/home/rossierd/soo.tech/soo/optee_os/lib/libutee/arch/arm/user_ta_entry.c:44
     8bc:	ebfffdd7 	bl	20 <TA_CreateEntryPoint>
ta_header_add_session():
/home/rossierd/soo.tech/soo/optee_os/lib/libutee/arch/arm/user_ta_entry.c:86
     8c0:	e2504000 	subs	r4, r0, #0
     8c4:	0affffe8 	beq	86c <__utee_entry+0x7c>
ta_header_save_params():
/home/rossierd/soo.tech/soo/optee_os/lib/libutee/arch/arm/user_ta_entry.c:56
     8c8:	e3a01000 	mov	r1, #0
/home/rossierd/soo.tech/soo/optee_os/lib/libutee/arch/arm/user_ta_entry.c:61
     8cc:	e3a02020 	mov	r2, #32
     8d0:	e1a00008 	mov	r0, r8
/home/rossierd/soo.tech/soo/optee_os/lib/libutee/arch/arm/user_ta_entry.c:56
     8d4:	e5871000 	str	r1, [r7]
/home/rossierd/soo.tech/soo/optee_os/lib/libutee/arch/arm/user_ta_entry.c:61
     8d8:	eb001d7b 	bl	7ecc <memset>
__utee_entry():
/home/rossierd/soo.tech/soo/optee_os/lib/libutee/arch/arm/user_ta_entry.c:269
     8dc:	e1a00004 	mov	r0, r4
     8e0:	e24bd028 	sub	sp, fp, #40	; 0x28
     8e4:	e89daff0 	ldm	sp, {r4, r5, r6, r7, r8, r9, sl, fp, sp, pc}
ta_header_add_session():
/home/rossierd/soo.tech/soo/optee_os/lib/libutee/arch/arm/user_ta_entry.c:95
     8e8:	e3a03000 	mov	r3, #0
/home/rossierd/soo.tech/soo/optee_os/lib/libutee/arch/arm/user_ta_entry.c:94
     8ec:	e5805000 	str	r5, [r0]
/home/rossierd/soo.tech/soo/optee_os/lib/libutee/arch/arm/user_ta_entry.c:95
     8f0:	e5803004 	str	r3, [r0, #4]
/home/rossierd/soo.tech/soo/optee_os/lib/libutee/arch/arm/user_ta_entry.c:96
     8f4:	e5803008 	str	r3, [r0, #8]
     8f8:	e59f314c 	ldr	r3, [pc, #332]	; a4c <__utee_entry+0x25c>
     8fc:	e08f3003 	add	r3, pc, r3
     900:	e5932004 	ldr	r2, [r3, #4]
     904:	e580200c 	str	r2, [r0, #12]
     908:	e5820000 	str	r0, [r2]
     90c:	e2800008 	add	r0, r0, #8
     910:	e5830004 	str	r0, [r3, #4]
entry_open_session():
/home/rossierd/soo.tech/soo/optee_os/lib/libutee/arch/arm/user_ta_entry.c:195
     914:	e1a00005 	mov	r0, r5
     918:	ebffff30 	bl	5e0 <ta_header_get_session>
/home/rossierd/soo.tech/soo/optee_os/lib/libutee/arch/arm/user_ta_entry.c:196
     91c:	e2504000 	subs	r4, r0, #0
     920:	1a000001 	bne	92c <__utee_entry+0x13c>
entry_close_session():
/home/rossierd/soo.tech/soo/optee_os/lib/libutee/arch/arm/user_ta_entry.c:217
     924:	e59f4124 	ldr	r4, [pc, #292]	; a50 <__utee_entry+0x260>
     928:	eaffffe6 	b	8c8 <__utee_entry+0xd8>
entry_open_session():
/home/rossierd/soo.tech/soo/optee_os/lib/libutee/arch/arm/user_ta_entry.c:199
     92c:	e24b904c 	sub	r9, fp, #76	; 0x4c
     930:	e1a02006 	mov	r2, r6
     934:	e24b1050 	sub	r1, fp, #80	; 0x50
     938:	e1a00009 	mov	r0, r9
     93c:	ebffff5c 	bl	6b4 <from_utee_params>
ta_header_save_params():
/home/rossierd/soo.tech/soo/optee_os/lib/libutee/arch/arm/user_ta_entry.c:59
     940:	e1a0e009 	mov	lr, r9
     944:	e1a0c008 	mov	ip, r8
entry_open_session():
/home/rossierd/soo.tech/soo/optee_os/lib/libutee/arch/arm/user_ta_entry.c:200
     948:	e51ba050 	ldr	sl, [fp, #-80]	; 0xffffffb0
ta_header_save_params():
/home/rossierd/soo.tech/soo/optee_os/lib/libutee/arch/arm/user_ta_entry.c:59
     94c:	e8be000f 	ldm	lr!, {r0, r1, r2, r3}
/home/rossierd/soo.tech/soo/optee_os/lib/libutee/arch/arm/user_ta_entry.c:56
     950:	e587a000 	str	sl, [r7]
/home/rossierd/soo.tech/soo/optee_os/lib/libutee/arch/arm/user_ta_entry.c:59
     954:	e8ac000f 	stmia	ip!, {r0, r1, r2, r3}
     958:	e89e000f 	ldm	lr, {r0, r1, r2, r3}
     95c:	e88c000f 	stm	ip, {r0, r1, r2, r3}
entry_open_session():
/home/rossierd/soo.tech/soo/optee_os/lib/libutee/arch/arm/user_ta_entry.c:202
     960:	e2842004 	add	r2, r4, #4
     964:	e1a01009 	mov	r1, r9
     968:	e1a0000a 	mov	r0, sl
     96c:	ebfffdb4 	bl	44 <TA_OpenSessionEntryPoint>
     970:	e1a04000 	mov	r4, r0
/home/rossierd/soo.tech/soo/optee_os/lib/libutee/arch/arm/user_ta_entry.c:205
     974:	e1a02009 	mov	r2, r9
     978:	e51b1050 	ldr	r1, [fp, #-80]	; 0xffffffb0
     97c:	e1a00006 	mov	r0, r6
     980:	ebffff26 	bl	620 <to_utee_params>
/home/rossierd/soo.tech/soo/optee_os/lib/libutee/arch/arm/user_ta_entry.c:207
     984:	e3540000 	cmp	r4, #0
     988:	0affffce 	beq	8c8 <__utee_entry+0xd8>
/home/rossierd/soo.tech/soo/optee_os/lib/libutee/arch/arm/user_ta_entry.c:208
     98c:	e1a00005 	mov	r0, r5
     990:	ebffff66 	bl	730 <ta_header_remove_session>
     994:	eaffffcb 	b	8c8 <__utee_entry+0xd8>
entry_close_session():
/home/rossierd/soo.tech/soo/optee_os/lib/libutee/arch/arm/user_ta_entry.c:214
     998:	e1a00001 	mov	r0, r1
     99c:	ebffff0f 	bl	5e0 <ta_header_get_session>
/home/rossierd/soo.tech/soo/optee_os/lib/libutee/arch/arm/user_ta_entry.c:216
     9a0:	e3500000 	cmp	r0, #0
     9a4:	0affffde 	beq	924 <__utee_entry+0x134>
/home/rossierd/soo.tech/soo/optee_os/lib/libutee/arch/arm/user_ta_entry.c:219
     9a8:	e5900004 	ldr	r0, [r0, #4]
/home/rossierd/soo.tech/soo/optee_os/lib/libutee/arch/arm/user_ta_entry.c:222
     9ac:	e3a04000 	mov	r4, #0
/home/rossierd/soo.tech/soo/optee_os/lib/libutee/arch/arm/user_ta_entry.c:219
     9b0:	ebfffdab 	bl	64 <TA_CloseSessionEntryPoint>
/home/rossierd/soo.tech/soo/optee_os/lib/libutee/arch/arm/user_ta_entry.c:221
     9b4:	e1a00005 	mov	r0, r5
     9b8:	ebffff5c 	bl	730 <ta_header_remove_session>
     9bc:	eaffffc1 	b	8c8 <__utee_entry+0xd8>
entry_invoke_command():
/home/rossierd/soo.tech/soo/optee_os/lib/libutee/arch/arm/user_ta_entry.c:231
     9c0:	e1a00001 	mov	r0, r1
     9c4:	ebffff05 	bl	5e0 <ta_header_get_session>
/home/rossierd/soo.tech/soo/optee_os/lib/libutee/arch/arm/user_ta_entry.c:233
     9c8:	e2504000 	subs	r4, r0, #0
     9cc:	0affffd4 	beq	924 <__utee_entry+0x134>
/home/rossierd/soo.tech/soo/optee_os/lib/libutee/arch/arm/user_ta_entry.c:236
     9d0:	e24b504c 	sub	r5, fp, #76	; 0x4c
     9d4:	e1a02006 	mov	r2, r6
     9d8:	e24b1050 	sub	r1, fp, #80	; 0x50
     9dc:	e1a00005 	mov	r0, r5
     9e0:	ebffff33 	bl	6b4 <from_utee_params>
ta_header_save_params():
/home/rossierd/soo.tech/soo/optee_os/lib/libutee/arch/arm/user_ta_entry.c:59
     9e4:	e1a0e005 	mov	lr, r5
     9e8:	e1a0c008 	mov	ip, r8
entry_invoke_command():
/home/rossierd/soo.tech/soo/optee_os/lib/libutee/arch/arm/user_ta_entry.c:237
     9ec:	e51ba050 	ldr	sl, [fp, #-80]	; 0xffffffb0
ta_header_save_params():
/home/rossierd/soo.tech/soo/optee_os/lib/libutee/arch/arm/user_ta_entry.c:59
     9f0:	e8be000f 	ldm	lr!, {r0, r1, r2, r3}
/home/rossierd/soo.tech/soo/optee_os/lib/libutee/arch/arm/user_ta_entry.c:56
     9f4:	e587a000 	str	sl, [r7]
/home/rossierd/soo.tech/soo/optee_os/lib/libutee/arch/arm/user_ta_entry.c:59
     9f8:	e8ac000f 	stmia	ip!, {r0, r1, r2, r3}
     9fc:	e89e000f 	ldm	lr, {r0, r1, r2, r3}
     a00:	e88c000f 	stm	ip, {r0, r1, r2, r3}
entry_invoke_command():
/home/rossierd/soo.tech/soo/optee_os/lib/libutee/arch/arm/user_ta_entry.c:239
     a04:	e1a01009 	mov	r1, r9
     a08:	e1a0200a 	mov	r2, sl
     a0c:	e1a03005 	mov	r3, r5
     a10:	e5940004 	ldr	r0, [r4, #4]
     a14:	ebfffd96 	bl	74 <TA_InvokeCommandEntryPoint>
     a18:	e1a04000 	mov	r4, r0
/home/rossierd/soo.tech/soo/optee_os/lib/libutee/arch/arm/user_ta_entry.c:242
     a1c:	e1a02005 	mov	r2, r5
     a20:	e51b1050 	ldr	r1, [fp, #-80]	; 0xffffffb0
     a24:	e1a00006 	mov	r0, r6
     a28:	ebfffefc 	bl	620 <to_utee_params>
     a2c:	eaffffa5 	b	8c8 <__utee_entry+0xd8>
     a30:	0000b860 	.word	0x0000b860
     a34:	00000028 	.word	0x00000028
     a38:	00000030 	.word	0x00000030
     a3c:	0000ba40 	.word	0x0000ba40
     a40:	ffff000c 	.word	0xffff000c
     a44:	0000000c 	.word	0x0000000c
     a48:	00000020 	.word	0x00000020
     a4c:	0000b938 	.word	0x0000b938
     a50:	ffff0007 	.word	0xffff0007

00000a54 <update_out_param>:
update_out_param():
/home/rossierd/soo.tech/soo/optee_os/lib/libutee/tee_api.c:115
     a54:	e1a0c00d 	mov	ip, sp
     a58:	e92ddff0 	push	{r4, r5, r6, r7, r8, r9, sl, fp, ip, lr, pc}
     a5c:	e24cb004 	sub	fp, ip, #4
     a60:	e24dd004 	sub	sp, sp, #4
     a64:	e1a08000 	mov	r8, r0
     a68:	e1a0a001 	mov	sl, r1
     a6c:	e1a05002 	mov	r5, r2
/home/rossierd/soo.tech/soo/optee_os/lib/libutee/tee_api.c:117
     a70:	e5929000 	ldr	r9, [r2]
     a74:	e1a06000 	mov	r6, r0
     a78:	e3a04000 	mov	r4, #0
/home/rossierd/soo.tech/soo/optee_os/lib/libutee/tee_api.c:123
     a7c:	e1a03439 	lsr	r3, r9, r4
/home/rossierd/soo.tech/soo/optee_os/lib/libutee/tee_api.c:121
     a80:	e5957010 	ldr	r7, [r5, #16]
/home/rossierd/soo.tech/soo/optee_os/lib/libutee/tee_api.c:123
     a84:	e203300f 	and	r3, r3, #15
     a88:	e2433002 	sub	r3, r3, #2
     a8c:	e3530005 	cmp	r3, #5
     a90:	908ff103 	addls	pc, pc, r3, lsl #2
     a94:	ea000008 	b	abc <update_out_param+0x68>
     a98:	ea000004 	b	ab0 <update_out_param+0x5c>
     a9c:	ea000003 	b	ab0 <update_out_param+0x5c>
     aa0:	ea000005 	b	abc <update_out_param+0x68>
     aa4:	ea000004 	b	abc <update_out_param+0x68>
     aa8:	ea000009 	b	ad4 <update_out_param+0x80>
     aac:	ea000008 	b	ad4 <update_out_param+0x80>
/home/rossierd/soo.tech/soo/optee_os/lib/libutee/tee_api.c:120
     ab0:	e5953008 	ldr	r3, [r5, #8]
     ab4:	e7883084 	str	r3, [r8, r4, lsl #1]
/home/rossierd/soo.tech/soo/optee_os/lib/libutee/tee_api.c:134
     ab8:	e5867004 	str	r7, [r6, #4]
     abc:	e2844004 	add	r4, r4, #4
     ac0:	e2855010 	add	r5, r5, #16
/home/rossierd/soo.tech/soo/optee_os/lib/libutee/tee_api.c:119 (discriminator 2)
     ac4:	e3540010 	cmp	r4, #16
     ac8:	e2866008 	add	r6, r6, #8
     acc:	1affffea 	bne	a7c <update_out_param+0x28>
/home/rossierd/soo.tech/soo/optee_os/lib/libutee/tee_api.c:140
     ad0:	e99daff0 	ldmib	sp, {r4, r5, r6, r7, r8, r9, sl, fp, sp, pc}
/home/rossierd/soo.tech/soo/optee_os/lib/libutee/tee_api.c:131
     ad4:	e79a1004 	ldr	r1, [sl, r4]
     ad8:	e3510000 	cmp	r1, #0
     adc:	0afffff5 	beq	ab8 <update_out_param+0x64>
/home/rossierd/soo.tech/soo/optee_os/lib/libutee/tee_api.c:133
     ae0:	e5962004 	ldr	r2, [r6, #4]
/home/rossierd/soo.tech/soo/optee_os/lib/libutee/tee_api.c:132
     ae4:	e7980084 	ldr	r0, [r8, r4, lsl #1]
     ae8:	e1570002 	cmp	r7, r2
     aec:	31a02007 	movcc	r2, r7
     af0:	eb001cd3 	bl	7e44 <memcpy>
     af4:	eaffffef 	b	ab8 <update_out_param+0x64>

00000af8 <TEE_CloseTASession>:
TEE_CloseTASession():
/home/rossierd/soo.tech/soo/optee_os/lib/libutee/tee_api.c:183
     af8:	e1a0c00d 	mov	ip, sp
/home/rossierd/soo.tech/soo/optee_os/lib/libutee/tee_api.c:184
     afc:	e3500000 	cmp	r0, #0
/home/rossierd/soo.tech/soo/optee_os/lib/libutee/tee_api.c:183
     b00:	e92dd800 	push	{fp, ip, lr, pc}
     b04:	e24cb004 	sub	fp, ip, #4
/home/rossierd/soo.tech/soo/optee_os/lib/libutee/tee_api.c:184
     b08:	089da800 	ldmeq	sp, {fp, sp, pc}
/home/rossierd/soo.tech/soo/optee_os/lib/libutee/tee_api.c:185
     b0c:	ebfffdac 	bl	1c4 <utee_close_ta_session>
/home/rossierd/soo.tech/soo/optee_os/lib/libutee/tee_api.c:187
     b10:	e3500000 	cmp	r0, #0
     b14:	089da800 	ldmeq	sp, {fp, sp, pc}
/home/rossierd/soo.tech/soo/optee_os/lib/libutee/tee_api.c:190
     b18:	e24bd00c 	sub	sp, fp, #12
     b1c:	e89d6800 	ldm	sp, {fp, sp, lr}
/home/rossierd/soo.tech/soo/optee_os/lib/libutee/tee_api.c:188
     b20:	ea0001e9 	b	12cc <TEE_Panic>

00000b24 <TEE_GetCancellationFlag>:
TEE_GetCancellationFlag():
/home/rossierd/soo.tech/soo/optee_os/lib/libutee/tee_api.c:237
     b24:	e1a0c00d 	mov	ip, sp
     b28:	e92dd800 	push	{fp, ip, lr, pc}
     b2c:	e24cb004 	sub	fp, ip, #4
     b30:	e24dd008 	sub	sp, sp, #8
/home/rossierd/soo.tech/soo/optee_os/lib/libutee/tee_api.c:239
     b34:	e24b0010 	sub	r0, fp, #16
     b38:	ebfffdac 	bl	1f0 <utee_get_cancellation_flag>
/home/rossierd/soo.tech/soo/optee_os/lib/libutee/tee_api.c:241
     b3c:	e3500000 	cmp	r0, #0
/home/rossierd/soo.tech/soo/optee_os/lib/libutee/tee_api.c:242
     b40:	13a03000 	movne	r3, #0
     b44:	150b3010 	strne	r3, [fp, #-16]
/home/rossierd/soo.tech/soo/optee_os/lib/libutee/tee_api.c:244
     b48:	e51b0010 	ldr	r0, [fp, #-16]
     b4c:	e2900000 	adds	r0, r0, #0
     b50:	13a00001 	movne	r0, #1
     b54:	e24bd00c 	sub	sp, fp, #12
     b58:	e89da800 	ldm	sp, {fp, sp, pc}

00000b5c <TEE_UnmaskCancellation>:
TEE_UnmaskCancellation():
/home/rossierd/soo.tech/soo/optee_os/lib/libutee/tee_api.c:247
     b5c:	e1a0c00d 	mov	ip, sp
     b60:	e92dd800 	push	{fp, ip, lr, pc}
     b64:	e24cb004 	sub	fp, ip, #4
     b68:	e24dd008 	sub	sp, sp, #8
/home/rossierd/soo.tech/soo/optee_os/lib/libutee/tee_api.c:249
     b6c:	e24b0010 	sub	r0, fp, #16
     b70:	ebfffda8 	bl	218 <utee_unmask_cancellation>
/home/rossierd/soo.tech/soo/optee_os/lib/libutee/tee_api.c:251
     b74:	e3500000 	cmp	r0, #0
     b78:	0a000000 	beq	b80 <TEE_UnmaskCancellation+0x24>
/home/rossierd/soo.tech/soo/optee_os/lib/libutee/tee_api.c:252
     b7c:	eb0001d2 	bl	12cc <TEE_Panic>
/home/rossierd/soo.tech/soo/optee_os/lib/libutee/tee_api.c:254
     b80:	e51b0010 	ldr	r0, [fp, #-16]
     b84:	e2900000 	adds	r0, r0, #0
     b88:	13a00001 	movne	r0, #1
     b8c:	e24bd00c 	sub	sp, fp, #12
     b90:	e89da800 	ldm	sp, {fp, sp, pc}

00000b94 <TEE_MaskCancellation>:
TEE_MaskCancellation():
/home/rossierd/soo.tech/soo/optee_os/lib/libutee/tee_api.c:257
     b94:	e1a0c00d 	mov	ip, sp
     b98:	e92dd800 	push	{fp, ip, lr, pc}
     b9c:	e24cb004 	sub	fp, ip, #4
     ba0:	e24dd008 	sub	sp, sp, #8
/home/rossierd/soo.tech/soo/optee_os/lib/libutee/tee_api.c:259
     ba4:	e24b0010 	sub	r0, fp, #16
     ba8:	ebfffd9f 	bl	22c <utee_mask_cancellation>
/home/rossierd/soo.tech/soo/optee_os/lib/libutee/tee_api.c:261
     bac:	e3500000 	cmp	r0, #0
     bb0:	0a000000 	beq	bb8 <TEE_MaskCancellation+0x24>
/home/rossierd/soo.tech/soo/optee_os/lib/libutee/tee_api.c:262
     bb4:	eb0001c4 	bl	12cc <TEE_Panic>
/home/rossierd/soo.tech/soo/optee_os/lib/libutee/tee_api.c:264
     bb8:	e51b0010 	ldr	r0, [fp, #-16]
     bbc:	e2900000 	adds	r0, r0, #0
     bc0:	13a00001 	movne	r0, #1
     bc4:	e24bd00c 	sub	sp, fp, #12
     bc8:	e89da800 	ldm	sp, {fp, sp, pc}

00000bcc <TEE_CheckMemoryAccessRights>:
TEE_CheckMemoryAccessRights():
/home/rossierd/soo.tech/soo/optee_os/lib/libutee/tee_api.c:270
     bcc:	e1a0c00d 	mov	ip, sp
/home/rossierd/soo.tech/soo/optee_os/lib/libutee/tee_api.c:273
     bd0:	e2523000 	subs	r3, r2, #0
/home/rossierd/soo.tech/soo/optee_os/lib/libutee/tee_api.c:270
     bd4:	e92dd800 	push	{fp, ip, lr, pc}
     bd8:	e24cb004 	sub	fp, ip, #4
/home/rossierd/soo.tech/soo/optee_os/lib/libutee/tee_api.c:273
     bdc:	0a000002 	beq	bec <TEE_CheckMemoryAccessRights+0x20>
/home/rossierd/soo.tech/soo/optee_os/lib/libutee/tee_api.c:289
     be0:	e24bd00c 	sub	sp, fp, #12
     be4:	e89d6800 	ldm	sp, {fp, sp, lr}
/home/rossierd/soo.tech/soo/optee_os/lib/libutee/tee_api.c:277
     be8:	eafffd85 	b	204 <utee_check_access_rights>
/home/rossierd/soo.tech/soo/optee_os/lib/libutee/tee_api.c:289
     bec:	e1a00003 	mov	r0, r3
     bf0:	e89da800 	ldm	sp, {fp, sp, pc}

00000bf4 <copy_param.constprop.1>:
copy_param():
/home/rossierd/soo.tech/soo/optee_os/lib/libutee/tee_api.c:19
     bf4:	e1a0c00d 	mov	ip, sp
     bf8:	e92ddff0 	push	{r4, r5, r6, r7, r8, r9, sl, fp, ip, lr, pc}
     bfc:	e24cb004 	sub	fp, ip, #4
     c00:	e24dd014 	sub	sp, sp, #20
     c04:	e1a0a003 	mov	sl, r3
/home/rossierd/soo.tech/soo/optee_os/lib/libutee/tee_api.c:28
     c08:	e3a05000 	mov	r5, #0
/home/rossierd/soo.tech/soo/optee_os/lib/libutee/tee_api.c:19
     c0c:	e1a04000 	mov	r4, r0
/home/rossierd/soo.tech/soo/optee_os/lib/libutee/tee_api.c:40
     c10:	e59b3004 	ldr	r3, [fp, #4]
/home/rossierd/soo.tech/soo/optee_os/lib/libutee/tee_api.c:39
     c14:	e58a5000 	str	r5, [sl]
/home/rossierd/soo.tech/soo/optee_os/lib/libutee/tee_api.c:19
     c18:	e1a09001 	mov	r9, r1
     c1c:	e1a06002 	mov	r6, r2
/home/rossierd/soo.tech/soo/optee_os/lib/libutee/tee_api.c:41
     c20:	e1a07005 	mov	r7, r5
/home/rossierd/soo.tech/soo/optee_os/lib/libutee/tee_api.c:28
     c24:	e50b5030 	str	r5, [fp, #-48]	; 0xffffffd0
/home/rossierd/soo.tech/soo/optee_os/lib/libutee/tee_api.c:40
     c28:	e5835000 	str	r5, [r3]
/home/rossierd/soo.tech/soo/optee_os/lib/libutee/tee_api.c:59
     c2c:	e3a03001 	mov	r3, #1
/home/rossierd/soo.tech/soo/optee_os/lib/libutee/tee_api.c:42
     c30:	e59b2008 	ldr	r2, [fp, #8]
     c34:	e3a01000 	mov	r1, #0
     c38:	e7821107 	str	r1, [r2, r7, lsl #2]
/home/rossierd/soo.tech/soo/optee_os/lib/libutee/tee_api.c:43
     c3c:	e1a02107 	lsl	r2, r7, #2
     c40:	e1a02239 	lsr	r2, r9, r2
     c44:	e202200f 	and	r2, r2, #15
     c48:	e2422005 	sub	r2, r2, #5
     c4c:	e3520002 	cmp	r2, #2
     c50:	8a000010 	bhi	c98 <copy_param.constprop.1+0xa4>
/home/rossierd/soo.tech/soo/optee_os/lib/libutee/tee_api.c:48
     c54:	e0862187 	add	r2, r6, r7, lsl #3
/home/rossierd/soo.tech/soo/optee_os/lib/libutee/tee_api.c:47
     c58:	e7961187 	ldr	r1, [r6, r7, lsl #3]
/home/rossierd/soo.tech/soo/optee_os/lib/libutee/tee_api.c:48
     c5c:	e5928004 	ldr	r8, [r2, #4]
/home/rossierd/soo.tech/soo/optee_os/lib/libutee/tee_api.c:58
     c60:	e3510000 	cmp	r1, #0
     c64:	13580000 	cmpne	r8, #0
     c68:	0a00000a 	beq	c98 <copy_param.constprop.1+0xa4>
/home/rossierd/soo.tech/soo/optee_os/lib/libutee/tee_api.c:59
     c6c:	e1a02008 	mov	r2, r8
     c70:	e3a00001 	mov	r0, #1
     c74:	e50b3038 	str	r3, [fp, #-56]	; 0xffffffc8
     c78:	ebffffd3 	bl	bcc <TEE_CheckMemoryAccessRights>
/home/rossierd/soo.tech/soo/optee_os/lib/libutee/tee_api.c:58
     c7c:	e3500000 	cmp	r0, #0
     c80:	e51b3038 	ldr	r3, [fp, #-56]	; 0xffffffc8
/home/rossierd/soo.tech/soo/optee_os/lib/libutee/tee_api.c:61
     c84:	02888007 	addeq	r8, r8, #7
/home/rossierd/soo.tech/soo/optee_os/lib/libutee/tee_api.c:60
     c88:	024b2030 	subeq	r2, fp, #48	; 0x30
/home/rossierd/soo.tech/soo/optee_os/lib/libutee/tee_api.c:61
     c8c:	03c88007 	biceq	r8, r8, #7
     c90:	00855008 	addeq	r5, r5, r8
/home/rossierd/soo.tech/soo/optee_os/lib/libutee/tee_api.c:60
     c94:	07c73002 	strbeq	r3, [r7, r2]
/home/rossierd/soo.tech/soo/optee_os/lib/libutee/tee_api.c:41
     c98:	e2877001 	add	r7, r7, #1
     c9c:	e3570004 	cmp	r7, #4
     ca0:	1affffe2 	bne	c30 <copy_param.constprop.1+0x3c>
/home/rossierd/soo.tech/soo/optee_os/lib/libutee/tee_api.c:69
     ca4:	e3550000 	cmp	r5, #0
/home/rossierd/soo.tech/soo/optee_os/lib/libutee/tee_api.c:25
     ca8:	01a03005 	moveq	r3, r5
/home/rossierd/soo.tech/soo/optee_os/lib/libutee/tee_api.c:69
     cac:	0a000008 	beq	cd4 <copy_param.constprop.1+0xe0>
/home/rossierd/soo.tech/soo/optee_os/lib/libutee/tee_api.c:70
     cb0:	e1a01007 	mov	r1, r7
     cb4:	e1a00005 	mov	r0, r5
     cb8:	eb0001ac 	bl	1370 <tee_map_zi>
/home/rossierd/soo.tech/soo/optee_os/lib/libutee/tee_api.c:71
     cbc:	e2503000 	subs	r3, r0, #0
/home/rossierd/soo.tech/soo/optee_os/lib/libutee/tee_api.c:74
     cc0:	159b2004 	ldrne	r2, [fp, #4]
/home/rossierd/soo.tech/soo/optee_os/lib/libutee/tee_api.c:73
     cc4:	158a3000 	strne	r3, [sl]
/home/rossierd/soo.tech/soo/optee_os/lib/libutee/tee_api.c:74
     cc8:	15825000 	strne	r5, [r2]
/home/rossierd/soo.tech/soo/optee_os/lib/libutee/tee_api.c:72
     ccc:	059f0104 	ldreq	r0, [pc, #260]	; dd8 <copy_param.constprop.1+0x1e4>
     cd0:	0a00001f 	beq	d54 <copy_param.constprop.1+0x160>
/home/rossierd/soo.tech/soo/optee_os/lib/libutee/tee_api.c:77
     cd4:	e3a05000 	mov	r5, #0
     cd8:	e2866004 	add	r6, r6, #4
     cdc:	e5849000 	str	r9, [r4]
/home/rossierd/soo.tech/soo/optee_os/lib/libutee/tee_api.c:89
     ce0:	e24ba030 	sub	sl, fp, #48	; 0x30
/home/rossierd/soo.tech/soo/optee_os/lib/libutee/tee_api.c:77
     ce4:	e5845004 	str	r5, [r4, #4]
/home/rossierd/soo.tech/soo/optee_os/lib/libutee/tee_api.c:79
     ce8:	e1a02105 	lsl	r2, r5, #2
     cec:	e1a02239 	lsr	r2, r9, r2
     cf0:	e202200f 	and	r2, r2, #15
     cf4:	e2421001 	sub	r1, r2, #1
     cf8:	e3510006 	cmp	r1, #6
     cfc:	908ff101 	addls	pc, pc, r1, lsl #2
     d00:	ea00002f 	b	dc4 <copy_param.constprop.1+0x1d0>
     d04:	ea000005 	b	d20 <copy_param.constprop.1+0x12c>
     d08:	ea00002d 	b	dc4 <copy_param.constprop.1+0x1d0>
     d0c:	ea000003 	b	d20 <copy_param.constprop.1+0x12c>
     d10:	ea00002b 	b	dc4 <copy_param.constprop.1+0x1d0>
     d14:	ea000010 	b	d5c <copy_param.constprop.1+0x168>
     d18:	ea00000f 	b	d5c <copy_param.constprop.1+0x168>
     d1c:	ea00000e 	b	d5c <copy_param.constprop.1+0x168>
/home/rossierd/soo.tech/soo/optee_os/lib/libutee/tee_api.c:82
     d20:	e5161004 	ldr	r1, [r6, #-4]
     d24:	e3a02000 	mov	r2, #0
     d28:	e5841008 	str	r1, [r4, #8]
     d2c:	e584200c 	str	r2, [r4, #12]
/home/rossierd/soo.tech/soo/optee_os/lib/libutee/tee_api.c:83
     d30:	e5961000 	ldr	r1, [r6]
     d34:	e5841010 	str	r1, [r4, #16]
     d38:	e5842014 	str	r2, [r4, #20]
/home/rossierd/soo.tech/soo/optee_os/lib/libutee/tee_api.c:78
     d3c:	e2855001 	add	r5, r5, #1
     d40:	e2844010 	add	r4, r4, #16
     d44:	e3550004 	cmp	r5, #4
     d48:	e2866008 	add	r6, r6, #8
     d4c:	1affffe5 	bne	ce8 <copy_param.constprop.1+0xf4>
/home/rossierd/soo.tech/soo/optee_os/lib/libutee/tee_api.c:109
     d50:	e3a00000 	mov	r0, #0
/home/rossierd/soo.tech/soo/optee_os/lib/libutee/tee_api.c:110
     d54:	e24bd028 	sub	sp, fp, #40	; 0x28
     d58:	e89daff0 	ldm	sp, {r4, r5, r6, r7, r8, r9, sl, fp, sp, pc}
/home/rossierd/soo.tech/soo/optee_os/lib/libutee/tee_api.c:89
     d5c:	e7d5100a 	ldrb	r1, [r5, sl]
/home/rossierd/soo.tech/soo/optee_os/lib/libutee/tee_api.c:88
     d60:	e5968000 	ldr	r8, [r6]
/home/rossierd/soo.tech/soo/optee_os/lib/libutee/tee_api.c:89
     d64:	e3510000 	cmp	r1, #0
/home/rossierd/soo.tech/soo/optee_os/lib/libutee/tee_api.c:97
     d68:	01a07003 	moveq	r7, r3
     d6c:	05162004 	ldreq	r2, [r6, #-4]
/home/rossierd/soo.tech/soo/optee_os/lib/libutee/tee_api.c:89
     d70:	0a00000c 	beq	da8 <copy_param.constprop.1+0x1b4>
/home/rossierd/soo.tech/soo/optee_os/lib/libutee/tee_api.c:91
     d74:	e59b1008 	ldr	r1, [fp, #8]
/home/rossierd/soo.tech/soo/optee_os/lib/libutee/tee_api.c:92
     d78:	e2887007 	add	r7, r8, #7
/home/rossierd/soo.tech/soo/optee_os/lib/libutee/tee_api.c:93
     d7c:	e3520006 	cmp	r2, #6
/home/rossierd/soo.tech/soo/optee_os/lib/libutee/tee_api.c:92
     d80:	e3c77007 	bic	r7, r7, #7
     d84:	e0837007 	add	r7, r3, r7
/home/rossierd/soo.tech/soo/optee_os/lib/libutee/tee_api.c:91
     d88:	e7813105 	str	r3, [r1, r5, lsl #2]
/home/rossierd/soo.tech/soo/optee_os/lib/libutee/tee_api.c:93
     d8c:	0a000004 	beq	da4 <copy_param.constprop.1+0x1b0>
/home/rossierd/soo.tech/soo/optee_os/lib/libutee/tee_api.c:95
     d90:	e1a00003 	mov	r0, r3
     d94:	e1a02008 	mov	r2, r8
     d98:	e5161004 	ldr	r1, [r6, #-4]
     d9c:	eb001c28 	bl	7e44 <memcpy>
     da0:	e1a03000 	mov	r3, r0
/home/rossierd/soo.tech/soo/optee_os/lib/libutee/tee_api.c:93
     da4:	e1a02003 	mov	r2, r3
/home/rossierd/soo.tech/soo/optee_os/lib/libutee/tee_api.c:99
     da8:	e3a03000 	mov	r3, #0
     dac:	e5842008 	str	r2, [r4, #8]
     db0:	e584300c 	str	r3, [r4, #12]
/home/rossierd/soo.tech/soo/optee_os/lib/libutee/tee_api.c:100
     db4:	e5848010 	str	r8, [r4, #16]
     db8:	e5843014 	str	r3, [r4, #20]
     dbc:	e1a03007 	mov	r3, r7
     dc0:	eaffffdd 	b	d3c <copy_param.constprop.1+0x148>
/home/rossierd/soo.tech/soo/optee_os/lib/libutee/tee_api.c:103
     dc4:	e3a00000 	mov	r0, #0
     dc8:	e3a01000 	mov	r1, #0
     dcc:	e1c400f8 	strd	r0, [r4, #8]
/home/rossierd/soo.tech/soo/optee_os/lib/libutee/tee_api.c:104
     dd0:	e1c401f0 	strd	r0, [r4, #16]
     dd4:	eaffffd8 	b	d3c <copy_param.constprop.1+0x148>
     dd8:	ffff000c 	.word	0xffff000c

00000ddc <TEE_InvokeTACommand>:
TEE_InvokeTACommand():
/home/rossierd/soo.tech/soo/optee_os/lib/libutee/tee_api.c:197
     ddc:	e1a0c00d 	mov	ip, sp
     de0:	e92ddff0 	push	{r4, r5, r6, r7, r8, r9, sl, fp, ip, lr, pc}
     de4:	e24cb004 	sub	fp, ip, #4
     de8:	e24dd074 	sub	sp, sp, #116	; 0x74
     dec:	e1a09001 	mov	r9, r1
     df0:	e1a01003 	mov	r1, r3
/home/rossierd/soo.tech/soo/optee_os/lib/libutee/tee_api.c:199
     df4:	e3a03003 	mov	r3, #3
     df8:	e50b3090 	str	r3, [fp, #-144]	; 0xffffff70
/home/rossierd/soo.tech/soo/optee_os/lib/libutee/tee_api.c:201
     dfc:	e3a03000 	mov	r3, #0
/home/rossierd/soo.tech/soo/optee_os/lib/libutee/tee_api.c:197
     e00:	e1a0a002 	mov	sl, r2
/home/rossierd/soo.tech/soo/optee_os/lib/libutee/tee_api.c:203
     e04:	e3a02000 	mov	r2, #0
     e08:	e24b5084 	sub	r5, fp, #132	; 0x84
/home/rossierd/soo.tech/soo/optee_os/lib/libutee/tee_api.c:197
     e0c:	e59b7008 	ldr	r7, [fp, #8]
/home/rossierd/soo.tech/soo/optee_os/lib/libutee/tee_api.c:201
     e10:	e50b308c 	str	r3, [fp, #-140]	; 0xffffff74
/home/rossierd/soo.tech/soo/optee_os/lib/libutee/tee_api.c:205
     e14:	e24b6074 	sub	r6, fp, #116	; 0x74
/home/rossierd/soo.tech/soo/optee_os/lib/libutee/tee_api.c:197
     e18:	e1a08000 	mov	r8, r0
/home/rossierd/soo.tech/soo/optee_os/lib/libutee/tee_api.c:202
     e1c:	e50b3088 	str	r3, [fp, #-136]	; 0xffffff78
/home/rossierd/soo.tech/soo/optee_os/lib/libutee/tee_api.c:203
     e20:	e3a03000 	mov	r3, #0
/home/rossierd/soo.tech/soo/optee_os/lib/libutee/tee_api.c:205
     e24:	e1a00006 	mov	r0, r6
     e28:	e58d5004 	str	r5, [sp, #4]
/home/rossierd/soo.tech/soo/optee_os/lib/libutee/tee_api.c:203
     e2c:	e14b28f4 	strd	r2, [fp, #-132]	; 0xffffff7c
     e30:	e14b27fc 	strd	r2, [fp, #-124]	; 0xffffff84
/home/rossierd/soo.tech/soo/optee_os/lib/libutee/tee_api.c:205
     e34:	e24b3088 	sub	r3, fp, #136	; 0x88
     e38:	e59b2004 	ldr	r2, [fp, #4]
     e3c:	e58d3000 	str	r3, [sp]
     e40:	e24b308c 	sub	r3, fp, #140	; 0x8c
     e44:	ebffff6a 	bl	bf4 <copy_param.constprop.1>
/home/rossierd/soo.tech/soo/optee_os/lib/libutee/tee_api.c:206
     e48:	e2504000 	subs	r4, r0, #0
     e4c:	1a000013 	bne	ea0 <TEE_InvokeTACommand+0xc4>
/home/rossierd/soo.tech/soo/optee_os/lib/libutee/tee_api.c:208
     e50:	e24b3090 	sub	r3, fp, #144	; 0x90
     e54:	e1a0200a 	mov	r2, sl
     e58:	e1a01009 	mov	r1, r9
     e5c:	e1a00008 	mov	r0, r8
     e60:	e58d3000 	str	r3, [sp]
     e64:	e1a03006 	mov	r3, r6
     e68:	ebfffcda 	bl	1d8 <utee_invoke_ta_command>
     e6c:	e1a04000 	mov	r4, r0
/home/rossierd/soo.tech/soo/optee_os/lib/libutee/tee_api.c:211
     e70:	e1a02006 	mov	r2, r6
     e74:	e59b0004 	ldr	r0, [fp, #4]
     e78:	e1a01005 	mov	r1, r5
     e7c:	ebfffef4 	bl	a54 <update_out_param>
/home/rossierd/soo.tech/soo/optee_os/lib/libutee/tee_api.c:212
     e80:	e51b008c 	ldr	r0, [fp, #-140]	; 0xffffff74
     e84:	e3500000 	cmp	r0, #0
     e88:	0a000004 	beq	ea0 <TEE_InvokeTACommand+0xc4>
/home/rossierd/soo.tech/soo/optee_os/lib/libutee/tee_api.c:213
     e8c:	e51b1088 	ldr	r1, [fp, #-136]	; 0xffffff78
     e90:	eb000154 	bl	13e8 <tee_unmap>
/home/rossierd/soo.tech/soo/optee_os/lib/libutee/tee_api.c:215
     e94:	e3500000 	cmp	r0, #0
     e98:	0a000000 	beq	ea0 <TEE_InvokeTACommand+0xc4>
/home/rossierd/soo.tech/soo/optee_os/lib/libutee/tee_api.c:216
     e9c:	eb00010a 	bl	12cc <TEE_Panic>
     ea0:	e51b3090 	ldr	r3, [fp, #-144]	; 0xffffff70
/home/rossierd/soo.tech/soo/optee_os/lib/libutee/tee_api.c:220
     ea4:	e3570000 	cmp	r7, #0
/home/rossierd/soo.tech/soo/optee_os/lib/libutee/tee_api.c:221
     ea8:	15873000 	strne	r3, [r7]
/home/rossierd/soo.tech/soo/optee_os/lib/libutee/tee_api.c:223
     eac:	e3530004 	cmp	r3, #4
     eb0:	0a00000c 	beq	ee8 <TEE_InvokeTACommand+0x10c>
/home/rossierd/soo.tech/soo/optee_os/lib/libutee/tee_api.c:226
     eb4:	e59f3038 	ldr	r3, [pc, #56]	; ef4 <TEE_InvokeTACommand+0x118>
/home/rossierd/soo.tech/soo/optee_os/lib/libutee/tee_api.c:227
     eb8:	e59f2038 	ldr	r2, [pc, #56]	; ef8 <TEE_InvokeTACommand+0x11c>
/home/rossierd/soo.tech/soo/optee_os/lib/libutee/tee_api.c:226
     ebc:	e3540000 	cmp	r4, #0
     ec0:	11540003 	cmpne	r4, r3
     ec4:	13a03001 	movne	r3, #1
     ec8:	03a03000 	moveq	r3, #0
/home/rossierd/soo.tech/soo/optee_os/lib/libutee/tee_api.c:227
     ecc:	e1540002 	cmp	r4, r2
     ed0:	03a03000 	moveq	r3, #0
     ed4:	12033001 	andne	r3, r3, #1
     ed8:	e3530000 	cmp	r3, #0
     edc:	0a000001 	beq	ee8 <TEE_InvokeTACommand+0x10c>
/home/rossierd/soo.tech/soo/optee_os/lib/libutee/tee_api.c:229
     ee0:	e1a00004 	mov	r0, r4
     ee4:	eb0000f8 	bl	12cc <TEE_Panic>
/home/rossierd/soo.tech/soo/optee_os/lib/libutee/tee_api.c:232
     ee8:	e1a00004 	mov	r0, r4
     eec:	e24bd028 	sub	sp, fp, #40	; 0x28
     ef0:	e89daff0 	ldm	sp, {r4, r5, r6, r7, r8, r9, sl, fp, sp, pc}
     ef4:	ffff000c 	.word	0xffff000c
     ef8:	ffff3024 	.word	0xffff3024

00000efc <TEE_OpenTASession>:
TEE_OpenTASession():
/home/rossierd/soo.tech/soo/optee_os/lib/libutee/tee_api.c:148
     efc:	e1a0c00d 	mov	ip, sp
     f00:	e92ddbf0 	push	{r4, r5, r6, r7, r8, r9, fp, ip, lr, pc}
     f04:	e24cb004 	sub	fp, ip, #4
     f08:	e24dd070 	sub	sp, sp, #112	; 0x70
     f0c:	e1a07003 	mov	r7, r3
/home/rossierd/soo.tech/soo/optee_os/lib/libutee/tee_api.c:151
     f10:	e3a03000 	mov	r3, #0
/home/rossierd/soo.tech/soo/optee_os/lib/libutee/tee_api.c:148
     f14:	e1a09001 	mov	r9, r1
     f18:	e1a01002 	mov	r1, r2
/home/rossierd/soo.tech/soo/optee_os/lib/libutee/tee_api.c:151
     f1c:	e50b3088 	str	r3, [fp, #-136]	; 0xffffff78
/home/rossierd/soo.tech/soo/optee_os/lib/libutee/tee_api.c:154
     f20:	e3a02000 	mov	r2, #0
/home/rossierd/soo.tech/soo/optee_os/lib/libutee/tee_api.c:152
     f24:	e50b3084 	str	r3, [fp, #-132]	; 0xffffff7c
/home/rossierd/soo.tech/soo/optee_os/lib/libutee/tee_api.c:154
     f28:	e24b507c 	sub	r5, fp, #124	; 0x7c
/home/rossierd/soo.tech/soo/optee_os/lib/libutee/tee_api.c:156
     f2c:	e24b606c 	sub	r6, fp, #108	; 0x6c
/home/rossierd/soo.tech/soo/optee_os/lib/libutee/tee_api.c:153
     f30:	e50b3080 	str	r3, [fp, #-128]	; 0xffffff80
/home/rossierd/soo.tech/soo/optee_os/lib/libutee/tee_api.c:154
     f34:	e3a03000 	mov	r3, #0
/home/rossierd/soo.tech/soo/optee_os/lib/libutee/tee_api.c:148
     f38:	e1a08000 	mov	r8, r0
/home/rossierd/soo.tech/soo/optee_os/lib/libutee/tee_api.c:156
     f3c:	e58d5004 	str	r5, [sp, #4]
     f40:	e1a00006 	mov	r0, r6
/home/rossierd/soo.tech/soo/optee_os/lib/libutee/tee_api.c:154
     f44:	e14b27fc 	strd	r2, [fp, #-124]	; 0xffffff84
     f48:	e14b27f4 	strd	r2, [fp, #-116]	; 0xffffff8c
/home/rossierd/soo.tech/soo/optee_os/lib/libutee/tee_api.c:156
     f4c:	e24b3080 	sub	r3, fp, #128	; 0x80
     f50:	e1a02007 	mov	r2, r7
     f54:	e58d3000 	str	r3, [sp]
     f58:	e24b3084 	sub	r3, fp, #132	; 0x84
     f5c:	ebffff24 	bl	bf4 <copy_param.constprop.1>
/home/rossierd/soo.tech/soo/optee_os/lib/libutee/tee_api.c:157
     f60:	e2504000 	subs	r4, r0, #0
     f64:	1a000015 	bne	fc0 <TEE_OpenTASession+0xc4>
/home/rossierd/soo.tech/soo/optee_os/lib/libutee/tee_api.c:159
     f68:	e59b3008 	ldr	r3, [fp, #8]
     f6c:	e1a02006 	mov	r2, r6
     f70:	e1a01009 	mov	r1, r9
     f74:	e1a00008 	mov	r0, r8
     f78:	e58d3000 	str	r3, [sp]
     f7c:	e24b3088 	sub	r3, fp, #136	; 0x88
     f80:	ebfffc89 	bl	1ac <utee_open_ta_session>
     f84:	e1a04000 	mov	r4, r0
/home/rossierd/soo.tech/soo/optee_os/lib/libutee/tee_api.c:161
     f88:	e1a02006 	mov	r2, r6
     f8c:	e1a00007 	mov	r0, r7
     f90:	e1a01005 	mov	r1, r5
     f94:	ebfffeae 	bl	a54 <update_out_param>
/home/rossierd/soo.tech/soo/optee_os/lib/libutee/tee_api.c:162
     f98:	e51b0084 	ldr	r0, [fp, #-132]	; 0xffffff7c
     f9c:	e3500000 	cmp	r0, #0
     fa0:	0a000004 	beq	fb8 <TEE_OpenTASession+0xbc>
/home/rossierd/soo.tech/soo/optee_os/lib/libutee/tee_api.c:163
     fa4:	e51b1080 	ldr	r1, [fp, #-128]	; 0xffffff80
     fa8:	eb00010e 	bl	13e8 <tee_unmap>
/home/rossierd/soo.tech/soo/optee_os/lib/libutee/tee_api.c:165
     fac:	e3500000 	cmp	r0, #0
     fb0:	0a000000 	beq	fb8 <TEE_OpenTASession+0xbc>
/home/rossierd/soo.tech/soo/optee_os/lib/libutee/tee_api.c:166
     fb4:	eb0000c4 	bl	12cc <TEE_Panic>
/home/rossierd/soo.tech/soo/optee_os/lib/libutee/tee_api.c:175
     fb8:	e3540000 	cmp	r4, #0
     fbc:	0a000001 	beq	fc8 <TEE_OpenTASession+0xcc>
/home/rossierd/soo.tech/soo/optee_os/lib/libutee/tee_api.c:176
     fc0:	e3a03000 	mov	r3, #0
     fc4:	e50b3088 	str	r3, [fp, #-136]	; 0xffffff78
/home/rossierd/soo.tech/soo/optee_os/lib/libutee/tee_api.c:178
     fc8:	e51b2088 	ldr	r2, [fp, #-136]	; 0xffffff78
/home/rossierd/soo.tech/soo/optee_os/lib/libutee/tee_api.c:180
     fcc:	e1a00004 	mov	r0, r4
/home/rossierd/soo.tech/soo/optee_os/lib/libutee/tee_api.c:178
     fd0:	e59b3004 	ldr	r3, [fp, #4]
     fd4:	e5832000 	str	r2, [r3]
/home/rossierd/soo.tech/soo/optee_os/lib/libutee/tee_api.c:180
     fd8:	e24bd024 	sub	sp, fp, #36	; 0x24
     fdc:	e89dabf0 	ldm	sp, {r4, r5, r6, r7, r8, r9, fp, sp, pc}

00000fe0 <TEE_SetInstanceData>:
TEE_SetInstanceData():
/home/rossierd/soo.tech/soo/optee_os/lib/libutee/tee_api.c:293
     fe0:	e59f3014 	ldr	r3, [pc, #20]	; ffc <TEE_SetInstanceData+0x1c>
/home/rossierd/soo.tech/soo/optee_os/lib/libutee/tee_api.c:292
     fe4:	e1a0c00d 	mov	ip, sp
     fe8:	e92dd800 	push	{fp, ip, lr, pc}
     fec:	e24cb004 	sub	fp, ip, #4
/home/rossierd/soo.tech/soo/optee_os/lib/libutee/tee_api.c:293
     ff0:	e08f3003 	add	r3, pc, r3
     ff4:	e5830000 	str	r0, [r3]
     ff8:	e89da800 	ldm	sp, {fp, sp, pc}
     ffc:	0000b2d4 	.word	0x0000b2d4

00001000 <TEE_GetInstanceData>:
TEE_GetInstanceData():
/home/rossierd/soo.tech/soo/optee_os/lib/libutee/tee_api.c:299
    1000:	e59f3010 	ldr	r3, [pc, #16]	; 1018 <TEE_GetInstanceData+0x18>
/home/rossierd/soo.tech/soo/optee_os/lib/libutee/tee_api.c:297
    1004:	e1a0c00d 	mov	ip, sp
    1008:	e92dd800 	push	{fp, ip, lr, pc}
    100c:	e24cb004 	sub	fp, ip, #4
/home/rossierd/soo.tech/soo/optee_os/lib/libutee/tee_api.c:299
    1010:	e79f0003 	ldr	r0, [pc, r3]
    1014:	e89da800 	ldm	sp, {fp, sp, pc}
    1018:	0000b2b4 	.word	0x0000b2b4

0000101c <TEE_MemMove>:
TEE_MemMove():
/home/rossierd/soo.tech/soo/optee_os/lib/libutee/tee_api.c:302
    101c:	e1a0c00d 	mov	ip, sp
    1020:	e92dd800 	push	{fp, ip, lr, pc}
    1024:	e24cb004 	sub	fp, ip, #4
/home/rossierd/soo.tech/soo/optee_os/lib/libutee/tee_api.c:304
    1028:	e24bd00c 	sub	sp, fp, #12
    102c:	e89d6800 	ldm	sp, {fp, sp, lr}
/home/rossierd/soo.tech/soo/optee_os/lib/libutee/tee_api.c:303
    1030:	ea001b8e 	b	7e70 <memmove>

00001034 <TEE_MemCompare>:
TEE_MemCompare():
/home/rossierd/soo.tech/soo/optee_os/lib/libutee/tee_api.c:307
    1034:	e1a0c00d 	mov	ip, sp
    1038:	e92dd800 	push	{fp, ip, lr, pc}
    103c:	e24cb004 	sub	fp, ip, #4
/home/rossierd/soo.tech/soo/optee_os/lib/libutee/tee_api.c:309
    1040:	e24bd00c 	sub	sp, fp, #12
    1044:	e89d6800 	ldm	sp, {fp, sp, lr}
/home/rossierd/soo.tech/soo/optee_os/lib/libutee/tee_api.c:308
    1048:	ea001ffe 	b	9048 <consttime_memcmp>

0000104c <TEE_MemFill>:
TEE_MemFill():
/home/rossierd/soo.tech/soo/optee_os/lib/libutee/tee_api.c:312
    104c:	e1a0c00d 	mov	ip, sp
    1050:	e92dd800 	push	{fp, ip, lr, pc}
    1054:	e24cb004 	sub	fp, ip, #4
/home/rossierd/soo.tech/soo/optee_os/lib/libutee/tee_api.c:314
    1058:	e24bd00c 	sub	sp, fp, #12
    105c:	e89d6800 	ldm	sp, {fp, sp, lr}
/home/rossierd/soo.tech/soo/optee_os/lib/libutee/tee_api.c:313
    1060:	ea001b99 	b	7ecc <memset>

00001064 <TEE_GetSystemTime>:
TEE_GetSystemTime():
/home/rossierd/soo.tech/soo/optee_os/lib/libutee/tee_api.c:319
    1064:	e1a0c00d 	mov	ip, sp
/home/rossierd/soo.tech/soo/optee_os/lib/libutee/tee_api.c:320
    1068:	e1a01000 	mov	r1, r0
    106c:	e3a00000 	mov	r0, #0
/home/rossierd/soo.tech/soo/optee_os/lib/libutee/tee_api.c:319
    1070:	e92dd800 	push	{fp, ip, lr, pc}
    1074:	e24cb004 	sub	fp, ip, #4
/home/rossierd/soo.tech/soo/optee_os/lib/libutee/tee_api.c:320
    1078:	ebfffc75 	bl	254 <utee_get_time>
/home/rossierd/soo.tech/soo/optee_os/lib/libutee/tee_api.c:322
    107c:	e3500000 	cmp	r0, #0
    1080:	089da800 	ldmeq	sp, {fp, sp, pc}
/home/rossierd/soo.tech/soo/optee_os/lib/libutee/tee_api.c:324
    1084:	e24bd00c 	sub	sp, fp, #12
    1088:	e89d6800 	ldm	sp, {fp, sp, lr}
/home/rossierd/soo.tech/soo/optee_os/lib/libutee/tee_api.c:323
    108c:	ea00008e 	b	12cc <TEE_Panic>

00001090 <TEE_Wait>:
TEE_Wait():
/home/rossierd/soo.tech/soo/optee_os/lib/libutee/tee_api.c:327
    1090:	e1a0c00d 	mov	ip, sp
    1094:	e92dd830 	push	{r4, r5, fp, ip, lr, pc}
    1098:	e24cb004 	sub	fp, ip, #4
/home/rossierd/soo.tech/soo/optee_os/lib/libutee/tee_api.c:328
    109c:	ebfffc67 	bl	240 <utee_wait>
/home/rossierd/soo.tech/soo/optee_os/lib/libutee/tee_api.c:330
    10a0:	e59f3018 	ldr	r3, [pc, #24]	; 10c0 <TEE_Wait+0x30>
    10a4:	e1a04000 	mov	r4, r0
    10a8:	e3500000 	cmp	r0, #0
    10ac:	11500003 	cmpne	r0, r3
    10b0:	0a000000 	beq	10b8 <TEE_Wait+0x28>
/home/rossierd/soo.tech/soo/optee_os/lib/libutee/tee_api.c:331
    10b4:	eb000084 	bl	12cc <TEE_Panic>
/home/rossierd/soo.tech/soo/optee_os/lib/libutee/tee_api.c:334
    10b8:	e1a00004 	mov	r0, r4
    10bc:	e89da830 	ldm	sp, {r4, r5, fp, sp, pc}
    10c0:	ffff0002 	.word	0xffff0002

000010c4 <TEE_GetTAPersistentTime>:
TEE_GetTAPersistentTime():
/home/rossierd/soo.tech/soo/optee_os/lib/libutee/tee_api.c:337
    10c4:	e1a0c00d 	mov	ip, sp
/home/rossierd/soo.tech/soo/optee_os/lib/libutee/tee_api.c:340
    10c8:	e1a01000 	mov	r1, r0
/home/rossierd/soo.tech/soo/optee_os/lib/libutee/tee_api.c:337
    10cc:	e92dd830 	push	{r4, r5, fp, ip, lr, pc}
    10d0:	e1a05000 	mov	r5, r0
    10d4:	e24cb004 	sub	fp, ip, #4
/home/rossierd/soo.tech/soo/optee_os/lib/libutee/tee_api.c:340
    10d8:	e3a00001 	mov	r0, #1
    10dc:	ebfffc5c 	bl	254 <utee_get_time>
/home/rossierd/soo.tech/soo/optee_os/lib/libutee/tee_api.c:342
    10e0:	e59f305c 	ldr	r3, [pc, #92]	; 1144 <TEE_GetTAPersistentTime+0x80>
    10e4:	e2902000 	adds	r2, r0, #0
    10e8:	e1a04000 	mov	r4, r0
    10ec:	13a02001 	movne	r2, #1
    10f0:	e0503003 	subs	r3, r0, r3
    10f4:	13a03001 	movne	r3, #1
    10f8:	e1120003 	tst	r2, r3
/home/rossierd/soo.tech/soo/optee_os/lib/libutee/tee_api.c:343
    10fc:	13a01000 	movne	r1, #0
    1100:	15851000 	strne	r1, [r5]
/home/rossierd/soo.tech/soo/optee_os/lib/libutee/tee_api.c:344
    1104:	15851004 	strne	r1, [r5, #4]
/home/rossierd/soo.tech/soo/optee_os/lib/libutee/tee_api.c:348
    1108:	e2801a0b 	add	r1, r0, #45056	; 0xb000
/home/rossierd/soo.tech/soo/optee_os/lib/libutee/tee_api.c:347
    110c:	e3510001 	cmp	r1, #1
    1110:	93a02000 	movls	r2, #0
    1114:	82022001 	andhi	r2, r2, #1
    1118:	e3520000 	cmp	r2, #0
    111c:	0a000006 	beq	113c <TEE_GetTAPersistentTime+0x78>
/home/rossierd/soo.tech/soo/optee_os/lib/libutee/tee_api.c:350
    1120:	e59f2020 	ldr	r2, [pc, #32]	; 1148 <TEE_GetTAPersistentTime+0x84>
    1124:	e1500002 	cmp	r0, r2
    1128:	03a03000 	moveq	r3, #0
    112c:	12033001 	andne	r3, r3, #1
    1130:	e3530000 	cmp	r3, #0
    1134:	0a000000 	beq	113c <TEE_GetTAPersistentTime+0x78>
/home/rossierd/soo.tech/soo/optee_os/lib/libutee/tee_api.c:352
    1138:	eb000063 	bl	12cc <TEE_Panic>
/home/rossierd/soo.tech/soo/optee_os/lib/libutee/tee_api.c:355
    113c:	e1a00004 	mov	r0, r4
    1140:	e89da830 	ldm	sp, {r4, r5, fp, sp, pc}
    1144:	ffff300f 	.word	0xffff300f
    1148:	ffff000c 	.word	0xffff000c

0000114c <TEE_SetTAPersistentTime>:
TEE_SetTAPersistentTime():
/home/rossierd/soo.tech/soo/optee_os/lib/libutee/tee_api.c:358
    114c:	e1a0c00d 	mov	ip, sp
    1150:	e92dd830 	push	{r4, r5, fp, ip, lr, pc}
    1154:	e24cb004 	sub	fp, ip, #4
/home/rossierd/soo.tech/soo/optee_os/lib/libutee/tee_api.c:361
    1158:	ebfffc42 	bl	268 <utee_set_ta_time>
/home/rossierd/soo.tech/soo/optee_os/lib/libutee/tee_api.c:363
    115c:	e59f3034 	ldr	r3, [pc, #52]	; 1198 <TEE_SetTAPersistentTime+0x4c>
    1160:	e1a04000 	mov	r4, r0
/home/rossierd/soo.tech/soo/optee_os/lib/libutee/tee_api.c:364
    1164:	e59f2030 	ldr	r2, [pc, #48]	; 119c <TEE_SetTAPersistentTime+0x50>
/home/rossierd/soo.tech/soo/optee_os/lib/libutee/tee_api.c:363
    1168:	e3500000 	cmp	r0, #0
    116c:	11500003 	cmpne	r0, r3
    1170:	13a03001 	movne	r3, #1
    1174:	03a03000 	moveq	r3, #0
/home/rossierd/soo.tech/soo/optee_os/lib/libutee/tee_api.c:364
    1178:	e1500002 	cmp	r0, r2
    117c:	03a03000 	moveq	r3, #0
    1180:	12033001 	andne	r3, r3, #1
    1184:	e3530000 	cmp	r3, #0
    1188:	0a000000 	beq	1190 <TEE_SetTAPersistentTime+0x44>
/home/rossierd/soo.tech/soo/optee_os/lib/libutee/tee_api.c:366
    118c:	eb00004e 	bl	12cc <TEE_Panic>
/home/rossierd/soo.tech/soo/optee_os/lib/libutee/tee_api.c:369
    1190:	e1a00004 	mov	r0, r4
    1194:	e89da830 	ldm	sp, {r4, r5, fp, sp, pc}
    1198:	ffff000c 	.word	0xffff000c
    119c:	ffff3041 	.word	0xffff3041

000011a0 <TEE_GetREETime>:
TEE_GetREETime():
/home/rossierd/soo.tech/soo/optee_os/lib/libutee/tee_api.c:372
    11a0:	e1a0c00d 	mov	ip, sp
/home/rossierd/soo.tech/soo/optee_os/lib/libutee/tee_api.c:373
    11a4:	e1a01000 	mov	r1, r0
    11a8:	e3a00002 	mov	r0, #2
/home/rossierd/soo.tech/soo/optee_os/lib/libutee/tee_api.c:372
    11ac:	e92dd800 	push	{fp, ip, lr, pc}
    11b0:	e24cb004 	sub	fp, ip, #4
/home/rossierd/soo.tech/soo/optee_os/lib/libutee/tee_api.c:373
    11b4:	ebfffc26 	bl	254 <utee_get_time>
/home/rossierd/soo.tech/soo/optee_os/lib/libutee/tee_api.c:375
    11b8:	e3500000 	cmp	r0, #0
    11bc:	089da800 	ldmeq	sp, {fp, sp, pc}
/home/rossierd/soo.tech/soo/optee_os/lib/libutee/tee_api.c:377
    11c0:	e24bd00c 	sub	sp, fp, #12
    11c4:	e89d6800 	ldm	sp, {fp, sp, lr}
/home/rossierd/soo.tech/soo/optee_os/lib/libutee/tee_api.c:376
    11c8:	ea00003f 	b	12cc <TEE_Panic>

000011cc <TEE_Malloc>:
TEE_Malloc():
/home/rossierd/soo.tech/soo/optee_os/lib/libutee/tee_api.c:380
    11cc:	e1a0c00d 	mov	ip, sp
/home/rossierd/soo.tech/soo/optee_os/lib/libutee/tee_api.c:381
    11d0:	e3510000 	cmp	r1, #0
/home/rossierd/soo.tech/soo/optee_os/lib/libutee/tee_api.c:380
    11d4:	e92dd800 	push	{fp, ip, lr, pc}
    11d8:	e24cb004 	sub	fp, ip, #4
    11dc:	e24dd008 	sub	sp, sp, #8
/home/rossierd/soo.tech/soo/optee_os/lib/libutee/tee_api.c:381
    11e0:	1a000004 	bne	11f8 <TEE_Malloc+0x2c>
/home/rossierd/soo.tech/soo/optee_os/lib/libutee/tee_api.c:382
    11e4:	e1a01000 	mov	r1, r0
    11e8:	e3a00001 	mov	r0, #1
/home/rossierd/soo.tech/soo/optee_os/lib/libutee/tee_api.c:389
    11ec:	e24bd00c 	sub	sp, fp, #12
    11f0:	e89d6800 	ldm	sp, {fp, sp, lr}
/home/rossierd/soo.tech/soo/optee_os/lib/libutee/tee_api.c:382
    11f4:	ea0019f3 	b	79c8 <calloc>
/home/rossierd/soo.tech/soo/optee_os/lib/libutee/tee_api.c:383
    11f8:	e3510102 	cmp	r1, #-2147483648	; 0x80000000
    11fc:	1a000002 	bne	120c <TEE_Malloc+0x40>
/home/rossierd/soo.tech/soo/optee_os/lib/libutee/tee_api.c:389
    1200:	e24bd00c 	sub	sp, fp, #12
    1204:	e89d6800 	ldm	sp, {fp, sp, lr}
/home/rossierd/soo.tech/soo/optee_os/lib/libutee/tee_api.c:384
    1208:	ea0019dc 	b	7980 <malloc>
/home/rossierd/soo.tech/soo/optee_os/lib/libutee/tee_api.c:386
    120c:	e59f302c 	ldr	r3, [pc, #44]	; 1240 <TEE_Malloc+0x74>
    1210:	e58d1004 	str	r1, [sp, #4]
    1214:	e3001182 	movw	r1, #386	; 0x182
    1218:	e59f0024 	ldr	r0, [pc, #36]	; 1244 <TEE_Malloc+0x78>
    121c:	e08f3003 	add	r3, pc, r3
    1220:	e08f0000 	add	r0, pc, r0
    1224:	e58d3000 	str	r3, [sp]
    1228:	e3a03001 	mov	r3, #1
    122c:	e1a02003 	mov	r2, r3
    1230:	eb001f01 	bl	8e3c <trace_printf>
/home/rossierd/soo.tech/soo/optee_os/lib/libutee/tee_api.c:389
    1234:	e3a00000 	mov	r0, #0
    1238:	e24bd00c 	sub	sp, fp, #12
    123c:	e89da800 	ldm	sp, {fp, sp, pc}
    1240:	0000836b 	.word	0x0000836b
    1244:	0000835c 	.word	0x0000835c

00001248 <TEE_Realloc>:
TEE_Realloc():
/home/rossierd/soo.tech/soo/optee_os/lib/libutee/tee_api.c:392
    1248:	e1a0c00d 	mov	ip, sp
    124c:	e92dd800 	push	{fp, ip, lr, pc}
    1250:	e24cb004 	sub	fp, ip, #4
/home/rossierd/soo.tech/soo/optee_os/lib/libutee/tee_api.c:394
    1254:	e24bd00c 	sub	sp, fp, #12
    1258:	e89d6800 	ldm	sp, {fp, sp, lr}
/home/rossierd/soo.tech/soo/optee_os/lib/libutee/tee_api.c:393
    125c:	ea0019f0 	b	7a24 <realloc>

00001260 <TEE_Free>:
TEE_Free():
/home/rossierd/soo.tech/soo/optee_os/lib/libutee/tee_api.c:397
    1260:	e1a0c00d 	mov	ip, sp
    1264:	e92dd800 	push	{fp, ip, lr, pc}
    1268:	e24cb004 	sub	fp, ip, #4
/home/rossierd/soo.tech/soo/optee_os/lib/libutee/tee_api.c:399
    126c:	e24bd00c 	sub	sp, fp, #12
    1270:	e89d6800 	ldm	sp, {fp, sp, lr}
/home/rossierd/soo.tech/soo/optee_os/lib/libutee/tee_api.c:398
    1274:	ea0019fc 	b	7a6c <free>

00001278 <TEE_CacheClean>:
TEE_CacheClean():
/home/rossierd/soo.tech/soo/optee_os/lib/libutee/tee_api.c:403
    1278:	e1a0c00d 	mov	ip, sp
/home/rossierd/soo.tech/soo/optee_os/lib/libutee/tee_api.c:404
    127c:	e3a02000 	mov	r2, #0
/home/rossierd/soo.tech/soo/optee_os/lib/libutee/tee_api.c:403
    1280:	e92dd800 	push	{fp, ip, lr, pc}
    1284:	e24cb004 	sub	fp, ip, #4
/home/rossierd/soo.tech/soo/optee_os/lib/libutee/tee_api.c:405
    1288:	e24bd00c 	sub	sp, fp, #12
    128c:	e89d6800 	ldm	sp, {fp, sp, lr}
/home/rossierd/soo.tech/soo/optee_os/lib/libutee/tee_api.c:404
    1290:	eafffccd 	b	5cc <utee_cache_operation>

00001294 <TEE_CacheFlush>:
TEE_CacheFlush():
/home/rossierd/soo.tech/soo/optee_os/lib/libutee/tee_api.c:407
    1294:	e1a0c00d 	mov	ip, sp
/home/rossierd/soo.tech/soo/optee_os/lib/libutee/tee_api.c:408
    1298:	e3a02001 	mov	r2, #1
/home/rossierd/soo.tech/soo/optee_os/lib/libutee/tee_api.c:407
    129c:	e92dd800 	push	{fp, ip, lr, pc}
    12a0:	e24cb004 	sub	fp, ip, #4
/home/rossierd/soo.tech/soo/optee_os/lib/libutee/tee_api.c:409
    12a4:	e24bd00c 	sub	sp, fp, #12
    12a8:	e89d6800 	ldm	sp, {fp, sp, lr}
/home/rossierd/soo.tech/soo/optee_os/lib/libutee/tee_api.c:408
    12ac:	eafffcc6 	b	5cc <utee_cache_operation>

000012b0 <TEE_CacheInvalidate>:
TEE_CacheInvalidate():
/home/rossierd/soo.tech/soo/optee_os/lib/libutee/tee_api.c:412
    12b0:	e1a0c00d 	mov	ip, sp
/home/rossierd/soo.tech/soo/optee_os/lib/libutee/tee_api.c:413
    12b4:	e3a02002 	mov	r2, #2
/home/rossierd/soo.tech/soo/optee_os/lib/libutee/tee_api.c:412
    12b8:	e92dd800 	push	{fp, ip, lr, pc}
    12bc:	e24cb004 	sub	fp, ip, #4
/home/rossierd/soo.tech/soo/optee_os/lib/libutee/tee_api.c:414
    12c0:	e24bd00c 	sub	sp, fp, #12
    12c4:	e89d6800 	ldm	sp, {fp, sp, lr}
/home/rossierd/soo.tech/soo/optee_os/lib/libutee/tee_api.c:413
    12c8:	eafffcbf 	b	5cc <utee_cache_operation>

000012cc <TEE_Panic>:
TEE_Panic():
/home/rossierd/soo.tech/soo/optee_os/lib/libutee/tee_api_panic.c:11
    12cc:	e1a0c00d 	mov	ip, sp
    12d0:	e92dd800 	push	{fp, ip, lr, pc}
    12d4:	e24cb004 	sub	fp, ip, #4
/home/rossierd/soo.tech/soo/optee_os/lib/libutee/tee_api_panic.c:13
    12d8:	e24bd00c 	sub	sp, fp, #12
    12dc:	e89d6800 	ldm	sp, {fp, sp, lr}
/home/rossierd/soo.tech/soo/optee_os/lib/libutee/tee_api_panic.c:12
    12e0:	eafffb92 	b	130 <utee_panic>

000012e4 <invoke_system_pta>:
invoke_system_pta():
/home/rossierd/soo.tech/soo/optee_os/lib/libutee/tee_system_pta.c:15
    12e4:	e1a0c00d 	mov	ip, sp
    12e8:	e92dd870 	push	{r4, r5, r6, fp, ip, lr, pc}
    12ec:	e1a06002 	mov	r6, r2
/home/rossierd/soo.tech/soo/optee_os/lib/libutee/tee_system_pta.c:19
    12f0:	e59f206c 	ldr	r2, [pc, #108]	; 1364 <invoke_system_pta+0x80>
/home/rossierd/soo.tech/soo/optee_os/lib/libutee/tee_system_pta.c:15
    12f4:	e24cb004 	sub	fp, ip, #4
    12f8:	e24dd00c 	sub	sp, sp, #12
    12fc:	e1a04000 	mov	r4, r0
    1300:	e1a05001 	mov	r5, r1
/home/rossierd/soo.tech/soo/optee_os/lib/libutee/tee_system_pta.c:19
    1304:	e08f2002 	add	r2, pc, r2
    1308:	e5923000 	ldr	r3, [r2]
    130c:	e3530000 	cmp	r3, #0
    1310:	0a00000a 	beq	1340 <invoke_system_pta+0x5c>
/home/rossierd/soo.tech/soo/optee_os/lib/libutee/tee_system_pta.c:27
    1314:	e59f004c 	ldr	r0, [pc, #76]	; 1368 <invoke_system_pta+0x84>
    1318:	e3a01000 	mov	r1, #0
    131c:	e58d6000 	str	r6, [sp]
    1320:	e1a03005 	mov	r3, r5
    1324:	e1a02004 	mov	r2, r4
    1328:	e58d1004 	str	r1, [sp, #4]
    132c:	e08f0000 	add	r0, pc, r0
    1330:	e5900000 	ldr	r0, [r0]
    1334:	ebfffea8 	bl	ddc <TEE_InvokeTACommand>
/home/rossierd/soo.tech/soo/optee_os/lib/libutee/tee_system_pta.c:28
    1338:	e24bd018 	sub	sp, fp, #24
    133c:	e89da870 	ldm	sp, {r4, r5, r6, fp, sp, pc}
/home/rossierd/soo.tech/soo/optee_os/lib/libutee/tee_system_pta.c:20
    1340:	e59f0024 	ldr	r0, [pc, #36]	; 136c <invoke_system_pta+0x88>
    1344:	e88d000c 	stm	sp, {r2, r3}
    1348:	e1a01003 	mov	r1, r3
    134c:	e1a02003 	mov	r2, r3
    1350:	e08f0000 	add	r0, pc, r0
    1354:	ebfffee8 	bl	efc <TEE_OpenTASession>
/home/rossierd/soo.tech/soo/optee_os/lib/libutee/tee_system_pta.c:23
    1358:	e3500000 	cmp	r0, #0
    135c:	0affffec 	beq	1314 <invoke_system_pta+0x30>
    1360:	eafffff4 	b	1338 <invoke_system_pta+0x54>
    1364:	0000afc4 	.word	0x0000afc4
    1368:	0000af9c 	.word	0x0000af9c
    136c:	00007e24 	.word	0x00007e24

00001370 <tee_map_zi>:
tee_map_zi():
/home/rossierd/soo.tech/soo/optee_os/lib/libutee/tee_system_pta.c:31
    1370:	e1a0c00d 	mov	ip, sp
/home/rossierd/soo.tech/soo/optee_os/lib/libutee/tee_system_pta.c:36
    1374:	e3a02020 	mov	r2, #32
/home/rossierd/soo.tech/soo/optee_os/lib/libutee/tee_system_pta.c:31
    1378:	e92dd870 	push	{r4, r5, r6, fp, ip, lr, pc}
    137c:	e24cb004 	sub	fp, ip, #4
    1380:	e24dd024 	sub	sp, sp, #36	; 0x24
/home/rossierd/soo.tech/soo/optee_os/lib/libutee/tee_system_pta.c:36
    1384:	e24b403c 	sub	r4, fp, #60	; 0x3c
/home/rossierd/soo.tech/soo/optee_os/lib/libutee/tee_system_pta.c:31
    1388:	e1a06000 	mov	r6, r0
    138c:	e1a05001 	mov	r5, r1
/home/rossierd/soo.tech/soo/optee_os/lib/libutee/tee_system_pta.c:36
    1390:	e3a01000 	mov	r1, #0
    1394:	e1a00004 	mov	r0, r4
    1398:	eb001acb 	bl	7ecc <memset>
/home/rossierd/soo.tech/soo/optee_os/lib/libutee/tee_system_pta.c:42
    139c:	e3550000 	cmp	r5, #0
/home/rossierd/soo.tech/soo/optee_os/lib/libutee/tee_system_pta.c:39
    13a0:	e50b603c 	str	r6, [fp, #-60]	; 0xffffffc4
/home/rossierd/soo.tech/soo/optee_os/lib/libutee/tee_system_pta.c:42
    13a4:	0a000003 	beq	13b8 <tee_map_zi+0x48>
    13a8:	e3550004 	cmp	r5, #4
    13ac:	1a00000a 	bne	13dc <tee_map_zi+0x6c>
/home/rossierd/soo.tech/soo/optee_os/lib/libutee/tee_system_pta.c:46
    13b0:	e3a03001 	mov	r3, #1
    13b4:	e50b3038 	str	r3, [fp, #-56]	; 0xffffffc8
/home/rossierd/soo.tech/soo/optee_os/lib/libutee/tee_system_pta.c:52
    13b8:	e1a02004 	mov	r2, r4
    13bc:	e3001131 	movw	r1, #305	; 0x131
    13c0:	e3a00002 	mov	r0, #2
    13c4:	ebffffc6 	bl	12e4 <invoke_system_pta>
/home/rossierd/soo.tech/soo/optee_os/lib/libutee/tee_system_pta.c:53
    13c8:	e3500000 	cmp	r0, #0
reg_pair_to_64():
/home/rossierd/soo.tech/soo/optee_os/lib/libutils/ext/include/util.h:131
    13cc:	01a03000 	moveq	r3, r0
tee_map_zi():
/home/rossierd/soo.tech/soo/optee_os/lib/libutee/tee_system_pta.c:56
    13d0:	051b0030 	ldreq	r0, [fp, #-48]	; 0xffffffd0
    13d4:	01800003 	orreq	r0, r0, r3
/home/rossierd/soo.tech/soo/optee_os/lib/libutee/tee_system_pta.c:53
    13d8:	0a000000 	beq	13e0 <tee_map_zi+0x70>
/home/rossierd/soo.tech/soo/optee_os/lib/libutee/tee_system_pta.c:54
    13dc:	e3a00000 	mov	r0, #0
/home/rossierd/soo.tech/soo/optee_os/lib/libutee/tee_system_pta.c:58
    13e0:	e24bd018 	sub	sp, fp, #24
    13e4:	e89da870 	ldm	sp, {r4, r5, r6, fp, sp, pc}

000013e8 <tee_unmap>:
tee_unmap():
/home/rossierd/soo.tech/soo/optee_os/lib/libutee/tee_system_pta.c:61
    13e8:	e1a0c00d 	mov	ip, sp
/home/rossierd/soo.tech/soo/optee_os/lib/libutee/tee_system_pta.c:67
    13ec:	e3a02020 	mov	r2, #32
/home/rossierd/soo.tech/soo/optee_os/lib/libutee/tee_system_pta.c:61
    13f0:	e92dd870 	push	{r4, r5, r6, fp, ip, lr, pc}
    13f4:	e24cb004 	sub	fp, ip, #4
    13f8:	e24dd034 	sub	sp, sp, #52	; 0x34
/home/rossierd/soo.tech/soo/optee_os/lib/libutee/tee_system_pta.c:67
    13fc:	e24b403c 	sub	r4, fp, #60	; 0x3c
/home/rossierd/soo.tech/soo/optee_os/lib/libutee/tee_system_pta.c:61
    1400:	e1a05000 	mov	r5, r0
    1404:	e1a06001 	mov	r6, r1
/home/rossierd/soo.tech/soo/optee_os/lib/libutee/tee_system_pta.c:67
    1408:	e1a00004 	mov	r0, r4
    140c:	e3a01000 	mov	r1, #0
    1410:	eb001aad 	bl	7ecc <memset>
/home/rossierd/soo.tech/soo/optee_os/lib/libutee/tee_system_pta.c:72
    1414:	e1a02004 	mov	r2, r4
    1418:	e3a01011 	mov	r1, #17
/home/rossierd/soo.tech/soo/optee_os/lib/libutee/tee_system_pta.c:69
    141c:	e50b603c 	str	r6, [fp, #-60]	; 0xffffffc4
/home/rossierd/soo.tech/soo/optee_os/lib/libutee/tee_system_pta.c:72
    1420:	e3a00003 	mov	r0, #3
reg_pair_from_64():
/home/rossierd/soo.tech/soo/optee_os/lib/libutils/ext/include/util.h:138
    1424:	e50b5030 	str	r5, [fp, #-48]	; 0xffffffd0
tee_unmap():
/home/rossierd/soo.tech/soo/optee_os/lib/libutee/tee_system_pta.c:72
    1428:	ebffffad 	bl	12e4 <invoke_system_pta>
/home/rossierd/soo.tech/soo/optee_os/lib/libutee/tee_system_pta.c:73
    142c:	e2504000 	subs	r4, r0, #0
    1430:	0a000009 	beq	145c <tee_unmap+0x74>
/home/rossierd/soo.tech/soo/optee_os/lib/libutee/tee_system_pta.c:74
    1434:	e59f302c 	ldr	r3, [pc, #44]	; 1468 <tee_unmap+0x80>
    1438:	e3a0104a 	mov	r1, #74	; 0x4a
    143c:	e59f0028 	ldr	r0, [pc, #40]	; 146c <tee_unmap+0x84>
    1440:	e08f3003 	add	r3, pc, r3
    1444:	e08f0000 	add	r0, pc, r0
    1448:	e88d0068 	stm	sp, {r3, r5, r6}
    144c:	e3a03001 	mov	r3, #1
    1450:	e2800010 	add	r0, r0, #16
    1454:	e1a02003 	mov	r2, r3
    1458:	eb001e77 	bl	8e3c <trace_printf>
/home/rossierd/soo.tech/soo/optee_os/lib/libutee/tee_system_pta.c:77
    145c:	e1a00004 	mov	r0, r4
    1460:	e24bd018 	sub	sp, fp, #24
    1464:	e89da870 	ldm	sp, {r4, r5, r6, fp, sp, pc}
    1468:	00008158 	.word	0x00008158
    146c:	00007d30 	.word	0x00007d30

00001470 <mpi_panic>:
mpi_panic():
/home/rossierd/soo.tech/soo/optee_os/lib/libutee/tee_api_arith_mpi.c:30
    1470:	e1a03002 	mov	r3, r2
    1474:	e1a02001 	mov	r2, r1
    1478:	e1a01000 	mov	r1, r0
    147c:	e59f001c 	ldr	r0, [pc, #28]	; 14a0 <mpi_panic+0x30>
/home/rossierd/soo.tech/soo/optee_os/lib/libutee/tee_api_arith_mpi.c:29
    1480:	e1a0c00d 	mov	ip, sp
    1484:	e92dd800 	push	{fp, ip, lr, pc}
    1488:	e24cb004 	sub	fp, ip, #4
/home/rossierd/soo.tech/soo/optee_os/lib/libutee/tee_api_arith_mpi.c:30
    148c:	e08f0000 	add	r0, pc, r0
    1490:	eb000721 	bl	311c <printf>
/home/rossierd/soo.tech/soo/optee_os/lib/libutee/tee_api_arith_mpi.c:31
    1494:	e59f0008 	ldr	r0, [pc, #8]	; 14a4 <mpi_panic+0x34>
    1498:	ebffff8b 	bl	12cc <TEE_Panic>
    149c:	eafffffe 	b	149c <mpi_panic+0x2c>
    14a0:	00008293 	.word	0x00008293
    14a4:	00b16127 	.word	0x00b16127

000014a8 <get_mpi>:
get_mpi():
/home/rossierd/soo.tech/soo/optee_os/lib/libutee/tee_api_arith_mpi.c:86
    14a8:	e1a0c00d 	mov	ip, sp
    14ac:	e92dd8f0 	push	{r4, r5, r6, r7, fp, ip, lr, pc}
    14b0:	e1a04001 	mov	r4, r1
    14b4:	e24cb004 	sub	fp, ip, #4
    14b8:	e1a05000 	mov	r5, r0
/home/rossierd/soo.tech/soo/optee_os/lib/libutee/tee_api_arith_mpi.c:101
    14bc:	eb0008de 	bl	383c <mbedtls_mpi_init_mempool>
/home/rossierd/soo.tech/soo/optee_os/lib/libutee/tee_api_arith_mpi.c:103
    14c0:	e3540000 	cmp	r4, #0
/home/rossierd/soo.tech/soo/optee_os/lib/libutee/tee_api_arith_mpi.c:105
    14c4:	12847008 	addne	r7, r4, #8
/home/rossierd/soo.tech/soo/optee_os/lib/libutee/tee_api_arith_mpi.c:106
    14c8:	11d410b6 	ldrhne	r1, [r4, #6]
/home/rossierd/soo.tech/soo/optee_os/lib/libutee/tee_api_arith_mpi.c:103
    14cc:	1a000001 	bne	14d8 <get_mpi+0x30>
    14d0:	e89da8f0 	ldm	sp, {r4, r5, r6, r7, fp, sp, pc}
/home/rossierd/soo.tech/soo/optee_os/lib/libutee/tee_api_arith_mpi.c:110
    14d4:	e2411001 	sub	r1, r1, #1
/home/rossierd/soo.tech/soo/optee_os/lib/libutee/tee_api_arith_mpi.c:109
    14d8:	e3510000 	cmp	r1, #0
    14dc:	e1a06101 	lsl	r6, r1, #2
    14e0:	0a000003 	beq	14f4 <get_mpi+0x4c>
/home/rossierd/soo.tech/soo/optee_os/lib/libutee/tee_api_arith_mpi.c:109 (discriminator 1)
    14e4:	e0843006 	add	r3, r4, r6
    14e8:	e5933004 	ldr	r3, [r3, #4]
    14ec:	e3530000 	cmp	r3, #0
    14f0:	0afffff7 	beq	14d4 <get_mpi+0x2c>
/home/rossierd/soo.tech/soo/optee_os/lib/libutee/tee_api_arith_mpi.c:112
    14f4:	e1a00005 	mov	r0, r5
    14f8:	eb000902 	bl	3908 <mbedtls_mpi_grow>
    14fc:	e2502000 	subs	r2, r0, #0
    1500:	0a000003 	beq	1514 <get_mpi+0x6c>
/home/rossierd/soo.tech/soo/optee_os/lib/libutee/tee_api_arith_mpi.c:112 (discriminator 1)
    1504:	e59f0028 	ldr	r0, [pc, #40]	; 1534 <get_mpi+0x8c>
    1508:	e3a01070 	mov	r1, #112	; 0x70
    150c:	e08f0000 	add	r0, pc, r0
    1510:	ebffffd6 	bl	1470 <mpi_panic>
/home/rossierd/soo.tech/soo/optee_os/lib/libutee/tee_api_arith_mpi.c:113
    1514:	e5943000 	ldr	r3, [r4]
/home/rossierd/soo.tech/soo/optee_os/lib/libutee/tee_api_arith_mpi.c:114
    1518:	e1a02006 	mov	r2, r6
    151c:	e1a01007 	mov	r1, r7
    1520:	e5950008 	ldr	r0, [r5, #8]
/home/rossierd/soo.tech/soo/optee_os/lib/libutee/tee_api_arith_mpi.c:113
    1524:	e1c530b0 	strh	r3, [r5]
/home/rossierd/soo.tech/soo/optee_os/lib/libutee/tee_api_arith_mpi.c:116
    1528:	e24bd01c 	sub	sp, fp, #28
    152c:	e89d68f0 	ldm	sp, {r4, r5, r6, r7, fp, sp, lr}
/home/rossierd/soo.tech/soo/optee_os/lib/libutee/tee_api_arith_mpi.c:114
    1530:	ea001a43 	b	7e44 <memcpy>
    1534:	000080b6 	.word	0x000080b6

00001538 <copy_mpi_to_bigint>:
copy_mpi_to_bigint():
/home/rossierd/soo.tech/soo/optee_os/lib/libutee/tee_api_arith_mpi.c:63
    1538:	e5903004 	ldr	r3, [r0, #4]
/home/rossierd/soo.tech/soo/optee_os/lib/libutee/tee_api_arith_mpi.c:61
    153c:	e1a0c00d 	mov	ip, sp
    1540:	e92dd800 	push	{fp, ip, lr, pc}
    1544:	e24cb004 	sub	fp, ip, #4
    1548:	e1a0c000 	mov	ip, r0
    154c:	e2432107 	sub	r2, r3, #-1073741823	; 0xc0000001
    1550:	e1a02102 	lsl	r2, r2, #2
/home/rossierd/soo.tech/soo/optee_os/lib/libutee/tee_api_arith_mpi.c:66
    1554:	e1a00002 	mov	r0, r2
    1558:	e3530000 	cmp	r3, #0
    155c:	0a000004 	beq	1574 <copy_mpi_to_bigint+0x3c>
/home/rossierd/soo.tech/soo/optee_os/lib/libutee/tee_api_arith_mpi.c:66 (discriminator 1)
    1560:	e59ce008 	ldr	lr, [ip, #8]
    1564:	e79ee000 	ldr	lr, [lr, r0]
    1568:	e2400004 	sub	r0, r0, #4
    156c:	e35e0000 	cmp	lr, #0
    1570:	0a00000b 	beq	15a4 <copy_mpi_to_bigint+0x6c>
/home/rossierd/soo.tech/soo/optee_os/lib/libutee/tee_api_arith_mpi.c:69
    1574:	e1d100b4 	ldrh	r0, [r1, #4]
    1578:	e1500003 	cmp	r0, r3
    157c:	3a00000a 	bcc	15ac <copy_mpi_to_bigint+0x74>
/home/rossierd/soo.tech/soo/optee_os/lib/libutee/tee_api_arith_mpi.c:72
    1580:	e1c130b6 	strh	r3, [r1, #6]
/home/rossierd/soo.tech/soo/optee_os/lib/libutee/tee_api_arith_mpi.c:73
    1584:	e1dc30f0 	ldrsh	r3, [ip]
    1588:	e1a00001 	mov	r0, r1
/home/rossierd/soo.tech/soo/optee_os/lib/libutee/tee_api_arith_mpi.c:74
    158c:	e2822004 	add	r2, r2, #4
    1590:	e59c1008 	ldr	r1, [ip, #8]
/home/rossierd/soo.tech/soo/optee_os/lib/libutee/tee_api_arith_mpi.c:73
    1594:	e4803008 	str	r3, [r0], #8
/home/rossierd/soo.tech/soo/optee_os/lib/libutee/tee_api_arith_mpi.c:74
    1598:	eb001a29 	bl	7e44 <memcpy>
/home/rossierd/soo.tech/soo/optee_os/lib/libutee/tee_api_arith_mpi.c:76
    159c:	e3a00000 	mov	r0, #0
    15a0:	e89da800 	ldm	sp, {fp, sp, pc}
/home/rossierd/soo.tech/soo/optee_os/lib/libutee/tee_api_arith_mpi.c:67
    15a4:	e2433001 	sub	r3, r3, #1
    15a8:	eaffffea 	b	1558 <copy_mpi_to_bigint+0x20>
/home/rossierd/soo.tech/soo/optee_os/lib/libutee/tee_api_arith_mpi.c:70
    15ac:	e59f0000 	ldr	r0, [pc]	; 15b4 <copy_mpi_to_bigint+0x7c>
/home/rossierd/soo.tech/soo/optee_os/lib/libutee/tee_api_arith_mpi.c:77
    15b0:	e89da800 	ldm	sp, {fp, sp, pc}
    15b4:	ffff300f 	.word	0xffff300f

000015b8 <bigint_binary>:
bigint_binary():
/home/rossierd/soo.tech/soo/optee_os/lib/libutee/tee_api_arith_mpi.c:321
    15b8:	e1a0c00d 	mov	ip, sp
    15bc:	e92ddff0 	push	{r4, r5, r6, r7, r8, r9, sl, fp, ip, lr, pc}
    15c0:	e24cb004 	sub	fp, ip, #4
    15c4:	e24dd034 	sub	sp, sp, #52	; 0x34
/home/rossierd/soo.tech/soo/optee_os/lib/libutee/tee_api_arith_mpi.c:328
    15c8:	e24b4050 	sub	r4, fp, #80	; 0x50
/home/rossierd/soo.tech/soo/optee_os/lib/libutee/tee_api_arith_mpi.c:321
    15cc:	e1a07000 	mov	r7, r0
    15d0:	e1a05001 	mov	r5, r1
/home/rossierd/soo.tech/soo/optee_os/lib/libutee/tee_api_arith_mpi.c:328
    15d4:	e1a01000 	mov	r1, r0
    15d8:	e1a00004 	mov	r0, r4
/home/rossierd/soo.tech/soo/optee_os/lib/libutee/tee_api_arith_mpi.c:321
    15dc:	e50b3058 	str	r3, [fp, #-88]	; 0xffffffa8
    15e0:	e1a0a002 	mov	sl, r2
    15e4:	e24b9044 	sub	r9, fp, #68	; 0x44
/home/rossierd/soo.tech/soo/optee_os/lib/libutee/tee_api_arith_mpi.c:328
    15e8:	ebffffae 	bl	14a8 <get_mpi>
/home/rossierd/soo.tech/soo/optee_os/lib/libutee/tee_api_arith_mpi.c:330
    15ec:	e1570005 	cmp	r7, r5
/home/rossierd/soo.tech/soo/optee_os/lib/libutee/tee_api_arith_mpi.c:331
    15f0:	01a06004 	moveq	r6, r4
/home/rossierd/soo.tech/soo/optee_os/lib/libutee/tee_api_arith_mpi.c:330
    15f4:	0a000003 	beq	1608 <bigint_binary+0x50>
/home/rossierd/soo.tech/soo/optee_os/lib/libutee/tee_api_arith_mpi.c:333
    15f8:	e1a01005 	mov	r1, r5
    15fc:	e1a00009 	mov	r0, r9
/home/rossierd/soo.tech/soo/optee_os/lib/libutee/tee_api_arith_mpi.c:325
    1600:	e1a06009 	mov	r6, r9
/home/rossierd/soo.tech/soo/optee_os/lib/libutee/tee_api_arith_mpi.c:333
    1604:	ebffffa7 	bl	14a8 <get_mpi>
/home/rossierd/soo.tech/soo/optee_os/lib/libutee/tee_api_arith_mpi.c:335
    1608:	e157000a 	cmp	r7, sl
    160c:	e24b8038 	sub	r8, fp, #56	; 0x38
/home/rossierd/soo.tech/soo/optee_os/lib/libutee/tee_api_arith_mpi.c:336
    1610:	01a05004 	moveq	r5, r4
/home/rossierd/soo.tech/soo/optee_os/lib/libutee/tee_api_arith_mpi.c:335
    1614:	0a000006 	beq	1634 <bigint_binary+0x7c>
/home/rossierd/soo.tech/soo/optee_os/lib/libutee/tee_api_arith_mpi.c:337
    1618:	e155000a 	cmp	r5, sl
/home/rossierd/soo.tech/soo/optee_os/lib/libutee/tee_api_arith_mpi.c:338
    161c:	01a05006 	moveq	r5, r6
/home/rossierd/soo.tech/soo/optee_os/lib/libutee/tee_api_arith_mpi.c:337
    1620:	0a000003 	beq	1634 <bigint_binary+0x7c>
/home/rossierd/soo.tech/soo/optee_os/lib/libutee/tee_api_arith_mpi.c:340
    1624:	e1a0100a 	mov	r1, sl
    1628:	e1a00008 	mov	r0, r8
/home/rossierd/soo.tech/soo/optee_os/lib/libutee/tee_api_arith_mpi.c:326
    162c:	e1a05008 	mov	r5, r8
/home/rossierd/soo.tech/soo/optee_os/lib/libutee/tee_api_arith_mpi.c:340
    1630:	ebffff9c 	bl	14a8 <get_mpi>
/home/rossierd/soo.tech/soo/optee_os/lib/libutee/tee_api_arith_mpi.c:342
    1634:	e1a02005 	mov	r2, r5
    1638:	e1a01006 	mov	r1, r6
    163c:	e51b3058 	ldr	r3, [fp, #-88]	; 0xffffffa8
    1640:	e1a00004 	mov	r0, r4
    1644:	e12fff33 	blx	r3
    1648:	e2502000 	subs	r2, r0, #0
    164c:	0a000004 	beq	1664 <bigint_binary+0xac>
/home/rossierd/soo.tech/soo/optee_os/lib/libutee/tee_api_arith_mpi.c:342 (discriminator 1)
    1650:	e59f005c 	ldr	r0, [pc, #92]	; 16b4 <bigint_binary+0xfc>
    1654:	e3001156 	movw	r1, #342	; 0x156
    1658:	e08f0000 	add	r0, pc, r0
/home/rossierd/soo.tech/soo/optee_os/lib/libutee/tee_api_arith_mpi.c:344 (discriminator 1)
    165c:	e2800008 	add	r0, r0, #8
    1660:	ebffff82 	bl	1470 <mpi_panic>
/home/rossierd/soo.tech/soo/optee_os/lib/libutee/tee_api_arith_mpi.c:344
    1664:	e1a01007 	mov	r1, r7
    1668:	e1a00004 	mov	r0, r4
    166c:	ebffffb1 	bl	1538 <copy_mpi_to_bigint>
    1670:	e2502000 	subs	r2, r0, #0
/home/rossierd/soo.tech/soo/optee_os/lib/libutee/tee_api_arith_mpi.c:344 (discriminator 1)
    1674:	159f003c 	ldrne	r0, [pc, #60]	; 16b8 <bigint_binary+0x100>
    1678:	13a01f56 	movne	r1, #344	; 0x158
    167c:	108f0000 	addne	r0, pc, r0
    1680:	1afffff5 	bne	165c <bigint_binary+0xa4>
/home/rossierd/soo.tech/soo/optee_os/lib/libutee/tee_api_arith_mpi.c:345
    1684:	e1a00004 	mov	r0, r4
    1688:	eb00087e 	bl	3888 <mbedtls_mpi_free>
/home/rossierd/soo.tech/soo/optee_os/lib/libutee/tee_api_arith_mpi.c:346
    168c:	e1560009 	cmp	r6, r9
    1690:	1a000001 	bne	169c <bigint_binary+0xe4>
/home/rossierd/soo.tech/soo/optee_os/lib/libutee/tee_api_arith_mpi.c:347
    1694:	e1a00006 	mov	r0, r6
    1698:	eb00087a 	bl	3888 <mbedtls_mpi_free>
/home/rossierd/soo.tech/soo/optee_os/lib/libutee/tee_api_arith_mpi.c:348
    169c:	e1550008 	cmp	r5, r8
    16a0:	1a000001 	bne	16ac <bigint_binary+0xf4>
/home/rossierd/soo.tech/soo/optee_os/lib/libutee/tee_api_arith_mpi.c:349
    16a4:	e1a00005 	mov	r0, r5
    16a8:	eb000876 	bl	3888 <mbedtls_mpi_free>
/home/rossierd/soo.tech/soo/optee_os/lib/libutee/tee_api_arith_mpi.c:350
    16ac:	e24bd028 	sub	sp, fp, #40	; 0x28
    16b0:	e89daff0 	ldm	sp, {r4, r5, r6, r7, r8, r9, sl, fp, sp, pc}
    16b4:	00007f6a 	.word	0x00007f6a
    16b8:	00007f46 	.word	0x00007f46

000016bc <mpi_is_odd>:
mpi_is_odd():
/home/rossierd/soo.tech/soo/optee_os/lib/libutee/tee_api_arith_mpi.c:590
    16bc:	e1a0c00d 	mov	ip, sp
/home/rossierd/soo.tech/soo/optee_os/lib/libutee/tee_api_arith_mpi.c:591
    16c0:	e3a01000 	mov	r1, #0
/home/rossierd/soo.tech/soo/optee_os/lib/libutee/tee_api_arith_mpi.c:590
    16c4:	e92dd800 	push	{fp, ip, lr, pc}
    16c8:	e24cb004 	sub	fp, ip, #4
/home/rossierd/soo.tech/soo/optee_os/lib/libutee/tee_api_arith_mpi.c:591
    16cc:	eb0009d2 	bl	3e1c <mbedtls_mpi_get_bit>
/home/rossierd/soo.tech/soo/optee_os/lib/libutee/tee_api_arith_mpi.c:592
    16d0:	e2900000 	adds	r0, r0, #0
    16d4:	13a00001 	movne	r0, #1
    16d8:	e89da800 	ldm	sp, {fp, sp, pc}

000016dc <rng_read>:
rng_read():
/home/rossierd/soo.tech/soo/optee_os/lib/libutee/tee_api_arith_mpi.c:757
    16dc:	e1a0c00d 	mov	ip, sp
    16e0:	e1a00001 	mov	r0, r1
/home/rossierd/soo.tech/soo/optee_os/lib/libutee/tee_api_arith_mpi.c:758
    16e4:	e1a01002 	mov	r1, r2
/home/rossierd/soo.tech/soo/optee_os/lib/libutee/tee_api_arith_mpi.c:757
    16e8:	e92dd800 	push	{fp, ip, lr, pc}
    16ec:	e24cb004 	sub	fp, ip, #4
/home/rossierd/soo.tech/soo/optee_os/lib/libutee/tee_api_arith_mpi.c:758
    16f0:	ebfffb3f 	bl	3f4 <utee_cryp_random_number_generate>
    16f4:	e3500000 	cmp	r0, #0
/home/rossierd/soo.tech/soo/optee_os/lib/libutee/tee_api_arith_mpi.c:761
    16f8:	13e00001 	mvnne	r0, #1
    16fc:	03a00000 	moveq	r0, #0
    1700:	e89da800 	ldm	sp, {fp, sp, pc}

00001704 <mpi_egcd>:
mpi_egcd():
/home/rossierd/soo.tech/soo/optee_os/lib/libutee/tee_api_arith_mpi.c:605
    1704:	e1a0c00d 	mov	ip, sp
    1708:	e92ddff0 	push	{r4, r5, r6, r7, r8, r9, sl, fp, ip, lr, pc}
    170c:	e24cb004 	sub	fp, ip, #4
    1710:	e24dd06c 	sub	sp, sp, #108	; 0x6c
get_mpi():
/home/rossierd/soo.tech/soo/optee_os/lib/libutee/tee_api_arith_mpi.c:101
    1714:	e24b7080 	sub	r7, fp, #128	; 0x80
mpi_egcd():
/home/rossierd/soo.tech/soo/optee_os/lib/libutee/tee_api_arith_mpi.c:605
    1718:	e1a08000 	mov	r8, r0
get_mpi():
/home/rossierd/soo.tech/soo/optee_os/lib/libutee/tee_api_arith_mpi.c:101
    171c:	e24b6074 	sub	r6, fp, #116	; 0x74
    1720:	e1a00007 	mov	r0, r7
mpi_egcd():
/home/rossierd/soo.tech/soo/optee_os/lib/libutee/tee_api_arith_mpi.c:605
    1724:	e50b2094 	str	r2, [fp, #-148]	; 0xffffff6c
    1728:	e1a0a003 	mov	sl, r3
    172c:	e50b1090 	str	r1, [fp, #-144]	; 0xffffff70
get_mpi():
/home/rossierd/soo.tech/soo/optee_os/lib/libutee/tee_api_arith_mpi.c:101
    1730:	e24b5068 	sub	r5, fp, #104	; 0x68
    1734:	e24b405c 	sub	r4, fp, #92	; 0x5c
    1738:	eb00083f 	bl	383c <mbedtls_mpi_init_mempool>
    173c:	e1a00006 	mov	r0, r6
    1740:	e24b9050 	sub	r9, fp, #80	; 0x50
    1744:	eb00083c 	bl	383c <mbedtls_mpi_init_mempool>
    1748:	e1a00005 	mov	r0, r5
    174c:	eb00083a 	bl	383c <mbedtls_mpi_init_mempool>
    1750:	e1a00004 	mov	r0, r4
    1754:	eb000838 	bl	383c <mbedtls_mpi_init_mempool>
    1758:	e1a00009 	mov	r0, r9
    175c:	eb000836 	bl	383c <mbedtls_mpi_init_mempool>
    1760:	e24b3044 	sub	r3, fp, #68	; 0x44
    1764:	e1a00003 	mov	r0, r3
    1768:	e50b3088 	str	r3, [fp, #-136]	; 0xffffff78
    176c:	eb000832 	bl	383c <mbedtls_mpi_init_mempool>
    1770:	e24b0038 	sub	r0, fp, #56	; 0x38
    1774:	eb000830 	bl	383c <mbedtls_mpi_init_mempool>
mpi_egcd():
/home/rossierd/soo.tech/soo/optee_os/lib/libutee/tee_api_arith_mpi.c:624
    1778:	e3a01000 	mov	r1, #0
    177c:	e59b0004 	ldr	r0, [fp, #4]
    1780:	eb000b5a 	bl	44f0 <mbedtls_mpi_cmp_int>
    1784:	e3500000 	cmp	r0, #0
    1788:	1a00001a 	bne	17f8 <mpi_egcd+0xf4>
/home/rossierd/soo.tech/soo/optee_os/lib/libutee/tee_api_arith_mpi.c:625
    178c:	e3a01001 	mov	r1, #1
    1790:	e51b0090 	ldr	r0, [fp, #-144]	; 0xffffff70
    1794:	eb000988 	bl	3dbc <mbedtls_mpi_lset>
    1798:	e2502000 	subs	r2, r0, #0
    179c:	0a000004 	beq	17b4 <mpi_egcd+0xb0>
/home/rossierd/soo.tech/soo/optee_os/lib/libutee/tee_api_arith_mpi.c:625 (discriminator 1)
    17a0:	e59f0548 	ldr	r0, [pc, #1352]	; 1cf0 <mpi_egcd+0x5ec>
    17a4:	e3001271 	movw	r1, #625	; 0x271
    17a8:	e08f0000 	add	r0, pc, r0
/home/rossierd/soo.tech/soo/optee_os/lib/libutee/tee_api_arith_mpi.c:626 (discriminator 1)
    17ac:	e2800016 	add	r0, r0, #22
    17b0:	ebffff2e 	bl	1470 <mpi_panic>
/home/rossierd/soo.tech/soo/optee_os/lib/libutee/tee_api_arith_mpi.c:626
    17b4:	e1a01002 	mov	r1, r2
    17b8:	e51b0094 	ldr	r0, [fp, #-148]	; 0xffffff6c
    17bc:	eb00097e 	bl	3dbc <mbedtls_mpi_lset>
    17c0:	e2502000 	subs	r2, r0, #0
/home/rossierd/soo.tech/soo/optee_os/lib/libutee/tee_api_arith_mpi.c:626 (discriminator 1)
    17c4:	159f0528 	ldrne	r0, [pc, #1320]	; 1cf4 <mpi_egcd+0x5f0>
    17c8:	13001272 	movwne	r1, #626	; 0x272
    17cc:	108f0000 	addne	r0, pc, r0
    17d0:	1afffff5 	bne	17ac <mpi_egcd+0xa8>
/home/rossierd/soo.tech/soo/optee_os/lib/libutee/tee_api_arith_mpi.c:627
    17d4:	e1a0100a 	mov	r1, sl
    17d8:	e1a00008 	mov	r0, r8
    17dc:	eb0008d6 	bl	3b3c <mbedtls_mpi_copy>
    17e0:	e2502000 	subs	r2, r0, #0
    17e4:	0a000131 	beq	1cb0 <mpi_egcd+0x5ac>
/home/rossierd/soo.tech/soo/optee_os/lib/libutee/tee_api_arith_mpi.c:627 (discriminator 1)
    17e8:	e59f0508 	ldr	r0, [pc, #1288]	; 1cf8 <mpi_egcd+0x5f4>
    17ec:	e3001273 	movw	r1, #627	; 0x273
    17f0:	e08f0000 	add	r0, pc, r0
    17f4:	eaffffec 	b	17ac <mpi_egcd+0xa8>
/home/rossierd/soo.tech/soo/optee_os/lib/libutee/tee_api_arith_mpi.c:631
    17f8:	e1a0100a 	mov	r1, sl
    17fc:	e1a00009 	mov	r0, r9
    1800:	eb0008cd 	bl	3b3c <mbedtls_mpi_copy>
    1804:	e2502000 	subs	r2, r0, #0
/home/rossierd/soo.tech/soo/optee_os/lib/libutee/tee_api_arith_mpi.c:631 (discriminator 1)
    1808:	159f04ec 	ldrne	r0, [pc, #1260]	; 1cfc <mpi_egcd+0x5f8>
    180c:	13001277 	movwne	r1, #631	; 0x277
    1810:	108f0000 	addne	r0, pc, r0
    1814:	1affffe4 	bne	17ac <mpi_egcd+0xa8>
/home/rossierd/soo.tech/soo/optee_os/lib/libutee/tee_api_arith_mpi.c:632
    1818:	e51b0088 	ldr	r0, [fp, #-136]	; 0xffffff78
    181c:	e59b1004 	ldr	r1, [fp, #4]
    1820:	eb0008c5 	bl	3b3c <mbedtls_mpi_copy>
    1824:	e2502000 	subs	r2, r0, #0
    1828:	050b208c 	streq	r2, [fp, #-140]	; 0xffffff74
    182c:	0a00000b 	beq	1860 <mpi_egcd+0x15c>
/home/rossierd/soo.tech/soo/optee_os/lib/libutee/tee_api_arith_mpi.c:632 (discriminator 1)
    1830:	e59f04c8 	ldr	r0, [pc, #1224]	; 1d00 <mpi_egcd+0x5fc>
    1834:	e3a01f9e 	mov	r1, #632	; 0x278
    1838:	e08f0000 	add	r0, pc, r0
    183c:	eaffffda 	b	17ac <mpi_egcd+0xa8>
/home/rossierd/soo.tech/soo/optee_os/lib/libutee/tee_api_arith_mpi.c:638
    1840:	e3a01001 	mov	r1, #1
    1844:	e51b0088 	ldr	r0, [fp, #-136]	; 0xffffff78
    1848:	eb000a75 	bl	4224 <mbedtls_mpi_shift_r>
    184c:	e2502000 	subs	r2, r0, #0
/home/rossierd/soo.tech/soo/optee_os/lib/libutee/tee_api_arith_mpi.c:638 (discriminator 1)
    1850:	159f04ac 	ldrne	r0, [pc, #1196]	; 1d04 <mpi_egcd+0x600>
    1854:	1300127e 	movwne	r1, #638	; 0x27e
    1858:	108f0000 	addne	r0, pc, r0
    185c:	1affffd2 	bne	17ac <mpi_egcd+0xa8>
mpi_is_even():
/home/rossierd/soo.tech/soo/optee_os/lib/libutee/tee_api_arith_mpi.c:596
    1860:	e1a00009 	mov	r0, r9
    1864:	ebffff94 	bl	16bc <mpi_is_odd>
mpi_egcd():
/home/rossierd/soo.tech/soo/optee_os/lib/libutee/tee_api_arith_mpi.c:635
    1868:	e3500000 	cmp	r0, #0
    186c:	0a000009 	beq	1898 <mpi_egcd+0x194>
/home/rossierd/soo.tech/soo/optee_os/lib/libutee/tee_api_arith_mpi.c:641
    1870:	e24ba038 	sub	sl, fp, #56	; 0x38
    1874:	e1a01009 	mov	r1, r9
    1878:	e1a0000a 	mov	r0, sl
    187c:	eb0008ae 	bl	3b3c <mbedtls_mpi_copy>
    1880:	e2502000 	subs	r2, r0, #0
    1884:	0a000013 	beq	18d8 <mpi_egcd+0x1d4>
/home/rossierd/soo.tech/soo/optee_os/lib/libutee/tee_api_arith_mpi.c:641 (discriminator 1)
    1888:	e59f0478 	ldr	r0, [pc, #1144]	; 1d08 <mpi_egcd+0x604>
    188c:	e3001281 	movw	r1, #641	; 0x281
    1890:	e08f0000 	add	r0, pc, r0
    1894:	eaffffc4 	b	17ac <mpi_egcd+0xa8>
mpi_is_even():
/home/rossierd/soo.tech/soo/optee_os/lib/libutee/tee_api_arith_mpi.c:596
    1898:	e51b0088 	ldr	r0, [fp, #-136]	; 0xffffff78
    189c:	ebffff86 	bl	16bc <mpi_is_odd>
mpi_egcd():
/home/rossierd/soo.tech/soo/optee_os/lib/libutee/tee_api_arith_mpi.c:635
    18a0:	e3500000 	cmp	r0, #0
    18a4:	1afffff1 	bne	1870 <mpi_egcd+0x16c>
/home/rossierd/soo.tech/soo/optee_os/lib/libutee/tee_api_arith_mpi.c:636
    18a8:	e51b308c 	ldr	r3, [fp, #-140]	; 0xffffff74
/home/rossierd/soo.tech/soo/optee_os/lib/libutee/tee_api_arith_mpi.c:637
    18ac:	e3a01001 	mov	r1, #1
    18b0:	e1a00009 	mov	r0, r9
/home/rossierd/soo.tech/soo/optee_os/lib/libutee/tee_api_arith_mpi.c:636
    18b4:	e2833001 	add	r3, r3, #1
    18b8:	e50b308c 	str	r3, [fp, #-140]	; 0xffffff74
/home/rossierd/soo.tech/soo/optee_os/lib/libutee/tee_api_arith_mpi.c:637
    18bc:	eb000a58 	bl	4224 <mbedtls_mpi_shift_r>
    18c0:	e2502000 	subs	r2, r0, #0
    18c4:	0affffdd 	beq	1840 <mpi_egcd+0x13c>
/home/rossierd/soo.tech/soo/optee_os/lib/libutee/tee_api_arith_mpi.c:637 (discriminator 1)
    18c8:	e59f043c 	ldr	r0, [pc, #1084]	; 1d0c <mpi_egcd+0x608>
    18cc:	e300127d 	movw	r1, #637	; 0x27d
    18d0:	e08f0000 	add	r0, pc, r0
    18d4:	eaffffb4 	b	17ac <mpi_egcd+0xa8>
/home/rossierd/soo.tech/soo/optee_os/lib/libutee/tee_api_arith_mpi.c:642
    18d8:	e1a00008 	mov	r0, r8
    18dc:	e51b1088 	ldr	r1, [fp, #-136]	; 0xffffff78
    18e0:	eb000895 	bl	3b3c <mbedtls_mpi_copy>
    18e4:	e2502000 	subs	r2, r0, #0
/home/rossierd/soo.tech/soo/optee_os/lib/libutee/tee_api_arith_mpi.c:642 (discriminator 1)
    18e8:	159f0420 	ldrne	r0, [pc, #1056]	; 1d10 <mpi_egcd+0x60c>
    18ec:	13001282 	movwne	r1, #642	; 0x282
    18f0:	108f0000 	addne	r0, pc, r0
    18f4:	1affffac 	bne	17ac <mpi_egcd+0xa8>
/home/rossierd/soo.tech/soo/optee_os/lib/libutee/tee_api_arith_mpi.c:643
    18f8:	e3a01001 	mov	r1, #1
    18fc:	e1a00007 	mov	r0, r7
    1900:	eb00092d 	bl	3dbc <mbedtls_mpi_lset>
    1904:	e2502000 	subs	r2, r0, #0
/home/rossierd/soo.tech/soo/optee_os/lib/libutee/tee_api_arith_mpi.c:643 (discriminator 1)
    1908:	159f0404 	ldrne	r0, [pc, #1028]	; 1d14 <mpi_egcd+0x610>
    190c:	13001283 	movwne	r1, #643	; 0x283
    1910:	108f0000 	addne	r0, pc, r0
    1914:	1affffa4 	bne	17ac <mpi_egcd+0xa8>
/home/rossierd/soo.tech/soo/optee_os/lib/libutee/tee_api_arith_mpi.c:644
    1918:	e1a01002 	mov	r1, r2
    191c:	e1a00006 	mov	r0, r6
    1920:	eb000925 	bl	3dbc <mbedtls_mpi_lset>
    1924:	e2502000 	subs	r2, r0, #0
/home/rossierd/soo.tech/soo/optee_os/lib/libutee/tee_api_arith_mpi.c:644 (discriminator 1)
    1928:	159f03e8 	ldrne	r0, [pc, #1000]	; 1d18 <mpi_egcd+0x614>
    192c:	13a01fa1 	movne	r1, #644	; 0x284
    1930:	108f0000 	addne	r0, pc, r0
    1934:	1affff9c 	bne	17ac <mpi_egcd+0xa8>
/home/rossierd/soo.tech/soo/optee_os/lib/libutee/tee_api_arith_mpi.c:645
    1938:	e1a01002 	mov	r1, r2
    193c:	e1a00005 	mov	r0, r5
    1940:	eb00091d 	bl	3dbc <mbedtls_mpi_lset>
    1944:	e2502000 	subs	r2, r0, #0
/home/rossierd/soo.tech/soo/optee_os/lib/libutee/tee_api_arith_mpi.c:645 (discriminator 1)
    1948:	159f03cc 	ldrne	r0, [pc, #972]	; 1d1c <mpi_egcd+0x618>
    194c:	13001285 	movwne	r1, #645	; 0x285
    1950:	108f0000 	addne	r0, pc, r0
    1954:	1affff94 	bne	17ac <mpi_egcd+0xa8>
/home/rossierd/soo.tech/soo/optee_os/lib/libutee/tee_api_arith_mpi.c:646
    1958:	e3a01001 	mov	r1, #1
    195c:	e1a00004 	mov	r0, r4
    1960:	eb000915 	bl	3dbc <mbedtls_mpi_lset>
    1964:	e2502000 	subs	r2, r0, #0
    1968:	0a0000b3 	beq	1c3c <mpi_egcd+0x538>
/home/rossierd/soo.tech/soo/optee_os/lib/libutee/tee_api_arith_mpi.c:646 (discriminator 1)
    196c:	e59f03ac 	ldr	r0, [pc, #940]	; 1d20 <mpi_egcd+0x61c>
    1970:	e3001286 	movw	r1, #646	; 0x286
    1974:	e08f0000 	add	r0, pc, r0
    1978:	eaffff8b 	b	17ac <mpi_egcd+0xa8>
/home/rossierd/soo.tech/soo/optee_os/lib/libutee/tee_api_arith_mpi.c:650
    197c:	e3a01001 	mov	r1, #1
    1980:	e1a0000a 	mov	r0, sl
    1984:	eb000a26 	bl	4224 <mbedtls_mpi_shift_r>
    1988:	e2502000 	subs	r2, r0, #0
/home/rossierd/soo.tech/soo/optee_os/lib/libutee/tee_api_arith_mpi.c:650 (discriminator 1)
    198c:	159f0390 	ldrne	r0, [pc, #912]	; 1d24 <mpi_egcd+0x620>
    1990:	1300128a 	movwne	r1, #650	; 0x28a
    1994:	108f0000 	addne	r0, pc, r0
    1998:	1affff83 	bne	17ac <mpi_egcd+0xa8>
/home/rossierd/soo.tech/soo/optee_os/lib/libutee/tee_api_arith_mpi.c:651
    199c:	e1a00007 	mov	r0, r7
    19a0:	ebffff45 	bl	16bc <mpi_is_odd>
    19a4:	e3500000 	cmp	r0, #0
    19a8:	0a000009 	beq	19d4 <mpi_egcd+0x2d0>
/home/rossierd/soo.tech/soo/optee_os/lib/libutee/tee_api_arith_mpi.c:652
    19ac:	e51b2088 	ldr	r2, [fp, #-136]	; 0xffffff78
    19b0:	e1a01007 	mov	r1, r7
    19b4:	e1a00007 	mov	r0, r7
    19b8:	eb000b66 	bl	4758 <mbedtls_mpi_add_mpi>
    19bc:	e2502000 	subs	r2, r0, #0
    19c0:	0a000010 	beq	1a08 <mpi_egcd+0x304>
/home/rossierd/soo.tech/soo/optee_os/lib/libutee/tee_api_arith_mpi.c:652 (discriminator 1)
    19c4:	e59f035c 	ldr	r0, [pc, #860]	; 1d28 <mpi_egcd+0x624>
    19c8:	e3a01fa3 	mov	r1, #652	; 0x28c
    19cc:	e08f0000 	add	r0, pc, r0
    19d0:	eaffff75 	b	17ac <mpi_egcd+0xa8>
/home/rossierd/soo.tech/soo/optee_os/lib/libutee/tee_api_arith_mpi.c:651 (discriminator 1)
    19d4:	e1a00006 	mov	r0, r6
    19d8:	ebffff37 	bl	16bc <mpi_is_odd>
    19dc:	e3500000 	cmp	r0, #0
    19e0:	1afffff1 	bne	19ac <mpi_egcd+0x2a8>
/home/rossierd/soo.tech/soo/optee_os/lib/libutee/tee_api_arith_mpi.c:655
    19e4:	e3a01001 	mov	r1, #1
    19e8:	e1a00007 	mov	r0, r7
    19ec:	eb000a0c 	bl	4224 <mbedtls_mpi_shift_r>
    19f0:	e2502000 	subs	r2, r0, #0
    19f4:	0a00000d 	beq	1a30 <mpi_egcd+0x32c>
/home/rossierd/soo.tech/soo/optee_os/lib/libutee/tee_api_arith_mpi.c:655 (discriminator 1)
    19f8:	e59f032c 	ldr	r0, [pc, #812]	; 1d2c <mpi_egcd+0x628>
    19fc:	e300128f 	movw	r1, #655	; 0x28f
    1a00:	e08f0000 	add	r0, pc, r0
    1a04:	eaffff68 	b	17ac <mpi_egcd+0xa8>
/home/rossierd/soo.tech/soo/optee_os/lib/libutee/tee_api_arith_mpi.c:653
    1a08:	e1a02009 	mov	r2, r9
    1a0c:	e1a01006 	mov	r1, r6
    1a10:	e1a00006 	mov	r0, r6
    1a14:	eb000b70 	bl	47dc <mbedtls_mpi_sub_mpi>
    1a18:	e2502000 	subs	r2, r0, #0
    1a1c:	0afffff0 	beq	19e4 <mpi_egcd+0x2e0>
/home/rossierd/soo.tech/soo/optee_os/lib/libutee/tee_api_arith_mpi.c:653 (discriminator 1)
    1a20:	e59f0308 	ldr	r0, [pc, #776]	; 1d30 <mpi_egcd+0x62c>
    1a24:	e300128d 	movw	r1, #653	; 0x28d
    1a28:	e08f0000 	add	r0, pc, r0
    1a2c:	eaffff5e 	b	17ac <mpi_egcd+0xa8>
/home/rossierd/soo.tech/soo/optee_os/lib/libutee/tee_api_arith_mpi.c:656
    1a30:	e3a01001 	mov	r1, #1
    1a34:	e1a00006 	mov	r0, r6
    1a38:	eb0009f9 	bl	4224 <mbedtls_mpi_shift_r>
    1a3c:	e2502000 	subs	r2, r0, #0
/home/rossierd/soo.tech/soo/optee_os/lib/libutee/tee_api_arith_mpi.c:656 (discriminator 1)
    1a40:	159f02ec 	ldrne	r0, [pc, #748]	; 1d34 <mpi_egcd+0x630>
    1a44:	13a01e29 	movne	r1, #656	; 0x290
    1a48:	108f0000 	addne	r0, pc, r0
    1a4c:	1affff56 	bne	17ac <mpi_egcd+0xa8>
mpi_is_even():
/home/rossierd/soo.tech/soo/optee_os/lib/libutee/tee_api_arith_mpi.c:596
    1a50:	e1a0000a 	mov	r0, sl
    1a54:	ebffff18 	bl	16bc <mpi_is_odd>
mpi_egcd():
/home/rossierd/soo.tech/soo/optee_os/lib/libutee/tee_api_arith_mpi.c:649
    1a58:	e3500000 	cmp	r0, #0
    1a5c:	0affffc6 	beq	197c <mpi_egcd+0x278>
mpi_is_even():
/home/rossierd/soo.tech/soo/optee_os/lib/libutee/tee_api_arith_mpi.c:596
    1a60:	e1a00008 	mov	r0, r8
    1a64:	ebffff14 	bl	16bc <mpi_is_odd>
mpi_egcd():
/home/rossierd/soo.tech/soo/optee_os/lib/libutee/tee_api_arith_mpi.c:659
    1a68:	e3500000 	cmp	r0, #0
    1a6c:	0a00000e 	beq	1aac <mpi_egcd+0x3a8>
/home/rossierd/soo.tech/soo/optee_os/lib/libutee/tee_api_arith_mpi.c:670
    1a70:	e1a01008 	mov	r1, r8
    1a74:	e1a0000a 	mov	r0, sl
    1a78:	eb000a59 	bl	43e4 <mbedtls_mpi_cmp_mpi>
    1a7c:	e3500000 	cmp	r0, #0
    1a80:	ba000052 	blt	1bd0 <mpi_egcd+0x4cc>
/home/rossierd/soo.tech/soo/optee_os/lib/libutee/tee_api_arith_mpi.c:671
    1a84:	e1a02008 	mov	r2, r8
    1a88:	e1a0100a 	mov	r1, sl
    1a8c:	e1a0000a 	mov	r0, sl
    1a90:	eb000b51 	bl	47dc <mbedtls_mpi_sub_mpi>
    1a94:	e2502000 	subs	r2, r0, #0
    1a98:	0a000039 	beq	1b84 <mpi_egcd+0x480>
/home/rossierd/soo.tech/soo/optee_os/lib/libutee/tee_api_arith_mpi.c:671 (discriminator 1)
    1a9c:	e59f0294 	ldr	r0, [pc, #660]	; 1d38 <mpi_egcd+0x634>
    1aa0:	e300129f 	movw	r1, #671	; 0x29f
    1aa4:	e08f0000 	add	r0, pc, r0
    1aa8:	eaffff3f 	b	17ac <mpi_egcd+0xa8>
/home/rossierd/soo.tech/soo/optee_os/lib/libutee/tee_api_arith_mpi.c:660
    1aac:	e3a01001 	mov	r1, #1
    1ab0:	e1a00008 	mov	r0, r8
    1ab4:	eb0009da 	bl	4224 <mbedtls_mpi_shift_r>
    1ab8:	e2502000 	subs	r2, r0, #0
/home/rossierd/soo.tech/soo/optee_os/lib/libutee/tee_api_arith_mpi.c:660 (discriminator 1)
    1abc:	159f0278 	ldrne	r0, [pc, #632]	; 1d3c <mpi_egcd+0x638>
    1ac0:	13a01fa5 	movne	r1, #660	; 0x294
    1ac4:	108f0000 	addne	r0, pc, r0
    1ac8:	1affff37 	bne	17ac <mpi_egcd+0xa8>
/home/rossierd/soo.tech/soo/optee_os/lib/libutee/tee_api_arith_mpi.c:661
    1acc:	e1a00005 	mov	r0, r5
    1ad0:	ebfffef9 	bl	16bc <mpi_is_odd>
    1ad4:	e3500000 	cmp	r0, #0
    1ad8:	0a000009 	beq	1b04 <mpi_egcd+0x400>
/home/rossierd/soo.tech/soo/optee_os/lib/libutee/tee_api_arith_mpi.c:662
    1adc:	e51b2088 	ldr	r2, [fp, #-136]	; 0xffffff78
    1ae0:	e1a01005 	mov	r1, r5
    1ae4:	e1a00005 	mov	r0, r5
    1ae8:	eb000b1a 	bl	4758 <mbedtls_mpi_add_mpi>
    1aec:	e2502000 	subs	r2, r0, #0
    1af0:	0a000010 	beq	1b38 <mpi_egcd+0x434>
/home/rossierd/soo.tech/soo/optee_os/lib/libutee/tee_api_arith_mpi.c:662 (discriminator 1)
    1af4:	e59f0244 	ldr	r0, [pc, #580]	; 1d40 <mpi_egcd+0x63c>
    1af8:	e3001296 	movw	r1, #662	; 0x296
    1afc:	e08f0000 	add	r0, pc, r0
    1b00:	eaffff29 	b	17ac <mpi_egcd+0xa8>
/home/rossierd/soo.tech/soo/optee_os/lib/libutee/tee_api_arith_mpi.c:661 (discriminator 1)
    1b04:	e1a00004 	mov	r0, r4
    1b08:	ebfffeeb 	bl	16bc <mpi_is_odd>
    1b0c:	e3500000 	cmp	r0, #0
    1b10:	1afffff1 	bne	1adc <mpi_egcd+0x3d8>
/home/rossierd/soo.tech/soo/optee_os/lib/libutee/tee_api_arith_mpi.c:665
    1b14:	e3a01001 	mov	r1, #1
    1b18:	e1a00005 	mov	r0, r5
    1b1c:	eb0009c0 	bl	4224 <mbedtls_mpi_shift_r>
    1b20:	e2502000 	subs	r2, r0, #0
    1b24:	0a00000d 	beq	1b60 <mpi_egcd+0x45c>
/home/rossierd/soo.tech/soo/optee_os/lib/libutee/tee_api_arith_mpi.c:665 (discriminator 1)
    1b28:	e59f0214 	ldr	r0, [pc, #532]	; 1d44 <mpi_egcd+0x640>
    1b2c:	e3001299 	movw	r1, #665	; 0x299
    1b30:	e08f0000 	add	r0, pc, r0
    1b34:	eaffff1c 	b	17ac <mpi_egcd+0xa8>
/home/rossierd/soo.tech/soo/optee_os/lib/libutee/tee_api_arith_mpi.c:663
    1b38:	e1a02009 	mov	r2, r9
    1b3c:	e1a01004 	mov	r1, r4
    1b40:	e1a00004 	mov	r0, r4
    1b44:	eb000b24 	bl	47dc <mbedtls_mpi_sub_mpi>
    1b48:	e2502000 	subs	r2, r0, #0
    1b4c:	0afffff0 	beq	1b14 <mpi_egcd+0x410>
/home/rossierd/soo.tech/soo/optee_os/lib/libutee/tee_api_arith_mpi.c:663 (discriminator 1)
    1b50:	e59f01f0 	ldr	r0, [pc, #496]	; 1d48 <mpi_egcd+0x644>
    1b54:	e3001297 	movw	r1, #663	; 0x297
    1b58:	e08f0000 	add	r0, pc, r0
    1b5c:	eaffff12 	b	17ac <mpi_egcd+0xa8>
/home/rossierd/soo.tech/soo/optee_os/lib/libutee/tee_api_arith_mpi.c:666
    1b60:	e3a01001 	mov	r1, #1
    1b64:	e1a00004 	mov	r0, r4
    1b68:	eb0009ad 	bl	4224 <mbedtls_mpi_shift_r>
    1b6c:	e2502000 	subs	r2, r0, #0
    1b70:	0affffba 	beq	1a60 <mpi_egcd+0x35c>
/home/rossierd/soo.tech/soo/optee_os/lib/libutee/tee_api_arith_mpi.c:666 (discriminator 1)
    1b74:	e59f01d0 	ldr	r0, [pc, #464]	; 1d4c <mpi_egcd+0x648>
    1b78:	e300129a 	movw	r1, #666	; 0x29a
    1b7c:	e08f0000 	add	r0, pc, r0
    1b80:	eaffff09 	b	17ac <mpi_egcd+0xa8>
/home/rossierd/soo.tech/soo/optee_os/lib/libutee/tee_api_arith_mpi.c:672
    1b84:	e1a02005 	mov	r2, r5
    1b88:	e1a01007 	mov	r1, r7
    1b8c:	e1a00007 	mov	r0, r7
    1b90:	eb000b11 	bl	47dc <mbedtls_mpi_sub_mpi>
    1b94:	e2502000 	subs	r2, r0, #0
/home/rossierd/soo.tech/soo/optee_os/lib/libutee/tee_api_arith_mpi.c:672 (discriminator 1)
    1b98:	159f01b0 	ldrne	r0, [pc, #432]	; 1d50 <mpi_egcd+0x64c>
    1b9c:	13a01e2a 	movne	r1, #672	; 0x2a0
    1ba0:	108f0000 	addne	r0, pc, r0
    1ba4:	1affff00 	bne	17ac <mpi_egcd+0xa8>
/home/rossierd/soo.tech/soo/optee_os/lib/libutee/tee_api_arith_mpi.c:673
    1ba8:	e1a02004 	mov	r2, r4
    1bac:	e1a01006 	mov	r1, r6
    1bb0:	e1a00006 	mov	r0, r6
    1bb4:	eb000b08 	bl	47dc <mbedtls_mpi_sub_mpi>
    1bb8:	e2502000 	subs	r2, r0, #0
    1bbc:	0a00001e 	beq	1c3c <mpi_egcd+0x538>
/home/rossierd/soo.tech/soo/optee_os/lib/libutee/tee_api_arith_mpi.c:673 (discriminator 1)
    1bc0:	e59f018c 	ldr	r0, [pc, #396]	; 1d54 <mpi_egcd+0x650>
    1bc4:	e30012a1 	movw	r1, #673	; 0x2a1
    1bc8:	e08f0000 	add	r0, pc, r0
    1bcc:	eafffef6 	b	17ac <mpi_egcd+0xa8>
/home/rossierd/soo.tech/soo/optee_os/lib/libutee/tee_api_arith_mpi.c:675
    1bd0:	e1a0200a 	mov	r2, sl
    1bd4:	e1a01008 	mov	r1, r8
    1bd8:	e1a00008 	mov	r0, r8
    1bdc:	eb000afe 	bl	47dc <mbedtls_mpi_sub_mpi>
    1be0:	e2502000 	subs	r2, r0, #0
/home/rossierd/soo.tech/soo/optee_os/lib/libutee/tee_api_arith_mpi.c:675 (discriminator 1)
    1be4:	159f016c 	ldrne	r0, [pc, #364]	; 1d58 <mpi_egcd+0x654>
    1be8:	130012a3 	movwne	r1, #675	; 0x2a3
    1bec:	108f0000 	addne	r0, pc, r0
    1bf0:	1afffeed 	bne	17ac <mpi_egcd+0xa8>
/home/rossierd/soo.tech/soo/optee_os/lib/libutee/tee_api_arith_mpi.c:676
    1bf4:	e1a02007 	mov	r2, r7
    1bf8:	e1a01005 	mov	r1, r5
    1bfc:	e1a00005 	mov	r0, r5
    1c00:	eb000af5 	bl	47dc <mbedtls_mpi_sub_mpi>
    1c04:	e2502000 	subs	r2, r0, #0
/home/rossierd/soo.tech/soo/optee_os/lib/libutee/tee_api_arith_mpi.c:676 (discriminator 1)
    1c08:	159f014c 	ldrne	r0, [pc, #332]	; 1d5c <mpi_egcd+0x658>
    1c0c:	13a01fa9 	movne	r1, #676	; 0x2a4
    1c10:	108f0000 	addne	r0, pc, r0
    1c14:	1afffee4 	bne	17ac <mpi_egcd+0xa8>
/home/rossierd/soo.tech/soo/optee_os/lib/libutee/tee_api_arith_mpi.c:677
    1c18:	e1a02006 	mov	r2, r6
    1c1c:	e1a01004 	mov	r1, r4
    1c20:	e1a00004 	mov	r0, r4
    1c24:	eb000aec 	bl	47dc <mbedtls_mpi_sub_mpi>
    1c28:	e2502000 	subs	r2, r0, #0
/home/rossierd/soo.tech/soo/optee_os/lib/libutee/tee_api_arith_mpi.c:677 (discriminator 1)
    1c2c:	159f012c 	ldrne	r0, [pc, #300]	; 1d60 <mpi_egcd+0x65c>
    1c30:	130012a5 	movwne	r1, #677	; 0x2a5
    1c34:	108f0000 	addne	r0, pc, r0
    1c38:	1afffedb 	bne	17ac <mpi_egcd+0xa8>
/home/rossierd/soo.tech/soo/optee_os/lib/libutee/tee_api_arith_mpi.c:648
    1c3c:	e3a01000 	mov	r1, #0
    1c40:	e1a0000a 	mov	r0, sl
    1c44:	eb000a29 	bl	44f0 <mbedtls_mpi_cmp_int>
    1c48:	e3500000 	cmp	r0, #0
    1c4c:	1affff7f 	bne	1a50 <mpi_egcd+0x34c>
/home/rossierd/soo.tech/soo/optee_os/lib/libutee/tee_api_arith_mpi.c:681
    1c50:	e1a01005 	mov	r1, r5
    1c54:	e51b0090 	ldr	r0, [fp, #-144]	; 0xffffff70
    1c58:	eb0007b7 	bl	3b3c <mbedtls_mpi_copy>
    1c5c:	e2502000 	subs	r2, r0, #0
/home/rossierd/soo.tech/soo/optee_os/lib/libutee/tee_api_arith_mpi.c:681 (discriminator 1)
    1c60:	159f00fc 	ldrne	r0, [pc, #252]	; 1d64 <mpi_egcd+0x660>
    1c64:	130012a9 	movwne	r1, #681	; 0x2a9
    1c68:	108f0000 	addne	r0, pc, r0
    1c6c:	1afffece 	bne	17ac <mpi_egcd+0xa8>
/home/rossierd/soo.tech/soo/optee_os/lib/libutee/tee_api_arith_mpi.c:682
    1c70:	e1a01004 	mov	r1, r4
    1c74:	e51b0094 	ldr	r0, [fp, #-148]	; 0xffffff6c
    1c78:	eb0007af 	bl	3b3c <mbedtls_mpi_copy>
    1c7c:	e2502000 	subs	r2, r0, #0
/home/rossierd/soo.tech/soo/optee_os/lib/libutee/tee_api_arith_mpi.c:682 (discriminator 1)
    1c80:	159f00e0 	ldrne	r0, [pc, #224]	; 1d68 <mpi_egcd+0x664>
    1c84:	130012aa 	movwne	r1, #682	; 0x2aa
    1c88:	108f0000 	addne	r0, pc, r0
    1c8c:	1afffec6 	bne	17ac <mpi_egcd+0xa8>
/home/rossierd/soo.tech/soo/optee_os/lib/libutee/tee_api_arith_mpi.c:683
    1c90:	e1a00008 	mov	r0, r8
    1c94:	e51b108c 	ldr	r1, [fp, #-140]	; 0xffffff74
    1c98:	eb000922 	bl	4128 <mbedtls_mpi_shift_l>
    1c9c:	e2502000 	subs	r2, r0, #0
/home/rossierd/soo.tech/soo/optee_os/lib/libutee/tee_api_arith_mpi.c:683 (discriminator 1)
    1ca0:	159f00c4 	ldrne	r0, [pc, #196]	; 1d6c <mpi_egcd+0x668>
    1ca4:	130012ab 	movwne	r1, #683	; 0x2ab
    1ca8:	108f0000 	addne	r0, pc, r0
    1cac:	1afffebe 	bne	17ac <mpi_egcd+0xa8>
/home/rossierd/soo.tech/soo/optee_os/lib/libutee/tee_api_arith_mpi.c:686
    1cb0:	e1a00007 	mov	r0, r7
    1cb4:	eb0006f3 	bl	3888 <mbedtls_mpi_free>
/home/rossierd/soo.tech/soo/optee_os/lib/libutee/tee_api_arith_mpi.c:687
    1cb8:	e1a00006 	mov	r0, r6
    1cbc:	eb0006f1 	bl	3888 <mbedtls_mpi_free>
/home/rossierd/soo.tech/soo/optee_os/lib/libutee/tee_api_arith_mpi.c:688
    1cc0:	e1a00005 	mov	r0, r5
    1cc4:	eb0006ef 	bl	3888 <mbedtls_mpi_free>
/home/rossierd/soo.tech/soo/optee_os/lib/libutee/tee_api_arith_mpi.c:689
    1cc8:	e1a00004 	mov	r0, r4
    1ccc:	eb0006ed 	bl	3888 <mbedtls_mpi_free>
/home/rossierd/soo.tech/soo/optee_os/lib/libutee/tee_api_arith_mpi.c:690
    1cd0:	e1a00009 	mov	r0, r9
    1cd4:	eb0006eb 	bl	3888 <mbedtls_mpi_free>
/home/rossierd/soo.tech/soo/optee_os/lib/libutee/tee_api_arith_mpi.c:691
    1cd8:	e51b0088 	ldr	r0, [fp, #-136]	; 0xffffff78
    1cdc:	eb0006e9 	bl	3888 <mbedtls_mpi_free>
/home/rossierd/soo.tech/soo/optee_os/lib/libutee/tee_api_arith_mpi.c:692
    1ce0:	e24b0038 	sub	r0, fp, #56	; 0x38
    1ce4:	eb0006e7 	bl	3888 <mbedtls_mpi_free>
/home/rossierd/soo.tech/soo/optee_os/lib/libutee/tee_api_arith_mpi.c:693
    1ce8:	e24bd028 	sub	sp, fp, #40	; 0x28
    1cec:	e89daff0 	ldm	sp, {r4, r5, r6, r7, r8, r9, sl, fp, sp, pc}
    1cf0:	00007e1a 	.word	0x00007e1a
    1cf4:	00007df6 	.word	0x00007df6
    1cf8:	00007dd2 	.word	0x00007dd2
    1cfc:	00007db2 	.word	0x00007db2
    1d00:	00007d8a 	.word	0x00007d8a
    1d04:	00007d6a 	.word	0x00007d6a
    1d08:	00007d32 	.word	0x00007d32
    1d0c:	00007cf2 	.word	0x00007cf2
    1d10:	00007cd2 	.word	0x00007cd2
    1d14:	00007cb2 	.word	0x00007cb2
    1d18:	00007c92 	.word	0x00007c92
    1d1c:	00007c72 	.word	0x00007c72
    1d20:	00007c4e 	.word	0x00007c4e
    1d24:	00007c2e 	.word	0x00007c2e
    1d28:	00007bf6 	.word	0x00007bf6
    1d2c:	00007bc2 	.word	0x00007bc2
    1d30:	00007b9a 	.word	0x00007b9a
    1d34:	00007b7a 	.word	0x00007b7a
    1d38:	00007b1e 	.word	0x00007b1e
    1d3c:	00007afe 	.word	0x00007afe
    1d40:	00007ac6 	.word	0x00007ac6
    1d44:	00007a92 	.word	0x00007a92
    1d48:	00007a6a 	.word	0x00007a6a
    1d4c:	00007a46 	.word	0x00007a46
    1d50:	00007a22 	.word	0x00007a22
    1d54:	000079fa 	.word	0x000079fa
    1d58:	000079d6 	.word	0x000079d6
    1d5c:	000079b2 	.word	0x000079b2
    1d60:	0000798e 	.word	0x0000798e
    1d64:	0000795a 	.word	0x0000795a
    1d68:	0000793a 	.word	0x0000793a
    1d6c:	0000791a 	.word	0x0000791a

00001d70 <_TEE_MathAPI_Init>:
_TEE_MathAPI_Init():
/home/rossierd/soo.tech/soo/optee_os/lib/libutee/tee_api_arith_mpi.c:47
    1d70:	e59f0050 	ldr	r0, [pc, #80]	; 1dc8 <_TEE_MathAPI_Init+0x58>
/home/rossierd/soo.tech/soo/optee_os/lib/libutee/tee_api_arith_mpi.c:44
    1d74:	e1a0c00d 	mov	ip, sp
/home/rossierd/soo.tech/soo/optee_os/lib/libutee/tee_api_arith_mpi.c:47
    1d78:	e3a02000 	mov	r2, #0
    1d7c:	e3a01a03 	mov	r1, #12288	; 0x3000
/home/rossierd/soo.tech/soo/optee_os/lib/libutee/tee_api_arith_mpi.c:44
    1d80:	e92dd830 	push	{r4, r5, fp, ip, lr, pc}
    1d84:	e24cb004 	sub	fp, ip, #4
    1d88:	e59f403c 	ldr	r4, [pc, #60]	; 1dcc <_TEE_MathAPI_Init+0x5c>
/home/rossierd/soo.tech/soo/optee_os/lib/libutee/tee_api_arith_mpi.c:47
    1d8c:	e08f0000 	add	r0, pc, r0
    1d90:	eb001c39 	bl	8e7c <mempool_alloc_pool>
    1d94:	e59f3034 	ldr	r3, [pc, #52]	; 1dd0 <_TEE_MathAPI_Init+0x60>
/home/rossierd/soo.tech/soo/optee_os/lib/libutee/tee_api_arith_mpi.c:48
    1d98:	e3500000 	cmp	r0, #0
/home/rossierd/soo.tech/soo/optee_os/lib/libutee/tee_api_arith_mpi.c:44
    1d9c:	e08f4004 	add	r4, pc, r4
/home/rossierd/soo.tech/soo/optee_os/lib/libutee/tee_api_arith_mpi.c:47
    1da0:	e7943003 	ldr	r3, [r4, r3]
    1da4:	e5830000 	str	r0, [r3]
/home/rossierd/soo.tech/soo/optee_os/lib/libutee/tee_api_arith_mpi.c:48
    1da8:	189da830 	ldmne	sp, {r4, r5, fp, sp, pc}
/home/rossierd/soo.tech/soo/optee_os/lib/libutee/tee_api_arith_mpi.c:49
    1dac:	e59f0020 	ldr	r0, [pc, #32]	; 1dd4 <_TEE_MathAPI_Init+0x64>
    1db0:	e3a01031 	mov	r1, #49	; 0x31
    1db4:	e59f201c 	ldr	r2, [pc, #28]	; 1dd8 <_TEE_MathAPI_Init+0x68>
    1db8:	e08f0000 	add	r0, pc, r0
    1dbc:	e08f2002 	add	r2, pc, r2
    1dc0:	e280001f 	add	r0, r0, #31
    1dc4:	eb0004b7 	bl	30a8 <api_panic>
    1dc8:	0000a540 	.word	0x0000a540
    1dcc:	0000a2dc 	.word	0x0000a2dc
    1dd0:	00000038 	.word	0x00000038
    1dd4:	0000780a 	.word	0x0000780a
    1dd8:	00007988 	.word	0x00007988

00001ddc <TEE_BigIntInit>:
TEE_BigIntInit():
/home/rossierd/soo.tech/soo/optee_os/lib/libutee/tee_api_arith_mpi.c:120
    1ddc:	e281201f 	add	r2, r1, #31
/home/rossierd/soo.tech/soo/optee_os/lib/libutee/tee_api_arith_mpi.c:119
    1de0:	e1a0c00d 	mov	ip, sp
/home/rossierd/soo.tech/soo/optee_os/lib/libutee/tee_api_arith_mpi.c:120
    1de4:	e1a022a2 	lsr	r2, r2, #5
/home/rossierd/soo.tech/soo/optee_os/lib/libutee/tee_api_arith_mpi.c:119
    1de8:	e92dd830 	push	{r4, r5, fp, ip, lr, pc}
    1dec:	e1a04001 	mov	r4, r1
/home/rossierd/soo.tech/soo/optee_os/lib/libutee/tee_api_arith_mpi.c:120
    1df0:	e2822002 	add	r2, r2, #2
/home/rossierd/soo.tech/soo/optee_os/lib/libutee/tee_api_arith_mpi.c:119
    1df4:	e24cb004 	sub	fp, ip, #4
/home/rossierd/soo.tech/soo/optee_os/lib/libutee/tee_api_arith_mpi.c:120
    1df8:	e1a02102 	lsl	r2, r2, #2
    1dfc:	e3a01000 	mov	r1, #0
/home/rossierd/soo.tech/soo/optee_os/lib/libutee/tee_api_arith_mpi.c:119
    1e00:	e1a05000 	mov	r5, r0
/home/rossierd/soo.tech/soo/optee_os/lib/libutee/tee_api_arith_mpi.c:120
    1e04:	eb001830 	bl	7ecc <memset>
/home/rossierd/soo.tech/soo/optee_os/lib/libutee/tee_api_arith_mpi.c:125
    1e08:	e3a03001 	mov	r3, #1
/home/rossierd/soo.tech/soo/optee_os/lib/libutee/tee_api_arith_mpi.c:126
    1e0c:	e2444002 	sub	r4, r4, #2
/home/rossierd/soo.tech/soo/optee_os/lib/libutee/tee_api_arith_mpi.c:125
    1e10:	e5853000 	str	r3, [r5]
/home/rossierd/soo.tech/soo/optee_os/lib/libutee/tee_api_arith_mpi.c:126
    1e14:	e3023710 	movw	r3, #10000	; 0x2710
    1e18:	e1540003 	cmp	r4, r3
    1e1c:	9a000006 	bls	1e3c <TEE_BigIntInit+0x60>
/home/rossierd/soo.tech/soo/optee_os/lib/libutee/tee_api_arith_mpi.c:127
    1e20:	e59f001c 	ldr	r0, [pc, #28]	; 1e44 <TEE_BigIntInit+0x68>
    1e24:	e3a0107f 	mov	r1, #127	; 0x7f
    1e28:	e59f2018 	ldr	r2, [pc, #24]	; 1e48 <TEE_BigIntInit+0x6c>
    1e2c:	e08f0000 	add	r0, pc, r0
    1e30:	e08f2002 	add	r2, pc, r2
    1e34:	e2800031 	add	r0, r0, #49	; 0x31
    1e38:	eb00049a 	bl	30a8 <api_panic>
/home/rossierd/soo.tech/soo/optee_os/lib/libutee/tee_api_arith_mpi.c:128
    1e3c:	e1c540b4 	strh	r4, [r5, #4]
    1e40:	e89da830 	ldm	sp, {r4, r5, fp, sp, pc}
    1e44:	00007796 	.word	0x00007796
    1e48:	00007935 	.word	0x00007935

00001e4c <TEE_BigIntConvertFromOctetString>:
TEE_BigIntConvertFromOctetString():
/home/rossierd/soo.tech/soo/optee_os/lib/libutee/tee_api_arith_mpi.c:134
    1e4c:	e1a0c00d 	mov	ip, sp
    1e50:	e92dd9f0 	push	{r4, r5, r6, r7, r8, fp, ip, lr, pc}
    1e54:	e24cb004 	sub	fp, ip, #4
    1e58:	e24dd014 	sub	sp, sp, #20
get_mpi():
/home/rossierd/soo.tech/soo/optee_os/lib/libutee/tee_api_arith_mpi.c:101
    1e5c:	e24b5030 	sub	r5, fp, #48	; 0x30
TEE_BigIntConvertFromOctetString():
/home/rossierd/soo.tech/soo/optee_os/lib/libutee/tee_api_arith_mpi.c:134
    1e60:	e1a04001 	mov	r4, r1
    1e64:	e1a08002 	mov	r8, r2
    1e68:	e1a07000 	mov	r7, r0
get_mpi():
/home/rossierd/soo.tech/soo/optee_os/lib/libutee/tee_api_arith_mpi.c:101
    1e6c:	e1a00005 	mov	r0, r5
TEE_BigIntConvertFromOctetString():
/home/rossierd/soo.tech/soo/optee_os/lib/libutee/tee_api_arith_mpi.c:134
    1e70:	e1a06003 	mov	r6, r3
get_mpi():
/home/rossierd/soo.tech/soo/optee_os/lib/libutee/tee_api_arith_mpi.c:101
    1e74:	eb000670 	bl	383c <mbedtls_mpi_init_mempool>
TEE_BigIntConvertFromOctetString():
/home/rossierd/soo.tech/soo/optee_os/lib/libutee/tee_api_arith_mpi.c:140
    1e78:	e1a01004 	mov	r1, r4
    1e7c:	e1a02008 	mov	r2, r8
    1e80:	e1a00005 	mov	r0, r5
    1e84:	eb00084c 	bl	3fbc <mbedtls_mpi_read_binary>
    1e88:	e2504000 	subs	r4, r0, #0
    1e8c:	1a00000e 	bne	1ecc <TEE_BigIntConvertFromOctetString+0x80>
/home/rossierd/soo.tech/soo/optee_os/lib/libutee/tee_api_arith_mpi.c:145
    1e90:	e3560000 	cmp	r6, #0
    1e94:	aa000003 	bge	1ea8 <TEE_BigIntConvertFromOctetString+0x5c>
/home/rossierd/soo.tech/soo/optee_os/lib/libutee/tee_api_arith_mpi.c:146
    1e98:	e3e03000 	mvn	r3, #0
/home/rossierd/soo.tech/soo/optee_os/lib/libutee/tee_api_arith_mpi.c:148
    1e9c:	e3540000 	cmp	r4, #0
/home/rossierd/soo.tech/soo/optee_os/lib/libutee/tee_api_arith_mpi.c:146
    1ea0:	e14b33b0 	strh	r3, [fp, #-48]	; 0xffffffd0
/home/rossierd/soo.tech/soo/optee_os/lib/libutee/tee_api_arith_mpi.c:148
    1ea4:	1a000003 	bne	1eb8 <TEE_BigIntConvertFromOctetString+0x6c>
/home/rossierd/soo.tech/soo/optee_os/lib/libutee/tee_api_arith_mpi.c:149
    1ea8:	e1a01007 	mov	r1, r7
    1eac:	e1a00005 	mov	r0, r5
    1eb0:	ebfffda0 	bl	1538 <copy_mpi_to_bigint>
    1eb4:	e1a04000 	mov	r4, r0
/home/rossierd/soo.tech/soo/optee_os/lib/libutee/tee_api_arith_mpi.c:151
    1eb8:	e1a00005 	mov	r0, r5
    1ebc:	eb000671 	bl	3888 <mbedtls_mpi_free>
/home/rossierd/soo.tech/soo/optee_os/lib/libutee/tee_api_arith_mpi.c:154
    1ec0:	e1a00004 	mov	r0, r4
    1ec4:	e24bd020 	sub	sp, fp, #32
    1ec8:	e89da9f0 	ldm	sp, {r4, r5, r6, r7, r8, fp, sp, pc}
/home/rossierd/soo.tech/soo/optee_os/lib/libutee/tee_api_arith_mpi.c:145
    1ecc:	e3560000 	cmp	r6, #0
/home/rossierd/soo.tech/soo/optee_os/lib/libutee/tee_api_arith_mpi.c:141
    1ed0:	e59f4004 	ldr	r4, [pc, #4]	; 1edc <TEE_BigIntConvertFromOctetString+0x90>
/home/rossierd/soo.tech/soo/optee_os/lib/libutee/tee_api_arith_mpi.c:145
    1ed4:	aafffff7 	bge	1eb8 <TEE_BigIntConvertFromOctetString+0x6c>
    1ed8:	eaffffee 	b	1e98 <TEE_BigIntConvertFromOctetString+0x4c>
    1edc:	ffff300f 	.word	0xffff300f

00001ee0 <TEE_BigIntConvertToOctetString>:
TEE_BigIntConvertToOctetString():
/home/rossierd/soo.tech/soo/optee_os/lib/libutee/tee_api_arith_mpi.c:158
    1ee0:	e1a0c00d 	mov	ip, sp
    1ee4:	e92dd8f0 	push	{r4, r5, r6, r7, fp, ip, lr, pc}
    1ee8:	e24cb004 	sub	fp, ip, #4
    1eec:	e24dd010 	sub	sp, sp, #16
/home/rossierd/soo.tech/soo/optee_os/lib/libutee/tee_api_arith_mpi.c:163
    1ef0:	e24b5028 	sub	r5, fp, #40	; 0x28
/home/rossierd/soo.tech/soo/optee_os/lib/libutee/tee_api_arith_mpi.c:158
    1ef4:	e1a04000 	mov	r4, r0
    1ef8:	e1a07001 	mov	r7, r1
/home/rossierd/soo.tech/soo/optee_os/lib/libutee/tee_api_arith_mpi.c:163
    1efc:	e1a00005 	mov	r0, r5
    1f00:	e1a01002 	mov	r1, r2
    1f04:	ebfffd67 	bl	14a8 <get_mpi>
/home/rossierd/soo.tech/soo/optee_os/lib/libutee/tee_api_arith_mpi.c:165
    1f08:	e1a00005 	mov	r0, r5
    1f0c:	eb000823 	bl	3fa0 <mbedtls_mpi_size>
/home/rossierd/soo.tech/soo/optee_os/lib/libutee/tee_api_arith_mpi.c:166
    1f10:	e5973000 	ldr	r3, [r7]
/home/rossierd/soo.tech/soo/optee_os/lib/libutee/tee_api_arith_mpi.c:165
    1f14:	e1a06000 	mov	r6, r0
/home/rossierd/soo.tech/soo/optee_os/lib/libutee/tee_api_arith_mpi.c:166
    1f18:	e1500003 	cmp	r0, r3
/home/rossierd/soo.tech/soo/optee_os/lib/libutee/tee_api_arith_mpi.c:169
    1f1c:	859f4048 	ldrhi	r4, [pc, #72]	; 1f6c <TEE_BigIntConvertToOctetString+0x8c>
/home/rossierd/soo.tech/soo/optee_os/lib/libutee/tee_api_arith_mpi.c:166
    1f20:	8a00000b 	bhi	1f54 <TEE_BigIntConvertToOctetString+0x74>
/home/rossierd/soo.tech/soo/optee_os/lib/libutee/tee_api_arith_mpi.c:167
    1f24:	e1a02000 	mov	r2, r0
    1f28:	e1a01004 	mov	r1, r4
    1f2c:	e1a00005 	mov	r0, r5
    1f30:	eb00084f 	bl	4074 <mbedtls_mpi_write_binary>
    1f34:	e2502000 	subs	r2, r0, #0
/home/rossierd/soo.tech/soo/optee_os/lib/libutee/tee_api_arith_mpi.c:159
    1f38:	01a04002 	moveq	r4, r2
/home/rossierd/soo.tech/soo/optee_os/lib/libutee/tee_api_arith_mpi.c:167
    1f3c:	0a000004 	beq	1f54 <TEE_BigIntConvertToOctetString+0x74>
/home/rossierd/soo.tech/soo/optee_os/lib/libutee/tee_api_arith_mpi.c:167 (discriminator 1)
    1f40:	e59f0028 	ldr	r0, [pc, #40]	; 1f70 <TEE_BigIntConvertToOctetString+0x90>
    1f44:	e3a010a7 	mov	r1, #167	; 0xa7
    1f48:	e08f0000 	add	r0, pc, r0
    1f4c:	e2800040 	add	r0, r0, #64	; 0x40
    1f50:	ebfffd46 	bl	1470 <mpi_panic>
/home/rossierd/soo.tech/soo/optee_os/lib/libutee/tee_api_arith_mpi.c:173
    1f54:	e1a00005 	mov	r0, r5
/home/rossierd/soo.tech/soo/optee_os/lib/libutee/tee_api_arith_mpi.c:171
    1f58:	e5876000 	str	r6, [r7]
/home/rossierd/soo.tech/soo/optee_os/lib/libutee/tee_api_arith_mpi.c:173
    1f5c:	eb000649 	bl	3888 <mbedtls_mpi_free>
/home/rossierd/soo.tech/soo/optee_os/lib/libutee/tee_api_arith_mpi.c:176
    1f60:	e1a00004 	mov	r0, r4
    1f64:	e24bd01c 	sub	sp, fp, #28
    1f68:	e89da8f0 	ldm	sp, {r4, r5, r6, r7, fp, sp, pc}
    1f6c:	ffff0010 	.word	0xffff0010
    1f70:	0000767a 	.word	0x0000767a

00001f74 <TEE_BigIntConvertFromS32>:
TEE_BigIntConvertFromS32():
/home/rossierd/soo.tech/soo/optee_os/lib/libutee/tee_api_arith_mpi.c:179
    1f74:	e1a0c00d 	mov	ip, sp
    1f78:	e92dd870 	push	{r4, r5, r6, fp, ip, lr, pc}
    1f7c:	e24cb004 	sub	fp, ip, #4
    1f80:	e24dd014 	sub	sp, sp, #20
/home/rossierd/soo.tech/soo/optee_os/lib/libutee/tee_api_arith_mpi.c:182
    1f84:	e24b4028 	sub	r4, fp, #40	; 0x28
/home/rossierd/soo.tech/soo/optee_os/lib/libutee/tee_api_arith_mpi.c:179
    1f88:	e1a06001 	mov	r6, r1
    1f8c:	e1a05000 	mov	r5, r0
/home/rossierd/soo.tech/soo/optee_os/lib/libutee/tee_api_arith_mpi.c:182
    1f90:	e1a01000 	mov	r1, r0
    1f94:	e1a00004 	mov	r0, r4
    1f98:	ebfffd42 	bl	14a8 <get_mpi>
/home/rossierd/soo.tech/soo/optee_os/lib/libutee/tee_api_arith_mpi.c:184
    1f9c:	e1a01006 	mov	r1, r6
    1fa0:	e1a00004 	mov	r0, r4
    1fa4:	eb000784 	bl	3dbc <mbedtls_mpi_lset>
    1fa8:	e2502000 	subs	r2, r0, #0
    1fac:	0a000004 	beq	1fc4 <TEE_BigIntConvertFromS32+0x50>
/home/rossierd/soo.tech/soo/optee_os/lib/libutee/tee_api_arith_mpi.c:184 (discriminator 1)
    1fb0:	e59f003c 	ldr	r0, [pc, #60]	; 1ff4 <TEE_BigIntConvertFromS32+0x80>
    1fb4:	e3a010b8 	mov	r1, #184	; 0xb8
    1fb8:	e08f0000 	add	r0, pc, r0
/home/rossierd/soo.tech/soo/optee_os/lib/libutee/tee_api_arith_mpi.c:186 (discriminator 1)
    1fbc:	e280005f 	add	r0, r0, #95	; 0x5f
    1fc0:	ebfffd2a 	bl	1470 <mpi_panic>
/home/rossierd/soo.tech/soo/optee_os/lib/libutee/tee_api_arith_mpi.c:186
    1fc4:	e1a01005 	mov	r1, r5
    1fc8:	e1a00004 	mov	r0, r4
    1fcc:	ebfffd59 	bl	1538 <copy_mpi_to_bigint>
    1fd0:	e2502000 	subs	r2, r0, #0
/home/rossierd/soo.tech/soo/optee_os/lib/libutee/tee_api_arith_mpi.c:186 (discriminator 1)
    1fd4:	159f001c 	ldrne	r0, [pc, #28]	; 1ff8 <TEE_BigIntConvertFromS32+0x84>
    1fd8:	13a010ba 	movne	r1, #186	; 0xba
    1fdc:	108f0000 	addne	r0, pc, r0
    1fe0:	1afffff5 	bne	1fbc <TEE_BigIntConvertFromS32+0x48>
/home/rossierd/soo.tech/soo/optee_os/lib/libutee/tee_api_arith_mpi.c:187
    1fe4:	e1a00004 	mov	r0, r4
    1fe8:	eb000626 	bl	3888 <mbedtls_mpi_free>
/home/rossierd/soo.tech/soo/optee_os/lib/libutee/tee_api_arith_mpi.c:188
    1fec:	e24bd018 	sub	sp, fp, #24
    1ff0:	e89da870 	ldm	sp, {r4, r5, r6, fp, sp, pc}
    1ff4:	0000760a 	.word	0x0000760a
    1ff8:	000075e6 	.word	0x000075e6

00001ffc <TEE_BigIntConvertToS32>:
TEE_BigIntConvertToS32():
/home/rossierd/soo.tech/soo/optee_os/lib/libutee/tee_api_arith_mpi.c:191
    1ffc:	e1a0c00d 	mov	ip, sp
    2000:	e92dd830 	push	{r4, r5, fp, ip, lr, pc}
    2004:	e24cb004 	sub	fp, ip, #4
    2008:	e24dd010 	sub	sp, sp, #16
/home/rossierd/soo.tech/soo/optee_os/lib/libutee/tee_api_arith_mpi.c:196
    200c:	e24b4020 	sub	r4, fp, #32
/home/rossierd/soo.tech/soo/optee_os/lib/libutee/tee_api_arith_mpi.c:191
    2010:	e1a05000 	mov	r5, r0
/home/rossierd/soo.tech/soo/optee_os/lib/libutee/tee_api_arith_mpi.c:196
    2014:	e1a00004 	mov	r0, r4
    2018:	ebfffd22 	bl	14a8 <get_mpi>
/home/rossierd/soo.tech/soo/optee_os/lib/libutee/tee_api_arith_mpi.c:198
    201c:	e3a02004 	mov	r2, #4
    2020:	e24b1024 	sub	r1, fp, #36	; 0x24
    2024:	e1a00004 	mov	r0, r4
    2028:	eb000811 	bl	4074 <mbedtls_mpi_write_binary>
    202c:	e3500000 	cmp	r0, #0
    2030:	1a000019 	bne	209c <TEE_BigIntConvertToS32+0xa0>
/home/rossierd/soo.tech/soo/optee_os/lib/libutee/tee_api_arith_mpi.c:203
    2034:	e15b32f0 	ldrsh	r3, [fp, #-32]	; 0xffffffe0
    2038:	e3530000 	cmp	r3, #0
    203c:	e51b3024 	ldr	r3, [fp, #-36]	; 0xffffffdc
/home/rossierd/soo.tech/soo/optee_os/lib/libutee/tee_api_arith_mpi.c:204
    2040:	e6bf3f33 	rev	r3, r3
/home/rossierd/soo.tech/soo/optee_os/lib/libutee/tee_api_arith_mpi.c:203
    2044:	da000008 	ble	206c <TEE_BigIntConvertToS32+0x70>
/home/rossierd/soo.tech/soo/optee_os/lib/libutee/tee_api_arith_mpi.c:204
    2048:	e3530000 	cmp	r3, #0
    204c:	e5853000 	str	r3, [r5]
    2050:	ba000011 	blt	209c <TEE_BigIntConvertToS32+0xa0>
/home/rossierd/soo.tech/soo/optee_os/lib/libutee/tee_api_arith_mpi.c:192
    2054:	e3a05000 	mov	r5, #0
/home/rossierd/soo.tech/soo/optee_os/lib/libutee/tee_api_arith_mpi.c:212
    2058:	e1a00004 	mov	r0, r4
    205c:	eb000609 	bl	3888 <mbedtls_mpi_free>
/home/rossierd/soo.tech/soo/optee_os/lib/libutee/tee_api_arith_mpi.c:215
    2060:	e1a00005 	mov	r0, r5
    2064:	e24bd014 	sub	sp, fp, #20
    2068:	e89da830 	ldm	sp, {r4, r5, fp, sp, pc}
/home/rossierd/soo.tech/soo/optee_os/lib/libutee/tee_api_arith_mpi.c:207
    206c:	e3530000 	cmp	r3, #0
    2070:	e2632000 	rsb	r2, r3, #0
    2074:	0a000003 	beq	2088 <TEE_BigIntConvertToS32+0x8c>
    2078:	e3520000 	cmp	r2, #0
    207c:	ba000003 	blt	2090 <TEE_BigIntConvertToS32+0x94>
    2080:	e3a00001 	mov	r0, #1
    2084:	ea000001 	b	2090 <TEE_BigIntConvertToS32+0x94>
    2088:	e3520000 	cmp	r2, #0
    208c:	bafffffb 	blt	2080 <TEE_BigIntConvertToS32+0x84>
    2090:	e3500000 	cmp	r0, #0
    2094:	e5852000 	str	r2, [r5]
    2098:	0affffed 	beq	2054 <TEE_BigIntConvertToS32+0x58>
/home/rossierd/soo.tech/soo/optee_os/lib/libutee/tee_api_arith_mpi.c:205
    209c:	e59f5000 	ldr	r5, [pc]	; 20a4 <TEE_BigIntConvertToS32+0xa8>
    20a0:	eaffffec 	b	2058 <TEE_BigIntConvertToS32+0x5c>
    20a4:	ffff300f 	.word	0xffff300f

000020a8 <TEE_BigIntCmp>:
TEE_BigIntCmp():
/home/rossierd/soo.tech/soo/optee_os/lib/libutee/tee_api_arith_mpi.c:218
    20a8:	e1a0c00d 	mov	ip, sp
    20ac:	e92dd870 	push	{r4, r5, r6, fp, ip, lr, pc}
    20b0:	e24cb004 	sub	fp, ip, #4
    20b4:	e24dd01c 	sub	sp, sp, #28
/home/rossierd/soo.tech/soo/optee_os/lib/libutee/tee_api_arith_mpi.c:223
    20b8:	e24b5034 	sub	r5, fp, #52	; 0x34
/home/rossierd/soo.tech/soo/optee_os/lib/libutee/tee_api_arith_mpi.c:218
    20bc:	e1a04001 	mov	r4, r1
/home/rossierd/soo.tech/soo/optee_os/lib/libutee/tee_api_arith_mpi.c:223
    20c0:	e1a01000 	mov	r1, r0
    20c4:	e1a00005 	mov	r0, r5
    20c8:	ebfffcf6 	bl	14a8 <get_mpi>
/home/rossierd/soo.tech/soo/optee_os/lib/libutee/tee_api_arith_mpi.c:224
    20cc:	e1a01004 	mov	r1, r4
    20d0:	e24b4028 	sub	r4, fp, #40	; 0x28
    20d4:	e1a00004 	mov	r0, r4
    20d8:	ebfffcf2 	bl	14a8 <get_mpi>
/home/rossierd/soo.tech/soo/optee_os/lib/libutee/tee_api_arith_mpi.c:226
    20dc:	e1a01004 	mov	r1, r4
    20e0:	e1a00005 	mov	r0, r5
    20e4:	eb0008be 	bl	43e4 <mbedtls_mpi_cmp_mpi>
    20e8:	e1a06000 	mov	r6, r0
/home/rossierd/soo.tech/soo/optee_os/lib/libutee/tee_api_arith_mpi.c:228
    20ec:	e1a00005 	mov	r0, r5
    20f0:	eb0005e4 	bl	3888 <mbedtls_mpi_free>
/home/rossierd/soo.tech/soo/optee_os/lib/libutee/tee_api_arith_mpi.c:229
    20f4:	e1a00004 	mov	r0, r4
    20f8:	eb0005e2 	bl	3888 <mbedtls_mpi_free>
/home/rossierd/soo.tech/soo/optee_os/lib/libutee/tee_api_arith_mpi.c:232
    20fc:	e1a00006 	mov	r0, r6
    2100:	e24bd018 	sub	sp, fp, #24
    2104:	e89da870 	ldm	sp, {r4, r5, r6, fp, sp, pc}

00002108 <TEE_BigIntCmpS32>:
TEE_BigIntCmpS32():
/home/rossierd/soo.tech/soo/optee_os/lib/libutee/tee_api_arith_mpi.c:235
    2108:	e1a0c00d 	mov	ip, sp
    210c:	e92dd830 	push	{r4, r5, fp, ip, lr, pc}
    2110:	e24cb004 	sub	fp, ip, #4
    2114:	e24dd010 	sub	sp, sp, #16
/home/rossierd/soo.tech/soo/optee_os/lib/libutee/tee_api_arith_mpi.c:239
    2118:	e24b4020 	sub	r4, fp, #32
/home/rossierd/soo.tech/soo/optee_os/lib/libutee/tee_api_arith_mpi.c:235
    211c:	e1a05001 	mov	r5, r1
/home/rossierd/soo.tech/soo/optee_os/lib/libutee/tee_api_arith_mpi.c:239
    2120:	e1a01000 	mov	r1, r0
    2124:	e1a00004 	mov	r0, r4
    2128:	ebfffcde 	bl	14a8 <get_mpi>
/home/rossierd/soo.tech/soo/optee_os/lib/libutee/tee_api_arith_mpi.c:241
    212c:	e1a01005 	mov	r1, r5
    2130:	e1a00004 	mov	r0, r4
    2134:	eb0008ed 	bl	44f0 <mbedtls_mpi_cmp_int>
    2138:	e1a05000 	mov	r5, r0
/home/rossierd/soo.tech/soo/optee_os/lib/libutee/tee_api_arith_mpi.c:243
    213c:	e1a00004 	mov	r0, r4
    2140:	eb0005d0 	bl	3888 <mbedtls_mpi_free>
/home/rossierd/soo.tech/soo/optee_os/lib/libutee/tee_api_arith_mpi.c:246
    2144:	e1a00005 	mov	r0, r5
    2148:	e24bd014 	sub	sp, fp, #20
    214c:	e89da830 	ldm	sp, {r4, r5, fp, sp, pc}

00002150 <bigint_binary_mod>:
bigint_binary_mod():
/home/rossierd/soo.tech/soo/optee_os/lib/libutee/tee_api_arith_mpi.c:356
    2150:	e1a0c00d 	mov	ip, sp
    2154:	e92ddff0 	push	{r4, r5, r6, r7, r8, r9, sl, fp, ip, lr, pc}
    2158:	e24cb004 	sub	fp, ip, #4
    215c:	e24dd04c 	sub	sp, sp, #76	; 0x4c
    2160:	e1a08000 	mov	r8, r0
    2164:	e1a07001 	mov	r7, r1
/home/rossierd/soo.tech/soo/optee_os/lib/libutee/tee_api_arith_mpi.c:357
    2168:	e1a00003 	mov	r0, r3
    216c:	e3a01002 	mov	r1, #2
/home/rossierd/soo.tech/soo/optee_os/lib/libutee/tee_api_arith_mpi.c:356
    2170:	e1a05002 	mov	r5, r2
    2174:	e1a06003 	mov	r6, r3
/home/rossierd/soo.tech/soo/optee_os/lib/libutee/tee_api_arith_mpi.c:357
    2178:	ebffffe2 	bl	2108 <TEE_BigIntCmpS32>
    217c:	e3500000 	cmp	r0, #0
    2180:	aa000006 	bge	21a0 <bigint_binary_mod+0x50>
/home/rossierd/soo.tech/soo/optee_os/lib/libutee/tee_api_arith_mpi.c:358
    2184:	e59f013c 	ldr	r0, [pc, #316]	; 22c8 <bigint_binary_mod+0x178>
    2188:	e3001166 	movw	r1, #358	; 0x166
    218c:	e59f2138 	ldr	r2, [pc, #312]	; 22cc <bigint_binary_mod+0x17c>
    2190:	e08f0000 	add	r0, pc, r0
    2194:	e08f2002 	add	r2, pc, r2
    2198:	e2800078 	add	r0, r0, #120	; 0x78
    219c:	eb0003c1 	bl	30a8 <api_panic>
/home/rossierd/soo.tech/soo/optee_os/lib/libutee/tee_api_arith_mpi.c:368
    21a0:	e24b4068 	sub	r4, fp, #104	; 0x68
    21a4:	e1a01008 	mov	r1, r8
    21a8:	e1a00004 	mov	r0, r4
    21ac:	e24ba05c 	sub	sl, fp, #92	; 0x5c
    21b0:	ebfffcbc 	bl	14a8 <get_mpi>
/home/rossierd/soo.tech/soo/optee_os/lib/libutee/tee_api_arith_mpi.c:369
    21b4:	e24b3044 	sub	r3, fp, #68	; 0x44
    21b8:	e1a01006 	mov	r1, r6
    21bc:	e1a00003 	mov	r0, r3
    21c0:	e50b3070 	str	r3, [fp, #-112]	; 0xffffff90
    21c4:	ebfffcb7 	bl	14a8 <get_mpi>
/home/rossierd/soo.tech/soo/optee_os/lib/libutee/tee_api_arith_mpi.c:371
    21c8:	e1580007 	cmp	r8, r7
/home/rossierd/soo.tech/soo/optee_os/lib/libutee/tee_api_arith_mpi.c:372
    21cc:	01a06004 	moveq	r6, r4
/home/rossierd/soo.tech/soo/optee_os/lib/libutee/tee_api_arith_mpi.c:371
    21d0:	0a000003 	beq	21e4 <bigint_binary_mod+0x94>
/home/rossierd/soo.tech/soo/optee_os/lib/libutee/tee_api_arith_mpi.c:374
    21d4:	e1a01007 	mov	r1, r7
    21d8:	e1a0000a 	mov	r0, sl
/home/rossierd/soo.tech/soo/optee_os/lib/libutee/tee_api_arith_mpi.c:364
    21dc:	e1a0600a 	mov	r6, sl
/home/rossierd/soo.tech/soo/optee_os/lib/libutee/tee_api_arith_mpi.c:374
    21e0:	ebfffcb0 	bl	14a8 <get_mpi>
/home/rossierd/soo.tech/soo/optee_os/lib/libutee/tee_api_arith_mpi.c:376
    21e4:	e1580005 	cmp	r8, r5
    21e8:	e24b9050 	sub	r9, fp, #80	; 0x50
/home/rossierd/soo.tech/soo/optee_os/lib/libutee/tee_api_arith_mpi.c:377
    21ec:	01a05004 	moveq	r5, r4
/home/rossierd/soo.tech/soo/optee_os/lib/libutee/tee_api_arith_mpi.c:376
    21f0:	0a000006 	beq	2210 <bigint_binary_mod+0xc0>
/home/rossierd/soo.tech/soo/optee_os/lib/libutee/tee_api_arith_mpi.c:378
    21f4:	e1570005 	cmp	r7, r5
/home/rossierd/soo.tech/soo/optee_os/lib/libutee/tee_api_arith_mpi.c:379
    21f8:	01a05006 	moveq	r5, r6
/home/rossierd/soo.tech/soo/optee_os/lib/libutee/tee_api_arith_mpi.c:378
    21fc:	0a000003 	beq	2210 <bigint_binary_mod+0xc0>
/home/rossierd/soo.tech/soo/optee_os/lib/libutee/tee_api_arith_mpi.c:381
    2200:	e1a01005 	mov	r1, r5
    2204:	e1a00009 	mov	r0, r9
/home/rossierd/soo.tech/soo/optee_os/lib/libutee/tee_api_arith_mpi.c:365
    2208:	e1a05009 	mov	r5, r9
/home/rossierd/soo.tech/soo/optee_os/lib/libutee/tee_api_arith_mpi.c:381
    220c:	ebfffca5 	bl	14a8 <get_mpi>
get_mpi():
/home/rossierd/soo.tech/soo/optee_os/lib/libutee/tee_api_arith_mpi.c:101
    2210:	e24b7038 	sub	r7, fp, #56	; 0x38
    2214:	e1a00007 	mov	r0, r7
    2218:	eb000587 	bl	383c <mbedtls_mpi_init_mempool>
bigint_binary_mod():
/home/rossierd/soo.tech/soo/optee_os/lib/libutee/tee_api_arith_mpi.c:385
    221c:	e1a02005 	mov	r2, r5
    2220:	e1a01006 	mov	r1, r6
    2224:	e59b3004 	ldr	r3, [fp, #4]
    2228:	e1a00007 	mov	r0, r7
    222c:	e12fff33 	blx	r3
    2230:	e2502000 	subs	r2, r0, #0
    2234:	0a000004 	beq	224c <bigint_binary_mod+0xfc>
/home/rossierd/soo.tech/soo/optee_os/lib/libutee/tee_api_arith_mpi.c:385 (discriminator 1)
    2238:	e59f0090 	ldr	r0, [pc, #144]	; 22d0 <bigint_binary_mod+0x180>
    223c:	e3001181 	movw	r1, #385	; 0x181
    2240:	e08f0000 	add	r0, pc, r0
/home/rossierd/soo.tech/soo/optee_os/lib/libutee/tee_api_arith_mpi.c:386 (discriminator 1)
    2244:	e2800078 	add	r0, r0, #120	; 0x78
    2248:	ebfffc88 	bl	1470 <mpi_panic>
/home/rossierd/soo.tech/soo/optee_os/lib/libutee/tee_api_arith_mpi.c:386
    224c:	e51b2070 	ldr	r2, [fp, #-112]	; 0xffffff90
    2250:	e1a01007 	mov	r1, r7
    2254:	e1a00004 	mov	r0, r4
    2258:	eb000bfc 	bl	5250 <mbedtls_mpi_mod_mpi>
    225c:	e2502000 	subs	r2, r0, #0
/home/rossierd/soo.tech/soo/optee_os/lib/libutee/tee_api_arith_mpi.c:386 (discriminator 1)
    2260:	159f006c 	ldrne	r0, [pc, #108]	; 22d4 <bigint_binary_mod+0x184>
    2264:	13001182 	movwne	r1, #386	; 0x182
    2268:	108f0000 	addne	r0, pc, r0
    226c:	1afffff4 	bne	2244 <bigint_binary_mod+0xf4>
/home/rossierd/soo.tech/soo/optee_os/lib/libutee/tee_api_arith_mpi.c:388
    2270:	e1a01008 	mov	r1, r8
    2274:	e1a00004 	mov	r0, r4
    2278:	ebfffcae 	bl	1538 <copy_mpi_to_bigint>
    227c:	e2502000 	subs	r2, r0, #0
/home/rossierd/soo.tech/soo/optee_os/lib/libutee/tee_api_arith_mpi.c:388 (discriminator 1)
    2280:	159f0050 	ldrne	r0, [pc, #80]	; 22d8 <bigint_binary_mod+0x188>
    2284:	13a01f61 	movne	r1, #388	; 0x184
    2288:	108f0000 	addne	r0, pc, r0
    228c:	1affffec 	bne	2244 <bigint_binary_mod+0xf4>
/home/rossierd/soo.tech/soo/optee_os/lib/libutee/tee_api_arith_mpi.c:389
    2290:	e1a00004 	mov	r0, r4
    2294:	eb00057b 	bl	3888 <mbedtls_mpi_free>
/home/rossierd/soo.tech/soo/optee_os/lib/libutee/tee_api_arith_mpi.c:390
    2298:	e156000a 	cmp	r6, sl
    229c:	1a000001 	bne	22a8 <bigint_binary_mod+0x158>
/home/rossierd/soo.tech/soo/optee_os/lib/libutee/tee_api_arith_mpi.c:391
    22a0:	e1a00006 	mov	r0, r6
    22a4:	eb000577 	bl	3888 <mbedtls_mpi_free>
/home/rossierd/soo.tech/soo/optee_os/lib/libutee/tee_api_arith_mpi.c:392
    22a8:	e1550009 	cmp	r5, r9
    22ac:	1a000001 	bne	22b8 <bigint_binary_mod+0x168>
/home/rossierd/soo.tech/soo/optee_os/lib/libutee/tee_api_arith_mpi.c:393
    22b0:	e1a00005 	mov	r0, r5
    22b4:	eb000573 	bl	3888 <mbedtls_mpi_free>
/home/rossierd/soo.tech/soo/optee_os/lib/libutee/tee_api_arith_mpi.c:394
    22b8:	e1a00007 	mov	r0, r7
    22bc:	eb000571 	bl	3888 <mbedtls_mpi_free>
/home/rossierd/soo.tech/soo/optee_os/lib/libutee/tee_api_arith_mpi.c:395
    22c0:	e24bd028 	sub	sp, fp, #40	; 0x28
    22c4:	e89daff0 	ldm	sp, {r4, r5, r6, r7, r8, r9, sl, fp, sp, pc}
    22c8:	00007432 	.word	0x00007432
    22cc:	000075e2 	.word	0x000075e2
    22d0:	00007382 	.word	0x00007382
    22d4:	0000735a 	.word	0x0000735a
    22d8:	0000733a 	.word	0x0000733a

000022dc <TEE_BigIntShiftRight>:
TEE_BigIntShiftRight():
/home/rossierd/soo.tech/soo/optee_os/lib/libutee/tee_api_arith_mpi.c:249
    22dc:	e1a0c00d 	mov	ip, sp
    22e0:	e92dd9f0 	push	{r4, r5, r6, r7, r8, fp, ip, lr, pc}
    22e4:	e24cb004 	sub	fp, ip, #4
    22e8:	e24dd02c 	sub	sp, sp, #44	; 0x2c
/home/rossierd/soo.tech/soo/optee_os/lib/libutee/tee_api_arith_mpi.c:253
    22ec:	e24b4048 	sub	r4, fp, #72	; 0x48
/home/rossierd/soo.tech/soo/optee_os/lib/libutee/tee_api_arith_mpi.c:249
    22f0:	e1a07000 	mov	r7, r0
    22f4:	e1a06001 	mov	r6, r1
/home/rossierd/soo.tech/soo/optee_os/lib/libutee/tee_api_arith_mpi.c:253
    22f8:	e1a01000 	mov	r1, r0
    22fc:	e1a00004 	mov	r0, r4
/home/rossierd/soo.tech/soo/optee_os/lib/libutee/tee_api_arith_mpi.c:249
    2300:	e1a08002 	mov	r8, r2
/home/rossierd/soo.tech/soo/optee_os/lib/libutee/tee_api_arith_mpi.c:253
    2304:	ebfffc67 	bl	14a8 <get_mpi>
/home/rossierd/soo.tech/soo/optee_os/lib/libutee/tee_api_arith_mpi.c:255
    2308:	e1570006 	cmp	r7, r6
    230c:	1a000009 	bne	2338 <TEE_BigIntShiftRight+0x5c>
/home/rossierd/soo.tech/soo/optee_os/lib/libutee/tee_api_arith_mpi.c:256
    2310:	e1a01008 	mov	r1, r8
    2314:	e1a00004 	mov	r0, r4
    2318:	eb0007c1 	bl	4224 <mbedtls_mpi_shift_r>
    231c:	e2502000 	subs	r2, r0, #0
    2320:	0a00003f 	beq	2424 <TEE_BigIntShiftRight+0x148>
/home/rossierd/soo.tech/soo/optee_os/lib/libutee/tee_api_arith_mpi.c:256 (discriminator 1)
    2324:	e59f0128 	ldr	r0, [pc, #296]	; 2454 <TEE_BigIntShiftRight+0x178>
    2328:	e3a01c01 	mov	r1, #256	; 0x100
    232c:	e08f0000 	add	r0, pc, r0
/home/rossierd/soo.tech/soo/optee_os/lib/libutee/tee_api_arith_mpi.c:263 (discriminator 1)
    2330:	e280008a 	add	r0, r0, #138	; 0x8a
    2334:	ebfffc4d 	bl	1470 <mpi_panic>
/home/rossierd/soo.tech/soo/optee_os/lib/libutee/tee_api_arith_mpi.c:260
    2338:	e24b503c 	sub	r5, fp, #60	; 0x3c
    233c:	e1a01006 	mov	r1, r6
    2340:	e1a00005 	mov	r0, r5
    2344:	ebfffc57 	bl	14a8 <get_mpi>
/home/rossierd/soo.tech/soo/optee_os/lib/libutee/tee_api_arith_mpi.c:262
    2348:	e1a00004 	mov	r0, r4
    234c:	eb000713 	bl	3fa0 <mbedtls_mpi_size>
    2350:	e1a06000 	mov	r6, r0
    2354:	e1a00005 	mov	r0, r5
    2358:	eb000710 	bl	3fa0 <mbedtls_mpi_size>
    235c:	e1560000 	cmp	r6, r0
    2360:	3a000010 	bcc	23a8 <TEE_BigIntShiftRight+0xcc>
/home/rossierd/soo.tech/soo/optee_os/lib/libutee/tee_api_arith_mpi.c:263
    2364:	e1a01005 	mov	r1, r5
    2368:	e1a00004 	mov	r0, r4
    236c:	eb0005f2 	bl	3b3c <mbedtls_mpi_copy>
    2370:	e2502000 	subs	r2, r0, #0
/home/rossierd/soo.tech/soo/optee_os/lib/libutee/tee_api_arith_mpi.c:263 (discriminator 1)
    2374:	159f00dc 	ldrne	r0, [pc, #220]	; 2458 <TEE_BigIntShiftRight+0x17c>
    2378:	13001107 	movwne	r1, #263	; 0x107
    237c:	108f0000 	addne	r0, pc, r0
    2380:	1affffea 	bne	2330 <TEE_BigIntShiftRight+0x54>
/home/rossierd/soo.tech/soo/optee_os/lib/libutee/tee_api_arith_mpi.c:264
    2384:	e1a01008 	mov	r1, r8
    2388:	e1a00004 	mov	r0, r4
    238c:	eb0007a4 	bl	4224 <mbedtls_mpi_shift_r>
    2390:	e2502000 	subs	r2, r0, #0
    2394:	0a000020 	beq	241c <TEE_BigIntShiftRight+0x140>
/home/rossierd/soo.tech/soo/optee_os/lib/libutee/tee_api_arith_mpi.c:264 (discriminator 1)
    2398:	e59f00bc 	ldr	r0, [pc, #188]	; 245c <TEE_BigIntShiftRight+0x180>
    239c:	e3a01f42 	mov	r1, #264	; 0x108
    23a0:	e08f0000 	add	r0, pc, r0
    23a4:	eaffffe1 	b	2330 <TEE_BigIntShiftRight+0x54>
get_mpi():
/home/rossierd/soo.tech/soo/optee_os/lib/libutee/tee_api_arith_mpi.c:101
    23a8:	e24b6030 	sub	r6, fp, #48	; 0x30
    23ac:	e1a00006 	mov	r0, r6
    23b0:	eb000521 	bl	383c <mbedtls_mpi_init_mempool>
TEE_BigIntShiftRight():
/home/rossierd/soo.tech/soo/optee_os/lib/libutee/tee_api_arith_mpi.c:275
    23b4:	e1a01005 	mov	r1, r5
    23b8:	e1a00006 	mov	r0, r6
    23bc:	eb0005de 	bl	3b3c <mbedtls_mpi_copy>
    23c0:	e2502000 	subs	r2, r0, #0
/home/rossierd/soo.tech/soo/optee_os/lib/libutee/tee_api_arith_mpi.c:275 (discriminator 1)
    23c4:	159f0094 	ldrne	r0, [pc, #148]	; 2460 <TEE_BigIntShiftRight+0x184>
    23c8:	13001113 	movwne	r1, #275	; 0x113
    23cc:	108f0000 	addne	r0, pc, r0
    23d0:	1affffd6 	bne	2330 <TEE_BigIntShiftRight+0x54>
/home/rossierd/soo.tech/soo/optee_os/lib/libutee/tee_api_arith_mpi.c:276
    23d4:	e1a01008 	mov	r1, r8
    23d8:	e1a00006 	mov	r0, r6
    23dc:	eb000790 	bl	4224 <mbedtls_mpi_shift_r>
    23e0:	e2502000 	subs	r2, r0, #0
/home/rossierd/soo.tech/soo/optee_os/lib/libutee/tee_api_arith_mpi.c:276 (discriminator 1)
    23e4:	159f0078 	ldrne	r0, [pc, #120]	; 2464 <TEE_BigIntShiftRight+0x188>
    23e8:	13a01f45 	movne	r1, #276	; 0x114
    23ec:	108f0000 	addne	r0, pc, r0
    23f0:	1affffce 	bne	2330 <TEE_BigIntShiftRight+0x54>
/home/rossierd/soo.tech/soo/optee_os/lib/libutee/tee_api_arith_mpi.c:277
    23f4:	e1a01006 	mov	r1, r6
    23f8:	e1a00004 	mov	r0, r4
    23fc:	eb0005ce 	bl	3b3c <mbedtls_mpi_copy>
    2400:	e2502000 	subs	r2, r0, #0
/home/rossierd/soo.tech/soo/optee_os/lib/libutee/tee_api_arith_mpi.c:277 (discriminator 1)
    2404:	159f005c 	ldrne	r0, [pc, #92]	; 2468 <TEE_BigIntShiftRight+0x18c>
    2408:	13001115 	movwne	r1, #277	; 0x115
    240c:	108f0000 	addne	r0, pc, r0
    2410:	1affffc6 	bne	2330 <TEE_BigIntShiftRight+0x54>
/home/rossierd/soo.tech/soo/optee_os/lib/libutee/tee_api_arith_mpi.c:279
    2414:	e1a00006 	mov	r0, r6
    2418:	eb00051a 	bl	3888 <mbedtls_mpi_free>
/home/rossierd/soo.tech/soo/optee_os/lib/libutee/tee_api_arith_mpi.c:282
    241c:	e1a00005 	mov	r0, r5
    2420:	eb000518 	bl	3888 <mbedtls_mpi_free>
/home/rossierd/soo.tech/soo/optee_os/lib/libutee/tee_api_arith_mpi.c:285
    2424:	e1a01007 	mov	r1, r7
    2428:	e1a00004 	mov	r0, r4
    242c:	ebfffc41 	bl	1538 <copy_mpi_to_bigint>
    2430:	e2502000 	subs	r2, r0, #0
/home/rossierd/soo.tech/soo/optee_os/lib/libutee/tee_api_arith_mpi.c:285 (discriminator 1)
    2434:	159f0030 	ldrne	r0, [pc, #48]	; 246c <TEE_BigIntShiftRight+0x190>
    2438:	1300111d 	movwne	r1, #285	; 0x11d
    243c:	108f0000 	addne	r0, pc, r0
    2440:	1affffba 	bne	2330 <TEE_BigIntShiftRight+0x54>
/home/rossierd/soo.tech/soo/optee_os/lib/libutee/tee_api_arith_mpi.c:286
    2444:	e1a00004 	mov	r0, r4
    2448:	eb00050e 	bl	3888 <mbedtls_mpi_free>
/home/rossierd/soo.tech/soo/optee_os/lib/libutee/tee_api_arith_mpi.c:287
    244c:	e24bd020 	sub	sp, fp, #32
    2450:	e89da9f0 	ldm	sp, {r4, r5, r6, r7, r8, fp, sp, pc}
    2454:	00007296 	.word	0x00007296
    2458:	00007246 	.word	0x00007246
    245c:	00007222 	.word	0x00007222
    2460:	000071f6 	.word	0x000071f6
    2464:	000071d6 	.word	0x000071d6
    2468:	000071b6 	.word	0x000071b6
    246c:	00007186 	.word	0x00007186

00002470 <TEE_BigIntGetBit>:
TEE_BigIntGetBit():
/home/rossierd/soo.tech/soo/optee_os/lib/libutee/tee_api_arith_mpi.c:290
    2470:	e1a0c00d 	mov	ip, sp
    2474:	e92dd830 	push	{r4, r5, fp, ip, lr, pc}
    2478:	e24cb004 	sub	fp, ip, #4
    247c:	e24dd010 	sub	sp, sp, #16
/home/rossierd/soo.tech/soo/optee_os/lib/libutee/tee_api_arith_mpi.c:294
    2480:	e24b4020 	sub	r4, fp, #32
/home/rossierd/soo.tech/soo/optee_os/lib/libutee/tee_api_arith_mpi.c:290
    2484:	e1a05001 	mov	r5, r1
/home/rossierd/soo.tech/soo/optee_os/lib/libutee/tee_api_arith_mpi.c:294
    2488:	e1a01000 	mov	r1, r0
    248c:	e1a00004 	mov	r0, r4
    2490:	ebfffc04 	bl	14a8 <get_mpi>
/home/rossierd/soo.tech/soo/optee_os/lib/libutee/tee_api_arith_mpi.c:296
    2494:	e1a01005 	mov	r1, r5
    2498:	e1a00004 	mov	r0, r4
    249c:	eb00065e 	bl	3e1c <mbedtls_mpi_get_bit>
    24a0:	e1a05000 	mov	r5, r0
/home/rossierd/soo.tech/soo/optee_os/lib/libutee/tee_api_arith_mpi.c:298
    24a4:	e1a00004 	mov	r0, r4
    24a8:	eb0004f6 	bl	3888 <mbedtls_mpi_free>
/home/rossierd/soo.tech/soo/optee_os/lib/libutee/tee_api_arith_mpi.c:301
    24ac:	e2950000 	adds	r0, r5, #0
    24b0:	13a00001 	movne	r0, #1
    24b4:	e24bd014 	sub	sp, fp, #20
    24b8:	e89da830 	ldm	sp, {r4, r5, fp, sp, pc}

000024bc <TEE_BigIntGetBitCount>:
TEE_BigIntGetBitCount():
/home/rossierd/soo.tech/soo/optee_os/lib/libutee/tee_api_arith_mpi.c:304
    24bc:	e1a0c00d 	mov	ip, sp
/home/rossierd/soo.tech/soo/optee_os/lib/libutee/tee_api_arith_mpi.c:308
    24c0:	e1a01000 	mov	r1, r0
/home/rossierd/soo.tech/soo/optee_os/lib/libutee/tee_api_arith_mpi.c:304
    24c4:	e92dd830 	push	{r4, r5, fp, ip, lr, pc}
    24c8:	e24cb004 	sub	fp, ip, #4
    24cc:	e24dd010 	sub	sp, sp, #16
/home/rossierd/soo.tech/soo/optee_os/lib/libutee/tee_api_arith_mpi.c:308
    24d0:	e24b4020 	sub	r4, fp, #32
    24d4:	e1a00004 	mov	r0, r4
    24d8:	ebfffbf2 	bl	14a8 <get_mpi>
/home/rossierd/soo.tech/soo/optee_os/lib/libutee/tee_api_arith_mpi.c:310
    24dc:	e1a00004 	mov	r0, r4
    24e0:	eb00068f 	bl	3f24 <mbedtls_mpi_bitlen>
    24e4:	e1a05000 	mov	r5, r0
/home/rossierd/soo.tech/soo/optee_os/lib/libutee/tee_api_arith_mpi.c:312
    24e8:	e1a00004 	mov	r0, r4
    24ec:	eb0004e5 	bl	3888 <mbedtls_mpi_free>
/home/rossierd/soo.tech/soo/optee_os/lib/libutee/tee_api_arith_mpi.c:315
    24f0:	e1a00005 	mov	r0, r5
    24f4:	e24bd014 	sub	sp, fp, #20
    24f8:	e89da830 	ldm	sp, {r4, r5, fp, sp, pc}

000024fc <TEE_BigIntAdd>:
TEE_BigIntAdd():
/home/rossierd/soo.tech/soo/optee_os/lib/libutee/tee_api_arith_mpi.c:399
    24fc:	e1a0c00d 	mov	ip, sp
    2500:	e59f3024 	ldr	r3, [pc, #36]	; 252c <TEE_BigIntAdd+0x30>
    2504:	e92dd800 	push	{fp, ip, lr, pc}
    2508:	e24cb004 	sub	fp, ip, #4
/home/rossierd/soo.tech/soo/optee_os/lib/libutee/tee_api_arith_mpi.c:400
    250c:	e59fc01c 	ldr	ip, [pc, #28]	; 2530 <TEE_BigIntAdd+0x34>
/home/rossierd/soo.tech/soo/optee_os/lib/libutee/tee_api_arith_mpi.c:399
    2510:	e24dd008 	sub	sp, sp, #8
    2514:	e08f3003 	add	r3, pc, r3
/home/rossierd/soo.tech/soo/optee_os/lib/libutee/tee_api_arith_mpi.c:400
    2518:	e793300c 	ldr	r3, [r3, ip]
    251c:	e50b3010 	str	r3, [fp, #-16]
/home/rossierd/soo.tech/soo/optee_os/lib/libutee/tee_api_arith_mpi.c:401
    2520:	e24bd00c 	sub	sp, fp, #12
    2524:	e89d6800 	ldm	sp, {fp, sp, lr}
/home/rossierd/soo.tech/soo/optee_os/lib/libutee/tee_api_arith_mpi.c:400
    2528:	eafffc22 	b	15b8 <bigint_binary>
    252c:	00009b64 	.word	0x00009b64
    2530:	0000001c 	.word	0x0000001c

00002534 <TEE_BigIntSub>:
TEE_BigIntSub():
/home/rossierd/soo.tech/soo/optee_os/lib/libutee/tee_api_arith_mpi.c:405
    2534:	e1a0c00d 	mov	ip, sp
    2538:	e59f3024 	ldr	r3, [pc, #36]	; 2564 <TEE_BigIntSub+0x30>
    253c:	e92dd800 	push	{fp, ip, lr, pc}
    2540:	e24cb004 	sub	fp, ip, #4
/home/rossierd/soo.tech/soo/optee_os/lib/libutee/tee_api_arith_mpi.c:406
    2544:	e59fc01c 	ldr	ip, [pc, #28]	; 2568 <TEE_BigIntSub+0x34>
/home/rossierd/soo.tech/soo/optee_os/lib/libutee/tee_api_arith_mpi.c:405
    2548:	e24dd008 	sub	sp, sp, #8
    254c:	e08f3003 	add	r3, pc, r3
/home/rossierd/soo.tech/soo/optee_os/lib/libutee/tee_api_arith_mpi.c:406
    2550:	e793300c 	ldr	r3, [r3, ip]
    2554:	e50b3010 	str	r3, [fp, #-16]
/home/rossierd/soo.tech/soo/optee_os/lib/libutee/tee_api_arith_mpi.c:407
    2558:	e24bd00c 	sub	sp, fp, #12
    255c:	e89d6800 	ldm	sp, {fp, sp, lr}
/home/rossierd/soo.tech/soo/optee_os/lib/libutee/tee_api_arith_mpi.c:406
    2560:	eafffc14 	b	15b8 <bigint_binary>
    2564:	00009b2c 	.word	0x00009b2c
    2568:	00000024 	.word	0x00000024

0000256c <TEE_BigIntNeg>:
TEE_BigIntNeg():
/home/rossierd/soo.tech/soo/optee_os/lib/libutee/tee_api_arith_mpi.c:410
    256c:	e1a0c00d 	mov	ip, sp
    2570:	e92dd8f0 	push	{r4, r5, r6, r7, fp, ip, lr, pc}
    2574:	e24cb004 	sub	fp, ip, #4
    2578:	e24dd018 	sub	sp, sp, #24
/home/rossierd/soo.tech/soo/optee_os/lib/libutee/tee_api_arith_mpi.c:413
    257c:	e24b4034 	sub	r4, fp, #52	; 0x34
/home/rossierd/soo.tech/soo/optee_os/lib/libutee/tee_api_arith_mpi.c:410
    2580:	e1a05000 	mov	r5, r0
    2584:	e1a07001 	mov	r7, r1
/home/rossierd/soo.tech/soo/optee_os/lib/libutee/tee_api_arith_mpi.c:413
    2588:	e1a01000 	mov	r1, r0
    258c:	e1a00004 	mov	r0, r4
    2590:	ebfffbc4 	bl	14a8 <get_mpi>
/home/rossierd/soo.tech/soo/optee_os/lib/libutee/tee_api_arith_mpi.c:415
    2594:	e1550007 	cmp	r5, r7
    2598:	0a00000f 	beq	25dc <TEE_BigIntNeg+0x70>
/home/rossierd/soo.tech/soo/optee_os/lib/libutee/tee_api_arith_mpi.c:418
    259c:	e24b6028 	sub	r6, fp, #40	; 0x28
    25a0:	e1a01007 	mov	r1, r7
    25a4:	e1a00006 	mov	r0, r6
    25a8:	ebfffbbe 	bl	14a8 <get_mpi>
/home/rossierd/soo.tech/soo/optee_os/lib/libutee/tee_api_arith_mpi.c:420
    25ac:	e1a01006 	mov	r1, r6
    25b0:	e1a00004 	mov	r0, r4
    25b4:	eb000560 	bl	3b3c <mbedtls_mpi_copy>
    25b8:	e2502000 	subs	r2, r0, #0
    25bc:	0a000004 	beq	25d4 <TEE_BigIntNeg+0x68>
/home/rossierd/soo.tech/soo/optee_os/lib/libutee/tee_api_arith_mpi.c:420 (discriminator 1)
    25c0:	e59f0050 	ldr	r0, [pc, #80]	; 2618 <TEE_BigIntNeg+0xac>
    25c4:	e3a01f69 	mov	r1, #420	; 0x1a4
    25c8:	e08f0000 	add	r0, pc, r0
/home/rossierd/soo.tech/soo/optee_os/lib/libutee/tee_api_arith_mpi.c:427 (discriminator 1)
    25cc:	e280009f 	add	r0, r0, #159	; 0x9f
    25d0:	ebfffba6 	bl	1470 <mpi_panic>
/home/rossierd/soo.tech/soo/optee_os/lib/libutee/tee_api_arith_mpi.c:422
    25d4:	e1a00006 	mov	r0, r6
    25d8:	eb0004aa 	bl	3888 <mbedtls_mpi_free>
/home/rossierd/soo.tech/soo/optee_os/lib/libutee/tee_api_arith_mpi.c:425
    25dc:	e15b33b4 	ldrh	r3, [fp, #-52]	; 0xffffffcc
/home/rossierd/soo.tech/soo/optee_os/lib/libutee/tee_api_arith_mpi.c:427
    25e0:	e1a01005 	mov	r1, r5
    25e4:	e1a00004 	mov	r0, r4
/home/rossierd/soo.tech/soo/optee_os/lib/libutee/tee_api_arith_mpi.c:425
    25e8:	e2633000 	rsb	r3, r3, #0
    25ec:	e14b33b4 	strh	r3, [fp, #-52]	; 0xffffffcc
/home/rossierd/soo.tech/soo/optee_os/lib/libutee/tee_api_arith_mpi.c:427
    25f0:	ebfffbd0 	bl	1538 <copy_mpi_to_bigint>
    25f4:	e2502000 	subs	r2, r0, #0
/home/rossierd/soo.tech/soo/optee_os/lib/libutee/tee_api_arith_mpi.c:427 (discriminator 1)
    25f8:	159f001c 	ldrne	r0, [pc, #28]	; 261c <TEE_BigIntNeg+0xb0>
    25fc:	130011ab 	movwne	r1, #427	; 0x1ab
    2600:	108f0000 	addne	r0, pc, r0
    2604:	1afffff0 	bne	25cc <TEE_BigIntNeg+0x60>
/home/rossierd/soo.tech/soo/optee_os/lib/libutee/tee_api_arith_mpi.c:428
    2608:	e1a00004 	mov	r0, r4
    260c:	eb00049d 	bl	3888 <mbedtls_mpi_free>
/home/rossierd/soo.tech/soo/optee_os/lib/libutee/tee_api_arith_mpi.c:429
    2610:	e24bd01c 	sub	sp, fp, #28
    2614:	e89da8f0 	ldm	sp, {r4, r5, r6, r7, fp, sp, pc}
    2618:	00006ffa 	.word	0x00006ffa
    261c:	00006fc2 	.word	0x00006fc2

00002620 <TEE_BigIntMul>:
TEE_BigIntMul():
/home/rossierd/soo.tech/soo/optee_os/lib/libutee/tee_api_arith_mpi.c:433
    2620:	e1a0c00d 	mov	ip, sp
    2624:	e92ddff0 	push	{r4, r5, r6, r7, r8, r9, sl, fp, ip, lr, pc}
    2628:	e24cb004 	sub	fp, ip, #4
    262c:	e24dd01c 	sub	sp, sp, #28
    2630:	e1a0a000 	mov	sl, r0
    2634:	e59f70c8 	ldr	r7, [pc, #200]	; 2704 <TEE_BigIntMul+0xe4>
/home/rossierd/soo.tech/soo/optee_os/lib/libutee/tee_api_arith_mpi.c:434
    2638:	e1a00001 	mov	r0, r1
/home/rossierd/soo.tech/soo/optee_os/lib/libutee/tee_api_arith_mpi.c:433
    263c:	e1a09002 	mov	r9, r2
    2640:	e1a08001 	mov	r8, r1
/home/rossierd/soo.tech/soo/optee_os/lib/libutee/tee_api_arith_mpi.c:437
    2644:	e24b6038 	sub	r6, fp, #56	; 0x38
/home/rossierd/soo.tech/soo/optee_os/lib/libutee/tee_api_arith_mpi.c:434
    2648:	ebffff9b 	bl	24bc <TEE_BigIntGetBitCount>
    264c:	e1a04000 	mov	r4, r0
/home/rossierd/soo.tech/soo/optee_os/lib/libutee/tee_api_arith_mpi.c:435
    2650:	e1a00009 	mov	r0, r9
    2654:	ebffff98 	bl	24bc <TEE_BigIntGetBitCount>
/home/rossierd/soo.tech/soo/optee_os/lib/libutee/tee_api_arith_mpi.c:436
    2658:	e284301f 	add	r3, r4, #31
    265c:	e280401f 	add	r4, r0, #31
    2660:	e1a042a4 	lsr	r4, r4, #5
/home/rossierd/soo.tech/soo/optee_os/lib/libutee/tee_api_arith_mpi.c:433
    2664:	e08f7007 	add	r7, pc, r7
/home/rossierd/soo.tech/soo/optee_os/lib/libutee/tee_api_arith_mpi.c:436
    2668:	e08442a3 	add	r4, r4, r3, lsr #5
/home/rossierd/soo.tech/soo/optee_os/lib/libutee/tee_api_arith_mpi.c:437
    266c:	e3a03000 	mov	r3, #0
    2670:	e5863004 	str	r3, [r6, #4]
/home/rossierd/soo.tech/soo/optee_os/lib/libutee/tee_api_arith_mpi.c:436
    2674:	e2844004 	add	r4, r4, #4
/home/rossierd/soo.tech/soo/optee_os/lib/libutee/tee_api_arith_mpi.c:437
    2678:	e5863008 	str	r3, [r6, #8]
/home/rossierd/soo.tech/soo/optee_os/lib/libutee/tee_api_arith_mpi.c:440
    267c:	e1a01104 	lsl	r1, r4, #2
/home/rossierd/soo.tech/soo/optee_os/lib/libutee/tee_api_arith_mpi.c:437
    2680:	e50b3038 	str	r3, [fp, #-56]	; 0xffffffc8
/home/rossierd/soo.tech/soo/optee_os/lib/libutee/tee_api_arith_mpi.c:440
    2684:	e59f307c 	ldr	r3, [pc, #124]	; 2708 <TEE_BigIntMul+0xe8>
    2688:	e7973003 	ldr	r3, [r7, r3]
    268c:	e5930000 	ldr	r0, [r3]
    2690:	e50b3040 	str	r3, [fp, #-64]	; 0xffffffc0
    2694:	eb001a13 	bl	8ee8 <mempool_alloc>
/home/rossierd/soo.tech/soo/optee_os/lib/libutee/tee_api_arith_mpi.c:441
    2698:	e2505000 	subs	r5, r0, #0
    269c:	1a000001 	bne	26a8 <TEE_BigIntMul+0x88>
/home/rossierd/soo.tech/soo/optee_os/lib/libutee/tee_api_arith_mpi.c:442
    26a0:	e59f0064 	ldr	r0, [pc, #100]	; 270c <TEE_BigIntMul+0xec>
    26a4:	ebfffb08 	bl	12cc <TEE_Panic>
/home/rossierd/soo.tech/soo/optee_os/lib/libutee/tee_api_arith_mpi.c:444
    26a8:	e1a01004 	mov	r1, r4
    26ac:	e1a00005 	mov	r0, r5
    26b0:	ebfffdc9 	bl	1ddc <TEE_BigIntInit>
/home/rossierd/soo.tech/soo/optee_os/lib/libutee/tee_api_arith_mpi.c:445
    26b4:	e1a00006 	mov	r0, r6
    26b8:	e3a01003 	mov	r1, #3
    26bc:	ebfffdc6 	bl	1ddc <TEE_BigIntInit>
/home/rossierd/soo.tech/soo/optee_os/lib/libutee/tee_api_arith_mpi.c:447
    26c0:	e59f3048 	ldr	r3, [pc, #72]	; 2710 <TEE_BigIntMul+0xf0>
    26c4:	e1a02009 	mov	r2, r9
    26c8:	e1a01008 	mov	r1, r8
    26cc:	e1a00005 	mov	r0, r5
    26d0:	e7973003 	ldr	r3, [r7, r3]
    26d4:	e50b3044 	str	r3, [fp, #-68]	; 0xffffffbc
    26d8:	ebfffbb6 	bl	15b8 <bigint_binary>
/home/rossierd/soo.tech/soo/optee_os/lib/libutee/tee_api_arith_mpi.c:449
    26dc:	e1a02006 	mov	r2, r6
    26e0:	e1a01005 	mov	r1, r5
    26e4:	e1a0000a 	mov	r0, sl
    26e8:	ebffff83 	bl	24fc <TEE_BigIntAdd>
/home/rossierd/soo.tech/soo/optee_os/lib/libutee/tee_api_arith_mpi.c:451
    26ec:	e51b3040 	ldr	r3, [fp, #-64]	; 0xffffffc0
    26f0:	e1a01005 	mov	r1, r5
    26f4:	e5930000 	ldr	r0, [r3]
    26f8:	eb001a3c 	bl	8ff0 <mempool_free>
/home/rossierd/soo.tech/soo/optee_os/lib/libutee/tee_api_arith_mpi.c:452
    26fc:	e24bd028 	sub	sp, fp, #40	; 0x28
    2700:	e89daff0 	ldm	sp, {r4, r5, r6, r7, r8, r9, sl, fp, sp, pc}
    2704:	00009a14 	.word	0x00009a14
    2708:	00000038 	.word	0x00000038
    270c:	ffff000c 	.word	0xffff000c
    2710:	00000018 	.word	0x00000018

00002714 <TEE_BigIntSquare>:
TEE_BigIntSquare():
/home/rossierd/soo.tech/soo/optee_os/lib/libutee/tee_api_arith_mpi.c:455
    2714:	e1a0c00d 	mov	ip, sp
/home/rossierd/soo.tech/soo/optee_os/lib/libutee/tee_api_arith_mpi.c:456
    2718:	e1a02001 	mov	r2, r1
/home/rossierd/soo.tech/soo/optee_os/lib/libutee/tee_api_arith_mpi.c:455
    271c:	e92dd800 	push	{fp, ip, lr, pc}
    2720:	e24cb004 	sub	fp, ip, #4
/home/rossierd/soo.tech/soo/optee_os/lib/libutee/tee_api_arith_mpi.c:457
    2724:	e24bd00c 	sub	sp, fp, #12
    2728:	e89d6800 	ldm	sp, {fp, sp, lr}
/home/rossierd/soo.tech/soo/optee_os/lib/libutee/tee_api_arith_mpi.c:456
    272c:	eaffffbb 	b	2620 <TEE_BigIntMul>

00002730 <TEE_BigIntDiv>:
TEE_BigIntDiv():
/home/rossierd/soo.tech/soo/optee_os/lib/libutee/tee_api_arith_mpi.c:461
    2730:	e1a0c00d 	mov	ip, sp
    2734:	e92ddff0 	push	{r4, r5, r6, r7, r8, r9, sl, fp, ip, lr, pc}
    2738:	e24cb004 	sub	fp, ip, #4
    273c:	e24dd03c 	sub	sp, sp, #60	; 0x3c
/home/rossierd/soo.tech/soo/optee_os/lib/libutee/tee_api_arith_mpi.c:469
    2740:	e24b705c 	sub	r7, fp, #92	; 0x5c
/home/rossierd/soo.tech/soo/optee_os/lib/libutee/tee_api_arith_mpi.c:461
    2744:	e1a09000 	mov	r9, r0
    2748:	e1a08001 	mov	r8, r1
/home/rossierd/soo.tech/soo/optee_os/lib/libutee/tee_api_arith_mpi.c:469
    274c:	e1a01000 	mov	r1, r0
/home/rossierd/soo.tech/soo/optee_os/lib/libutee/tee_api_arith_mpi.c:470
    2750:	e24b6050 	sub	r6, fp, #80	; 0x50
/home/rossierd/soo.tech/soo/optee_os/lib/libutee/tee_api_arith_mpi.c:461
    2754:	e50b2060 	str	r2, [fp, #-96]	; 0xffffffa0
/home/rossierd/soo.tech/soo/optee_os/lib/libutee/tee_api_arith_mpi.c:469
    2758:	e1a00007 	mov	r0, r7
/home/rossierd/soo.tech/soo/optee_os/lib/libutee/tee_api_arith_mpi.c:461
    275c:	e1a04003 	mov	r4, r3
/home/rossierd/soo.tech/soo/optee_os/lib/libutee/tee_api_arith_mpi.c:469
    2760:	ebfffb50 	bl	14a8 <get_mpi>
/home/rossierd/soo.tech/soo/optee_os/lib/libutee/tee_api_arith_mpi.c:470
    2764:	e1a01008 	mov	r1, r8
    2768:	e1a00006 	mov	r0, r6
    276c:	ebfffb4d 	bl	14a8 <get_mpi>
/home/rossierd/soo.tech/soo/optee_os/lib/libutee/tee_api_arith_mpi.c:472
    2770:	e51b2060 	ldr	r2, [fp, #-96]	; 0xffffffa0
    2774:	e24ba044 	sub	sl, fp, #68	; 0x44
    2778:	e1590002 	cmp	r9, r2
/home/rossierd/soo.tech/soo/optee_os/lib/libutee/tee_api_arith_mpi.c:473
    277c:	01a05007 	moveq	r5, r7
/home/rossierd/soo.tech/soo/optee_os/lib/libutee/tee_api_arith_mpi.c:472
    2780:	0a000007 	beq	27a4 <TEE_BigIntDiv+0x74>
/home/rossierd/soo.tech/soo/optee_os/lib/libutee/tee_api_arith_mpi.c:474
    2784:	e1580002 	cmp	r8, r2
/home/rossierd/soo.tech/soo/optee_os/lib/libutee/tee_api_arith_mpi.c:475
    2788:	01a05006 	moveq	r5, r6
/home/rossierd/soo.tech/soo/optee_os/lib/libutee/tee_api_arith_mpi.c:474
    278c:	0a000004 	beq	27a4 <TEE_BigIntDiv+0x74>
/home/rossierd/soo.tech/soo/optee_os/lib/libutee/tee_api_arith_mpi.c:477
    2790:	e1a01002 	mov	r1, r2
    2794:	e1a0000a 	mov	r0, sl
    2798:	ebfffb42 	bl	14a8 <get_mpi>
    279c:	e51b2060 	ldr	r2, [fp, #-96]	; 0xffffffa0
/home/rossierd/soo.tech/soo/optee_os/lib/libutee/tee_api_arith_mpi.c:466
    27a0:	e1a0500a 	mov	r5, sl
/home/rossierd/soo.tech/soo/optee_os/lib/libutee/tee_api_arith_mpi.c:479
    27a4:	e1590004 	cmp	r9, r4
/home/rossierd/soo.tech/soo/optee_os/lib/libutee/tee_api_arith_mpi.c:480
    27a8:	01a04007 	moveq	r4, r7
/home/rossierd/soo.tech/soo/optee_os/lib/libutee/tee_api_arith_mpi.c:479
    27ac:	0a000009 	beq	27d8 <TEE_BigIntDiv+0xa8>
/home/rossierd/soo.tech/soo/optee_os/lib/libutee/tee_api_arith_mpi.c:481
    27b0:	e1580004 	cmp	r8, r4
/home/rossierd/soo.tech/soo/optee_os/lib/libutee/tee_api_arith_mpi.c:482
    27b4:	01a04006 	moveq	r4, r6
/home/rossierd/soo.tech/soo/optee_os/lib/libutee/tee_api_arith_mpi.c:481
    27b8:	0a000006 	beq	27d8 <TEE_BigIntDiv+0xa8>
/home/rossierd/soo.tech/soo/optee_os/lib/libutee/tee_api_arith_mpi.c:483
    27bc:	e1520004 	cmp	r2, r4
/home/rossierd/soo.tech/soo/optee_os/lib/libutee/tee_api_arith_mpi.c:484
    27c0:	01a04005 	moveq	r4, r5
/home/rossierd/soo.tech/soo/optee_os/lib/libutee/tee_api_arith_mpi.c:483
    27c4:	0a000003 	beq	27d8 <TEE_BigIntDiv+0xa8>
/home/rossierd/soo.tech/soo/optee_os/lib/libutee/tee_api_arith_mpi.c:486
    27c8:	e1a01004 	mov	r1, r4
    27cc:	e24b4038 	sub	r4, fp, #56	; 0x38
    27d0:	e1a00004 	mov	r0, r4
    27d4:	ebfffb33 	bl	14a8 <get_mpi>
/home/rossierd/soo.tech/soo/optee_os/lib/libutee/tee_api_arith_mpi.c:488
    27d8:	e1a02005 	mov	r2, r5
    27dc:	e1a03004 	mov	r3, r4
    27e0:	e1a01006 	mov	r1, r6
    27e4:	e1a00007 	mov	r0, r7
    27e8:	eb00091d 	bl	4c64 <mbedtls_mpi_div_mpi>
    27ec:	e2502000 	subs	r2, r0, #0
    27f0:	0a000004 	beq	2808 <TEE_BigIntDiv+0xd8>
/home/rossierd/soo.tech/soo/optee_os/lib/libutee/tee_api_arith_mpi.c:488 (discriminator 1)
    27f4:	e59f0088 	ldr	r0, [pc, #136]	; 2884 <TEE_BigIntDiv+0x154>
    27f8:	e3a01f7a 	mov	r1, #488	; 0x1e8
    27fc:	e08f0000 	add	r0, pc, r0
/home/rossierd/soo.tech/soo/optee_os/lib/libutee/tee_api_arith_mpi.c:490 (discriminator 1)
    2800:	e28000ad 	add	r0, r0, #173	; 0xad
    2804:	ebfffb19 	bl	1470 <mpi_panic>
/home/rossierd/soo.tech/soo/optee_os/lib/libutee/tee_api_arith_mpi.c:490
    2808:	e1a01009 	mov	r1, r9
    280c:	e1a00007 	mov	r0, r7
    2810:	ebfffb48 	bl	1538 <copy_mpi_to_bigint>
    2814:	e2502000 	subs	r2, r0, #0
/home/rossierd/soo.tech/soo/optee_os/lib/libutee/tee_api_arith_mpi.c:490 (discriminator 1)
    2818:	159f0068 	ldrne	r0, [pc, #104]	; 2888 <TEE_BigIntDiv+0x158>
    281c:	130011ea 	movwne	r1, #490	; 0x1ea
    2820:	108f0000 	addne	r0, pc, r0
    2824:	1afffff5 	bne	2800 <TEE_BigIntDiv+0xd0>
/home/rossierd/soo.tech/soo/optee_os/lib/libutee/tee_api_arith_mpi.c:491
    2828:	e1a01008 	mov	r1, r8
    282c:	e1a00006 	mov	r0, r6
    2830:	ebfffb40 	bl	1538 <copy_mpi_to_bigint>
    2834:	e2502000 	subs	r2, r0, #0
/home/rossierd/soo.tech/soo/optee_os/lib/libutee/tee_api_arith_mpi.c:491 (discriminator 1)
    2838:	159f004c 	ldrne	r0, [pc, #76]	; 288c <TEE_BigIntDiv+0x15c>
    283c:	130011eb 	movwne	r1, #491	; 0x1eb
    2840:	108f0000 	addne	r0, pc, r0
    2844:	1affffed 	bne	2800 <TEE_BigIntDiv+0xd0>
/home/rossierd/soo.tech/soo/optee_os/lib/libutee/tee_api_arith_mpi.c:492
    2848:	e1a00007 	mov	r0, r7
    284c:	eb00040d 	bl	3888 <mbedtls_mpi_free>
/home/rossierd/soo.tech/soo/optee_os/lib/libutee/tee_api_arith_mpi.c:493
    2850:	e1a00006 	mov	r0, r6
    2854:	eb00040b 	bl	3888 <mbedtls_mpi_free>
/home/rossierd/soo.tech/soo/optee_os/lib/libutee/tee_api_arith_mpi.c:494
    2858:	e155000a 	cmp	r5, sl
    285c:	1a000001 	bne	2868 <TEE_BigIntDiv+0x138>
/home/rossierd/soo.tech/soo/optee_os/lib/libutee/tee_api_arith_mpi.c:495
    2860:	e1a00005 	mov	r0, r5
    2864:	eb000407 	bl	3888 <mbedtls_mpi_free>
/home/rossierd/soo.tech/soo/optee_os/lib/libutee/tee_api_arith_mpi.c:496
    2868:	e24b3038 	sub	r3, fp, #56	; 0x38
    286c:	e1540003 	cmp	r4, r3
    2870:	1a000001 	bne	287c <TEE_BigIntDiv+0x14c>
/home/rossierd/soo.tech/soo/optee_os/lib/libutee/tee_api_arith_mpi.c:497
    2874:	e1a00004 	mov	r0, r4
    2878:	eb000402 	bl	3888 <mbedtls_mpi_free>
/home/rossierd/soo.tech/soo/optee_os/lib/libutee/tee_api_arith_mpi.c:498
    287c:	e24bd028 	sub	sp, fp, #40	; 0x28
    2880:	e89daff0 	ldm	sp, {r4, r5, r6, r7, r8, r9, sl, fp, sp, pc}
    2884:	00006dc6 	.word	0x00006dc6
    2888:	00006da2 	.word	0x00006da2
    288c:	00006d82 	.word	0x00006d82

00002890 <TEE_BigIntMod>:
TEE_BigIntMod():
/home/rossierd/soo.tech/soo/optee_os/lib/libutee/tee_api_arith_mpi.c:501
    2890:	e1a0c00d 	mov	ip, sp
    2894:	e92dd8f0 	push	{r4, r5, r6, r7, fp, ip, lr, pc}
    2898:	e24cb004 	sub	fp, ip, #4
    289c:	e24dd008 	sub	sp, sp, #8
    28a0:	e1a06000 	mov	r6, r0
    28a4:	e59f505c 	ldr	r5, [pc, #92]	; 2908 <TEE_BigIntMod+0x78>
    28a8:	e1a07001 	mov	r7, r1
/home/rossierd/soo.tech/soo/optee_os/lib/libutee/tee_api_arith_mpi.c:502
    28ac:	e1a00002 	mov	r0, r2
    28b0:	e3a01002 	mov	r1, #2
/home/rossierd/soo.tech/soo/optee_os/lib/libutee/tee_api_arith_mpi.c:501
    28b4:	e1a04002 	mov	r4, r2
/home/rossierd/soo.tech/soo/optee_os/lib/libutee/tee_api_arith_mpi.c:502
    28b8:	ebfffe12 	bl	2108 <TEE_BigIntCmpS32>
    28bc:	e3500000 	cmp	r0, #0
/home/rossierd/soo.tech/soo/optee_os/lib/libutee/tee_api_arith_mpi.c:501
    28c0:	e08f5005 	add	r5, pc, r5
/home/rossierd/soo.tech/soo/optee_os/lib/libutee/tee_api_arith_mpi.c:502
    28c4:	aa000006 	bge	28e4 <TEE_BigIntMod+0x54>
/home/rossierd/soo.tech/soo/optee_os/lib/libutee/tee_api_arith_mpi.c:503
    28c8:	e59f003c 	ldr	r0, [pc, #60]	; 290c <TEE_BigIntMod+0x7c>
    28cc:	e30011f7 	movw	r1, #503	; 0x1f7
    28d0:	e59f2038 	ldr	r2, [pc, #56]	; 2910 <TEE_BigIntMod+0x80>
    28d4:	e08f0000 	add	r0, pc, r0
    28d8:	e08f2002 	add	r2, pc, r2
    28dc:	e28000bb 	add	r0, r0, #187	; 0xbb
    28e0:	eb0001f0 	bl	30a8 <api_panic>
/home/rossierd/soo.tech/soo/optee_os/lib/libutee/tee_api_arith_mpi.c:505
    28e4:	e59f3028 	ldr	r3, [pc, #40]	; 2914 <TEE_BigIntMod+0x84>
    28e8:	e1a02004 	mov	r2, r4
    28ec:	e1a01007 	mov	r1, r7
    28f0:	e1a00006 	mov	r0, r6
    28f4:	e7953003 	ldr	r3, [r5, r3]
    28f8:	e50b3020 	str	r3, [fp, #-32]	; 0xffffffe0
/home/rossierd/soo.tech/soo/optee_os/lib/libutee/tee_api_arith_mpi.c:506
    28fc:	e24bd01c 	sub	sp, fp, #28
    2900:	e89d68f0 	ldm	sp, {r4, r5, r6, r7, fp, sp, lr}
/home/rossierd/soo.tech/soo/optee_os/lib/libutee/tee_api_arith_mpi.c:505
    2904:	eafffb2b 	b	15b8 <bigint_binary>
    2908:	000097b8 	.word	0x000097b8
    290c:	00006cee 	.word	0x00006cee
    2910:	00006e9e 	.word	0x00006e9e
    2914:	0000002c 	.word	0x0000002c

00002918 <TEE_BigIntAddMod>:
TEE_BigIntAddMod():
/home/rossierd/soo.tech/soo/optee_os/lib/libutee/tee_api_arith_mpi.c:510
    2918:	e1a0c00d 	mov	ip, sp
    291c:	e92dd800 	push	{fp, ip, lr, pc}
    2920:	e24cb004 	sub	fp, ip, #4
    2924:	e59fc01c 	ldr	ip, [pc, #28]	; 2948 <TEE_BigIntAddMod+0x30>
    2928:	e24dd008 	sub	sp, sp, #8
/home/rossierd/soo.tech/soo/optee_os/lib/libutee/tee_api_arith_mpi.c:511
    292c:	e59fe018 	ldr	lr, [pc, #24]	; 294c <TEE_BigIntAddMod+0x34>
/home/rossierd/soo.tech/soo/optee_os/lib/libutee/tee_api_arith_mpi.c:510
    2930:	e08fc00c 	add	ip, pc, ip
/home/rossierd/soo.tech/soo/optee_os/lib/libutee/tee_api_arith_mpi.c:511
    2934:	e79cc00e 	ldr	ip, [ip, lr]
    2938:	e58dc000 	str	ip, [sp]
    293c:	ebfffe03 	bl	2150 <bigint_binary_mod>
/home/rossierd/soo.tech/soo/optee_os/lib/libutee/tee_api_arith_mpi.c:512
    2940:	e24bd00c 	sub	sp, fp, #12
    2944:	e89da800 	ldm	sp, {fp, sp, pc}
    2948:	00009748 	.word	0x00009748
    294c:	0000001c 	.word	0x0000001c

00002950 <TEE_BigIntSubMod>:
TEE_BigIntSubMod():
/home/rossierd/soo.tech/soo/optee_os/lib/libutee/tee_api_arith_mpi.c:516
    2950:	e1a0c00d 	mov	ip, sp
    2954:	e92dd800 	push	{fp, ip, lr, pc}
    2958:	e24cb004 	sub	fp, ip, #4
    295c:	e59fc01c 	ldr	ip, [pc, #28]	; 2980 <TEE_BigIntSubMod+0x30>
    2960:	e24dd008 	sub	sp, sp, #8
/home/rossierd/soo.tech/soo/optee_os/lib/libutee/tee_api_arith_mpi.c:517
    2964:	e59fe018 	ldr	lr, [pc, #24]	; 2984 <TEE_BigIntSubMod+0x34>
/home/rossierd/soo.tech/soo/optee_os/lib/libutee/tee_api_arith_mpi.c:516
    2968:	e08fc00c 	add	ip, pc, ip
/home/rossierd/soo.tech/soo/optee_os/lib/libutee/tee_api_arith_mpi.c:517
    296c:	e79cc00e 	ldr	ip, [ip, lr]
    2970:	e58dc000 	str	ip, [sp]
    2974:	ebfffdf5 	bl	2150 <bigint_binary_mod>
/home/rossierd/soo.tech/soo/optee_os/lib/libutee/tee_api_arith_mpi.c:518
    2978:	e24bd00c 	sub	sp, fp, #12
    297c:	e89da800 	ldm	sp, {fp, sp, pc}
    2980:	00009710 	.word	0x00009710
    2984:	00000024 	.word	0x00000024

00002988 <TEE_BigIntMulMod>:
TEE_BigIntMulMod():
/home/rossierd/soo.tech/soo/optee_os/lib/libutee/tee_api_arith_mpi.c:522
    2988:	e1a0c00d 	mov	ip, sp
    298c:	e92dd800 	push	{fp, ip, lr, pc}
    2990:	e24cb004 	sub	fp, ip, #4
    2994:	e59fc01c 	ldr	ip, [pc, #28]	; 29b8 <TEE_BigIntMulMod+0x30>
    2998:	e24dd008 	sub	sp, sp, #8
/home/rossierd/soo.tech/soo/optee_os/lib/libutee/tee_api_arith_mpi.c:523
    299c:	e59fe018 	ldr	lr, [pc, #24]	; 29bc <TEE_BigIntMulMod+0x34>
/home/rossierd/soo.tech/soo/optee_os/lib/libutee/tee_api_arith_mpi.c:522
    29a0:	e08fc00c 	add	ip, pc, ip
/home/rossierd/soo.tech/soo/optee_os/lib/libutee/tee_api_arith_mpi.c:523
    29a4:	e79cc00e 	ldr	ip, [ip, lr]
    29a8:	e58dc000 	str	ip, [sp]
    29ac:	ebfffde7 	bl	2150 <bigint_binary_mod>
/home/rossierd/soo.tech/soo/optee_os/lib/libutee/tee_api_arith_mpi.c:524
    29b0:	e24bd00c 	sub	sp, fp, #12
    29b4:	e89da800 	ldm	sp, {fp, sp, pc}
    29b8:	000096d8 	.word	0x000096d8
    29bc:	00000018 	.word	0x00000018

000029c0 <TEE_BigIntSquareMod>:
TEE_BigIntSquareMod():
/home/rossierd/soo.tech/soo/optee_os/lib/libutee/tee_api_arith_mpi.c:528
    29c0:	e1a0c00d 	mov	ip, sp
/home/rossierd/soo.tech/soo/optee_os/lib/libutee/tee_api_arith_mpi.c:529
    29c4:	e1a03002 	mov	r3, r2
    29c8:	e1a02001 	mov	r2, r1
/home/rossierd/soo.tech/soo/optee_os/lib/libutee/tee_api_arith_mpi.c:528
    29cc:	e92dd800 	push	{fp, ip, lr, pc}
    29d0:	e24cb004 	sub	fp, ip, #4
/home/rossierd/soo.tech/soo/optee_os/lib/libutee/tee_api_arith_mpi.c:530
    29d4:	e24bd00c 	sub	sp, fp, #12
    29d8:	e89d6800 	ldm	sp, {fp, sp, lr}
/home/rossierd/soo.tech/soo/optee_os/lib/libutee/tee_api_arith_mpi.c:529
    29dc:	eaffffe9 	b	2988 <TEE_BigIntMulMod>

000029e0 <TEE_BigIntInvMod>:
TEE_BigIntInvMod():
/home/rossierd/soo.tech/soo/optee_os/lib/libutee/tee_api_arith_mpi.c:534
    29e0:	e1a0c00d 	mov	ip, sp
    29e4:	e92dd9f0 	push	{r4, r5, r6, r7, r8, fp, ip, lr, pc}
    29e8:	e24cb004 	sub	fp, ip, #4
    29ec:	e24dd02c 	sub	sp, sp, #44	; 0x2c
    29f0:	e1a08000 	mov	r8, r0
    29f4:	e1a05001 	mov	r5, r1
/home/rossierd/soo.tech/soo/optee_os/lib/libutee/tee_api_arith_mpi.c:535
    29f8:	e1a00002 	mov	r0, r2
    29fc:	e3a01002 	mov	r1, #2
/home/rossierd/soo.tech/soo/optee_os/lib/libutee/tee_api_arith_mpi.c:534
    2a00:	e1a06002 	mov	r6, r2
/home/rossierd/soo.tech/soo/optee_os/lib/libutee/tee_api_arith_mpi.c:535
    2a04:	ebfffdbf 	bl	2108 <TEE_BigIntCmpS32>
    2a08:	e3500000 	cmp	r0, #0
    2a0c:	aa000006 	bge	2a2c <TEE_BigIntInvMod+0x4c>
/home/rossierd/soo.tech/soo/optee_os/lib/libutee/tee_api_arith_mpi.c:536
    2a10:	e59f00dc 	ldr	r0, [pc, #220]	; 2af4 <TEE_BigIntInvMod+0x114>
    2a14:	e3a01f86 	mov	r1, #536	; 0x218
    2a18:	e59f20d8 	ldr	r2, [pc, #216]	; 2af8 <TEE_BigIntInvMod+0x118>
    2a1c:	e08f0000 	add	r0, pc, r0
    2a20:	e08f2002 	add	r2, pc, r2
    2a24:	e28000c9 	add	r0, r0, #201	; 0xc9
    2a28:	eb00019e 	bl	30a8 <api_panic>
/home/rossierd/soo.tech/soo/optee_os/lib/libutee/tee_api_arith_mpi.c:535 (discriminator 1)
    2a2c:	e3a01000 	mov	r1, #0
    2a30:	e1a00005 	mov	r0, r5
    2a34:	ebfffdb3 	bl	2108 <TEE_BigIntCmpS32>
    2a38:	e3500000 	cmp	r0, #0
    2a3c:	0afffff3 	beq	2a10 <TEE_BigIntInvMod+0x30>
/home/rossierd/soo.tech/soo/optee_os/lib/libutee/tee_api_arith_mpi.c:543
    2a40:	e24b4048 	sub	r4, fp, #72	; 0x48
    2a44:	e1a01008 	mov	r1, r8
    2a48:	e1a00004 	mov	r0, r4
/home/rossierd/soo.tech/soo/optee_os/lib/libutee/tee_api_arith_mpi.c:544
    2a4c:	e24b7030 	sub	r7, fp, #48	; 0x30
/home/rossierd/soo.tech/soo/optee_os/lib/libutee/tee_api_arith_mpi.c:543
    2a50:	ebfffa94 	bl	14a8 <get_mpi>
/home/rossierd/soo.tech/soo/optee_os/lib/libutee/tee_api_arith_mpi.c:544
    2a54:	e1a01006 	mov	r1, r6
    2a58:	e1a00007 	mov	r0, r7
    2a5c:	ebfffa91 	bl	14a8 <get_mpi>
/home/rossierd/soo.tech/soo/optee_os/lib/libutee/tee_api_arith_mpi.c:546
    2a60:	e1550008 	cmp	r5, r8
    2a64:	e24b603c 	sub	r6, fp, #60	; 0x3c
/home/rossierd/soo.tech/soo/optee_os/lib/libutee/tee_api_arith_mpi.c:547
    2a68:	01a05004 	moveq	r5, r4
/home/rossierd/soo.tech/soo/optee_os/lib/libutee/tee_api_arith_mpi.c:546
    2a6c:	0a000003 	beq	2a80 <TEE_BigIntInvMod+0xa0>
/home/rossierd/soo.tech/soo/optee_os/lib/libutee/tee_api_arith_mpi.c:549
    2a70:	e1a01005 	mov	r1, r5
    2a74:	e1a00006 	mov	r0, r6
/home/rossierd/soo.tech/soo/optee_os/lib/libutee/tee_api_arith_mpi.c:541
    2a78:	e1a05006 	mov	r5, r6
/home/rossierd/soo.tech/soo/optee_os/lib/libutee/tee_api_arith_mpi.c:549
    2a7c:	ebfffa89 	bl	14a8 <get_mpi>
/home/rossierd/soo.tech/soo/optee_os/lib/libutee/tee_api_arith_mpi.c:551
    2a80:	e1a02007 	mov	r2, r7
    2a84:	e1a01005 	mov	r1, r5
    2a88:	e1a00004 	mov	r0, r4
    2a8c:	eb000e46 	bl	63ac <mbedtls_mpi_inv_mod>
    2a90:	e2502000 	subs	r2, r0, #0
    2a94:	0a000004 	beq	2aac <TEE_BigIntInvMod+0xcc>
/home/rossierd/soo.tech/soo/optee_os/lib/libutee/tee_api_arith_mpi.c:551 (discriminator 1)
    2a98:	e59f005c 	ldr	r0, [pc, #92]	; 2afc <TEE_BigIntInvMod+0x11c>
    2a9c:	e3001227 	movw	r1, #551	; 0x227
    2aa0:	e08f0000 	add	r0, pc, r0
/home/rossierd/soo.tech/soo/optee_os/lib/libutee/tee_api_arith_mpi.c:553 (discriminator 1)
    2aa4:	e28000c9 	add	r0, r0, #201	; 0xc9
    2aa8:	ebfffa70 	bl	1470 <mpi_panic>
/home/rossierd/soo.tech/soo/optee_os/lib/libutee/tee_api_arith_mpi.c:553
    2aac:	e1a01008 	mov	r1, r8
    2ab0:	e1a00004 	mov	r0, r4
    2ab4:	ebfffa9f 	bl	1538 <copy_mpi_to_bigint>
    2ab8:	e2502000 	subs	r2, r0, #0
/home/rossierd/soo.tech/soo/optee_os/lib/libutee/tee_api_arith_mpi.c:553 (discriminator 1)
    2abc:	159f003c 	ldrne	r0, [pc, #60]	; 2b00 <TEE_BigIntInvMod+0x120>
    2ac0:	13001229 	movwne	r1, #553	; 0x229
    2ac4:	108f0000 	addne	r0, pc, r0
    2ac8:	1afffff5 	bne	2aa4 <TEE_BigIntInvMod+0xc4>
/home/rossierd/soo.tech/soo/optee_os/lib/libutee/tee_api_arith_mpi.c:554
    2acc:	e1a00004 	mov	r0, r4
    2ad0:	eb00036c 	bl	3888 <mbedtls_mpi_free>
/home/rossierd/soo.tech/soo/optee_os/lib/libutee/tee_api_arith_mpi.c:555
    2ad4:	e1a00007 	mov	r0, r7
    2ad8:	eb00036a 	bl	3888 <mbedtls_mpi_free>
/home/rossierd/soo.tech/soo/optee_os/lib/libutee/tee_api_arith_mpi.c:556
    2adc:	e1550006 	cmp	r5, r6
    2ae0:	1a000001 	bne	2aec <TEE_BigIntInvMod+0x10c>
/home/rossierd/soo.tech/soo/optee_os/lib/libutee/tee_api_arith_mpi.c:557
    2ae4:	e1a00005 	mov	r0, r5
    2ae8:	eb000366 	bl	3888 <mbedtls_mpi_free>
/home/rossierd/soo.tech/soo/optee_os/lib/libutee/tee_api_arith_mpi.c:558
    2aec:	e24bd020 	sub	sp, fp, #32
    2af0:	e89da9f0 	ldm	sp, {r4, r5, r6, r7, r8, fp, sp, pc}
    2af4:	00006ba6 	.word	0x00006ba6
    2af8:	00006d6b 	.word	0x00006d6b
    2afc:	00006b22 	.word	0x00006b22
    2b00:	00006afe 	.word	0x00006afe

00002b04 <TEE_BigIntRelativePrime>:
TEE_BigIntRelativePrime():
/home/rossierd/soo.tech/soo/optee_os/lib/libutee/tee_api_arith_mpi.c:561
    2b04:	e1a0c00d 	mov	ip, sp
    2b08:	e92dd9f0 	push	{r4, r5, r6, r7, r8, fp, ip, lr, pc}
    2b0c:	e24cb004 	sub	fp, ip, #4
    2b10:	e24dd02c 	sub	sp, sp, #44	; 0x2c
/home/rossierd/soo.tech/soo/optee_os/lib/libutee/tee_api_arith_mpi.c:568
    2b14:	e24b5048 	sub	r5, fp, #72	; 0x48
/home/rossierd/soo.tech/soo/optee_os/lib/libutee/tee_api_arith_mpi.c:561
    2b18:	e1a04000 	mov	r4, r0
    2b1c:	e1a06001 	mov	r6, r1
/home/rossierd/soo.tech/soo/optee_os/lib/libutee/tee_api_arith_mpi.c:568
    2b20:	e1a01000 	mov	r1, r0
    2b24:	e1a00005 	mov	r0, r5
    2b28:	ebfffa5e 	bl	14a8 <get_mpi>
/home/rossierd/soo.tech/soo/optee_os/lib/libutee/tee_api_arith_mpi.c:570
    2b2c:	e1540006 	cmp	r4, r6
    2b30:	e24b403c 	sub	r4, fp, #60	; 0x3c
/home/rossierd/soo.tech/soo/optee_os/lib/libutee/tee_api_arith_mpi.c:571
    2b34:	01a08005 	moveq	r8, r5
/home/rossierd/soo.tech/soo/optee_os/lib/libutee/tee_api_arith_mpi.c:570
    2b38:	0a000003 	beq	2b4c <TEE_BigIntRelativePrime+0x48>
/home/rossierd/soo.tech/soo/optee_os/lib/libutee/tee_api_arith_mpi.c:573
    2b3c:	e1a01006 	mov	r1, r6
    2b40:	e1a00004 	mov	r0, r4
/home/rossierd/soo.tech/soo/optee_os/lib/libutee/tee_api_arith_mpi.c:565
    2b44:	e1a08004 	mov	r8, r4
/home/rossierd/soo.tech/soo/optee_os/lib/libutee/tee_api_arith_mpi.c:573
    2b48:	ebfffa56 	bl	14a8 <get_mpi>
get_mpi():
/home/rossierd/soo.tech/soo/optee_os/lib/libutee/tee_api_arith_mpi.c:101
    2b4c:	e24b6030 	sub	r6, fp, #48	; 0x30
    2b50:	e1a00006 	mov	r0, r6
    2b54:	eb000338 	bl	383c <mbedtls_mpi_init_mempool>
TEE_BigIntRelativePrime():
/home/rossierd/soo.tech/soo/optee_os/lib/libutee/tee_api_arith_mpi.c:577
    2b58:	e1a02004 	mov	r2, r4
    2b5c:	e1a01005 	mov	r1, r5
    2b60:	e1a00006 	mov	r0, r6
    2b64:	eb000ce4 	bl	5efc <mbedtls_mpi_gcd>
    2b68:	e2502000 	subs	r2, r0, #0
    2b6c:	0a000004 	beq	2b84 <TEE_BigIntRelativePrime+0x80>
/home/rossierd/soo.tech/soo/optee_os/lib/libutee/tee_api_arith_mpi.c:577 (discriminator 1)
    2b70:	e59f004c 	ldr	r0, [pc, #76]	; 2bc4 <TEE_BigIntRelativePrime+0xc0>
    2b74:	e3001241 	movw	r1, #577	; 0x241
    2b78:	e08f0000 	add	r0, pc, r0
    2b7c:	e28000da 	add	r0, r0, #218	; 0xda
    2b80:	ebfffa3a 	bl	1470 <mpi_panic>
/home/rossierd/soo.tech/soo/optee_os/lib/libutee/tee_api_arith_mpi.c:579
    2b84:	e3a01001 	mov	r1, #1
    2b88:	e1a00006 	mov	r0, r6
    2b8c:	eb000657 	bl	44f0 <mbedtls_mpi_cmp_int>
    2b90:	e16f7f10 	clz	r7, r0
/home/rossierd/soo.tech/soo/optee_os/lib/libutee/tee_api_arith_mpi.c:581
    2b94:	e1a00006 	mov	r0, r6
    2b98:	eb00033a 	bl	3888 <mbedtls_mpi_free>
/home/rossierd/soo.tech/soo/optee_os/lib/libutee/tee_api_arith_mpi.c:582
    2b9c:	e1a00005 	mov	r0, r5
/home/rossierd/soo.tech/soo/optee_os/lib/libutee/tee_api_arith_mpi.c:579
    2ba0:	e1a072a7 	lsr	r7, r7, #5
/home/rossierd/soo.tech/soo/optee_os/lib/libutee/tee_api_arith_mpi.c:582
    2ba4:	eb000337 	bl	3888 <mbedtls_mpi_free>
/home/rossierd/soo.tech/soo/optee_os/lib/libutee/tee_api_arith_mpi.c:583
    2ba8:	e1580004 	cmp	r8, r4
    2bac:	1a000001 	bne	2bb8 <TEE_BigIntRelativePrime+0xb4>
/home/rossierd/soo.tech/soo/optee_os/lib/libutee/tee_api_arith_mpi.c:584
    2bb0:	e1a00008 	mov	r0, r8
    2bb4:	eb000333 	bl	3888 <mbedtls_mpi_free>
/home/rossierd/soo.tech/soo/optee_os/lib/libutee/tee_api_arith_mpi.c:587
    2bb8:	e1a00007 	mov	r0, r7
    2bbc:	e24bd020 	sub	sp, fp, #32
    2bc0:	e89da9f0 	ldm	sp, {r4, r5, r6, r7, r8, fp, sp, pc}
    2bc4:	00006a4a 	.word	0x00006a4a

00002bc8 <TEE_BigIntComputeExtendedGcd>:
TEE_BigIntComputeExtendedGcd():
/home/rossierd/soo.tech/soo/optee_os/lib/libutee/tee_api_arith_mpi.c:698
    2bc8:	e1a0c00d 	mov	ip, sp
    2bcc:	e92ddff0 	push	{r4, r5, r6, r7, r8, r9, sl, fp, ip, lr, pc}
    2bd0:	e24cb004 	sub	fp, ip, #4
    2bd4:	e24dd05c 	sub	sp, sp, #92	; 0x5c
/home/rossierd/soo.tech/soo/optee_os/lib/libutee/tee_api_arith_mpi.c:704
    2bd8:	e24b6068 	sub	r6, fp, #104	; 0x68
/home/rossierd/soo.tech/soo/optee_os/lib/libutee/tee_api_arith_mpi.c:698
    2bdc:	e1a07003 	mov	r7, r3
/home/rossierd/soo.tech/soo/optee_os/lib/libutee/tee_api_arith_mpi.c:705
    2be0:	e24b505c 	sub	r5, fp, #92	; 0x5c
/home/rossierd/soo.tech/soo/optee_os/lib/libutee/tee_api_arith_mpi.c:698
    2be4:	e59b4004 	ldr	r4, [fp, #4]
    2be8:	e50b0070 	str	r0, [fp, #-112]	; 0xffffff90
    2bec:	e1a0a001 	mov	sl, r1
/home/rossierd/soo.tech/soo/optee_os/lib/libutee/tee_api_arith_mpi.c:704
    2bf0:	e1a01000 	mov	r1, r0
    2bf4:	e1a00006 	mov	r0, r6
/home/rossierd/soo.tech/soo/optee_os/lib/libutee/tee_api_arith_mpi.c:698
    2bf8:	e1a09002 	mov	r9, r2
/home/rossierd/soo.tech/soo/optee_os/lib/libutee/tee_api_arith_mpi.c:704
    2bfc:	ebfffa29 	bl	14a8 <get_mpi>
/home/rossierd/soo.tech/soo/optee_os/lib/libutee/tee_api_arith_mpi.c:705
    2c00:	e1a01007 	mov	r1, r7
    2c04:	e1a00005 	mov	r0, r5
    2c08:	ebfffa26 	bl	14a8 <get_mpi>
/home/rossierd/soo.tech/soo/optee_os/lib/libutee/tee_api_arith_mpi.c:707
    2c0c:	e1570004 	cmp	r7, r4
/home/rossierd/soo.tech/soo/optee_os/lib/libutee/tee_api_arith_mpi.c:708
    2c10:	01a04005 	moveq	r4, r5
/home/rossierd/soo.tech/soo/optee_os/lib/libutee/tee_api_arith_mpi.c:707
    2c14:	0a000003 	beq	2c28 <TEE_BigIntComputeExtendedGcd+0x60>
/home/rossierd/soo.tech/soo/optee_os/lib/libutee/tee_api_arith_mpi.c:710
    2c18:	e1a01004 	mov	r1, r4
    2c1c:	e24b4050 	sub	r4, fp, #80	; 0x50
    2c20:	e1a00004 	mov	r0, r4
    2c24:	ebfffa1f 	bl	14a8 <get_mpi>
/home/rossierd/soo.tech/soo/optee_os/lib/libutee/tee_api_arith_mpi.c:712
    2c28:	e35a0000 	cmp	sl, #0
    2c2c:	03590000 	cmpeq	r9, #0
    2c30:	1a00000d 	bne	2c6c <TEE_BigIntComputeExtendedGcd+0xa4>
/home/rossierd/soo.tech/soo/optee_os/lib/libutee/tee_api_arith_mpi.c:713
    2c34:	e51b3070 	ldr	r3, [fp, #-112]	; 0xffffff90
    2c38:	e3530000 	cmp	r3, #0
    2c3c:	0a00005f 	beq	2dc0 <TEE_BigIntComputeExtendedGcd+0x1f8>
/home/rossierd/soo.tech/soo/optee_os/lib/libutee/tee_api_arith_mpi.c:714
    2c40:	e1a02004 	mov	r2, r4
    2c44:	e1a01005 	mov	r1, r5
    2c48:	e1a00006 	mov	r0, r6
    2c4c:	eb000caa 	bl	5efc <mbedtls_mpi_gcd>
    2c50:	e2502000 	subs	r2, r0, #0
    2c54:	0a000059 	beq	2dc0 <TEE_BigIntComputeExtendedGcd+0x1f8>
/home/rossierd/soo.tech/soo/optee_os/lib/libutee/tee_api_arith_mpi.c:714 (discriminator 1)
    2c58:	e59f01ac 	ldr	r0, [pc, #428]	; 2e0c <TEE_BigIntComputeExtendedGcd+0x244>
    2c5c:	e30012cb 	movw	r1, #715	; 0x2cb
    2c60:	e08f0000 	add	r0, pc, r0
/home/rossierd/soo.tech/soo/optee_os/lib/libutee/tee_api_arith_mpi.c:731 (discriminator 1)
    2c64:	e28000f2 	add	r0, r0, #242	; 0xf2
    2c68:	ebfffa00 	bl	1470 <mpi_panic>
/home/rossierd/soo.tech/soo/optee_os/lib/libutee/tee_api_arith_mpi.c:719
    2c6c:	e15b35dc 	ldrsb	r3, [fp, #-92]	; 0xffffffa4
/home/rossierd/soo.tech/soo/optee_os/lib/libutee/tee_api_arith_mpi.c:726
    2c70:	e24b8044 	sub	r8, fp, #68	; 0x44
    2c74:	e1a0100a 	mov	r1, sl
    2c78:	e1a00008 	mov	r0, r8
/home/rossierd/soo.tech/soo/optee_os/lib/libutee/tee_api_arith_mpi.c:727
    2c7c:	e24b7038 	sub	r7, fp, #56	; 0x38
/home/rossierd/soo.tech/soo/optee_os/lib/libutee/tee_api_arith_mpi.c:719
    2c80:	e50b3074 	str	r3, [fp, #-116]	; 0xffffff8c
/home/rossierd/soo.tech/soo/optee_os/lib/libutee/tee_api_arith_mpi.c:720
    2c84:	e1d430d0 	ldrsb	r3, [r4]
    2c88:	e50b3078 	str	r3, [fp, #-120]	; 0xffffff88
/home/rossierd/soo.tech/soo/optee_os/lib/libutee/tee_api_arith_mpi.c:723
    2c8c:	e3a03001 	mov	r3, #1
/home/rossierd/soo.tech/soo/optee_os/lib/libutee/tee_api_arith_mpi.c:724
    2c90:	e50b307c 	str	r3, [fp, #-124]	; 0xffffff84
/home/rossierd/soo.tech/soo/optee_os/lib/libutee/tee_api_arith_mpi.c:723
    2c94:	e14b35bc 	strh	r3, [fp, #-92]	; 0xffffffa4
/home/rossierd/soo.tech/soo/optee_os/lib/libutee/tee_api_arith_mpi.c:724
    2c98:	e1c430b0 	strh	r3, [r4]
/home/rossierd/soo.tech/soo/optee_os/lib/libutee/tee_api_arith_mpi.c:726
    2c9c:	ebfffa01 	bl	14a8 <get_mpi>
/home/rossierd/soo.tech/soo/optee_os/lib/libutee/tee_api_arith_mpi.c:727
    2ca0:	e1a01009 	mov	r1, r9
    2ca4:	e1a00007 	mov	r0, r7
    2ca8:	ebfff9fe 	bl	14a8 <get_mpi>
/home/rossierd/soo.tech/soo/optee_os/lib/libutee/tee_api_arith_mpi.c:729
    2cac:	e1a01004 	mov	r1, r4
    2cb0:	e1a00005 	mov	r0, r5
    2cb4:	eb000595 	bl	4310 <mbedtls_mpi_cmp_abs>
/home/rossierd/soo.tech/soo/optee_os/lib/libutee/tee_api_arith_mpi.c:730
    2cb8:	e3500000 	cmp	r0, #0
    2cbc:	1a000019 	bne	2d28 <TEE_BigIntComputeExtendedGcd+0x160>
/home/rossierd/soo.tech/soo/optee_os/lib/libutee/tee_api_arith_mpi.c:731
    2cc0:	e1a01005 	mov	r1, r5
    2cc4:	e1a00006 	mov	r0, r6
    2cc8:	eb00039b 	bl	3b3c <mbedtls_mpi_copy>
    2ccc:	e2502000 	subs	r2, r0, #0
    2cd0:	e51b307c 	ldr	r3, [fp, #-124]	; 0xffffff84
/home/rossierd/soo.tech/soo/optee_os/lib/libutee/tee_api_arith_mpi.c:731 (discriminator 1)
    2cd4:	159f0134 	ldrne	r0, [pc, #308]	; 2e10 <TEE_BigIntComputeExtendedGcd+0x248>
    2cd8:	130012db 	movwne	r1, #731	; 0x2db
    2cdc:	108f0000 	addne	r0, pc, r0
    2ce0:	1affffdf 	bne	2c64 <TEE_BigIntComputeExtendedGcd+0x9c>
/home/rossierd/soo.tech/soo/optee_os/lib/libutee/tee_api_arith_mpi.c:732
    2ce4:	e1a01003 	mov	r1, r3
    2ce8:	e1a00008 	mov	r0, r8
    2cec:	eb000432 	bl	3dbc <mbedtls_mpi_lset>
    2cf0:	e2502000 	subs	r2, r0, #0
/home/rossierd/soo.tech/soo/optee_os/lib/libutee/tee_api_arith_mpi.c:732 (discriminator 1)
    2cf4:	159f0118 	ldrne	r0, [pc, #280]	; 2e14 <TEE_BigIntComputeExtendedGcd+0x24c>
    2cf8:	13a01fb7 	movne	r1, #732	; 0x2dc
    2cfc:	108f0000 	addne	r0, pc, r0
    2d00:	1affffd7 	bne	2c64 <TEE_BigIntComputeExtendedGcd+0x9c>
/home/rossierd/soo.tech/soo/optee_os/lib/libutee/tee_api_arith_mpi.c:733
    2d04:	e1a01002 	mov	r1, r2
    2d08:	e1a00007 	mov	r0, r7
    2d0c:	eb00042a 	bl	3dbc <mbedtls_mpi_lset>
    2d10:	e2502000 	subs	r2, r0, #0
    2d14:	0a00000d 	beq	2d50 <TEE_BigIntComputeExtendedGcd+0x188>
/home/rossierd/soo.tech/soo/optee_os/lib/libutee/tee_api_arith_mpi.c:733 (discriminator 1)
    2d18:	e59f00f8 	ldr	r0, [pc, #248]	; 2e18 <TEE_BigIntComputeExtendedGcd+0x250>
    2d1c:	e30012dd 	movw	r1, #733	; 0x2dd
    2d20:	e08f0000 	add	r0, pc, r0
    2d24:	eaffffce 	b	2c64 <TEE_BigIntComputeExtendedGcd+0x9c>
/home/rossierd/soo.tech/soo/optee_os/lib/libutee/tee_api_arith_mpi.c:735
    2d28:	c1a03005 	movgt	r3, r5
    2d2c:	c1a02007 	movgt	r2, r7
    2d30:	c58d4000 	strgt	r4, [sp]
    2d34:	c1a01008 	movgt	r1, r8
/home/rossierd/soo.tech/soo/optee_os/lib/libutee/tee_api_arith_mpi.c:737
    2d38:	d1a03004 	movle	r3, r4
    2d3c:	d58d5000 	strle	r5, [sp]
    2d40:	d1a02008 	movle	r2, r8
    2d44:	d1a01007 	movle	r1, r7
    2d48:	e1a00006 	mov	r0, r6
    2d4c:	ebfffa6c 	bl	1704 <mpi_egcd>
/home/rossierd/soo.tech/soo/optee_os/lib/libutee/tee_api_arith_mpi.c:740
    2d50:	e15b34b4 	ldrh	r3, [fp, #-68]	; 0xffffffbc
/home/rossierd/soo.tech/soo/optee_os/lib/libutee/tee_api_arith_mpi.c:743
    2d54:	e1a0100a 	mov	r1, sl
    2d58:	e1a00008 	mov	r0, r8
/home/rossierd/soo.tech/soo/optee_os/lib/libutee/tee_api_arith_mpi.c:740
    2d5c:	e15b27b4 	ldrh	r2, [fp, #-116]	; 0xffffff8c
    2d60:	e1630283 	smulbb	r3, r3, r2
/home/rossierd/soo.tech/soo/optee_os/lib/libutee/tee_api_arith_mpi.c:741
    2d64:	e15b27b8 	ldrh	r2, [fp, #-120]	; 0xffffff88
/home/rossierd/soo.tech/soo/optee_os/lib/libutee/tee_api_arith_mpi.c:740
    2d68:	e14b34b4 	strh	r3, [fp, #-68]	; 0xffffffbc
/home/rossierd/soo.tech/soo/optee_os/lib/libutee/tee_api_arith_mpi.c:741
    2d6c:	e15b33b8 	ldrh	r3, [fp, #-56]	; 0xffffffc8
    2d70:	e1630283 	smulbb	r3, r3, r2
    2d74:	e14b33b8 	strh	r3, [fp, #-56]	; 0xffffffc8
/home/rossierd/soo.tech/soo/optee_os/lib/libutee/tee_api_arith_mpi.c:743
    2d78:	ebfff9ee 	bl	1538 <copy_mpi_to_bigint>
    2d7c:	e2502000 	subs	r2, r0, #0
/home/rossierd/soo.tech/soo/optee_os/lib/libutee/tee_api_arith_mpi.c:743 (discriminator 1)
    2d80:	159f0094 	ldrne	r0, [pc, #148]	; 2e1c <TEE_BigIntComputeExtendedGcd+0x254>
    2d84:	130012e7 	movwne	r1, #743	; 0x2e7
    2d88:	108f0000 	addne	r0, pc, r0
    2d8c:	1affffb4 	bne	2c64 <TEE_BigIntComputeExtendedGcd+0x9c>
/home/rossierd/soo.tech/soo/optee_os/lib/libutee/tee_api_arith_mpi.c:744
    2d90:	e1a01009 	mov	r1, r9
    2d94:	e1a00007 	mov	r0, r7
    2d98:	ebfff9e6 	bl	1538 <copy_mpi_to_bigint>
    2d9c:	e2502000 	subs	r2, r0, #0
/home/rossierd/soo.tech/soo/optee_os/lib/libutee/tee_api_arith_mpi.c:744 (discriminator 1)
    2da0:	159f0078 	ldrne	r0, [pc, #120]	; 2e20 <TEE_BigIntComputeExtendedGcd+0x258>
    2da4:	13a01fba 	movne	r1, #744	; 0x2e8
    2da8:	108f0000 	addne	r0, pc, r0
    2dac:	1affffac 	bne	2c64 <TEE_BigIntComputeExtendedGcd+0x9c>
/home/rossierd/soo.tech/soo/optee_os/lib/libutee/tee_api_arith_mpi.c:745
    2db0:	e1a00008 	mov	r0, r8
    2db4:	eb0002b3 	bl	3888 <mbedtls_mpi_free>
/home/rossierd/soo.tech/soo/optee_os/lib/libutee/tee_api_arith_mpi.c:746
    2db8:	e1a00007 	mov	r0, r7
    2dbc:	eb0002b1 	bl	3888 <mbedtls_mpi_free>
/home/rossierd/soo.tech/soo/optee_os/lib/libutee/tee_api_arith_mpi.c:749
    2dc0:	e1a00006 	mov	r0, r6
    2dc4:	e51b1070 	ldr	r1, [fp, #-112]	; 0xffffff90
    2dc8:	ebfff9da 	bl	1538 <copy_mpi_to_bigint>
    2dcc:	e2502000 	subs	r2, r0, #0
/home/rossierd/soo.tech/soo/optee_os/lib/libutee/tee_api_arith_mpi.c:749 (discriminator 1)
    2dd0:	159f004c 	ldrne	r0, [pc, #76]	; 2e24 <TEE_BigIntComputeExtendedGcd+0x25c>
    2dd4:	130012ed 	movwne	r1, #749	; 0x2ed
    2dd8:	108f0000 	addne	r0, pc, r0
    2ddc:	1affffa0 	bne	2c64 <TEE_BigIntComputeExtendedGcd+0x9c>
/home/rossierd/soo.tech/soo/optee_os/lib/libutee/tee_api_arith_mpi.c:750
    2de0:	e1a00006 	mov	r0, r6
    2de4:	eb0002a7 	bl	3888 <mbedtls_mpi_free>
/home/rossierd/soo.tech/soo/optee_os/lib/libutee/tee_api_arith_mpi.c:751
    2de8:	e1a00005 	mov	r0, r5
    2dec:	eb0002a5 	bl	3888 <mbedtls_mpi_free>
/home/rossierd/soo.tech/soo/optee_os/lib/libutee/tee_api_arith_mpi.c:752
    2df0:	e24b3050 	sub	r3, fp, #80	; 0x50
    2df4:	e1540003 	cmp	r4, r3
    2df8:	1a000001 	bne	2e04 <TEE_BigIntComputeExtendedGcd+0x23c>
/home/rossierd/soo.tech/soo/optee_os/lib/libutee/tee_api_arith_mpi.c:753
    2dfc:	e1a00004 	mov	r0, r4
    2e00:	eb0002a0 	bl	3888 <mbedtls_mpi_free>
/home/rossierd/soo.tech/soo/optee_os/lib/libutee/tee_api_arith_mpi.c:754
    2e04:	e24bd028 	sub	sp, fp, #40	; 0x28
    2e08:	e89daff0 	ldm	sp, {r4, r5, r6, r7, r8, r9, sl, fp, sp, pc}
    2e0c:	00006962 	.word	0x00006962
    2e10:	000068e6 	.word	0x000068e6
    2e14:	000068c6 	.word	0x000068c6
    2e18:	000068a2 	.word	0x000068a2
    2e1c:	0000683a 	.word	0x0000683a
    2e20:	0000681a 	.word	0x0000681a
    2e24:	000067ea 	.word	0x000067ea

00002e28 <TEE_BigIntIsProbablePrime>:
TEE_BigIntIsProbablePrime():
/home/rossierd/soo.tech/soo/optee_os/lib/libutee/tee_api_arith_mpi.c:765
    2e28:	e1a0c00d 	mov	ip, sp
/home/rossierd/soo.tech/soo/optee_os/lib/libutee/tee_api_arith_mpi.c:769
    2e2c:	e1a01000 	mov	r1, r0
/home/rossierd/soo.tech/soo/optee_os/lib/libutee/tee_api_arith_mpi.c:765
    2e30:	e92dd830 	push	{r4, r5, fp, ip, lr, pc}
    2e34:	e24cb004 	sub	fp, ip, #4
    2e38:	e24dd010 	sub	sp, sp, #16
/home/rossierd/soo.tech/soo/optee_os/lib/libutee/tee_api_arith_mpi.c:769
    2e3c:	e24b4020 	sub	r4, fp, #32
    2e40:	e1a00004 	mov	r0, r4
    2e44:	ebfff997 	bl	14a8 <get_mpi>
/home/rossierd/soo.tech/soo/optee_os/lib/libutee/tee_api_arith_mpi.c:771
    2e48:	e59f1028 	ldr	r1, [pc, #40]	; 2e78 <TEE_BigIntIsProbablePrime+0x50>
    2e4c:	e3a02000 	mov	r2, #0
    2e50:	e1a00004 	mov	r0, r4
    2e54:	e08f1001 	add	r1, pc, r1
    2e58:	eb000e93 	bl	68ac <mbedtls_mpi_is_prime>
    2e5c:	e1a05000 	mov	r5, r0
/home/rossierd/soo.tech/soo/optee_os/lib/libutee/tee_api_arith_mpi.c:773
    2e60:	e1a00004 	mov	r0, r4
    2e64:	eb000287 	bl	3888 <mbedtls_mpi_free>
/home/rossierd/soo.tech/soo/optee_os/lib/libutee/tee_api_arith_mpi.c:779
    2e68:	e16f0f15 	clz	r0, r5
    2e6c:	e1a002a0 	lsr	r0, r0, #5
    2e70:	e24bd014 	sub	sp, fp, #20
    2e74:	e89da830 	ldm	sp, {r4, r5, fp, sp, pc}
    2e78:	ffffe880 	.word	0xffffe880

00002e7c <TEE_BigIntInitFMM>:
TEE_BigIntInitFMM():
/home/rossierd/soo.tech/soo/optee_os/lib/libutee/tee_api_arith_mpi.c:790
    2e7c:	e1a0c00d 	mov	ip, sp
    2e80:	e92dd800 	push	{fp, ip, lr, pc}
    2e84:	e24cb004 	sub	fp, ip, #4
/home/rossierd/soo.tech/soo/optee_os/lib/libutee/tee_api_arith_mpi.c:792
    2e88:	e24bd00c 	sub	sp, fp, #12
    2e8c:	e89d6800 	ldm	sp, {fp, sp, lr}
/home/rossierd/soo.tech/soo/optee_os/lib/libutee/tee_api_arith_mpi.c:791
    2e90:	eafffbd1 	b	1ddc <TEE_BigIntInit>

00002e94 <TEE_BigIntInitFMMContext>:
TEE_BigIntInitFMMContext():
/home/rossierd/soo.tech/soo/optee_os/lib/libutee/tee_api_arith_mpi.c:797
    2e94:	e1a0c00d 	mov	ip, sp
    2e98:	e92dd800 	push	{fp, ip, lr, pc}
    2e9c:	e24cb004 	sub	fp, ip, #4
    2ea0:	e89da800 	ldm	sp, {fp, sp, pc}

00002ea4 <TEE_BigIntFMMSizeInU32>:
TEE_BigIntFMMSizeInU32():
/home/rossierd/soo.tech/soo/optee_os/lib/libutee/tee_api_arith_mpi.c:802
    2ea4:	e280001f 	add	r0, r0, #31
/home/rossierd/soo.tech/soo/optee_os/lib/libutee/tee_api_arith_mpi.c:801
    2ea8:	e1a0c00d 	mov	ip, sp
/home/rossierd/soo.tech/soo/optee_os/lib/libutee/tee_api_arith_mpi.c:802
    2eac:	e1a002a0 	lsr	r0, r0, #5
/home/rossierd/soo.tech/soo/optee_os/lib/libutee/tee_api_arith_mpi.c:801
    2eb0:	e92dd800 	push	{fp, ip, lr, pc}
    2eb4:	e24cb004 	sub	fp, ip, #4
/home/rossierd/soo.tech/soo/optee_os/lib/libutee/tee_api_arith_mpi.c:803
    2eb8:	e2800002 	add	r0, r0, #2
    2ebc:	e89da800 	ldm	sp, {fp, sp, pc}

00002ec0 <TEE_BigIntFMMContextSizeInU32>:
TEE_BigIntFMMContextSizeInU32():
/home/rossierd/soo.tech/soo/optee_os/lib/libutee/tee_api_arith_mpi.c:806
    2ec0:	e1a0c00d 	mov	ip, sp
/home/rossierd/soo.tech/soo/optee_os/lib/libutee/tee_api_arith_mpi.c:809
    2ec4:	e3a00001 	mov	r0, #1
/home/rossierd/soo.tech/soo/optee_os/lib/libutee/tee_api_arith_mpi.c:806
    2ec8:	e92dd800 	push	{fp, ip, lr, pc}
    2ecc:	e24cb004 	sub	fp, ip, #4
/home/rossierd/soo.tech/soo/optee_os/lib/libutee/tee_api_arith_mpi.c:809
    2ed0:	e89da800 	ldm	sp, {fp, sp, pc}

00002ed4 <TEE_BigIntConvertToFMM>:
TEE_BigIntConvertToFMM():
/home/rossierd/soo.tech/soo/optee_os/lib/libutee/tee_api_arith_mpi.c:814
    2ed4:	e1a0c00d 	mov	ip, sp
    2ed8:	e92dd800 	push	{fp, ip, lr, pc}
    2edc:	e24cb004 	sub	fp, ip, #4
/home/rossierd/soo.tech/soo/optee_os/lib/libutee/tee_api_arith_mpi.c:816
    2ee0:	e24bd00c 	sub	sp, fp, #12
    2ee4:	e89d6800 	ldm	sp, {fp, sp, lr}
/home/rossierd/soo.tech/soo/optee_os/lib/libutee/tee_api_arith_mpi.c:815
    2ee8:	eafffe68 	b	2890 <TEE_BigIntMod>

00002eec <TEE_BigIntConvertFromFMM>:
TEE_BigIntConvertFromFMM():
/home/rossierd/soo.tech/soo/optee_os/lib/libutee/tee_api_arith_mpi.c:821
    2eec:	e1a0c00d 	mov	ip, sp
    2ef0:	e92dd8f0 	push	{r4, r5, r6, r7, fp, ip, lr, pc}
    2ef4:	e24cb004 	sub	fp, ip, #4
    2ef8:	e24dd018 	sub	sp, sp, #24
/home/rossierd/soo.tech/soo/optee_os/lib/libutee/tee_api_arith_mpi.c:825
    2efc:	e24b4034 	sub	r4, fp, #52	; 0x34
/home/rossierd/soo.tech/soo/optee_os/lib/libutee/tee_api_arith_mpi.c:821
    2f00:	e1a07001 	mov	r7, r1
/home/rossierd/soo.tech/soo/optee_os/lib/libutee/tee_api_arith_mpi.c:826
    2f04:	e24b5028 	sub	r5, fp, #40	; 0x28
/home/rossierd/soo.tech/soo/optee_os/lib/libutee/tee_api_arith_mpi.c:825
    2f08:	e1a01000 	mov	r1, r0
/home/rossierd/soo.tech/soo/optee_os/lib/libutee/tee_api_arith_mpi.c:821
    2f0c:	e1a06000 	mov	r6, r0
/home/rossierd/soo.tech/soo/optee_os/lib/libutee/tee_api_arith_mpi.c:825
    2f10:	e1a00004 	mov	r0, r4
    2f14:	ebfff963 	bl	14a8 <get_mpi>
/home/rossierd/soo.tech/soo/optee_os/lib/libutee/tee_api_arith_mpi.c:826
    2f18:	e1a01007 	mov	r1, r7
    2f1c:	e1a00005 	mov	r0, r5
    2f20:	ebfff960 	bl	14a8 <get_mpi>
/home/rossierd/soo.tech/soo/optee_os/lib/libutee/tee_api_arith_mpi.c:828
    2f24:	e1a01005 	mov	r1, r5
    2f28:	e1a00004 	mov	r0, r4
    2f2c:	eb000302 	bl	3b3c <mbedtls_mpi_copy>
    2f30:	e2502000 	subs	r2, r0, #0
    2f34:	0a000005 	beq	2f50 <TEE_BigIntConvertFromFMM+0x64>
/home/rossierd/soo.tech/soo/optee_os/lib/libutee/tee_api_arith_mpi.c:828 (discriminator 1)
    2f38:	e59f0048 	ldr	r0, [pc, #72]	; 2f88 <TEE_BigIntConvertFromFMM+0x9c>
    2f3c:	e3a01fcf 	mov	r1, #828	; 0x33c
    2f40:	e08f0000 	add	r0, pc, r0
/home/rossierd/soo.tech/soo/optee_os/lib/libutee/tee_api_arith_mpi.c:830 (discriminator 1)
    2f44:	e2800f43 	add	r0, r0, #268	; 0x10c
    2f48:	e2800003 	add	r0, r0, #3
    2f4c:	ebfff947 	bl	1470 <mpi_panic>
/home/rossierd/soo.tech/soo/optee_os/lib/libutee/tee_api_arith_mpi.c:830
    2f50:	e1a01006 	mov	r1, r6
    2f54:	e1a00004 	mov	r0, r4
    2f58:	ebfff976 	bl	1538 <copy_mpi_to_bigint>
    2f5c:	e2502000 	subs	r2, r0, #0
/home/rossierd/soo.tech/soo/optee_os/lib/libutee/tee_api_arith_mpi.c:830 (discriminator 1)
    2f60:	159f0024 	ldrne	r0, [pc, #36]	; 2f8c <TEE_BigIntConvertFromFMM+0xa0>
    2f64:	1300133e 	movwne	r1, #830	; 0x33e
    2f68:	108f0000 	addne	r0, pc, r0
    2f6c:	1afffff4 	bne	2f44 <TEE_BigIntConvertFromFMM+0x58>
/home/rossierd/soo.tech/soo/optee_os/lib/libutee/tee_api_arith_mpi.c:831
    2f70:	e1a00004 	mov	r0, r4
    2f74:	eb000243 	bl	3888 <mbedtls_mpi_free>
/home/rossierd/soo.tech/soo/optee_os/lib/libutee/tee_api_arith_mpi.c:832
    2f78:	e1a00005 	mov	r0, r5
    2f7c:	eb000241 	bl	3888 <mbedtls_mpi_free>
/home/rossierd/soo.tech/soo/optee_os/lib/libutee/tee_api_arith_mpi.c:833
    2f80:	e24bd01c 	sub	sp, fp, #28
    2f84:	e89da8f0 	ldm	sp, {r4, r5, r6, r7, fp, sp, pc}
    2f88:	00006682 	.word	0x00006682
    2f8c:	0000665a 	.word	0x0000665a

00002f90 <TEE_BigIntComputeFMM>:
TEE_BigIntComputeFMM():
/home/rossierd/soo.tech/soo/optee_os/lib/libutee/tee_api_arith_mpi.c:838
    2f90:	e1a0c00d 	mov	ip, sp
    2f94:	e92ddbf0 	push	{r4, r5, r6, r7, r8, r9, fp, ip, lr, pc}
    2f98:	e24cb004 	sub	fp, ip, #4
    2f9c:	e24dd040 	sub	sp, sp, #64	; 0x40
/home/rossierd/soo.tech/soo/optee_os/lib/libutee/tee_api_arith_mpi.c:845
    2fa0:	e24b4060 	sub	r4, fp, #96	; 0x60
/home/rossierd/soo.tech/soo/optee_os/lib/libutee/tee_api_arith_mpi.c:838
    2fa4:	e1a07001 	mov	r7, r1
/home/rossierd/soo.tech/soo/optee_os/lib/libutee/tee_api_arith_mpi.c:846
    2fa8:	e24b6054 	sub	r6, fp, #84	; 0x54
/home/rossierd/soo.tech/soo/optee_os/lib/libutee/tee_api_arith_mpi.c:845
    2fac:	e1a01000 	mov	r1, r0
/home/rossierd/soo.tech/soo/optee_os/lib/libutee/tee_api_arith_mpi.c:838
    2fb0:	e1a09000 	mov	r9, r0
/home/rossierd/soo.tech/soo/optee_os/lib/libutee/tee_api_arith_mpi.c:845
    2fb4:	e1a00004 	mov	r0, r4
/home/rossierd/soo.tech/soo/optee_os/lib/libutee/tee_api_arith_mpi.c:838
    2fb8:	e1a08002 	mov	r8, r2
    2fbc:	e1a05003 	mov	r5, r3
/home/rossierd/soo.tech/soo/optee_os/lib/libutee/tee_api_arith_mpi.c:845
    2fc0:	ebfff938 	bl	14a8 <get_mpi>
/home/rossierd/soo.tech/soo/optee_os/lib/libutee/tee_api_arith_mpi.c:846
    2fc4:	e1a01007 	mov	r1, r7
    2fc8:	e1a00006 	mov	r0, r6
/home/rossierd/soo.tech/soo/optee_os/lib/libutee/tee_api_arith_mpi.c:847
    2fcc:	e24b7048 	sub	r7, fp, #72	; 0x48
/home/rossierd/soo.tech/soo/optee_os/lib/libutee/tee_api_arith_mpi.c:846
    2fd0:	ebfff934 	bl	14a8 <get_mpi>
/home/rossierd/soo.tech/soo/optee_os/lib/libutee/tee_api_arith_mpi.c:847
    2fd4:	e1a01008 	mov	r1, r8
    2fd8:	e1a00007 	mov	r0, r7
/home/rossierd/soo.tech/soo/optee_os/lib/libutee/tee_api_arith_mpi.c:848
    2fdc:	e24b803c 	sub	r8, fp, #60	; 0x3c
/home/rossierd/soo.tech/soo/optee_os/lib/libutee/tee_api_arith_mpi.c:847
    2fe0:	ebfff930 	bl	14a8 <get_mpi>
/home/rossierd/soo.tech/soo/optee_os/lib/libutee/tee_api_arith_mpi.c:848
    2fe4:	e1a01005 	mov	r1, r5
    2fe8:	e1a00008 	mov	r0, r8
get_mpi():
/home/rossierd/soo.tech/soo/optee_os/lib/libutee/tee_api_arith_mpi.c:101
    2fec:	e24b5030 	sub	r5, fp, #48	; 0x30
TEE_BigIntComputeFMM():
/home/rossierd/soo.tech/soo/optee_os/lib/libutee/tee_api_arith_mpi.c:848
    2ff0:	ebfff92c 	bl	14a8 <get_mpi>
get_mpi():
/home/rossierd/soo.tech/soo/optee_os/lib/libutee/tee_api_arith_mpi.c:101
    2ff4:	e1a00005 	mov	r0, r5
    2ff8:	eb00020f 	bl	383c <mbedtls_mpi_init_mempool>
TEE_BigIntComputeFMM():
/home/rossierd/soo.tech/soo/optee_os/lib/libutee/tee_api_arith_mpi.c:851
    2ffc:	e1a02007 	mov	r2, r7
    3000:	e1a01006 	mov	r1, r6
    3004:	e1a00005 	mov	r0, r5
    3008:	eb00063b 	bl	48fc <mbedtls_mpi_mul_mpi>
    300c:	e2502000 	subs	r2, r0, #0
    3010:	0a000004 	beq	3028 <TEE_BigIntComputeFMM+0x98>
/home/rossierd/soo.tech/soo/optee_os/lib/libutee/tee_api_arith_mpi.c:851 (discriminator 1)
    3014:	e59f0080 	ldr	r0, [pc, #128]	; 309c <TEE_BigIntComputeFMM+0x10c>
    3018:	e3001353 	movw	r1, #851	; 0x353
    301c:	e08f0000 	add	r0, pc, r0
/home/rossierd/soo.tech/soo/optee_os/lib/libutee/tee_api_arith_mpi.c:852 (discriminator 1)
    3020:	e2800f4a 	add	r0, r0, #296	; 0x128
    3024:	ebfff911 	bl	1470 <mpi_panic>
/home/rossierd/soo.tech/soo/optee_os/lib/libutee/tee_api_arith_mpi.c:852
    3028:	e1a02008 	mov	r2, r8
    302c:	e1a01005 	mov	r1, r5
    3030:	e1a00004 	mov	r0, r4
    3034:	eb000885 	bl	5250 <mbedtls_mpi_mod_mpi>
    3038:	e2502000 	subs	r2, r0, #0
/home/rossierd/soo.tech/soo/optee_os/lib/libutee/tee_api_arith_mpi.c:852 (discriminator 1)
    303c:	159f005c 	ldrne	r0, [pc, #92]	; 30a0 <TEE_BigIntComputeFMM+0x110>
    3040:	13a01fd5 	movne	r1, #852	; 0x354
    3044:	108f0000 	addne	r0, pc, r0
    3048:	1afffff4 	bne	3020 <TEE_BigIntComputeFMM+0x90>
/home/rossierd/soo.tech/soo/optee_os/lib/libutee/tee_api_arith_mpi.c:854
    304c:	e1a00005 	mov	r0, r5
    3050:	eb00020c 	bl	3888 <mbedtls_mpi_free>
/home/rossierd/soo.tech/soo/optee_os/lib/libutee/tee_api_arith_mpi.c:855
    3054:	e1a00008 	mov	r0, r8
    3058:	eb00020a 	bl	3888 <mbedtls_mpi_free>
/home/rossierd/soo.tech/soo/optee_os/lib/libutee/tee_api_arith_mpi.c:856
    305c:	e1a00007 	mov	r0, r7
    3060:	eb000208 	bl	3888 <mbedtls_mpi_free>
/home/rossierd/soo.tech/soo/optee_os/lib/libutee/tee_api_arith_mpi.c:857
    3064:	e1a00006 	mov	r0, r6
    3068:	eb000206 	bl	3888 <mbedtls_mpi_free>
/home/rossierd/soo.tech/soo/optee_os/lib/libutee/tee_api_arith_mpi.c:858
    306c:	e1a01009 	mov	r1, r9
    3070:	e1a00004 	mov	r0, r4
    3074:	ebfff92f 	bl	1538 <copy_mpi_to_bigint>
    3078:	e2502000 	subs	r2, r0, #0
/home/rossierd/soo.tech/soo/optee_os/lib/libutee/tee_api_arith_mpi.c:858 (discriminator 1)
    307c:	159f0020 	ldrne	r0, [pc, #32]	; 30a4 <TEE_BigIntComputeFMM+0x114>
    3080:	1300135a 	movwne	r1, #858	; 0x35a
    3084:	108f0000 	addne	r0, pc, r0
    3088:	1affffe4 	bne	3020 <TEE_BigIntComputeFMM+0x90>
/home/rossierd/soo.tech/soo/optee_os/lib/libutee/tee_api_arith_mpi.c:859
    308c:	e1a00004 	mov	r0, r4
    3090:	eb0001fc 	bl	3888 <mbedtls_mpi_free>
/home/rossierd/soo.tech/soo/optee_os/lib/libutee/tee_api_arith_mpi.c:860
    3094:	e24bd024 	sub	sp, fp, #36	; 0x24
    3098:	e89dabf0 	ldm	sp, {r4, r5, r6, r7, r8, r9, fp, sp, pc}
    309c:	000065a6 	.word	0x000065a6
    30a0:	0000657e 	.word	0x0000657e
    30a4:	0000653e 	.word	0x0000653e

000030a8 <api_panic>:
api_panic():
/home/rossierd/soo.tech/soo/optee_os/lib/libutee/tee_api_arith_mpi.c:20
    30a8:	e1a03002 	mov	r3, r2
    30ac:	e1a02001 	mov	r2, r1
    30b0:	e1a01000 	mov	r1, r0
    30b4:	e59f001c 	ldr	r0, [pc, #28]	; 30d8 <api_panic+0x30>
/home/rossierd/soo.tech/soo/optee_os/lib/libutee/tee_api_arith_mpi.c:19
    30b8:	e1a0c00d 	mov	ip, sp
    30bc:	e92dd800 	push	{fp, ip, lr, pc}
    30c0:	e24cb004 	sub	fp, ip, #4
/home/rossierd/soo.tech/soo/optee_os/lib/libutee/tee_api_arith_mpi.c:20
    30c4:	e08f0000 	add	r0, pc, r0
    30c8:	eb000013 	bl	311c <printf>
/home/rossierd/soo.tech/soo/optee_os/lib/libutee/tee_api_arith_mpi.c:21
    30cc:	e59f0008 	ldr	r0, [pc, #8]	; 30dc <api_panic+0x34>
    30d0:	ebfff87d 	bl	12cc <TEE_Panic>
    30d4:	eafffffe 	b	30d4 <api_panic+0x2c>
    30d8:	0000663b 	.word	0x0000663b
    30dc:	00b16127 	.word	0x00b16127

000030e0 <trace_ext_puts>:
trace_ext_puts():
/home/rossierd/soo.tech/soo/optee_os/lib/libutee/trace_ext.c:17
    30e0:	e1a0c00d 	mov	ip, sp
    30e4:	e92dd830 	push	{r4, r5, fp, ip, lr, pc}
    30e8:	e24cb004 	sub	fp, ip, #4
    30ec:	e1a04000 	mov	r4, r0
/home/rossierd/soo.tech/soo/optee_os/lib/libutee/trace_ext.c:18
    30f0:	eb00137f 	bl	7ef4 <strlen>
    30f4:	e1a01000 	mov	r1, r0
    30f8:	e1a00004 	mov	r0, r4
/home/rossierd/soo.tech/soo/optee_os/lib/libutee/trace_ext.c:19
    30fc:	e24bd014 	sub	sp, fp, #20
    3100:	e89d6830 	ldm	sp, {r4, r5, fp, sp, lr}
/home/rossierd/soo.tech/soo/optee_os/lib/libutee/trace_ext.c:18
    3104:	eafff413 	b	158 <utee_log>

00003108 <trace_ext_get_thread_id>:
trace_ext_get_thread_id():
/home/rossierd/soo.tech/soo/optee_os/lib/libutee/trace_ext.c:22
    3108:	e1a0c00d 	mov	ip, sp
/home/rossierd/soo.tech/soo/optee_os/lib/libutee/trace_ext.c:24
    310c:	e3e00000 	mvn	r0, #0
/home/rossierd/soo.tech/soo/optee_os/lib/libutee/trace_ext.c:22
    3110:	e92dd800 	push	{fp, ip, lr, pc}
    3114:	e24cb004 	sub	fp, ip, #4
/home/rossierd/soo.tech/soo/optee_os/lib/libutee/trace_ext.c:24
    3118:	e89da800 	ldm	sp, {fp, sp, pc}

0000311c <printf>:
printf():
/home/rossierd/soo.tech/soo/optee_os/lib/libutee/trace_ext.c:32
    311c:	e1a0c00d 	mov	ip, sp
    3120:	e92d000f 	push	{r0, r1, r2, r3}
    3124:	e92dd830 	push	{r4, r5, fp, ip, lr, pc}
    3128:	e24cb014 	sub	fp, ip, #20
    312c:	e24ddf42 	sub	sp, sp, #264	; 0x108
/home/rossierd/soo.tech/soo/optee_os/lib/libutee/trace_ext.c:37
    3130:	eb0016b2 	bl	8c00 <trace_get_level>
    3134:	e3500000 	cmp	r0, #0
/home/rossierd/soo.tech/soo/optee_os/lib/libutee/trace_ext.c:38
    3138:	d3a04000 	movle	r4, #0
/home/rossierd/soo.tech/soo/optee_os/lib/libutee/trace_ext.c:37
    313c:	da00000a 	ble	316c <printf+0x50>
/home/rossierd/soo.tech/soo/optee_os/lib/libutee/trace_ext.c:40
    3140:	e28b3008 	add	r3, fp, #8
/home/rossierd/soo.tech/soo/optee_os/lib/libutee/trace_ext.c:41
    3144:	e24b5f45 	sub	r5, fp, #276	; 0x114
    3148:	e59b2004 	ldr	r2, [fp, #4]
    314c:	e3a01c01 	mov	r1, #256	; 0x100
    3150:	e1a00005 	mov	r0, r5
/home/rossierd/soo.tech/soo/optee_os/lib/libutee/trace_ext.c:40
    3154:	e50b3118 	str	r3, [fp, #-280]	; 0xfffffee8
/home/rossierd/soo.tech/soo/optee_os/lib/libutee/trace_ext.c:41
    3158:	eb001330 	bl	7e20 <vsnprintf>
/home/rossierd/soo.tech/soo/optee_os/lib/libutee/trace_ext.c:44
    315c:	e2504000 	subs	r4, r0, #0
    3160:	ba000001 	blt	316c <printf+0x50>
/home/rossierd/soo.tech/soo/optee_os/lib/libutee/trace_ext.c:47
    3164:	e1a00005 	mov	r0, r5
    3168:	ebffffdc 	bl	30e0 <trace_ext_puts>
/home/rossierd/soo.tech/soo/optee_os/lib/libutee/trace_ext.c:50
    316c:	e1a00004 	mov	r0, r4
    3170:	e24bd014 	sub	sp, fp, #20
    3174:	e89da830 	ldm	sp, {r4, r5, fp, sp, pc}

00003178 <puts>:
puts():
/home/rossierd/soo.tech/soo/optee_os/lib/libutee/trace_ext.c:53
    3178:	e1a0c00d 	mov	ip, sp
    317c:	e92dd830 	push	{r4, r5, fp, ip, lr, pc}
    3180:	e24cb004 	sub	fp, ip, #4
    3184:	e1a04000 	mov	r4, r0
/home/rossierd/soo.tech/soo/optee_os/lib/libutee/trace_ext.c:54
    3188:	eb00169c 	bl	8c00 <trace_get_level>
    318c:	e3500000 	cmp	r0, #0
    3190:	da000004 	ble	31a8 <puts+0x30>
/home/rossierd/soo.tech/soo/optee_os/lib/libutee/trace_ext.c:55
    3194:	e1a00004 	mov	r0, r4
    3198:	ebffffd0 	bl	30e0 <trace_ext_puts>
/home/rossierd/soo.tech/soo/optee_os/lib/libutee/trace_ext.c:56
    319c:	e59f000c 	ldr	r0, [pc, #12]	; 31b0 <puts+0x38>
    31a0:	e08f0000 	add	r0, pc, r0
    31a4:	ebffffcd 	bl	30e0 <trace_ext_puts>
/home/rossierd/soo.tech/soo/optee_os/lib/libutee/trace_ext.c:59
    31a8:	e3a00001 	mov	r0, #1
    31ac:	e89da830 	ldm	sp, {r4, r5, fp, sp, pc}
    31b0:	00006a71 	.word	0x00006a71

000031b4 <putchar>:
putchar():
/home/rossierd/soo.tech/soo/optee_os/lib/libutee/trace_ext.c:62
    31b4:	e1a0c00d 	mov	ip, sp
/home/rossierd/soo.tech/soo/optee_os/lib/libutee/trace_ext.c:63
    31b8:	e3a03000 	mov	r3, #0
/home/rossierd/soo.tech/soo/optee_os/lib/libutee/trace_ext.c:62
    31bc:	e92dd810 	push	{r4, fp, ip, lr, pc}
    31c0:	e24cb004 	sub	fp, ip, #4
    31c4:	e24dd00c 	sub	sp, sp, #12
    31c8:	e1a04000 	mov	r4, r0
/home/rossierd/soo.tech/soo/optee_os/lib/libutee/trace_ext.c:63
    31cc:	e54b0018 	strb	r0, [fp, #-24]	; 0xffffffe8
    31d0:	e54b3017 	strb	r3, [fp, #-23]	; 0xffffffe9
/home/rossierd/soo.tech/soo/optee_os/lib/libutee/trace_ext.c:65
    31d4:	eb001689 	bl	8c00 <trace_get_level>
    31d8:	e3500000 	cmp	r0, #0
    31dc:	da000001 	ble	31e8 <putchar+0x34>
/home/rossierd/soo.tech/soo/optee_os/lib/libutee/trace_ext.c:66
    31e0:	e24b0018 	sub	r0, fp, #24
    31e4:	ebffffbd 	bl	30e0 <trace_ext_puts>
/home/rossierd/soo.tech/soo/optee_os/lib/libutee/trace_ext.c:73
    31e8:	e6ef0074 	uxtb	r0, r4
    31ec:	e24bd010 	sub	sp, fp, #16
    31f0:	e89da810 	ldm	sp, {r4, fp, sp, pc}

000031f4 <mpi_get_digit>:
mpi_get_digit():
/home/rossierd/soo.tech/soo/optee_os/lib/libmbedtls/mbedtls/library/bignum.c:489
    31f4:	e1a0c00d 	mov	ip, sp
/home/rossierd/soo.tech/soo/optee_os/lib/libmbedtls/mbedtls/library/bignum.c:492
    31f8:	e2423030 	sub	r3, r2, #48	; 0x30
/home/rossierd/soo.tech/soo/optee_os/lib/libmbedtls/mbedtls/library/bignum.c:489
    31fc:	e92dd800 	push	{fp, ip, lr, pc}
    3200:	e24cb004 	sub	fp, ip, #4
/home/rossierd/soo.tech/soo/optee_os/lib/libmbedtls/mbedtls/library/bignum.c:492
    3204:	e6efc073 	uxtb	ip, r3
    3208:	e35c0009 	cmp	ip, #9
/home/rossierd/soo.tech/soo/optee_os/lib/libmbedtls/mbedtls/library/bignum.c:490
    320c:	83a030ff 	movhi	r3, #255	; 0xff
/home/rossierd/soo.tech/soo/optee_os/lib/libmbedtls/mbedtls/library/bignum.c:492
    3210:	e5803000 	str	r3, [r0]
/home/rossierd/soo.tech/soo/optee_os/lib/libmbedtls/mbedtls/library/bignum.c:493
    3214:	e2423041 	sub	r3, r2, #65	; 0x41
    3218:	e3530005 	cmp	r3, #5
    321c:	92423037 	subls	r3, r2, #55	; 0x37
    3220:	95803000 	strls	r3, [r0]
/home/rossierd/soo.tech/soo/optee_os/lib/libmbedtls/mbedtls/library/bignum.c:494
    3224:	e2423061 	sub	r3, r2, #97	; 0x61
    3228:	e3530005 	cmp	r3, #5
    322c:	92422057 	subls	r2, r2, #87	; 0x57
    3230:	95802000 	strls	r2, [r0]
/home/rossierd/soo.tech/soo/optee_os/lib/libmbedtls/mbedtls/library/bignum.c:496
    3234:	e5903000 	ldr	r3, [r0]
    3238:	e1530001 	cmp	r3, r1
/home/rossierd/soo.tech/soo/optee_os/lib/libmbedtls/mbedtls/library/bignum.c:500
    323c:	23e00005 	mvncs	r0, #5
    3240:	33a00000 	movcc	r0, #0
    3244:	e89da800 	ldm	sp, {fp, sp, pc}

00003248 <mpi_sub_hlp>:
mpi_sub_hlp():
/home/rossierd/soo.tech/soo/optee_os/lib/libmbedtls/mbedtls/library/bignum.c:1085
    3248:	e1a0c00d 	mov	ip, sp
/home/rossierd/soo.tech/soo/optee_os/lib/libmbedtls/mbedtls/library/bignum.c:1089
    324c:	e3a03000 	mov	r3, #0
/home/rossierd/soo.tech/soo/optee_os/lib/libmbedtls/mbedtls/library/bignum.c:1085
    3250:	e92dd8f0 	push	{r4, r5, r6, r7, fp, ip, lr, pc}
    3254:	e24cb004 	sub	fp, ip, #4
/home/rossierd/soo.tech/soo/optee_os/lib/libmbedtls/mbedtls/library/bignum.c:1089
    3258:	e1a04002 	mov	r4, r2
    325c:	e1a0c003 	mov	ip, r3
/home/rossierd/soo.tech/soo/optee_os/lib/libmbedtls/mbedtls/library/bignum.c:1089 (discriminator 1)
    3260:	e15c0000 	cmp	ip, r0
    3264:	1a000003 	bne	3278 <mpi_sub_hlp+0x30>
    3268:	e082210c 	add	r2, r2, ip, lsl #2
/home/rossierd/soo.tech/soo/optee_os/lib/libmbedtls/mbedtls/library/bignum.c:1095
    326c:	e3530000 	cmp	r3, #0
    3270:	1a00000e 	bne	32b0 <mpi_sub_hlp+0x68>
/home/rossierd/soo.tech/soo/optee_os/lib/libmbedtls/mbedtls/library/bignum.c:1100
    3274:	e89da8f0 	ldm	sp, {r4, r5, r6, r7, fp, sp, pc}
/home/rossierd/soo.tech/soo/optee_os/lib/libmbedtls/mbedtls/library/bignum.c:1091 (discriminator 3)
    3278:	e5946000 	ldr	r6, [r4]
    327c:	e046e003 	sub	lr, r6, r3
    3280:	e584e000 	str	lr, [r4]
/home/rossierd/soo.tech/soo/optee_os/lib/libmbedtls/mbedtls/library/bignum.c:1092 (discriminator 3)
    3284:	e791510c 	ldr	r5, [r1, ip, lsl #2]
