
6aca96ec-d0a4-11e9-bb65-2a2ae2dbcce4.elf:     file format elf32-littlearm
6aca96ec-d0a4-11e9-bb65-2a2ae2dbcce4.elf
architecture: armv7, flags 0x00000150:
HAS_SYMS, DYNAMIC, D_PAGED
start address 0x00000328

Program Header:
0x70000001 off    0x0000b8b4 vaddr 0x0000a8b4 paddr 0x0000a8b4 align 2**2
         filesz 0x000007d8 memsz 0x000007d8 flags r--
    LOAD off    0x00001000 vaddr 0x00000000 paddr 0x00000000 align 2**12
         filesz 0x0000b148 memsz 0x0000b148 flags r-x
    LOAD off    0x0000d000 vaddr 0x0000c000 paddr 0x0000c000 align 2**12
         filesz 0x00000364 memsz 0x0000b3f0 flags rw-
 DYNAMIC off    0x0000d000 vaddr 0x0000c000 paddr 0x0000c000 align 2**2
         filesz 0x00000088 memsz 0x00000088 flags rw-
   STACK off    0x00000000 vaddr 0x00000000 paddr 0x00000000 align 2**4
         filesz 0x00000000 memsz 0x00000000 flags rwx

Dynamic Section:
  HASH                 0x0000b11c
  GNU_HASH             0x0000a744
  STRTAB               0x0000b0ec
  SYMTAB               0x0000b08c
  STRSZ                0x0000002e
  SYMENT               0x00000010
  DEBUG                0x00000000
  REL                  0x0000c0dc
  RELSZ                0x00000178
  RELENT               0x00000008
  FLAGS_1              0x08000000
  RELCOUNT             0x0000001d
private flags = 5000400: [Version5 EABI] [hard-float ABI]

Sections:
Idx Name          Size      VMA       LMA       File off  Algn
  0 .ta_head      00000020  00000000  00000000  00001000  2**3
                  CONTENTS, ALLOC, LOAD, READONLY, DATA
  1 .text         00009428  00000020  00000020  00001020  2**3
                  CONTENTS, ALLOC, LOAD, READONLY, CODE
  2 .rodata       000012f9  00009448  00009448  0000a448  2**2
                  CONTENTS, ALLOC, LOAD, READONLY, DATA
  3 .gnu.hash     0000002c  0000a744  0000a744  0000b744  2**2
                  CONTENTS, ALLOC, LOAD, READONLY, DATA
  4 .ARM.extab    00000144  0000a770  0000a770  0000b770  2**2
                  CONTENTS, ALLOC, LOAD, READONLY, DATA
  5 .ARM.exidx    000007d8  0000a8b4  0000a8b4  0000b8b4  2**2
                  CONTENTS, ALLOC, LOAD, READONLY, DATA
  6 .dynsym       00000060  0000b08c  0000b08c  0000c08c  2**2
                  CONTENTS, ALLOC, LOAD, READONLY, DATA
  7 .dynstr       0000002e  0000b0ec  0000b0ec  0000c0ec  2**0
                  CONTENTS, ALLOC, LOAD, READONLY, DATA
  8 .hash         0000002c  0000b11c  0000b11c  0000c11c  2**2
                  CONTENTS, ALLOC, LOAD, READONLY, DATA
  9 .dynamic      00000088  0000c000  0000c000  0000d000  2**2
                  CONTENTS, ALLOC, LOAD, DATA
 10 .got          00000054  0000c088  0000c088  0000d088  2**2
                  CONTENTS, ALLOC, LOAD, DATA
 11 .rel.got      00000090  0000c1c4  0000c1c4  0000d1c4  2**2
                  CONTENTS, ALLOC, LOAD, READONLY, DATA
 12 .data         00000110  0000c254  0000c254  0000d254  2**2
                  CONTENTS, ALLOC, LOAD, DATA
 13 .bss          0000b08c  0000c364  0000c364  0000d364  2**2
                  ALLOC
 14 .debug_info   000182b4  00000000  00000000  0000d364  2**0
                  CONTENTS, READONLY, DEBUGGING
 15 .debug_abbrev 00004320  00000000  00000000  00025618  2**0
                  CONTENTS, READONLY, DEBUGGING
 16 .debug_loc    00017423  00000000  00000000  00029938  2**0
                  CONTENTS, READONLY, DEBUGGING
 17 .debug_aranges 00000628  00000000  00000000  00040d60  2**3
                  CONTENTS, READONLY, DEBUGGING
 18 .debug_ranges 00000ec8  00000000  00000000  00041388  2**3
                  CONTENTS, READONLY, DEBUGGING
 19 .debug_macro  0001b64d  00000000  00000000  00042250  2**0
                  CONTENTS, READONLY, DEBUGGING
 20 .debug_line   00010c3c  00000000  00000000  0005d89d  2**0
                  CONTENTS, READONLY, DEBUGGING
 21 .debug_str    000185c9  00000000  00000000  0006e4d9  2**0
                  CONTENTS, READONLY, DEBUGGING
 22 .comment      0000005a  00000000  00000000  00086aa2  2**0
                  CONTENTS, READONLY
 23 .ARM.attributes 00000033  00000000  00000000  00086afc  2**0
                  CONTENTS, READONLY
 24 .debug_frame  00002644  00000000  00000000  00086b30  2**2
                  CONTENTS, READONLY, DEBUGGING
 25 .rel.dyn      000000e8  0000c0dc  0000c0dc  0000d0dc  2**2
                  CONTENTS, ALLOC, LOAD, READONLY, DATA
SYMBOL TABLE:
00000000 l    d  .ta_head	00000000 .ta_head
00000020 l    d  .text	00000000 .text
00009448 l    d  .rodata	00000000 .rodata
0000a744 l    d  .gnu.hash	00000000 .gnu.hash
0000a770 l    d  .ARM.extab	00000000 .ARM.extab
0000a8b4 l    d  .ARM.exidx	00000000 .ARM.exidx
0000b08c l    d  .dynsym	00000000 .dynsym
0000b0ec l    d  .dynstr	00000000 .dynstr
0000b11c l    d  .hash	00000000 .hash
0000c000 l    d  .dynamic	00000000 .dynamic
0000c088 l    d  .got	00000000 .got
0000c1c4 l    d  .rel.got	00000000 .rel.got
0000c254 l    d  .data	00000000 .data
0000c364 l    d  .bss	00000000 .bss
00000000 l    d  .debug_info	00000000 .debug_info
00000000 l    d  .debug_abbrev	00000000 .debug_abbrev
00000000 l    d  .debug_loc	00000000 .debug_loc
00000000 l    d  .debug_aranges	00000000 .debug_aranges
00000000 l    d  .debug_ranges	00000000 .debug_ranges
00000000 l    d  .debug_macro	00000000 .debug_macro
00000000 l    d  .debug_line	00000000 .debug_line
00000000 l    d  .debug_str	00000000 .debug_str
00000000 l    d  .comment	00000000 .comment
00000000 l    d  .ARM.attributes	00000000 .ARM.attributes
00000000 l    d  .debug_frame	00000000 .debug_frame
0000c0dc l    d  .rel.dyn	00000000 .rel.dyn
00000000 l    df *ABS*	00000000 user_ta_header.c
0000944c l     O .rodata	00000004 __compound_literal.4
00009450 l     O .rodata	00000004 __compound_literal.3
00009454 l     O .rodata	00000001 __compound_literal.2
00009455 l     O .rodata	00000001 __compound_literal.1
00009456 l     O .rodata	00000001 __compound_literal.0
00000000 l    df *ABS*	00000000 asf.c
00000020 l     F .text	0000021c asf_enc_dec
00009943 l     O .rodata	0000000c __func__.6394
0000994f l     O .rodata	00000019 __func__.6420
00009968 l     O .rodata	0000001b __func__.6433
0000c358 l     O .data	0000000c asf_iv
0000f3b0 l     O .bss	00000020 aes_com_key
0000f3d0 l     O .bss	00000020 aes_inject_key
00000000 l    df *ABS*	00000000 ./ta_entry_a32.o
00000000 l    df *ABS*	00000000 memcpy.c
00000000 l    df *ABS*	00000000 trace.c
00009ab5 l     O .rodata	00000005 lvl_strs.5721
00000000 l    df *ABS*	00000000 snprintk.c
000005f8 l     F .text	000006b0 kprintf.constprop.0
00009af2 l     O .rodata	00000011 HEXDIGITS
00009b03 l     O .rodata	00000011 hexdigits
00000000 l    df *ABS*	00000000 arm32_aeabi_ldivmod_a32.o
00000000 l    df *ABS*	00000000 trace_ext.c
00000000 l    df *ABS*	00000000 tee_api_objects.c
00000000 l    df *ABS*	00000000 tee_api_operations.c
00001560 l     F .text	0000015c tee_buffer_update
00000000 l    df *ABS*	00000000 tee_api_panic.c
0000306c l     F .text	00000020 check_access
00003090 l     F .text	0000000a check_res.isra.0
00000000 l    df *ABS*	00000000 tee_api_property.c
00003144 l     F .text	00000050 propset_get
00003194 l     F .text	00000014 is_propset_pseudo_handle
000031a8 l     F .text	0000008c propget_get_ext_prop
00003234 l     F .text	000000f4 propget_get_property
00009460 l     O .rodata	00000004 __compound_literal.2
00009464 l     O .rodata	00000004 __compound_literal.1
00009468 l     O .rodata	00000004 __compound_literal.0
00000000 l    df *ABS*	00000000 utee_syscalls_a32.o
00000000 l    df *ABS*	00000000 user_ta_entry.c
00003c4c l     F .text	0000006a _get_fn_array
00003cb6 l     F .text	00000032 _fini_iterate_phdr_cb
00003ce8 l     F .text	0000001c ta_header_get_session
00003d04 l     F .text	0000005c to_utee_params
00003d60 l     F .text	0000003a from_utee_params
00003d9a l     F .text	00000062 _init_iterate_phdr_cb
00003dfc l     F .text	00000020 ta_header_save_params.part.0
00003ee4 l     F .text	0000006c ta_header_remove_session
00009b93 l     O .rodata	00000016 __func__.7021
0000c364 l     O .bss	00000004 _num_mod_init
0000c368 l     O .bss	00000001 init_done
0000c2e8 l     O .data	00000008 ta_sessions
0000c2f0 l     O .data	00000008 __phdr_info_head
00000000 l    df *ABS*	00000000 abort.c
00000000 l    df *ABS*	00000000 base64.c
00009bb0 l     O .rodata	00000041 base64_table
00000000 l    df *ABS*	00000000 tee_api.c
000042bc l     F .text	0000005e update_out_param
0000438c l     F .text	0000012c copy_param
00009c02 l     O .rodata	0000000b __func__.6983
0000c39c l     O .bss	00000004 tee_api_instance_data
00000000 l    df *ABS*	00000000 tee_api_arith_mpi.c
00004738 l     F .text	00000020 api_panic
00004758 l     F .text	00000020 mpi_panic
00004778 l     F .text	00000050 get_mpi
000047c8 l     F .text	00000040 copy_mpi_to_bigint
00004808 l     F .text	000000a4 bigint_binary
000048ac l     F .text	00000010 mpi_is_odd
000048bc l     F .text	00000016 rng_read
000048d2 l     F .text	0000045e mpi_egcd
0000c3a0 l     O .bss	00003000 data.6963
00004f64 l     F .text	00000104 bigint_binary_mod
00009cc4 l     O .rodata	00000008 __func__.6997
00009ccc l     O .rodata	0000000e __func__.7094
00009cda l     O .rodata	00000009 __func__.7240
00009ce3 l     O .rodata	00000012 __func__.6964
00009cf5 l     O .rodata	0000000f __func__.7003
00009d04 l     O .rodata	0000001f __func__.7021
00009d23 l     O .rodata	00000019 __func__.7028
00009d3c l     O .rodata	00000012 __func__.7106
00009d4e l     O .rodata	00000015 __func__.7059
00009d63 l     O .rodata	0000000e __func__.7134
00009d71 l     O .rodata	0000000e __func__.7163
00009d7f l     O .rodata	0000000e __func__.7171
00009d8d l     O .rodata	00000011 __func__.7200
00009d9e l     O .rodata	00000018 __func__.7217
00009db6 l     O .rodata	0000001d __func__.7297
00009dd3 l     O .rodata	00000019 __func__.7350
00009dec l     O .rodata	00000015 __func__.7365
00000000 l    df *ABS*	00000000 tee_system_pta.c
0000590c l     F .text	00000050 invoke_system_pta
0000946c l     O .rodata	00000010 uuid.6388
0000947c l     O .rodata	0000000a __func__.6408
00009486 l     O .rodata	00000017 __func__.6420
0000f3a0 l     O .bss	00000004 sess.6387
00000000 l    df *ABS*	00000000 tcb.c
00009eec l     O .rodata	00000010 __func__.6127
00009efc l     O .rodata	00000010 __func__.6154
0000f3a4 l     O .bss	00000004 _tls_size
0000f3a8 l     O .bss	00000004 _tcb
00000000 l    df *ABS*	00000000 assert.c
00000000 l    df *ABS*	00000000 bignum.c
00005ce4 l     F .text	0000003a mpi_get_digit
00005d1e l     F .text	00000054 mpi_sub_hlp
00005d72 l     F .text	000004f2 mpi_mul_hlp
00006264 l     F .text	00000052 mpi_bigendian_to_host.part.0
000075a8 l     F .text	00000050 mpi_check_small_factors
00007cc2 l     F .text	00000194 mpi_miller_rabin
000094a0 l     O .rodata	000002a0 small_prime
00009740 l     O .rodata	00000024 gcd_pairs
00000000 l    df *ABS*	00000000 platform_util.c
0000c2f8 l     O .data	00000004 memset_func
00000000 l    df *ABS*	00000000 bget_malloc.c
000086e4 l     F .text	00000030 raw_malloc_return_hook.constprop.0
0000a64e l     O .rodata	00000005 __func__.5902
0000a653 l     O .rodata	00000006 __func__.5922
0000a659 l     O .rodata	00000005 __func__.5942
0000a65e l     O .rodata	00000006 __func__.5933
0000a664 l     O .rodata	00000006 __func__.5951
0000a66a l     O .rodata	00000007 __func__.5961
0000a671 l     O .rodata	00000014 __func__.6134
0000a685 l     O .rodata	0000000e __func__.6079
0000a693 l     O .rodata	00000013 __func__.6023
0000c2fc l     O .data	0000005c malloc_ctx
00000000 l    df *ABS*	00000000 mempool.c
0000a720 l     O .rodata	00000013 __func__.5775
0000a733 l     O .rodata	0000000e __func__.5784
00000000 l    df *ABS*	00000000 memset.c
00000000 l    df *ABS*	00000000 aeabi_unwind.c
00000000 l    df *ABS*	00000000 memchr.c
00000000 l    df *ABS*	00000000 strlen.c
00000000 l    df *ABS*	00000000 arm32_aeabi_ldivmod.c
00000000 l    df *ABS*	00000000 snprintf.c
00000000 l    df *ABS*	00000000 memmove.c
00000000 l    df *ABS*	00000000 strcmp.c
00000000 l    df *ABS*	00000000 strlcpy.c
00000000 l    df *ABS*	00000000 consttime_memcmp.c
00000000 l    df *ABS*	00000000 
0000c000 l     O *ABS*	00000000 _DYNAMIC
0000c088 l     O *ABS*	00000000 _GLOBAL_OFFSET_TABLE_
00009408 l     F .text	00000010 ___utee_log_from_thumb
00009418 l     F .text	00000010 ___utee_check_access_rights_from_thumb
00009428 l     F .text	00000010 ___utee_cache_operation_from_thumb
00009438 l     F .text	00000010 ___utee_panic_from_thumb
00000d68 g     F .text	00000022 putchar
00001028 g     F .text	00000078 TEE_PopulateTransientObject
000057e2 g     F .text	00000004 TEE_BigIntConvertToFMM
000054b8 g     F .text	00000008 TEE_BigIntSquareMod
00005068 g     F .text	00000110 TEE_BigIntShiftRight
000059e0 g     F .text	0000008c tee_invoke_supp_plugin
0000632c g     F .text	00000098 mbedtls_mpi_grow
00009220 g     F .text	00000100 __l_divmod
000021c8 g     F .text	00000030 TEE_DigestUpdate
0000471c g     F .text	00000004 TEE_Realloc
0000201c g     F .text	000000f8 TEE_SetOperationKey2
00003132 g     F .text	00000012 __utee_check_inout_annotation
00000d0a g     F .text	0000003a printf
000010a0 g     F .text	00000022 TEE_InitRefAttribute
000037c4 g     F .text	00000014 _utee_log
0000454c g     F .text	000000b4 TEE_InvokeTACommand
0000309a g     F .text	0000002e __utee_check_outbuf_annotation
000062c2 g     F .text	00000026 mbedtls_mpi_init_mempool
00003a60 g     F .text	00000014 _utee_cryp_random_number_generate
0000685c g     F .text	0000006e mbedtls_mpi_write_binary
00002834 g     F .text	0000011c TEE_AEEncryptFinal
000005d0 g     F .text	0000000e vsnprintk
00006d94 g     F .text	0000002e mbedtls_mpi_sub_int
0000934c g     F .text	00000034 memmove
00009320 g     F .text	0000001e snprintf
00004f3e g     F .text	00000026 TEE_BigIntCmpS32
000010c2 g     F .text	00000022 TEE_InitValueAttribute
000063c4 g     F .text	000000b4 mbedtls_mpi_shrink
00009172 g     F .text	00000002 __aeabi_unwind_cpp_pr0
000051c4 g     F .text	00000020 TEE_BigIntAdd
000039c0 g     F .text	00000014 _utee_cryp_obj_restrict_usage
00009458 g     O .rodata	00000004 ta_heap_size
00000ff8 g     F .text	00000030 TEE_ResetTransientObject
00003ae8 g     F .text	00000018 _utee_asymm_operate
00004110 g     F .text	0000000e _base64_enc_len
00006eac g     F .text	00000128 mbedtls_mpi_read_string
0000227c g     F .text	00000056 TEE_CipherInit
00005204 g     F .text	00000074 TEE_BigIntNeg
00003b84 g     F .text	00000014 _utee_storage_free_enum
00000020 g       .text	00000000 __text_start
00003738 g     F .text	00000064 TEE_GetNextProperty
0000137c g     F .text	0000002c TEE_StartPersistentObjectEnumerator
0000696c g     F .text	00000078 mbedtls_mpi_shift_r
00008ffc g     F .text	00000050 malloc_buffer_overlaps_heap
00003928 g     F .text	00000014 _utee_hash_init
00005480 g     F .text	0000001c TEE_BigIntSubMod
000081c2 g     F .text	00000212 mbedtls_mpi_gen_prime
00003540 g     F .text	00000068 TEE_GetPropertyAsBinaryBlock
0000662a g     F .text	00000022 mbedtls_mpi_get_bit
00006778 g     F .text	00000076 mbedtls_mpi_read_binary
0000268c g     F .text	00000070 TEE_AEInit
00000584 g     F .text	00000018 trace_printf
00007620 g     F .text	000000c8 mbedtls_mpi_montmul
00003c38 g     F .text	00000014 _utee_cache_operation
0000032c g     F .text	000000e6 memcpy
000057e6 g     F .text	00000066 TEE_BigIntConvertFromFMM
0000308c g     F .text	00000004 TEE_Panic
00000cd8 g     F .text	00000018 __aeabi_uldivmod
00002114 g     F .text	000000b4 TEE_CopyOperation
00000d44 g     F .text	00000024 puts
0000584c g     F .text	000000c0 TEE_BigIntComputeFMM
00008d1c g     F .text	0000001c malloc_get_stats
000046bc g     F .text	00000016 TEE_GetREETime
00001320 g     F .text	00000034 TEE_AllocatePersistentObjectEnumerator
0000c258 g     O .data	0000006c ta_props
00002a50 g     F .text	000000c0 TEE_AsymmetricEncrypt
000030c8 g     F .text	00000018 __utee_check_instring_annotation
00008d38 g     F .text	00000030 malloc
00009154 g     F .text	0000000a __ta_entry_c
000036a0 g     F .text	00000004 TEE_FreePropertyEnumerator
0000117c g     F .text	00000054 TEE_GenerateKey
0000933e g     F .text	0000000e vsnprintf
0000c254 g     O .data	00000004 trace_level
00004f08 g     F .text	00000036 TEE_BigIntCmp
00009448 g     O .rodata	00000004 ta_num_props
00008b84 g     F .text	00000084 bgetr
00003b18 g     F .text	00000018 _utee_storage_obj_open
00009120 g     F .text	00000032 mempool_free
000022d2 g     F .text	000000ea TEE_CipherUpdate
0000393c g     F .text	00000014 _utee_hash_update
00004e04 g     F .text	00000058 TEE_BigIntConvertToOctetString
00001e70 g     F .text	000000d4 TEE_GetOperationInfoMultiple
000066d2 g     F .text	00000036 mbedtls_mpi_bitlen
00005178 g     F .text	0000002a TEE_BigIntGetBit
0000945c g     O .rodata	00000003 trace_ext_prefix
00003bc0 g     F .text	00000014 _utee_storage_next_enum
0000891c g     F .text	00000060 bgetz
0000460c g     F .text	0000000c TEE_GetInstanceData
0000463a g     F .text	0000001e TEE_Wait
00006dc2 g     F .text	000000ce mbedtls_mpi_mul_mpi
00009176 g     F .text	00000002 __aeabi_unwind_cpp_pr2
0000472a g     F .text	00000006 TEE_CacheFlush
00000444 g     F .text	00000140 trace_vprintf
00000240 g     F .text	00000002 TA_DestroyEntryPoint
000062b6 g     F .text	0000000c mbedtls_mpi_init
00003b48 g     F .text	00000014 _utee_storage_obj_del
0000669e g     F .text	00000034 mbedtls_mpi_lsb
00005cac g     F .text	00000028 _assert_log
00003900 g     F .text	00000014 _utee_cryp_state_copy
000057de g     F .text	00000004 TEE_BigIntFMMContextSizeInU32
00005996 g     F .text	0000004a tee_unmap
00002624 g     F .text	00000068 TEE_MACCompareFinal
000012e6 g     F .text	0000003a TEE_RenamePersistentObject
000021f8 g     F .text	00000084 TEE_DigestDoFinal
00004d30 g     F .text	00000044 _TEE_MathAPI_Init
00005a6c g     F .text	00000180 __utee_tcb_init
00006cd4 g     F .text	00000048 mbedtls_mpi_add_mpi
000040f8 g     F .text	00000018 abort
0000310c g     F .text	00000012 __utee_check_out_annotation
0000f3f0 g     O .bss	00008000 ta_heap
000054c0 g     F .text	000000c0 TEE_BigIntInvMod
00003e1c g     F .text	000000b8 __utee_call_elf_init_fn
000002e4 g     F .text	00000002 TA_CloseSessionEntryPoint
00003830 g     F .text	00000014 _utee_close_ta_session
00002b10 g     F .text	000000c0 TEE_AsymmetricDecrypt
000011d0 g     F .text	00000054 TEE_OpenPersistentObject
00006d1c g     F .text	0000004a mbedtls_mpi_sub_mpi
000093c0 g     F .text	00000048 consttime_memcmp
000037b0 g     F .text	00000014 _utee_return
000037d8 g     F .text	00000014 __utee_panic
00005bec g     F .text	00000018 __tls_get_addr
000002e6 g     F .text	00000042 TA_InvokeCommandEntryPoint
00003ed4 g     F .text	00000010 __utee_call_elf_fini_fn
00008e3c g     F .text	00000014 free_wipe
00009090 g     F .text	0000006c mempool_alloc
0000379c g     F .text	00000014 _utee_panic
000090fc g     F .text	00000024 mempool_calloc
00003c24 g     F .text	00000014 _utee_cryp_obj_generate_key
00003bfc g     F .text	00000014 _utee_storage_obj_trunc
0000114c g     F .text	00000030 TEE_CopyObjectAttributes
0000c2c4 g     O .data	00000024 tee_props
00003884 g     F .text	00000014 _utee_unmask_cancellation
00003670 g     F .text	00000008 TEE_ResetPropertyEnumerator
00008d68 g     F .text	0000004c calloc
000046d2 g     F .text	0000004a TEE_Malloc
00004382 g     F .text	0000000a TEE_CheckMemoryAccessRights
000035a8 g     F .text	00000064 TEE_GetPropertyAsUUID
000091a4 g     F .text	0000007c __ul_divmod
000037ec g     F .text	00000018 _utee_get_property
000065f2 g     F .text	00000038 mbedtls_mpi_lset
00001418 g     F .text	00000054 TEE_ReadObjectData
00000e60 g     F .text	00000078 TEE_GetObjectBufferAttribute
00000242 g     F .text	000000a2 TA_OpenSessionEntryPoint
000016bc g     F .text	00000026 TEE_FreeOperation
00005c04 g     F .text	000000a8 dl_iterate_phdr
000173f0 g       .bss	00000000 __ftrace_buf_end
0000c398 g     O .bss	00000004 ta_param_types
0000734a g     F .text	0000002c mbedtls_mpi_div_int
00000d8c g     F .text	0000003e __utee_from_attr
00008154 g     F .text	00000064 mbedtls_mpi_is_prime_ext
000057a0 g     F .text	00000030 TEE_BigIntIsProbablePrime
00006e90 g     F .text	0000001c mbedtls_mpi_mul_int
000012ac g     F .text	00000024 TEE_CloseAndDeletePersistentObject1
0000770a g     F .text	0000044a mbedtls_mpi_exp_mod
00006500 g     F .text	00000068 mbedtls_mpi_safe_cond_assign
00003328 g     F .text	00000154 TEE_GetPropertyAsString
00006ad0 g     F .text	000000a8 mbedtls_mpi_lt_mpi_ct
00002950 g     F .text	00000100 TEE_AEDecryptFinal
00004d74 g     F .text	00000038 TEE_BigIntInit
000030e0 g     F .text	0000002c __utee_check_outstring_annotation
00004618 g     F .text	00000004 TEE_MemMove
000086d0 g     F .text	00000014 mbedtls_platform_zeroize
00004dac g     F .text	00000058 TEE_BigIntConvertFromOctetString
00003ad0 g     F .text	00000018 _utee_authenc_dec_final
000069e4 g     F .text	00000062 mbedtls_mpi_cmp_abs
00003bd4 g     F .text	00000014 _utee_storage_obj_read
00002504 g     F .text	00000056 TEE_MACInit
00002bd0 g     F .text	000000bc TEE_AsymmetricSignDigest
00009178 g     F .text	0000001c memchr
0000434a g     F .text	0000001c TEE_UnmaskCancellation
00000dca g     F .text	0000002a TEE_GetObjectInfo
000083d4 g     F .text	000002fc mbedtls_mpi_self_test
00003c10 g     F .text	00000014 _utee_storage_obj_seek
00002742 g     F .text	000000f2 TEE_AEUpdate
00000fc8 g     F .text	00000030 TEE_FreeTransientObject
00003870 g     F .text	00000014 _utee_check_access_rights
00006b78 g     F .text	0000002e mbedtls_mpi_cmp_int
000041f8 g     F .text	000000c4 _base64_dec
00003b98 g     F .text	00000014 _utee_storage_reset_enum
00002e16 g     F .text	00000018 rand
0000311e g     F .text	00000014 __utee_check_attr_in_annotation
00003aa0 g     F .text	00000018 _utee_authenc_update_payload
00001e40 g     F .text	00000030 TEE_GetOperationInfo
00005414 g     F .text	00000050 TEE_BigIntMod
000073da g     F .text	0000006e mbedtls_mpi_mod_int
00006714 g     F .text	00000064 mbedtls_mpi_read_binary_le
00005326 g     F .text	000000ee TEE_BigIntDiv
000039e8 g     F .text	00000014 _utee_cryp_obj_alloc
000173f0 g       .bss	00000000 __ftrace_buf_start
00009396 g     F .text	0000002a strlcpy
00006478 g     F .text	0000005a mbedtls_mpi_copy
00002e2e g     F .text	0000023e TEE_IsAlgorithmSupported
00008d08 g     F .text	00000014 malloc_reset_stats
0000360c g     F .text	00000064 TEE_GetPropertyAsIdentity
00000ca8 g     F .text	00000016 __vsprintf
000038d4 g     F .text	00000014 _utee_set_ta_time
00003844 g     F .text	00000018 _utee_invoke_ta_command
00000e14 g     F .text	00000020 TEE_RestrictObjectUsage1
00008db4 g     F .text	00000034 realloc
000064d2 g     F .text	0000002e mbedtls_mpi_swap
0000904c g     F .text	00000044 mempool_alloc_pool
00005278 g     F .text	000000a8 TEE_BigIntMul
00001f44 g     F .text	00000040 TEE_ResetOperation
000068ca g     F .text	000000a2 mbedtls_mpi_shift_l
00006a46 g     F .text	0000008a mbedtls_mpi_cmp_mpi
00004620 g     F .text	00000004 TEE_MemFill
00008e50 g     F .text	000000cc malloc_add_pool
0000255a g     F .text	0000004e TEE_MACUpdate
00000430 g     F .text	00000014 trace_get_level
00006ba6 g     F .text	000000b2 mbedtls_mpi_add_abs
00000e34 g     F .text	0000002c TEE_RestrictObjectUsage
000057d6 g     F .text	00000008 TEE_BigIntFMMSizeInU32
0000347c g     F .text	00000060 TEE_GetPropertyAsBool
000057d0 g     F .text	00000004 TEE_BigIntInitFMM
00000f74 g     F .text	00000014 TEE_CloseObject
00003968 g     F .text	00000014 _utee_cipher_init
00003f50 g     F .text	000001a8 __utee_entry
000034dc g     F .text	00000064 TEE_GetPropertyAsU32
00009448 g       .text	00000000 __text_end
00005580 g     F .text	0000007c TEE_BigIntRelativePrime
00007376 g     F .text	00000064 mbedtls_mpi_mod_mpi
000039ac g     F .text	00000014 _utee_cryp_obj_get_info
00008c08 g     F .text	0000009c bpool
00003678 g     F .text	00000028 TEE_AllocatePropertyEnumerator
000038e8 g     F .text	00000018 _utee_cryp_state_alloc
0000432e g     F .text	0000001c TEE_GetCancellationFlag
00007b54 g     F .text	00000108 mbedtls_mpi_gcd
00004694 g     F .text	00000028 TEE_SetTAPersistentTime
000067ee g     F .text	0000006e mbedtls_mpi_write_binary_le
00009162 g     F .text	00000010 memset
00004658 g     F .text	0000003c TEE_GetTAPersistentTime
0000059c g     F .text	00000002 dhex_dump
00001224 g     F .text	00000088 TEE_CreatePersistentObject
00004366 g     F .text	0000001c TEE_MaskCancellation
000026fc g     F .text	00000046 TEE_AEUpdateAAD
000014ac g     F .text	00000038 TEE_TruncateObjectData
000039d4 g     F .text	00000014 _utee_cryp_obj_get_attr
00000df4 g     F .text	00000020 TEE_GetObjectInfo1
00003994 g     F .text	00000018 _utee_cipher_final
00000414 g     F .text	0000001c trace_set_level
00000ed8 g     F .text	0000009c TEE_GetObjectValueAttribute
00001f84 g     F .text	00000098 TEE_SetOperationKey
00003914 g     F .text	00000014 _utee_cryp_state_free
00009380 g     F .text	00000016 strcmp
00003818 g     F .text	00000018 _utee_open_ta_session
00004eac g     F .text	0000005c TEE_BigIntConvertToS32
000051e4 g     F .text	00000020 TEE_BigIntSub
0000915e g     F .text	00000004 tahead_get_trace_level
00003bac g     F .text	00000014 _utee_storage_start_enum
000014e4 g     F .text	0000007c TEE_SeekObjectData
0000595c g     F .text	0000003a tee_map_zi
000076e8 g     F .text	00000022 mbedtls_mpi_montred
00008de8 g     F .text	00000040 memalign
000023bc g     F .text	00000148 TEE_CipherDoFinal
00004e5c g     F .text	00000050 TEE_BigIntConvertFromS32
00006d66 g     F .text	0000002e mbedtls_mpi_add_int
00003ab8 g     F .text	00000018 _utee_authenc_enc_final
00008f1c g     F .text	000000e0 malloc_buffer_is_within_alloced
000039fc g     F .text	00000014 _utee_cryp_obj_close
000057d4 g     F .text	00000002 TEE_BigIntInitFMMContext
00003898 g     F .text	00000014 _utee_mask_cancellation
00003b5c g     F .text	00000014 _utee_storage_obj_rename
0000146c g     F .text	00000040 TEE_WriteObjectData
00001368 g     F .text	00000014 TEE_ResetPersistentObjectEnumerator
00005320 g     F .text	00000006 TEE_BigIntSquare
00003be8 g     F .text	00000014 _utee_storage_obj_write
0000023c g     F .text	00000004 TA_CreateEntryPoint
00000328 g     F .text	00000004 __ta_entry
00003a8c g     F .text	00000014 _utee_authenc_update_aad
000075f8 g     F .text	00000028 mbedtls_mpi_montg_init
000005de g     F .text	0000001a snprintk
000051a2 g     F .text	00000022 TEE_BigIntGetBitCount
00003a38 g     F .text	00000014 _utee_cryp_obj_copy
0000549c g     F .text	0000001c TEE_BigIntMulMod
00007e56 g     F .text	000002fe mbedtls_mpi_inv_mod
00002d34 g     F .text	000000d0 TEE_DeriveKey
0000c378 g     O .bss	00000020 ta_params
00006fd4 g     F .text	00000376 mbedtls_mpi_div_mpi
00006708 g     F .text	0000000c mbedtls_mpi_size
00008714 g     F .text	00000208 bget
00000f88 g     F .text	00000040 TEE_AllocateTransientObject
000036a4 g     F .text	0000000a TEE_StartPropertyEnumerator
000038ac g     F .text	00000014 _utee_wait
0000664c g     F .text	00000052 mbedtls_mpi_set_bit
00004720 g     F .text	00000004 TEE_Free
000081b8 g     F .text	0000000a mbedtls_mpi_is_prime
00004730 g     F .text	00000006 TEE_CacheInvalidate
00005cd4 g     F .text	00000010 _assert_break
00005464 g     F .text	0000001c TEE_BigIntAddMod
000038c0 g     F .text	00000014 _utee_get_time
000036ae g     F .text	0000008a TEE_GetPropertyName
000016e2 g     F .text	0000075e TEE_AllocateOperation
00003a24 g     F .text	00000014 _utee_cryp_obj_populate
00002e04 g     F .text	00000012 TEE_GenerateRandom
0000461c g     F .text	00000004 TEE_MemCompare
0000397c g     F .text	00000018 _utee_cipher_update
000005a0 g     F .text	00000030 __vsnprintf
0000c36c g     O .bss	0000000c __elf_phdr_info
00001354 g     F .text	00000014 TEE_FreePersistentObjectEnumerator
000044b8 g     F .text	00000094 TEE_OpenTASession
00000cf0 g     F .text	00000014 trace_ext_puts
00000d04 g     F .text	00000006 trace_ext_get_thread_id
000012d0 g     F .text	00000016 TEE_CloseAndDeletePersistentObject
00003a4c g     F .text	00000014 _utee_cryp_derive_key
000062e8 g     F .text	00000044 mbedtls_mpi_free
00003a10 g     F .text	00000014 _utee_cryp_obj_reset
00004724 g     F .text	00000006 TEE_CacheClean
00003804 g     F .text	00000014 _utee_get_property_name_to_index
0000411e g     F .text	000000da _base64_enc
00006568 g     F .text	0000008a mbedtls_mpi_safe_cond_swap
00003a74 g     F .text	00000018 _utee_authenc_init
000010e4 g     F .text	00000068 TEE_CopyObjectAttributes1
00009194 g     F .text	00000010 strlen
000055fc g     F .text	000001a4 TEE_BigIntComputeExtendedGcd
00009174 g     F .text	00000002 __aeabi_unwind_cpp_pr1
00003b70 g     F .text	00000014 _utee_storage_alloc_enum
00004624 g     F .text	00000016 TEE_GetSystemTime
00003b00 g     F .text	00000018 _utee_asymm_verify
00000000 g     O .ta_head	00000020 ta_head
0000897c g     F .text	00000208 brel
00006c58 g     F .text	0000007c mbedtls_mpi_sub_abs
00007c5c g     F .text	00000066 mbedtls_mpi_fill_random
00004600 g     F .text	0000000c TEE_SetInstanceData
0000385c g     F .text	00000014 _utee_get_cancellation_flag
00000cc0 g     F .text	00000018 __aeabi_ldivmod
00007448 g     F .text	00000160 mbedtls_mpi_write_string
000013a8 g     F .text	00000070 TEE_GetNextPersistentObject
0000431a g     F .text	00000014 TEE_CloseTASession
00002c8c g     F .text	000000a8 TEE_AsymmetricVerifyDigest
00003b30 g     F .text	00000018 _utee_storage_obj_create
00008e28 g     F .text	00000014 free
00008ca4 g     F .text	00000064 bstats
000025a8 g     F .text	0000007c TEE_MACComputeFinal
0000f3ac g     O .bss	00000004 mbedtls_mpi_mempool
00003950 g     F .text	00000018 _utee_hash_final



Disassembly of section .text:

00000020 <asf_enc_dec>:
asf_enc_dec():
/home/mattia/soo/soo-vexpress/optee_ta/asf/asf.c:48
      20:	e92d 47f0 	stmdb	sp!, {r4, r5, r6, r7, r8, r9, sl, lr}
/home/mattia/soo/soo-vexpress/optee_ta/asf/asf.c:54
      24:	2310      	movs	r3, #16
/home/mattia/soo/soo-vexpress/optee_ta/asf/asf.c:48
      26:	b08c      	sub	sp, #48	; 0x30
/home/mattia/soo/soo-vexpress/optee_ta/asf/asf.c:61
      28:	2817      	cmp	r0, #23
/home/mattia/soo/soo-vexpress/optee_ta/asf/asf.c:48
      2a:	4691      	mov	r9, r2
/home/mattia/soo/soo-vexpress/optee_ta/asf/asf.c:54
      2c:	9306      	str	r3, [sp, #24]
/home/mattia/soo/soo-vexpress/optee_ta/asf/asf.c:57
      2e:	f04f 0300 	mov.w	r3, #0
      32:	9307      	str	r3, [sp, #28]
/home/mattia/soo/soo-vexpress/optee_ta/asf/asf.c:58
      34:	9308      	str	r3, [sp, #32]
/home/mattia/soo/soo-vexpress/optee_ta/asf/asf.c:61
      36:	d116      	bne.n	66 <asf_enc_dec+0x46>
/home/mattia/soo/soo-vexpress/optee_ta/asf/asf.c:68
      38:	e9d1 6700 	ldrd	r6, r7, [r1]
/home/mattia/soo/soo-vexpress/optee_ta/asf/asf.c:69
      3c:	f1a7 031c 	sub.w	r3, r7, #28
      40:	9305      	str	r3, [sp, #20]
/home/mattia/soo/soo-vexpress/optee_ta/asf/asf.c:74
      42:	b192      	cbz	r2, 6a <asf_enc_dec+0x4a>
/home/mattia/soo/soo-vexpress/optee_ta/asf/asf.c:77
      44:	eb06 0803 	add.w	r8, r6, r3
/home/mattia/soo/soo-vexpress/optee_ta/asf/asf.c:80
      48:	688b      	ldr	r3, [r1, #8]
      4a:	b193      	cbz	r3, 72 <asf_enc_dec+0x52>
/home/mattia/soo/soo-vexpress/optee_ta/asf/asf.c:82
      4c:	2b01      	cmp	r3, #1
      4e:	d02b      	beq.n	a8 <asf_enc_dec+0x88>
/home/mattia/soo/soo-vexpress/optee_ta/asf/asf.c:85
      50:	9301      	str	r3, [sp, #4]
      52:	4b68      	ldr	r3, [pc, #416]	; (1f4 <asf_enc_dec+0x1d4>)
      54:	2155      	movs	r1, #85	; 0x55
      56:	4868      	ldr	r0, [pc, #416]	; (1f8 <asf_enc_dec+0x1d8>)
      58:	447b      	add	r3, pc
      5a:	4478      	add	r0, pc
      5c:	9300      	str	r3, [sp, #0]
      5e:	2301      	movs	r3, #1
      60:	461a      	mov	r2, r3
      62:	f000 fa8f 	bl	584 <trace_printf>
/home/mattia/soo/soo-vexpress/optee_ta/asf/asf.c:65
      66:	4d60      	ldr	r5, [pc, #384]	; (1e8 <asf_enc_dec+0x1c8>)
      68:	e01a      	b.n	a0 <asf_enc_dec+0x80>
/home/mattia/soo/soo-vexpress/optee_ta/asf/asf.c:75
      6a:	f8df 8190 	ldr.w	r8, [pc, #400]	; 1fc <asf_enc_dec+0x1dc>
      6e:	44f8      	add	r8, pc
      70:	e7ea      	b.n	48 <asf_enc_dec+0x28>
/home/mattia/soo/soo-vexpress/optee_ta/asf/asf.c:81
      72:	f8df a18c 	ldr.w	sl, [pc, #396]	; 200 <asf_enc_dec+0x1e0>
      76:	44fa      	add	sl, pc
/home/mattia/soo/soo-vexpress/optee_ta/asf/asf.c:89
      78:	495c      	ldr	r1, [pc, #368]	; (1ec <asf_enc_dec+0x1cc>)
      7a:	f44f 7380 	mov.w	r3, #256	; 0x100
      7e:	464a      	mov	r2, r9
      80:	a807      	add	r0, sp, #28
      82:	f001 fb2e 	bl	16e2 <TEE_AllocateOperation>
/home/mattia/soo/soo-vexpress/optee_ta/asf/asf.c:90
      86:	4605      	mov	r5, r0
      88:	b1a0      	cbz	r0, b4 <asf_enc_dec+0x94>
/home/mattia/soo/soo-vexpress/optee_ta/asf/asf.c:91
      8a:	4b5e      	ldr	r3, [pc, #376]	; (204 <asf_enc_dec+0x1e4>)
      8c:	215b      	movs	r1, #91	; 0x5b
      8e:	485e      	ldr	r0, [pc, #376]	; (208 <asf_enc_dec+0x1e8>)
      90:	447b      	add	r3, pc
      92:	4478      	add	r0, pc
      94:	e9cd 3500 	strd	r3, r5, [sp]
      98:	2301      	movs	r3, #1
      9a:	461a      	mov	r2, r3
      9c:	f000 fa72 	bl	584 <trace_printf>
/home/mattia/soo/soo-vexpress/optee_ta/asf/asf.c:153
      a0:	4628      	mov	r0, r5
      a2:	b00c      	add	sp, #48	; 0x30
      a4:	e8bd 87f0 	ldmia.w	sp!, {r4, r5, r6, r7, r8, r9, sl, pc}
/home/mattia/soo/soo-vexpress/optee_ta/asf/asf.c:83
      a8:	f8df a160 	ldr.w	sl, [pc, #352]	; 20c <asf_enc_dec+0x1ec>
      ac:	44fa      	add	sl, pc
      ae:	f10a 0a20 	add.w	sl, sl, #32
      b2:	e7e1      	b.n	78 <asf_enc_dec+0x58>
/home/mattia/soo/soo-vexpress/optee_ta/asf/asf.c:96
      b4:	484e      	ldr	r0, [pc, #312]	; (1f0 <asf_enc_dec+0x1d0>)
      b6:	aa08      	add	r2, sp, #32
      b8:	f44f 7180 	mov.w	r1, #256	; 0x100
      bc:	f000 ff64 	bl	f88 <TEE_AllocateTransientObject>
/home/mattia/soo/soo-vexpress/optee_ta/asf/asf.c:97
      c0:	4604      	mov	r4, r0
      c2:	b178      	cbz	r0, e4 <asf_enc_dec+0xc4>
/home/mattia/soo/soo-vexpress/optee_ta/asf/asf.c:98
      c4:	4b52      	ldr	r3, [pc, #328]	; (210 <asf_enc_dec+0x1f0>)
      c6:	2162      	movs	r1, #98	; 0x62
      c8:	4852      	ldr	r0, [pc, #328]	; (214 <asf_enc_dec+0x1f4>)
      ca:	447b      	add	r3, pc
      cc:	4478      	add	r0, pc
      ce:	9300      	str	r3, [sp, #0]
      d0:	2301      	movs	r3, #1
      d2:	461a      	mov	r2, r3
      d4:	f000 fa56 	bl	584 <trace_printf>
/home/mattia/soo/soo-vexpress/optee_ta/asf/asf.c:99
      d8:	9508      	str	r5, [sp, #32]
/home/mattia/soo/soo-vexpress/optee_ta/asf/asf.c:150
      da:	9807      	ldr	r0, [sp, #28]
/home/mattia/soo/soo-vexpress/optee_ta/asf/asf.c:152
      dc:	4625      	mov	r5, r4
/home/mattia/soo/soo-vexpress/optee_ta/asf/asf.c:150
      de:	f001 faed 	bl	16bc <TEE_FreeOperation>
/home/mattia/soo/soo-vexpress/optee_ta/asf/asf.c:152
      e2:	e7dd      	b.n	a0 <asf_enc_dec+0x80>
/home/mattia/soo/soo-vexpress/optee_ta/asf/asf.c:103
      e4:	ac09      	add	r4, sp, #36	; 0x24
      e6:	2320      	movs	r3, #32
      e8:	4620      	mov	r0, r4
      ea:	4652      	mov	r2, sl
      ec:	f04f 4140 	mov.w	r1, #3221225472	; 0xc0000000
      f0:	f000 ffd6 	bl	10a0 <TEE_InitRefAttribute>
/home/mattia/soo/soo-vexpress/optee_ta/asf/asf.c:105
      f4:	4621      	mov	r1, r4
      f6:	2201      	movs	r2, #1
      f8:	9808      	ldr	r0, [sp, #32]
      fa:	f000 ff95 	bl	1028 <TEE_PopulateTransientObject>
/home/mattia/soo/soo-vexpress/optee_ta/asf/asf.c:106
      fe:	4604      	mov	r4, r0
     100:	b170      	cbz	r0, 120 <asf_enc_dec+0x100>
/home/mattia/soo/soo-vexpress/optee_ta/asf/asf.c:107
     102:	4b45      	ldr	r3, [pc, #276]	; (218 <asf_enc_dec+0x1f8>)
     104:	216b      	movs	r1, #107	; 0x6b
     106:	4845      	ldr	r0, [pc, #276]	; (21c <asf_enc_dec+0x1fc>)
     108:	447b      	add	r3, pc
     10a:	4478      	add	r0, pc
     10c:	e9cd 3400 	strd	r3, r4, [sp]
     110:	2301      	movs	r3, #1
     112:	461a      	mov	r2, r3
/home/mattia/soo/soo-vexpress/optee_ta/asf/asf.c:125
     114:	f000 fa36 	bl	584 <trace_printf>
/home/mattia/soo/soo-vexpress/optee_ta/asf/asf.c:148
     118:	9808      	ldr	r0, [sp, #32]
     11a:	f000 ff55 	bl	fc8 <TEE_FreeTransientObject>
     11e:	e7dc      	b.n	da <asf_enc_dec+0xba>
/home/mattia/soo/soo-vexpress/optee_ta/asf/asf.c:111
     120:	9807      	ldr	r0, [sp, #28]
     122:	9908      	ldr	r1, [sp, #32]
     124:	f001 ff2e 	bl	1f84 <TEE_SetOperationKey>
/home/mattia/soo/soo-vexpress/optee_ta/asf/asf.c:115
     128:	2380      	movs	r3, #128	; 0x80
     12a:	220c      	movs	r2, #12
     12c:	9400      	str	r4, [sp, #0]
     12e:	4641      	mov	r1, r8
     130:	9401      	str	r4, [sp, #4]
     132:	9807      	ldr	r0, [sp, #28]
     134:	f002 faaa 	bl	268c <TEE_AEInit>
     138:	4604      	mov	r4, r0
     13a:	4605      	mov	r5, r0
/home/mattia/soo/soo-vexpress/optee_ta/asf/asf.c:116
     13c:	b148      	cbz	r0, 152 <asf_enc_dec+0x132>
/home/mattia/soo/soo-vexpress/optee_ta/asf/asf.c:117
     13e:	4b38      	ldr	r3, [pc, #224]	; (220 <asf_enc_dec+0x200>)
     140:	2175      	movs	r1, #117	; 0x75
     142:	4838      	ldr	r0, [pc, #224]	; (224 <asf_enc_dec+0x204>)
     144:	447b      	add	r3, pc
     146:	4478      	add	r0, pc
     148:	e9cd 3400 	strd	r3, r4, [sp]
     14c:	2301      	movs	r3, #1
     14e:	461a      	mov	r2, r3
     150:	e7e0      	b.n	114 <asf_enc_dec+0xf4>
/home/mattia/soo/soo-vexpress/optee_ta/asf/asf.c:72
     152:	3f10      	subs	r7, #16
     154:	ab05      	add	r3, sp, #20
     156:	9a05      	ldr	r2, [sp, #20]
     158:	4437      	add	r7, r6
/home/mattia/soo/soo-vexpress/optee_ta/asf/asf.c:121
     15a:	9807      	ldr	r0, [sp, #28]
     15c:	f1b9 0f00 	cmp.w	r9, #0
     160:	d126      	bne.n	1b0 <asf_enc_dec+0x190>
/home/mattia/soo/soo-vexpress/optee_ta/asf/asf.c:123
     162:	a906      	add	r1, sp, #24
     164:	e9cd 3700 	strd	r3, r7, [sp]
     168:	4633      	mov	r3, r6
     16a:	9102      	str	r1, [sp, #8]
     16c:	4631      	mov	r1, r6
     16e:	f002 fb61 	bl	2834 <TEE_AEEncryptFinal>
/home/mattia/soo/soo-vexpress/optee_ta/asf/asf.c:124
     172:	4604      	mov	r4, r0
     174:	b148      	cbz	r0, 18a <asf_enc_dec+0x16a>
/home/mattia/soo/soo-vexpress/optee_ta/asf/asf.c:125
     176:	4b2c      	ldr	r3, [pc, #176]	; (228 <asf_enc_dec+0x208>)
     178:	217d      	movs	r1, #125	; 0x7d
     17a:	482c      	ldr	r0, [pc, #176]	; (22c <asf_enc_dec+0x20c>)
     17c:	447b      	add	r3, pc
     17e:	4478      	add	r0, pc
     180:	e9cd 3400 	strd	r3, r4, [sp]
     184:	2301      	movs	r3, #1
     186:	461a      	mov	r2, r3
     188:	e7c4      	b.n	114 <asf_enc_dec+0xf4>
/home/mattia/soo/soo-vexpress/optee_ta/asf/asf.c:130
     18a:	9805      	ldr	r0, [sp, #20]
     18c:	220c      	movs	r2, #12
     18e:	4641      	mov	r1, r8
     190:	4430      	add	r0, r6
     192:	f000 f8cb 	bl	32c <memcpy>
asf_iv_inc():
/home/mattia/soo/soo-vexpress/optee_ta/asf/asf.c:35
     196:	4926      	ldr	r1, [pc, #152]	; (230 <asf_enc_dec+0x210>)
asf_enc_dec():
/home/mattia/soo/soo-vexpress/optee_ta/asf/asf.c:130
     198:	220c      	movs	r2, #12
     19a:	4479      	add	r1, pc
asf_iv_inc():
/home/mattia/soo/soo-vexpress/optee_ta/asf/asf.c:36
     19c:	780b      	ldrb	r3, [r1, #0]
     19e:	3301      	adds	r3, #1
     1a0:	b2db      	uxtb	r3, r3
     1a2:	f801 3b01 	strb.w	r3, [r1], #1
/home/mattia/soo/soo-vexpress/optee_ta/asf/asf.c:38
     1a6:	2b00      	cmp	r3, #0
     1a8:	d1b6      	bne.n	118 <asf_enc_dec+0xf8>
/home/mattia/soo/soo-vexpress/optee_ta/asf/asf.c:35
     1aa:	3a01      	subs	r2, #1
     1ac:	d1f6      	bne.n	19c <asf_enc_dec+0x17c>
     1ae:	e7b3      	b.n	118 <asf_enc_dec+0xf8>
asf_enc_dec():
/home/mattia/soo/soo-vexpress/optee_ta/asf/asf.c:135
     1b0:	2110      	movs	r1, #16
     1b2:	e9cd 3700 	strd	r3, r7, [sp]
     1b6:	4633      	mov	r3, r6
     1b8:	9102      	str	r1, [sp, #8]
     1ba:	4631      	mov	r1, r6
     1bc:	f002 fbc8 	bl	2950 <TEE_AEDecryptFinal>
/home/mattia/soo/soo-vexpress/optee_ta/asf/asf.c:136
     1c0:	4604      	mov	r4, r0
     1c2:	2800      	cmp	r0, #0
     1c4:	d0a8      	beq.n	118 <asf_enc_dec+0xf8>
/home/mattia/soo/soo-vexpress/optee_ta/asf/asf.c:137
     1c6:	4b1b      	ldr	r3, [pc, #108]	; (234 <asf_enc_dec+0x214>)
     1c8:	2189      	movs	r1, #137	; 0x89
     1ca:	481b      	ldr	r0, [pc, #108]	; (238 <asf_enc_dec+0x218>)
     1cc:	447b      	add	r3, pc
     1ce:	4478      	add	r0, pc
     1d0:	e9cd 3400 	strd	r3, r4, [sp]
     1d4:	2301      	movs	r3, #1
     1d6:	461a      	mov	r2, r3
     1d8:	f000 f9d4 	bl	584 <trace_printf>
/home/mattia/soo/soo-vexpress/optee_ta/asf/asf.c:139
     1dc:	4629      	mov	r1, r5
     1de:	4630      	mov	r0, r6
     1e0:	9a05      	ldr	r2, [sp, #20]
     1e2:	f008 ffbe 	bl	9162 <memset>
/home/mattia/soo/soo-vexpress/optee_ta/asf/asf.c:140
     1e6:	e797      	b.n	118 <asf_enc_dec+0xf8>
     1e8:	ffff0006 	.word	0xffff0006
     1ec:	40000810 	.word	0x40000810
     1f0:	a0000010 	.word	0xa0000010
     1f4:	00009708 	.word	0x00009708
     1f8:	000098e5 	.word	0x000098e5
     1fc:	0000c2e6 	.word	0x0000c2e6
     200:	0000f336 	.word	0x0000f336
     204:	000096ec 	.word	0x000096ec
     208:	000098ad 	.word	0x000098ad
     20c:	0000f300 	.word	0x0000f300
     210:	000096df 	.word	0x000096df
     214:	00009873 	.word	0x00009873
     218:	000096ca 	.word	0x000096ca
     21c:	00009835 	.word	0x00009835
     220:	000096b5 	.word	0x000096b5
     224:	000097f9 	.word	0x000097f9
     228:	000096a9 	.word	0x000096a9
     22c:	000097c1 	.word	0x000097c1
     230:	0000c1ba 	.word	0x0000c1ba
     234:	0000968b 	.word	0x0000968b
     238:	00009771 	.word	0x00009771

0000023c <TA_CreateEntryPoint>:
TA_CreateEntryPoint():
/home/mattia/soo/soo-vexpress/optee_ta/asf/asf.c:170
     23c:	2000      	movs	r0, #0
     23e:	4770      	bx	lr

00000240 <TA_DestroyEntryPoint>:
TA_DestroyEntryPoint():
/home/mattia/soo/soo-vexpress/optee_ta/asf/asf.c:176
     240:	4770      	bx	lr

00000242 <TA_OpenSessionEntryPoint>:
TA_OpenSessionEntryPoint():
/home/mattia/soo/soo-vexpress/optee_ta/asf/asf.c:181
     242:	b51f      	push	{r0, r1, r2, r3, r4, lr}
/home/mattia/soo/soo-vexpress/optee_ta/asf/asf.c:191
     244:	2800      	cmp	r0, #0
     246:	d138      	bne.n	2ba <TA_OpenSessionEntryPoint+0x78>
/home/mattia/soo/soo-vexpress/optee_ta/asf/asf.c:203
     248:	4c1f      	ldr	r4, [pc, #124]	; (2c8 <TA_OpenSessionEntryPoint+0x86>)
/home/mattia/soo/soo-vexpress/optee_ta/asf/asf.c:201
     24a:	2320      	movs	r3, #32
/home/mattia/soo/soo-vexpress/optee_ta/asf/asf.c:203
     24c:	f04f 30ff 	mov.w	r0, #4294967295	; 0xffffffff
     250:	491e      	ldr	r1, [pc, #120]	; (2cc <TA_OpenSessionEntryPoint+0x8a>)
/home/mattia/soo/soo-vexpress/optee_ta/asf/asf.c:201
     252:	9302      	str	r3, [sp, #8]
/home/mattia/soo/soo-vexpress/optee_ta/asf/asf.c:203
     254:	ab02      	add	r3, sp, #8
     256:	447c      	add	r4, pc
     258:	4622      	mov	r2, r4
     25a:	4479      	add	r1, pc
     25c:	f003 f970 	bl	3540 <TEE_GetPropertyAsBinaryBlock>
/home/mattia/soo/soo-vexpress/optee_ta/asf/asf.c:204
     260:	b910      	cbnz	r0, 268 <TA_OpenSessionEntryPoint+0x26>
/home/mattia/soo/soo-vexpress/optee_ta/asf/asf.c:204 (discriminator 1)
     262:	9b02      	ldr	r3, [sp, #8]
     264:	2b20      	cmp	r3, #32
     266:	d00e      	beq.n	286 <TA_OpenSessionEntryPoint+0x44>
/home/mattia/soo/soo-vexpress/optee_ta/asf/asf.c:205
     268:	4b19      	ldr	r3, [pc, #100]	; (2d0 <TA_OpenSessionEntryPoint+0x8e>)
     26a:	9001      	str	r0, [sp, #4]
     26c:	21cd      	movs	r1, #205	; 0xcd
     26e:	4819      	ldr	r0, [pc, #100]	; (2d4 <TA_OpenSessionEntryPoint+0x92>)
     270:	447b      	add	r3, pc
     272:	4478      	add	r0, pc
     274:	9300      	str	r3, [sp, #0]
     276:	2301      	movs	r3, #1
     278:	300c      	adds	r0, #12
     27a:	461a      	mov	r2, r3
     27c:	f000 f982 	bl	584 <trace_printf>
/home/mattia/soo/soo-vexpress/optee_ta/asf/asf.c:217
     280:	480f      	ldr	r0, [pc, #60]	; (2c0 <TA_OpenSessionEntryPoint+0x7e>)
/home/mattia/soo/soo-vexpress/optee_ta/asf/asf.c:221
     282:	b004      	add	sp, #16
     284:	bd10      	pop	{r4, pc}
/home/mattia/soo/soo-vexpress/optee_ta/asf/asf.c:214
     286:	4914      	ldr	r1, [pc, #80]	; (2d8 <TA_OpenSessionEntryPoint+0x96>)
     288:	f104 0220 	add.w	r2, r4, #32
     28c:	f04f 30ff 	mov.w	r0, #4294967295	; 0xffffffff
/home/mattia/soo/soo-vexpress/optee_ta/asf/asf.c:212
     290:	9303      	str	r3, [sp, #12]
/home/mattia/soo/soo-vexpress/optee_ta/asf/asf.c:214
     292:	ab03      	add	r3, sp, #12
     294:	4479      	add	r1, pc
     296:	f003 f953 	bl	3540 <TEE_GetPropertyAsBinaryBlock>
/home/mattia/soo/soo-vexpress/optee_ta/asf/asf.c:215
     29a:	b910      	cbnz	r0, 2a2 <TA_OpenSessionEntryPoint+0x60>
/home/mattia/soo/soo-vexpress/optee_ta/asf/asf.c:215 (discriminator 1)
     29c:	9b03      	ldr	r3, [sp, #12]
     29e:	2b20      	cmp	r3, #32
     2a0:	d0ef      	beq.n	282 <TA_OpenSessionEntryPoint+0x40>
/home/mattia/soo/soo-vexpress/optee_ta/asf/asf.c:216
     2a2:	4b0e      	ldr	r3, [pc, #56]	; (2dc <TA_OpenSessionEntryPoint+0x9a>)
     2a4:	21d8      	movs	r1, #216	; 0xd8
     2a6:	480e      	ldr	r0, [pc, #56]	; (2e0 <TA_OpenSessionEntryPoint+0x9e>)
     2a8:	447b      	add	r3, pc
     2aa:	4478      	add	r0, pc
     2ac:	9300      	str	r3, [sp, #0]
     2ae:	2301      	movs	r3, #1
     2b0:	300c      	adds	r0, #12
     2b2:	461a      	mov	r2, r3
     2b4:	f000 f966 	bl	584 <trace_printf>
     2b8:	e7e2      	b.n	280 <TA_OpenSessionEntryPoint+0x3e>
/home/mattia/soo/soo-vexpress/optee_ta/asf/asf.c:192
     2ba:	4802      	ldr	r0, [pc, #8]	; (2c4 <TA_OpenSessionEntryPoint+0x82>)
     2bc:	e7e1      	b.n	282 <TA_OpenSessionEntryPoint+0x40>
     2be:	bf00      	nop
     2c0:	ffff0000 	.word	0xffff0000
     2c4:	ffff0006 	.word	0xffff0006
     2c8:	0000f156 	.word	0x0000f156
     2cc:	0000962f 	.word	0x0000962f
     2d0:	00009627 	.word	0x00009627
     2d4:	000096cd 	.word	0x000096cd
     2d8:	00009645 	.word	0x00009645
     2dc:	00009642 	.word	0x00009642
     2e0:	00009695 	.word	0x00009695

000002e4 <TA_CloseSessionEntryPoint>:
TA_CloseSessionEntryPoint():
/home/mattia/soo/soo-vexpress/optee_ta/asf/asf.c:226
     2e4:	4770      	bx	lr

000002e6 <TA_InvokeCommandEntryPoint>:
TA_InvokeCommandEntryPoint():
/home/mattia/soo/soo-vexpress/optee_ta/asf/asf.c:232
     2e6:	b513      	push	{r0, r1, r4, lr}
     2e8:	460c      	mov	r4, r1
     2ea:	4610      	mov	r0, r2
     2ec:	4619      	mov	r1, r3
/home/mattia/soo/soo-vexpress/optee_ta/asf/asf.c:235
     2ee:	4622      	mov	r2, r4
     2f0:	b184      	cbz	r4, 314 <TA_InvokeCommandEntryPoint+0x2e>
     2f2:	2c01      	cmp	r4, #1
     2f4:	d00e      	beq.n	314 <TA_InvokeCommandEntryPoint+0x2e>
/home/mattia/soo/soo-vexpress/optee_ta/asf/asf.c:241
     2f6:	4b0a      	ldr	r3, [pc, #40]	; (320 <TA_InvokeCommandEntryPoint+0x3a>)
     2f8:	21f1      	movs	r1, #241	; 0xf1
     2fa:	9401      	str	r4, [sp, #4]
     2fc:	4809      	ldr	r0, [pc, #36]	; (324 <TA_InvokeCommandEntryPoint+0x3e>)
     2fe:	447b      	add	r3, pc
     300:	4478      	add	r0, pc
     302:	9300      	str	r3, [sp, #0]
     304:	2301      	movs	r3, #1
     306:	3025      	adds	r0, #37	; 0x25
     308:	461a      	mov	r2, r3
     30a:	f000 f93b 	bl	584 <trace_printf>
/home/mattia/soo/soo-vexpress/optee_ta/asf/asf.c:246
     30e:	4803      	ldr	r0, [pc, #12]	; (31c <TA_InvokeCommandEntryPoint+0x36>)
     310:	b002      	add	sp, #8
     312:	bd10      	pop	{r4, pc}
     314:	b002      	add	sp, #8
     316:	e8bd 4010 	ldmia.w	sp!, {r4, lr}
asf_decode_buf():
/home/mattia/soo/soo-vexpress/optee_ta/asf/asf.c:162
     31a:	e681      	b.n	20 <asf_enc_dec>
     31c:	ffff0006 	.word	0xffff0006
     320:	0000961f 	.word	0x0000961f
     324:	0000963f 	.word	0x0000963f

00000328 <__ta_entry>:
__ta_entry():
/home/mattia/soo/soo-vexpress/optee_os/out/arm-plat-vexpress/export-ta_arm32/src/ta_entry_a32.S:20
     328:	fa002389 	blx	9154 <__ta_entry_c>

0000032c <memcpy>:
memcpy():
/home/mattia/soo/soo-vexpress/optee_os/lib/libutils/isoc/newlib/memcpy.c:106
     32c:	2a0f      	cmp	r2, #15
/home/mattia/soo/soo-vexpress/optee_os/lib/libutils/isoc/newlib/memcpy.c:87
     32e:	e96d 4504 	strd	r4, r5, [sp, #-16]!
     332:	e9cd 6702 	strd	r6, r7, [sp, #8]
/home/mattia/soo/soo-vexpress/optee_os/lib/libutils/isoc/newlib/memcpy.c:106
     336:	d952      	bls.n	3de <memcpy+0xb2>
/home/mattia/soo/soo-vexpress/optee_os/lib/libutils/isoc/newlib/memcpy.c:106 (discriminator 1)
     338:	ea40 0301 	orr.w	r3, r0, r1
     33c:	079b      	lsls	r3, r3, #30
     33e:	d164      	bne.n	40a <memcpy+0xde>
     340:	f1a2 0310 	sub.w	r3, r2, #16
     344:	f101 0620 	add.w	r6, r1, #32
     348:	f023 040f 	bic.w	r4, r3, #15
     34c:	ea4f 1713 	mov.w	r7, r3, lsr #4
     350:	4426      	add	r6, r4
     352:	f101 0310 	add.w	r3, r1, #16
     356:	f100 0410 	add.w	r4, r0, #16
/home/mattia/soo/soo-vexpress/optee_os/lib/libutils/isoc/newlib/memcpy.c:112
     35a:	f853 5c10 	ldr.w	r5, [r3, #-16]
     35e:	f103 0310 	add.w	r3, r3, #16
     362:	f104 0410 	add.w	r4, r4, #16
     366:	f844 5c20 	str.w	r5, [r4, #-32]
/home/mattia/soo/soo-vexpress/optee_os/lib/libutils/isoc/newlib/memcpy.c:113
     36a:	f853 5c1c 	ldr.w	r5, [r3, #-28]
     36e:	f844 5c1c 	str.w	r5, [r4, #-28]
/home/mattia/soo/soo-vexpress/optee_os/lib/libutils/isoc/newlib/memcpy.c:114
     372:	f853 5c18 	ldr.w	r5, [r3, #-24]
     376:	f844 5c18 	str.w	r5, [r4, #-24]
/home/mattia/soo/soo-vexpress/optee_os/lib/libutils/isoc/newlib/memcpy.c:115
     37a:	f853 5c14 	ldr.w	r5, [r3, #-20]
/home/mattia/soo/soo-vexpress/optee_os/lib/libutils/isoc/newlib/memcpy.c:111
     37e:	42b3      	cmp	r3, r6
/home/mattia/soo/soo-vexpress/optee_os/lib/libutils/isoc/newlib/memcpy.c:115
     380:	f844 5c14 	str.w	r5, [r4, #-20]
/home/mattia/soo/soo-vexpress/optee_os/lib/libutils/isoc/newlib/memcpy.c:111
     384:	d1e9      	bne.n	35a <memcpy+0x2e>
     386:	f107 0301 	add.w	r3, r7, #1
/home/mattia/soo/soo-vexpress/optee_os/lib/libutils/isoc/newlib/memcpy.c:120
     38a:	f012 0f0c 	tst.w	r2, #12
     38e:	ea4f 1303 	mov.w	r3, r3, lsl #4
     392:	f002 050f 	and.w	r5, r2, #15
     396:	bf08      	it	eq
     398:	462a      	moveq	r2, r5
     39a:	4419      	add	r1, r3
     39c:	4403      	add	r3, r0
     39e:	d01f      	beq.n	3e0 <memcpy+0xb4>
     3a0:	f1a3 0704 	sub.w	r7, r3, #4
/home/mattia/soo/soo-vexpress/optee_os/lib/libutils/isoc/newlib/memcpy.c:115
     3a4:	460e      	mov	r6, r1
/home/mattia/soo/soo-vexpress/optee_os/lib/libutils/isoc/newlib/memcpy.c:121
     3a6:	f856 cb04 	ldr.w	ip, [r6], #4
     3aa:	eba5 0406 	sub.w	r4, r5, r6
     3ae:	f847 cf04 	str.w	ip, [r7, #4]!
/home/mattia/soo/soo-vexpress/optee_os/lib/libutils/isoc/newlib/memcpy.c:120
     3b2:	440c      	add	r4, r1
     3b4:	2c03      	cmp	r4, #3
     3b6:	d8f6      	bhi.n	3a6 <memcpy+0x7a>
     3b8:	f1a5 0404 	sub.w	r4, r5, #4
     3bc:	f002 0203 	and.w	r2, r2, #3
     3c0:	f024 0403 	bic.w	r4, r4, #3
     3c4:	f104 0404 	add.w	r4, r4, #4
     3c8:	4423      	add	r3, r4
     3ca:	4421      	add	r1, r4
/home/mattia/soo/soo-vexpress/optee_os/lib/libutils/isoc/newlib/memcpy.c:130
     3cc:	f102 34ff 	add.w	r4, r2, #4294967295	; 0xffffffff
     3d0:	b952      	cbnz	r2, 3e8 <memcpy+0xbc>
/home/mattia/soo/soo-vexpress/optee_os/lib/libutils/isoc/newlib/memcpy.c:135
     3d2:	e9dd 4500 	ldrd	r4, r5, [sp]
     3d6:	e9dd 6702 	ldrd	r6, r7, [sp, #8]
     3da:	b004      	add	sp, #16
     3dc:	4770      	bx	lr
/home/mattia/soo/soo-vexpress/optee_os/lib/libutils/isoc/newlib/memcpy.c:99
     3de:	4603      	mov	r3, r0
/home/mattia/soo/soo-vexpress/optee_os/lib/libutils/isoc/newlib/memcpy.c:130
     3e0:	f102 34ff 	add.w	r4, r2, #4294967295	; 0xffffffff
     3e4:	2a00      	cmp	r2, #0
     3e6:	d0f4      	beq.n	3d2 <memcpy+0xa6>
     3e8:	f104 0401 	add.w	r4, r4, #1
     3ec:	f103 33ff 	add.w	r3, r3, #4294967295	; 0xffffffff
     3f0:	440c      	add	r4, r1
/home/mattia/soo/soo-vexpress/optee_os/lib/libutils/isoc/newlib/memcpy.c:131
     3f2:	f811 2b01 	ldrb.w	r2, [r1], #1
/home/mattia/soo/soo-vexpress/optee_os/lib/libutils/isoc/newlib/memcpy.c:130
     3f6:	42a1      	cmp	r1, r4
/home/mattia/soo/soo-vexpress/optee_os/lib/libutils/isoc/newlib/memcpy.c:131
     3f8:	f803 2f01 	strb.w	r2, [r3, #1]!
/home/mattia/soo/soo-vexpress/optee_os/lib/libutils/isoc/newlib/memcpy.c:130
     3fc:	d1f9      	bne.n	3f2 <memcpy+0xc6>
/home/mattia/soo/soo-vexpress/optee_os/lib/libutils/isoc/newlib/memcpy.c:135
     3fe:	e9dd 4500 	ldrd	r4, r5, [sp]
     402:	e9dd 6702 	ldrd	r6, r7, [sp, #8]
     406:	b004      	add	sp, #16
     408:	4770      	bx	lr
/home/mattia/soo/soo-vexpress/optee_os/lib/libutils/isoc/newlib/memcpy.c:130
     40a:	f102 34ff 	add.w	r4, r2, #4294967295	; 0xffffffff
/home/mattia/soo/soo-vexpress/optee_os/lib/libutils/isoc/newlib/memcpy.c:99
     40e:	4603      	mov	r3, r0
     410:	e7ea      	b.n	3e8 <memcpy+0xbc>
     412:	bf00      	nop

00000414 <trace_set_level>:
trace_set_level():
/home/mattia/soo/soo-vexpress/optee_os/lib/libutils/ext/trace.c:25
     414:	4b04      	ldr	r3, [pc, #16]	; (428 <trace_set_level+0x14>)
/home/mattia/soo/soo-vexpress/optee_os/lib/libutils/ext/trace.c:29
     416:	2804      	cmp	r0, #4
     418:	4a04      	ldr	r2, [pc, #16]	; (42c <trace_set_level+0x18>)
     41a:	bf28      	it	cs
     41c:	2004      	movcs	r0, #4
/home/mattia/soo/soo-vexpress/optee_os/lib/libutils/ext/trace.c:25
     41e:	447b      	add	r3, pc
     420:	589b      	ldr	r3, [r3, r2]
     422:	6018      	str	r0, [r3, #0]
/home/mattia/soo/soo-vexpress/optee_os/lib/libutils/ext/trace.c:30
     424:	4770      	bx	lr
     426:	bf00      	nop
     428:	0000bc66 	.word	0x0000bc66
     42c:	00000014 	.word	0x00000014

00000430 <trace_get_level>:
trace_get_level():
/home/mattia/soo/soo-vexpress/optee_os/lib/libutils/ext/trace.c:33
     430:	4b02      	ldr	r3, [pc, #8]	; (43c <trace_get_level+0xc>)
/home/mattia/soo/soo-vexpress/optee_os/lib/libutils/ext/trace.c:34
     432:	4a03      	ldr	r2, [pc, #12]	; (440 <trace_get_level+0x10>)
/home/mattia/soo/soo-vexpress/optee_os/lib/libutils/ext/trace.c:33
     434:	447b      	add	r3, pc
/home/mattia/soo/soo-vexpress/optee_os/lib/libutils/ext/trace.c:34
     436:	589b      	ldr	r3, [r3, r2]
/home/mattia/soo/soo-vexpress/optee_os/lib/libutils/ext/trace.c:35
     438:	6818      	ldr	r0, [r3, #0]
     43a:	4770      	bx	lr
     43c:	0000bc50 	.word	0x0000bc50
     440:	00000014 	.word	0x00000014

00000444 <trace_vprintf>:
trace_vprintf():
/home/mattia/soo/soo-vexpress/optee_os/lib/libutils/ext/trace.c:106
     444:	e92d 4ff0 	stmdb	sp!, {r4, r5, r6, r7, r8, r9, sl, fp, lr}
     448:	4607      	mov	r7, r0
     44a:	f8df b110 	ldr.w	fp, [pc, #272]	; 55c <trace_vprintf+0x118>
     44e:	b0c5      	sub	sp, #276	; 0x114
     450:	4688      	mov	r8, r1
     452:	4614      	mov	r4, r2
/home/mattia/soo/soo-vexpress/optee_os/lib/libutils/ext/trace.c:111
     454:	469a      	mov	sl, r3
/home/mattia/soo/soo-vexpress/optee_os/lib/libutils/ext/trace.c:106
     456:	44fb      	add	fp, pc
/home/mattia/soo/soo-vexpress/optee_os/lib/libutils/ext/trace.c:111
     458:	2b00      	cmp	r3, #0
     45a:	d06b      	beq.n	534 <trace_vprintf+0xf0>
/home/mattia/soo/soo-vexpress/optee_os/lib/libutils/ext/trace.c:111 (discriminator 1)
     45c:	4b40      	ldr	r3, [pc, #256]	; (560 <trace_vprintf+0x11c>)
     45e:	f85b 3003 	ldr.w	r3, [fp, r3]
     462:	681b      	ldr	r3, [r3, #0]
     464:	4293      	cmp	r3, r2
     466:	db62      	blt.n	52e <trace_vprintf+0xea>
trace_level_to_string():
/home/mattia/soo/soo-vexpress/optee_os/lib/libutils/ext/trace.c:52
     468:	2a04      	cmp	r2, #4
     46a:	bf98      	it	ls
     46c:	4613      	movls	r3, r2
/home/mattia/soo/soo-vexpress/optee_os/lib/libutils/ext/trace.c:55
     46e:	4a3d      	ldr	r2, [pc, #244]	; (564 <trace_vprintf+0x120>)
/home/mattia/soo/soo-vexpress/optee_os/lib/libutils/ext/trace.c:52
     470:	bf88      	it	hi
     472:	2300      	movhi	r3, #0
/home/mattia/soo/soo-vexpress/optee_os/lib/libutils/ext/trace.c:55
     474:	447a      	add	r2, pc
     476:	5cd3      	ldrb	r3, [r2, r3]
trace_vprintf():
/home/mattia/soo/soo-vexpress/optee_os/lib/libutils/ext/trace.c:115
     478:	4a3b      	ldr	r2, [pc, #236]	; (568 <trace_vprintf+0x124>)
     47a:	ad04      	add	r5, sp, #16
     47c:	f44f 7180 	mov.w	r1, #256	; 0x100
     480:	4628      	mov	r0, r5
     482:	447a      	add	r2, pc
     484:	f000 f8ab 	bl	5de <snprintk>
/home/mattia/soo/soo-vexpress/optee_os/lib/libutils/ext/trace.c:117
     488:	1e06      	subs	r6, r0, #0
     48a:	db50      	blt.n	52e <trace_vprintf+0xea>
/home/mattia/soo/soo-vexpress/optee_os/lib/libutils/ext/trace.c:122
     48c:	4b37      	ldr	r3, [pc, #220]	; (56c <trace_vprintf+0x128>)
     48e:	f5c6 7180 	rsb	r1, r6, #256	; 0x100
     492:	19a8      	adds	r0, r5, r6
     494:	4a36      	ldr	r2, [pc, #216]	; (570 <trace_vprintf+0x12c>)
     496:	f85b 3003 	ldr.w	r3, [fp, r3]
     49a:	447a      	add	r2, pc
     49c:	9303      	str	r3, [sp, #12]
     49e:	f000 f89e 	bl	5de <snprintk>
/home/mattia/soo/soo-vexpress/optee_os/lib/libutils/ext/trace.c:124
     4a2:	2800      	cmp	r0, #0
     4a4:	db43      	blt.n	52e <trace_vprintf+0xea>
/home/mattia/soo/soo-vexpress/optee_os/lib/libutils/ext/trace.c:126
     4a6:	4406      	add	r6, r0
/home/mattia/soo/soo-vexpress/optee_os/lib/libutils/ext/trace.c:128
     4a8:	f1ba 0f00 	cmp.w	sl, #0
     4ac:	d04b      	beq.n	546 <trace_vprintf+0x102>
/home/mattia/soo/soo-vexpress/optee_os/lib/libutils/ext/trace.c:128 (discriminator 1)
     4ae:	221a      	movs	r2, #26
     4b0:	fa22 f404 	lsr.w	r4, r2, r4
     4b4:	07e3      	lsls	r3, r4, #31
     4b6:	d546      	bpl.n	546 <trace_vprintf+0x102>
print_thread_id():
/home/mattia/soo/soo-vexpress/optee_os/lib/libutils/ext/trace.c:65
     4b8:	f000 fc24 	bl	d04 <trace_ext_get_thread_id>
/home/mattia/soo/soo-vexpress/optee_os/lib/libutils/ext/trace.c:67
     4bc:	2800      	cmp	r0, #0
trace_vprintf():
/home/mattia/soo/soo-vexpress/optee_os/lib/libutils/ext/trace.c:130
     4be:	eb05 0406 	add.w	r4, r5, r6
     4c2:	f5c6 7980 	rsb	r9, r6, #256	; 0x100
print_thread_id():
/home/mattia/soo/soo-vexpress/optee_os/lib/libutils/ext/trace.c:67
     4c6:	db37      	blt.n	538 <trace_vprintf+0xf4>
/home/mattia/soo/soo-vexpress/optee_os/lib/libutils/ext/trace.c:68
     4c8:	4a2a      	ldr	r2, [pc, #168]	; (574 <trace_vprintf+0x130>)
     4ca:	2301      	movs	r3, #1
     4cc:	9000      	str	r0, [sp, #0]
     4ce:	447a      	add	r2, pc
/home/mattia/soo/soo-vexpress/optee_os/lib/libutils/ext/trace.c:70
     4d0:	4649      	mov	r1, r9
     4d2:	4620      	mov	r0, r4
     4d4:	f000 f883 	bl	5de <snprintk>
trace_vprintf():
/home/mattia/soo/soo-vexpress/optee_os/lib/libutils/ext/trace.c:137
     4d8:	2800      	cmp	r0, #0
     4da:	db28      	blt.n	52e <trace_vprintf+0xea>
/home/mattia/soo/soo-vexpress/optee_os/lib/libutils/ext/trace.c:139
     4dc:	1984      	adds	r4, r0, r6
/home/mattia/soo/soo-vexpress/optee_os/lib/libutils/ext/trace.c:141
     4de:	b167      	cbz	r7, 4fa <trace_vprintf+0xb6>
/home/mattia/soo/soo-vexpress/optee_os/lib/libutils/ext/trace.c:142
     4e0:	4a25      	ldr	r2, [pc, #148]	; (578 <trace_vprintf+0x134>)
     4e2:	463b      	mov	r3, r7
     4e4:	f5c4 7180 	rsb	r1, r4, #256	; 0x100
     4e8:	1928      	adds	r0, r5, r4
     4ea:	f8cd 8000 	str.w	r8, [sp]
     4ee:	447a      	add	r2, pc
     4f0:	f000 f875 	bl	5de <snprintk>
/home/mattia/soo/soo-vexpress/optee_os/lib/libutils/ext/trace.c:144
     4f4:	2800      	cmp	r0, #0
     4f6:	db1a      	blt.n	52e <trace_vprintf+0xea>
/home/mattia/soo/soo-vexpress/optee_os/lib/libutils/ext/trace.c:146
     4f8:	4404      	add	r4, r0
/home/mattia/soo/soo-vexpress/optee_os/lib/libutils/ext/trace.c:156
     4fa:	f5c4 7180 	rsb	r1, r4, #256	; 0x100
     4fe:	1928      	adds	r0, r5, r4
     500:	9a4e      	ldr	r2, [sp, #312]	; 0x138
     502:	9b4f      	ldr	r3, [sp, #316]	; 0x13c
     504:	f000 f864 	bl	5d0 <vsnprintk>
/home/mattia/soo/soo-vexpress/optee_os/lib/libutils/ext/trace.c:157
     508:	2800      	cmp	r0, #0
/home/mattia/soo/soo-vexpress/optee_os/lib/libutils/ext/trace.c:163
     50a:	f04f 030a 	mov.w	r3, #10
/home/mattia/soo/soo-vexpress/optee_os/lib/libutils/ext/trace.c:158
     50e:	bfc8      	it	gt
     510:	1824      	addgt	r4, r4, r0
/home/mattia/soo/soo-vexpress/optee_os/lib/libutils/ext/trace.c:160
     512:	2cfe      	cmp	r4, #254	; 0xfe
     514:	bf28      	it	cs
     516:	24fe      	movcs	r4, #254	; 0xfe
/home/mattia/soo/soo-vexpress/optee_os/lib/libutils/ext/trace.c:163
     518:	552b      	strb	r3, [r5, r4]
/home/mattia/soo/soo-vexpress/optee_os/lib/libutils/ext/trace.c:164
     51a:	b114      	cbz	r4, 522 <trace_vprintf+0xde>
/home/mattia/soo/soo-vexpress/optee_os/lib/libutils/ext/trace.c:164 (discriminator 1)
     51c:	5d2b      	ldrb	r3, [r5, r4]
     51e:	2b0a      	cmp	r3, #10
     520:	d019      	beq.n	556 <trace_vprintf+0x112>
/home/mattia/soo/soo-vexpress/optee_os/lib/libutils/ext/trace.c:167
     522:	442c      	add	r4, r5
     524:	2300      	movs	r3, #0
/home/mattia/soo/soo-vexpress/optee_os/lib/libutils/ext/trace.c:169
     526:	4628      	mov	r0, r5
/home/mattia/soo/soo-vexpress/optee_os/lib/libutils/ext/trace.c:167
     528:	70a3      	strb	r3, [r4, #2]
/home/mattia/soo/soo-vexpress/optee_os/lib/libutils/ext/trace.c:169
     52a:	f000 fbe1 	bl	cf0 <trace_ext_puts>
/home/mattia/soo/soo-vexpress/optee_os/lib/libutils/ext/trace.c:170
     52e:	b045      	add	sp, #276	; 0x114
     530:	e8bd 8ff0 	ldmia.w	sp!, {r4, r5, r6, r7, r8, r9, sl, fp, pc}
trace_level_to_string():
/home/mattia/soo/soo-vexpress/optee_os/lib/libutils/ext/trace.c:50
     534:	234d      	movs	r3, #77	; 0x4d
     536:	e79f      	b.n	478 <trace_vprintf+0x34>
print_thread_id():
/home/mattia/soo/soo-vexpress/optee_os/lib/libutils/ext/trace.c:70
     538:	4b10      	ldr	r3, [pc, #64]	; (57c <trace_vprintf+0x138>)
     53a:	4a11      	ldr	r2, [pc, #68]	; (580 <trace_vprintf+0x13c>)
     53c:	447b      	add	r3, pc
     53e:	447a      	add	r2, pc
     540:	9300      	str	r3, [sp, #0]
     542:	2301      	movs	r3, #1
     544:	e7c4      	b.n	4d0 <trace_vprintf+0x8c>
trace_vprintf():
/home/mattia/soo/soo-vexpress/optee_os/lib/libutils/ext/trace.c:150
     546:	2efe      	cmp	r6, #254	; 0xfe
     548:	d8f1      	bhi.n	52e <trace_vprintf+0xea>
/home/mattia/soo/soo-vexpress/optee_os/lib/libutils/ext/trace.c:152
     54a:	2320      	movs	r3, #32
     54c:	1c74      	adds	r4, r6, #1
     54e:	55ab      	strb	r3, [r5, r6]
/home/mattia/soo/soo-vexpress/optee_os/lib/libutils/ext/trace.c:153
     550:	2300      	movs	r3, #0
     552:	552b      	strb	r3, [r5, r4]
     554:	e7d1      	b.n	4fa <trace_vprintf+0xb6>
/home/mattia/soo/soo-vexpress/optee_os/lib/libutils/ext/trace.c:165
     556:	3c01      	subs	r4, #1
     558:	e7df      	b.n	51a <trace_vprintf+0xd6>
     55a:	bf00      	nop
     55c:	0000bc2e 	.word	0x0000bc2e
     560:	00000014 	.word	0x00000014
     564:	0000963d 	.word	0x0000963d
     568:	00009615 	.word	0x00009615
     56c:	0000001c 	.word	0x0000001c
     570:	00009601 	.word	0x00009601
     574:	000095d1 	.word	0x000095d1
     578:	000095bc 	.word	0x000095bc
     57c:	0000923f 	.word	0x0000923f
     580:	00009567 	.word	0x00009567

00000584 <trace_printf>:
trace_printf():
/home/mattia/soo/soo-vexpress/optee_os/lib/libutils/ext/trace.c:97
     584:	b530      	push	{r4, r5, lr}
     586:	b085      	sub	sp, #20
     588:	ac08      	add	r4, sp, #32
     58a:	f854 5b04 	ldr.w	r5, [r4], #4
/home/mattia/soo/soo-vexpress/optee_os/lib/libutils/ext/trace.c:101
     58e:	9500      	str	r5, [sp, #0]
     590:	9401      	str	r4, [sp, #4]
/home/mattia/soo/soo-vexpress/optee_os/lib/libutils/ext/trace.c:100
     592:	9403      	str	r4, [sp, #12]
/home/mattia/soo/soo-vexpress/optee_os/lib/libutils/ext/trace.c:101
     594:	f7ff ff56 	bl	444 <trace_vprintf>
/home/mattia/soo/soo-vexpress/optee_os/lib/libutils/ext/trace.c:103
     598:	b005      	add	sp, #20
     59a:	bd30      	pop	{r4, r5, pc}

0000059c <dhex_dump>:
dhex_dump():
/home/mattia/soo/soo-vexpress/optee_os/lib/libutils/ext/trace.c:280
     59c:	4770      	bx	lr
     59e:	bf00      	nop

000005a0 <__vsnprintf>:
__vsnprintf():
/home/mattia/soo/soo-vexpress/optee_os/lib/libutils/ext/snprintk.c:138
     5a0:	b57f      	push	{r0, r1, r2, r3, r4, r5, r6, lr}
     5a2:	4604      	mov	r4, r0
     5a4:	4610      	mov	r0, r2
/home/mattia/soo/soo-vexpress/optee_os/lib/libutils/ext/snprintk.c:143
     5a6:	f89d 2020 	ldrb.w	r2, [sp, #32]
/home/mattia/soo/soo-vexpress/optee_os/lib/libutils/ext/snprintk.c:142
     5aa:	1866      	adds	r6, r4, r1
/home/mattia/soo/soo-vexpress/optee_os/lib/libutils/ext/snprintk.c:138
     5ac:	460d      	mov	r5, r1
/home/mattia/soo/soo-vexpress/optee_os/lib/libutils/ext/snprintk.c:143
     5ae:	a903      	add	r1, sp, #12
     5b0:	9200      	str	r2, [sp, #0]
     5b2:	4622      	mov	r2, r4
/home/mattia/soo/soo-vexpress/optee_os/lib/libutils/ext/snprintk.c:142
     5b4:	9603      	str	r6, [sp, #12]
/home/mattia/soo/soo-vexpress/optee_os/lib/libutils/ext/snprintk.c:143
     5b6:	f000 f81f 	bl	5f8 <kprintf.constprop.0>
/home/mattia/soo/soo-vexpress/optee_os/lib/libutils/ext/snprintk.c:144
     5ba:	b13c      	cbz	r4, 5cc <__vsnprintf+0x2c>
/home/mattia/soo/soo-vexpress/optee_os/lib/libutils/ext/snprintk.c:144 (discriminator 1)
     5bc:	b135      	cbz	r5, 5cc <__vsnprintf+0x2c>
/home/mattia/soo/soo-vexpress/optee_os/lib/libutils/ext/snprintk.c:146
     5be:	42a8      	cmp	r0, r5
     5c0:	f04f 0300 	mov.w	r3, #0
/home/mattia/soo/soo-vexpress/optee_os/lib/libutils/ext/snprintk.c:147
     5c4:	bf2c      	ite	cs
     5c6:	f806 3c01 	strbcs.w	r3, [r6, #-1]
/home/mattia/soo/soo-vexpress/optee_os/lib/libutils/ext/snprintk.c:149
     5ca:	5423      	strbcc	r3, [r4, r0]
/home/mattia/soo/soo-vexpress/optee_os/lib/libutils/ext/snprintk.c:152
     5cc:	b004      	add	sp, #16
     5ce:	bd70      	pop	{r4, r5, r6, pc}

000005d0 <vsnprintk>:
vsnprintk():
/home/mattia/soo/soo-vexpress/optee_os/lib/libutils/ext/snprintk.c:130
     5d0:	b513      	push	{r0, r1, r4, lr}
/home/mattia/soo/soo-vexpress/optee_os/lib/libutils/ext/snprintk.c:131
     5d2:	2401      	movs	r4, #1
     5d4:	9400      	str	r4, [sp, #0]
     5d6:	f7ff ffe3 	bl	5a0 <__vsnprintf>
/home/mattia/soo/soo-vexpress/optee_os/lib/libutils/ext/snprintk.c:132
     5da:	b002      	add	sp, #8
     5dc:	bd10      	pop	{r4, pc}

000005de <snprintk>:
snprintk():
/home/mattia/soo/soo-vexpress/optee_os/lib/libutils/ext/snprintk.c:113
     5de:	b40c      	push	{r2, r3}
     5e0:	b507      	push	{r0, r1, r2, lr}
     5e2:	ab04      	add	r3, sp, #16
     5e4:	f853 2b04 	ldr.w	r2, [r3], #4
/home/mattia/soo/soo-vexpress/optee_os/lib/libutils/ext/snprintk.c:117
     5e8:	9301      	str	r3, [sp, #4]
/home/mattia/soo/soo-vexpress/optee_os/lib/libutils/ext/snprintk.c:118
     5ea:	f7ff fff1 	bl	5d0 <vsnprintk>
/home/mattia/soo/soo-vexpress/optee_os/lib/libutils/ext/snprintk.c:122
     5ee:	b003      	add	sp, #12
     5f0:	f85d eb04 	ldr.w	lr, [sp], #4
     5f4:	b002      	add	sp, #8
     5f6:	4770      	bx	lr

000005f8 <kprintf.constprop.0>:
kprintf():
/home/mattia/soo/soo-vexpress/optee_os/lib/libutils/ext/snprintk.c:242
     5f8:	e92d 4ff0 	stmdb	sp!, {r4, r5, r6, r7, r8, r9, sl, fp, lr}
     5fc:	b09f      	sub	sp, #124	; 0x7c
     5fe:	4690      	mov	r8, r2
     600:	f89d 20a0 	ldrb.w	r2, [sp, #160]	; 0xa0
     604:	461f      	mov	r7, r3
     606:	900b      	str	r0, [sp, #44]	; 0x2c
/home/mattia/soo/soo-vexpress/optee_os/lib/libutils/ext/snprintk.c:264
     608:	910d      	str	r1, [sp, #52]	; 0x34
/home/mattia/soo/soo-vexpress/optee_os/lib/libutils/ext/snprintk.c:242
     60a:	9213      	str	r2, [sp, #76]	; 0x4c
/home/mattia/soo/soo-vexpress/optee_os/lib/libutils/ext/snprintk.c:264
     60c:	b189      	cbz	r1, 632 <kprintf.constprop.0+0x3a>
/home/mattia/soo/soo-vexpress/optee_os/lib/libutils/ext/snprintk.c:265
     60e:	680b      	ldr	r3, [r1, #0]
/home/mattia/soo/soo-vexpress/optee_os/lib/libutils/ext/snprintk.c:267
     610:	9310      	str	r3, [sp, #64]	; 0x40
/home/mattia/soo/soo-vexpress/optee_os/lib/libutils/ext/snprintk.c:275
     612:	2300      	movs	r3, #0
/home/mattia/soo/soo-vexpress/optee_os/lib/libutils/ext/snprintk.c:273
     614:	930e      	str	r3, [sp, #56]	; 0x38
/home/mattia/soo/soo-vexpress/optee_os/lib/libutils/ext/snprintk.c:275
     616:	9311      	str	r3, [sp, #68]	; 0x44
/home/mattia/soo/soo-vexpress/optee_os/lib/libutils/ext/snprintk.c:281
     618:	9b0b      	ldr	r3, [sp, #44]	; 0x2c
     61a:	781b      	ldrb	r3, [r3, #0]
     61c:	2b25      	cmp	r3, #37	; 0x25
     61e:	d01b      	beq.n	658 <kprintf.constprop.0+0x60>
     620:	b94b      	cbnz	r3, 636 <kprintf.constprop.0+0x3e>
/home/mattia/soo/soo-vexpress/optee_os/lib/libutils/ext/snprintk.c:619
     622:	9b0d      	ldr	r3, [sp, #52]	; 0x34
     624:	b10b      	cbz	r3, 62a <kprintf.constprop.0+0x32>
/home/mattia/soo/soo-vexpress/optee_os/lib/libutils/ext/snprintk.c:620
     626:	f8c3 8000 	str.w	r8, [r3]
/home/mattia/soo/soo-vexpress/optee_os/lib/libutils/ext/snprintk.c:622
     62a:	980e      	ldr	r0, [sp, #56]	; 0x38
     62c:	b01f      	add	sp, #124	; 0x7c
     62e:	e8bd 8ff0 	ldmia.w	sp!, {r4, r5, r6, r7, r8, r9, sl, fp, pc}
/home/mattia/soo/soo-vexpress/optee_os/lib/libutils/ext/snprintk.c:267
     632:	9b0d      	ldr	r3, [sp, #52]	; 0x34
     634:	e7ec      	b.n	610 <kprintf.constprop.0+0x18>
/home/mattia/soo/soo-vexpress/optee_os/lib/libutils/ext/snprintk.c:282
     636:	9a0e      	ldr	r2, [sp, #56]	; 0x38
     638:	3201      	adds	r2, #1
     63a:	920e      	str	r2, [sp, #56]	; 0x38
/home/mattia/soo/soo-vexpress/optee_os/lib/libutils/ext/snprintk.c:283
     63c:	f1b8 0f00 	cmp.w	r8, #0
     640:	d006      	beq.n	650 <kprintf.constprop.0+0x58>
     642:	9a0d      	ldr	r2, [sp, #52]	; 0x34
     644:	b112      	cbz	r2, 64c <kprintf.constprop.0+0x54>
     646:	9a10      	ldr	r2, [sp, #64]	; 0x40
     648:	4590      	cmp	r8, r2
     64a:	d201      	bcs.n	650 <kprintf.constprop.0+0x58>
     64c:	f808 3b01 	strb.w	r3, [r8], #1
/home/mattia/soo/soo-vexpress/optee_os/lib/libutils/ext/snprintk.c:281
     650:	9b0b      	ldr	r3, [sp, #44]	; 0x2c
     652:	3301      	adds	r3, #1
     654:	930b      	str	r3, [sp, #44]	; 0x2c
     656:	e7df      	b.n	618 <kprintf.constprop.0+0x20>
/home/mattia/soo/soo-vexpress/optee_os/lib/libutils/ext/snprintk.c:288
     658:	980b      	ldr	r0, [sp, #44]	; 0x2c
/home/mattia/soo/soo-vexpress/optee_os/lib/libutils/ext/snprintk.c:294
     65a:	f04f 0900 	mov.w	r9, #0
/home/mattia/soo/soo-vexpress/optee_os/lib/libutils/ext/snprintk.c:288
     65e:	463b      	mov	r3, r7
/home/mattia/soo/soo-vexpress/optee_os/lib/libutils/ext/snprintk.c:293
     660:	f04f 3bff 	mov.w	fp, #4294967295	; 0xffffffff
/home/mattia/soo/soo-vexpress/optee_os/lib/libutils/ext/snprintk.c:290
     664:	464e      	mov	r6, r9
/home/mattia/soo/soo-vexpress/optee_os/lib/libutils/ext/snprintk.c:292
     666:	f8cd 903c 	str.w	r9, [sp, #60]	; 0x3c
/home/mattia/soo/soo-vexpress/optee_os/lib/libutils/ext/snprintk.c:288
     66a:	3001      	adds	r0, #1
/home/mattia/soo/soo-vexpress/optee_os/lib/libutils/ext/snprintk.c:296
     66c:	4601      	mov	r1, r0
     66e:	f811 2b01 	ldrb.w	r2, [r1], #1
     672:	910b      	str	r1, [sp, #44]	; 0x2c
     674:	920c      	str	r2, [sp, #48]	; 0x30
/home/mattia/soo/soo-vexpress/optee_os/lib/libutils/ext/snprintk.c:297
     676:	9a0c      	ldr	r2, [sp, #48]	; 0x30
     678:	2a39      	cmp	r2, #57	; 0x39
     67a:	dc70      	bgt.n	75e <kprintf.constprop.0+0x166>
     67c:	2a1f      	cmp	r2, #31
     67e:	f340 82af 	ble.w	be0 <kprintf.constprop.0+0x5e8>
     682:	9a0c      	ldr	r2, [sp, #48]	; 0x30
     684:	3a20      	subs	r2, #32
     686:	2a19      	cmp	r2, #25
     688:	d86d      	bhi.n	766 <kprintf.constprop.0+0x16e>
     68a:	e8df f002 	tbb	[pc, r2]
     68e:	6c71      	.short	0x6c71
     690:	6c6c776c 	.word	0x6c6c776c
     694:	6c6c6c6c 	.word	0x6c6c6c6c
     698:	836c0d7a 	.word	0x836c0d7a
     69c:	a6a36c86 	.word	0xa6a36c86
     6a0:	a6a6a6a6 	.word	0xa6a6a6a6
     6a4:	a6a6a6a6 	.word	0xa6a6a6a6
/home/mattia/soo/soo-vexpress/optee_os/lib/libutils/ext/snprintk.c:325
     6a8:	f04f 092b 	mov.w	r9, #43	; 0x2b
/home/mattia/soo/soo-vexpress/optee_os/lib/libutils/ext/snprintk.c:317
     6ac:	980b      	ldr	r0, [sp, #44]	; 0x2c
     6ae:	e7dd      	b.n	66c <kprintf.constprop.0+0x74>
     6b0:	463b      	mov	r3, r7
     6b2:	e7fb      	b.n	6ac <kprintf.constprop.0+0xb4>
     6b4:	2a36      	cmp	r2, #54	; 0x36
     6b6:	d856      	bhi.n	766 <kprintf.constprop.0+0x16e>
     6b8:	e8df f012 	tbh	[pc, r2, lsl #1]
     6bc:	005500c5 	.word	0x005500c5
     6c0:	00550055 	.word	0x00550055
     6c4:	00550055 	.word	0x00550055
     6c8:	00550055 	.word	0x00550055
     6cc:	00550055 	.word	0x00550055
     6d0:	01860055 	.word	0x01860055
     6d4:	00550055 	.word	0x00550055
     6d8:	00550055 	.word	0x00550055
     6dc:	02240055 	.word	0x02240055
     6e0:	00550055 	.word	0x00550055
     6e4:	00550256 	.word	0x00550256
     6e8:	00550055 	.word	0x00550055
     6ec:	00550055 	.word	0x00550055
     6f0:	00550055 	.word	0x00550055
     6f4:	00550055 	.word	0x00550055
     6f8:	00b90055 	.word	0x00b90055
     6fc:	005500c7 	.word	0x005500c7
     700:	00550055 	.word	0x00550055
     704:	00c700a0 	.word	0x00c700a0
     708:	005500a3 	.word	0x005500a3
     70c:	005500a6 	.word	0x005500a6
     710:	01880169 	.word	0x01880169
     714:	00ad01b8 	.word	0x00ad01b8
     718:	02060055 	.word	0x02060055
     71c:	022600b3 	.word	0x022600b3
     720:	00550055 	.word	0x00550055
     724:	00550037 	.word	0x00550037
     728:	00b6      	.short	0x00b6
/home/mattia/soo/soo-vexpress/optee_os/lib/libutils/ext/snprintk.c:480
     72a:	f8df 2568 	ldr.w	r2, [pc, #1384]	; c94 <kprintf.constprop.0+0x69c>
     72e:	447a      	add	r2, pc
     730:	3211      	adds	r2, #17
/home/mattia/soo/soo-vexpress/optee_os/lib/libutils/ext/snprintk.c:481
     732:	f016 0f80 	tst.w	r6, #128	; 0x80
/home/mattia/soo/soo-vexpress/optee_os/lib/libutils/ext/snprintk.c:477
     736:	9211      	str	r2, [sp, #68]	; 0x44
/home/mattia/soo/soo-vexpress/optee_os/lib/libutils/ext/snprintk.c:481
     738:	f000 8219 	beq.w	b6e <kprintf.constprop.0+0x576>
     73c:	1ddf      	adds	r7, r3, #7
     73e:	f027 0707 	bic.w	r7, r7, #7
     742:	e8f7 4502 	ldrd	r4, r5, [r7], #8
/home/mattia/soo/soo-vexpress/optee_os/lib/libutils/ext/snprintk.c:484
     746:	07f3      	lsls	r3, r6, #31
     748:	f140 81a9 	bpl.w	a9e <kprintf.constprop.0+0x4a6>
     74c:	ea54 0305 	orrs.w	r3, r4, r5
/home/mattia/soo/soo-vexpress/optee_os/lib/libutils/ext/snprintk.c:488
     750:	f04f 0900 	mov.w	r9, #0
/home/mattia/soo/soo-vexpress/optee_os/lib/libutils/ext/snprintk.c:485
     754:	bf18      	it	ne
     756:	f046 0602 	orrne.w	r6, r6, #2
/home/mattia/soo/soo-vexpress/optee_os/lib/libutils/ext/snprintk.c:482
     75a:	2302      	movs	r3, #2
     75c:	e089      	b.n	872 <kprintf.constprop.0+0x27a>
/home/mattia/soo/soo-vexpress/optee_os/lib/libutils/ext/snprintk.c:297
     75e:	9a0c      	ldr	r2, [sp, #48]	; 0x30
     760:	3a44      	subs	r2, #68	; 0x44
     762:	2a36      	cmp	r2, #54	; 0x36
     764:	d9a6      	bls.n	6b4 <kprintf.constprop.0+0xbc>
/home/mattia/soo/soo-vexpress/optee_os/lib/libutils/ext/snprintk.c:551
     766:	9a0c      	ldr	r2, [sp, #48]	; 0x30
/home/mattia/soo/soo-vexpress/optee_os/lib/libutils/ext/snprintk.c:554
     768:	461f      	mov	r7, r3
/home/mattia/soo/soo-vexpress/optee_os/lib/libutils/ext/snprintk.c:551
     76a:	f88d 2050 	strb.w	r2, [sp, #80]	; 0x50
/home/mattia/soo/soo-vexpress/optee_os/lib/libutils/ext/snprintk.c:554
     76e:	e063      	b.n	838 <kprintf.constprop.0+0x240>
/home/mattia/soo/soo-vexpress/optee_os/lib/libutils/ext/snprintk.c:305
     770:	f1b9 0f00 	cmp.w	r9, #0
     774:	bf08      	it	eq
     776:	f04f 0920 	moveq.w	r9, #32
     77a:	e797      	b.n	6ac <kprintf.constprop.0+0xb4>
/home/mattia/soo/soo-vexpress/optee_os/lib/libutils/ext/snprintk.c:308
     77c:	f046 0601 	orr.w	r6, r6, #1
/home/mattia/soo/soo-vexpress/optee_os/lib/libutils/ext/snprintk.c:309
     780:	e794      	b.n	6ac <kprintf.constprop.0+0xb4>
/home/mattia/soo/soo-vexpress/optee_os/lib/libutils/ext/snprintk.c:317
     782:	461f      	mov	r7, r3
     784:	f857 3b04 	ldr.w	r3, [r7], #4
     788:	2b00      	cmp	r3, #0
     78a:	930f      	str	r3, [sp, #60]	; 0x3c
     78c:	da90      	bge.n	6b0 <kprintf.constprop.0+0xb8>
/home/mattia/soo/soo-vexpress/optee_os/lib/libutils/ext/snprintk.c:319
     78e:	425b      	negs	r3, r3
     790:	930f      	str	r3, [sp, #60]	; 0x3c
/home/mattia/soo/soo-vexpress/optee_os/lib/libutils/ext/snprintk.c:317
     792:	463b      	mov	r3, r7
/home/mattia/soo/soo-vexpress/optee_os/lib/libutils/ext/snprintk.c:322
     794:	f046 0604 	orr.w	r6, r6, #4
/home/mattia/soo/soo-vexpress/optee_os/lib/libutils/ext/snprintk.c:323
     798:	e788      	b.n	6ac <kprintf.constprop.0+0xb4>
/home/mattia/soo/soo-vexpress/optee_os/lib/libutils/ext/snprintk.c:328
     79a:	980b      	ldr	r0, [sp, #44]	; 0x2c
     79c:	f810 2b01 	ldrb.w	r2, [r0], #1
     7a0:	2a2a      	cmp	r2, #42	; 0x2a
     7a2:	920c      	str	r2, [sp, #48]	; 0x30
     7a4:	d113      	bne.n	7ce <kprintf.constprop.0+0x1d6>
/home/mattia/soo/soo-vexpress/optee_os/lib/libutils/ext/snprintk.c:329
     7a6:	461f      	mov	r7, r3
/home/mattia/soo/soo-vexpress/optee_os/lib/libutils/ext/snprintk.c:328
     7a8:	900b      	str	r0, [sp, #44]	; 0x2c
/home/mattia/soo/soo-vexpress/optee_os/lib/libutils/ext/snprintk.c:330
     7aa:	f857 3b04 	ldr.w	r3, [r7], #4
     7ae:	ea43 7be3 	orr.w	fp, r3, r3, asr #31
/home/mattia/soo/soo-vexpress/optee_os/lib/libutils/ext/snprintk.c:329
     7b2:	463b      	mov	r3, r7
/home/mattia/soo/soo-vexpress/optee_os/lib/libutils/ext/snprintk.c:331
     7b4:	e77a      	b.n	6ac <kprintf.constprop.0+0xb4>
/home/mattia/soo/soo-vexpress/optee_os/lib/libutils/ext/snprintk.c:335
     7b6:	210a      	movs	r1, #10
     7b8:	fb01 2b0b 	mla	fp, r1, fp, r2
/home/mattia/soo/soo-vexpress/optee_os/lib/libutils/ext/snprintk.c:336
     7bc:	f810 2b01 	ldrb.w	r2, [r0], #1
     7c0:	920c      	str	r2, [sp, #48]	; 0x30
/home/mattia/soo/soo-vexpress/optee_os/lib/libutils/ext/snprintk.c:334
     7c2:	9a0c      	ldr	r2, [sp, #48]	; 0x30
     7c4:	3a30      	subs	r2, #48	; 0x30
     7c6:	2a09      	cmp	r2, #9
     7c8:	d9f5      	bls.n	7b6 <kprintf.constprop.0+0x1be>
/home/mattia/soo/soo-vexpress/optee_os/lib/libutils/ext/snprintk.c:290
     7ca:	900b      	str	r0, [sp, #44]	; 0x2c
     7cc:	e753      	b.n	676 <kprintf.constprop.0+0x7e>
/home/mattia/soo/soo-vexpress/optee_os/lib/libutils/ext/snprintk.c:333
     7ce:	f04f 0b00 	mov.w	fp, #0
     7d2:	e7f6      	b.n	7c2 <kprintf.constprop.0+0x1ca>
/home/mattia/soo/soo-vexpress/optee_os/lib/libutils/ext/snprintk.c:346
     7d4:	f446 6680 	orr.w	r6, r6, #1024	; 0x400
/home/mattia/soo/soo-vexpress/optee_os/lib/libutils/ext/snprintk.c:347
     7d8:	e768      	b.n	6ac <kprintf.constprop.0+0xb4>
/home/mattia/soo/soo-vexpress/optee_os/lib/libutils/ext/snprintk.c:297
     7da:	980b      	ldr	r0, [sp, #44]	; 0x2c
     7dc:	2200      	movs	r2, #0
     7de:	920f      	str	r2, [sp, #60]	; 0x3c
/home/mattia/soo/soo-vexpress/optee_os/lib/libutils/ext/snprintk.c:352
     7e0:	9a0c      	ldr	r2, [sp, #48]	; 0x30
     7e2:	240a      	movs	r4, #10
     7e4:	990f      	ldr	r1, [sp, #60]	; 0x3c
     7e6:	3a30      	subs	r2, #48	; 0x30
     7e8:	fb04 2201 	mla	r2, r4, r1, r2
     7ec:	920f      	str	r2, [sp, #60]	; 0x3c
/home/mattia/soo/soo-vexpress/optee_os/lib/libutils/ext/snprintk.c:353
     7ee:	f810 2b01 	ldrb.w	r2, [r0], #1
     7f2:	920c      	str	r2, [sp, #48]	; 0x30
/home/mattia/soo/soo-vexpress/optee_os/lib/libutils/ext/snprintk.c:354
     7f4:	3a30      	subs	r2, #48	; 0x30
     7f6:	2a09      	cmp	r2, #9
     7f8:	d9f2      	bls.n	7e0 <kprintf.constprop.0+0x1e8>
     7fa:	e7e6      	b.n	7ca <kprintf.constprop.0+0x1d2>
/home/mattia/soo/soo-vexpress/optee_os/lib/libutils/ext/snprintk.c:358
     7fc:	f046 0640 	orr.w	r6, r6, #64	; 0x40
/home/mattia/soo/soo-vexpress/optee_os/lib/libutils/ext/snprintk.c:359
     800:	e754      	b.n	6ac <kprintf.constprop.0+0xb4>
/home/mattia/soo/soo-vexpress/optee_os/lib/libutils/ext/snprintk.c:361
     802:	f046 0680 	orr.w	r6, r6, #128	; 0x80
/home/mattia/soo/soo-vexpress/optee_os/lib/libutils/ext/snprintk.c:362
     806:	e751      	b.n	6ac <kprintf.constprop.0+0xb4>
/home/mattia/soo/soo-vexpress/optee_os/lib/libutils/ext/snprintk.c:364
     808:	9a0b      	ldr	r2, [sp, #44]	; 0x2c
     80a:	7812      	ldrb	r2, [r2, #0]
     80c:	2a6c      	cmp	r2, #108	; 0x6c
     80e:	d105      	bne.n	81c <kprintf.constprop.0+0x224>
     810:	9a0b      	ldr	r2, [sp, #44]	; 0x2c
     812:	3201      	adds	r2, #1
     814:	920b      	str	r2, [sp, #44]	; 0x2c
/home/mattia/soo/soo-vexpress/optee_os/lib/libutils/ext/snprintk.c:372
     816:	f046 0620 	orr.w	r6, r6, #32
/home/mattia/soo/soo-vexpress/optee_os/lib/libutils/ext/snprintk.c:373
     81a:	e747      	b.n	6ac <kprintf.constprop.0+0xb4>
/home/mattia/soo/soo-vexpress/optee_os/lib/libutils/ext/snprintk.c:368
     81c:	f046 0610 	orr.w	r6, r6, #16
     820:	e744      	b.n	6ac <kprintf.constprop.0+0xb4>
/home/mattia/soo/soo-vexpress/optee_os/lib/libutils/ext/snprintk.c:375
     822:	f446 7680 	orr.w	r6, r6, #256	; 0x100
/home/mattia/soo/soo-vexpress/optee_os/lib/libutils/ext/snprintk.c:376
     826:	e741      	b.n	6ac <kprintf.constprop.0+0xb4>
/home/mattia/soo/soo-vexpress/optee_os/lib/libutils/ext/snprintk.c:378
     828:	f446 7600 	orr.w	r6, r6, #512	; 0x200
/home/mattia/soo/soo-vexpress/optee_os/lib/libutils/ext/snprintk.c:379
     82c:	e73e      	b.n	6ac <kprintf.constprop.0+0xb4>
/home/mattia/soo/soo-vexpress/optee_os/lib/libutils/ext/snprintk.c:381
     82e:	461f      	mov	r7, r3
     830:	f857 3b04 	ldr.w	r3, [r7], #4
     834:	f88d 3050 	strb.w	r3, [sp, #80]	; 0x50
/home/mattia/soo/soo-vexpress/optee_os/lib/libutils/ext/snprintk.c:291
     838:	2000      	movs	r0, #0
/home/mattia/soo/soo-vexpress/optee_os/lib/libutils/ext/snprintk.c:552
     83a:	f04f 0b01 	mov.w	fp, #1
/home/mattia/soo/soo-vexpress/optee_os/lib/libutils/ext/snprintk.c:553
     83e:	4681      	mov	r9, r0
/home/mattia/soo/soo-vexpress/optee_os/lib/libutils/ext/snprintk.c:550
     840:	f10d 0a50 	add.w	sl, sp, #80	; 0x50
/home/mattia/soo/soo-vexpress/optee_os/lib/libutils/ext/snprintk.c:554
     844:	e03c      	b.n	8c0 <kprintf.constprop.0+0x2c8>
/home/mattia/soo/soo-vexpress/optee_os/lib/libutils/ext/snprintk.c:386
     846:	f046 0610 	orr.w	r6, r6, #16
/home/mattia/soo/soo-vexpress/optee_os/lib/libutils/ext/snprintk.c:390
     84a:	0637      	lsls	r7, r6, #24
     84c:	f140 8087 	bpl.w	95e <kprintf.constprop.0+0x366>
     850:	1ddf      	adds	r7, r3, #7
     852:	f027 0707 	bic.w	r7, r7, #7
     856:	e8f7 4502 	ldrd	r4, r5, [r7], #8
/home/mattia/soo/soo-vexpress/optee_os/lib/libutils/ext/snprintk.c:391
     85a:	2c00      	cmp	r4, #0
     85c:	f175 0300 	sbcs.w	r3, r5, #0
     860:	f280 815c 	bge.w	b1c <kprintf.constprop.0+0x524>
/home/mattia/soo/soo-vexpress/optee_os/lib/libutils/ext/snprintk.c:392
     864:	4264      	negs	r4, r4
/home/mattia/soo/soo-vexpress/optee_os/lib/libutils/ext/snprintk.c:395
     866:	f04f 0301 	mov.w	r3, #1
/home/mattia/soo/soo-vexpress/optee_os/lib/libutils/ext/snprintk.c:392
     86a:	eb65 0545 	sbc.w	r5, r5, r5, lsl #1
/home/mattia/soo/soo-vexpress/optee_os/lib/libutils/ext/snprintk.c:393
     86e:	f04f 092d 	mov.w	r9, #45	; 0x2d
/home/mattia/soo/soo-vexpress/optee_os/lib/libutils/ext/snprintk.c:494
     872:	f1bb 3fff 	cmp.w	fp, #4294967295	; 0xffffffff
     876:	f040 80b7 	bne.w	9e8 <kprintf.constprop.0+0x3f0>
/home/mattia/soo/soo-vexpress/optee_os/lib/libutils/ext/snprintk.c:509
     87a:	2b01      	cmp	r3, #1
     87c:	f000 8151 	beq.w	b22 <kprintf.constprop.0+0x52a>
     880:	2b02      	cmp	r3, #2
     882:	f000 8111 	beq.w	aa8 <kprintf.constprop.0+0x4b0>
/home/mattia/soo/soo-vexpress/optee_os/lib/libutils/ext/snprintk.c:494
     886:	f10d 0a75 	add.w	sl, sp, #117	; 0x75
/home/mattia/soo/soo-vexpress/optee_os/lib/libutils/ext/snprintk.c:512
     88a:	f004 0307 	and.w	r3, r4, #7
/home/mattia/soo/soo-vexpress/optee_os/lib/libutils/ext/snprintk.c:513
     88e:	08e4      	lsrs	r4, r4, #3
/home/mattia/soo/soo-vexpress/optee_os/lib/libutils/ext/snprintk.c:512
     890:	3330      	adds	r3, #48	; 0x30
/home/mattia/soo/soo-vexpress/optee_os/lib/libutils/ext/snprintk.c:513
     892:	ea44 7445 	orr.w	r4, r4, r5, lsl #29
     896:	08ed      	lsrs	r5, r5, #3
/home/mattia/soo/soo-vexpress/optee_os/lib/libutils/ext/snprintk.c:514
     898:	ea54 0105 	orrs.w	r1, r4, r5
     89c:	4652      	mov	r2, sl
/home/mattia/soo/soo-vexpress/optee_os/lib/libutils/ext/snprintk.c:512
     89e:	f80a 3d01 	strb.w	r3, [sl, #-1]!
/home/mattia/soo/soo-vexpress/optee_os/lib/libutils/ext/snprintk.c:514
     8a2:	d1f2      	bne.n	88a <kprintf.constprop.0+0x292>
/home/mattia/soo/soo-vexpress/optee_os/lib/libutils/ext/snprintk.c:516
     8a4:	07f5      	lsls	r5, r6, #31
     8a6:	d506      	bpl.n	8b6 <kprintf.constprop.0+0x2be>
     8a8:	2b30      	cmp	r3, #48	; 0x30
     8aa:	d004      	beq.n	8b6 <kprintf.constprop.0+0x2be>
/home/mattia/soo/soo-vexpress/optee_os/lib/libutils/ext/snprintk.c:517
     8ac:	2330      	movs	r3, #48	; 0x30
     8ae:	f80a 3c01 	strb.w	r3, [sl, #-1]
     8b2:	f1a2 0a02 	sub.w	sl, r2, #2
/home/mattia/soo/soo-vexpress/optee_os/lib/libutils/ext/snprintk.c:543
     8b6:	f10d 0375 	add.w	r3, sp, #117	; 0x75
     8ba:	4658      	mov	r0, fp
     8bc:	eba3 0b0a 	sub.w	fp, r3, sl
/home/mattia/soo/soo-vexpress/optee_os/lib/libutils/ext/snprintk.c:571
     8c0:	4558      	cmp	r0, fp
     8c2:	4603      	mov	r3, r0
     8c4:	bfb8      	it	lt
     8c6:	465b      	movlt	r3, fp
/home/mattia/soo/soo-vexpress/optee_os/lib/libutils/ext/snprintk.c:572
     8c8:	f1b9 0f00 	cmp.w	r9, #0
     8cc:	f000 818d 	beq.w	bea <kprintf.constprop.0+0x5f2>
/home/mattia/soo/soo-vexpress/optee_os/lib/libutils/ext/snprintk.c:573
     8d0:	3301      	adds	r3, #1
/home/mattia/soo/soo-vexpress/optee_os/lib/libutils/ext/snprintk.c:578
     8d2:	9a0e      	ldr	r2, [sp, #56]	; 0x38
     8d4:	990f      	ldr	r1, [sp, #60]	; 0x3c
     8d6:	428b      	cmp	r3, r1
     8d8:	bfac      	ite	ge
     8da:	18d2      	addge	r2, r2, r3
     8dc:	1852      	addlt	r2, r2, r1
     8de:	920e      	str	r2, [sp, #56]	; 0x38
/home/mattia/soo/soo-vexpress/optee_os/lib/libutils/ext/snprintk.c:581
     8e0:	f240 4204 	movw	r2, #1028	; 0x404
     8e4:	4032      	ands	r2, r6
     8e6:	d104      	bne.n	8f2 <kprintf.constprop.0+0x2fa>
/home/mattia/soo/soo-vexpress/optee_os/lib/libutils/ext/snprintk.c:582
     8e8:	1ac9      	subs	r1, r1, r3
/home/mattia/soo/soo-vexpress/optee_os/lib/libutils/ext/snprintk.c:584
     8ea:	2420      	movs	r4, #32
/home/mattia/soo/soo-vexpress/optee_os/lib/libutils/ext/snprintk.c:583
     8ec:	2900      	cmp	r1, #0
     8ee:	f300 8180 	bgt.w	bf2 <kprintf.constprop.0+0x5fa>
/home/mattia/soo/soo-vexpress/optee_os/lib/libutils/ext/snprintk.c:588
     8f2:	f1b9 0f00 	cmp.w	r9, #0
     8f6:	f000 8188 	beq.w	c0a <kprintf.constprop.0+0x612>
/home/mattia/soo/soo-vexpress/optee_os/lib/libutils/ext/snprintk.c:589
     8fa:	f1b8 0f00 	cmp.w	r8, #0
     8fe:	d006      	beq.n	90e <kprintf.constprop.0+0x316>
     900:	990d      	ldr	r1, [sp, #52]	; 0x34
     902:	b111      	cbz	r1, 90a <kprintf.constprop.0+0x312>
     904:	9910      	ldr	r1, [sp, #64]	; 0x40
     906:	4541      	cmp	r1, r8
     908:	d901      	bls.n	90e <kprintf.constprop.0+0x316>
     90a:	f808 9b01 	strb.w	r9, [r8], #1
/home/mattia/soo/soo-vexpress/optee_os/lib/libutils/ext/snprintk.c:596
     90e:	f5b2 6f80 	cmp.w	r2, #1024	; 0x400
     912:	d105      	bne.n	920 <kprintf.constprop.0+0x328>
/home/mattia/soo/soo-vexpress/optee_os/lib/libutils/ext/snprintk.c:597
     914:	9a0f      	ldr	r2, [sp, #60]	; 0x3c
     916:	1ad1      	subs	r1, r2, r3
/home/mattia/soo/soo-vexpress/optee_os/lib/libutils/ext/snprintk.c:599
     918:	2230      	movs	r2, #48	; 0x30
/home/mattia/soo/soo-vexpress/optee_os/lib/libutils/ext/snprintk.c:598
     91a:	2900      	cmp	r1, #0
     91c:	f300 8194 	bgt.w	c48 <kprintf.constprop.0+0x650>
/home/mattia/soo/soo-vexpress/optee_os/lib/libutils/ext/snprintk.c:603
     920:	eba0 000b 	sub.w	r0, r0, fp
/home/mattia/soo/soo-vexpress/optee_os/lib/libutils/ext/snprintk.c:605
     924:	2230      	movs	r2, #48	; 0x30
/home/mattia/soo/soo-vexpress/optee_os/lib/libutils/ext/snprintk.c:604
     926:	2800      	cmp	r0, #0
     928:	f300 819a 	bgt.w	c60 <kprintf.constprop.0+0x668>
     92c:	2100      	movs	r1, #0
/home/mattia/soo/soo-vexpress/optee_os/lib/libutils/ext/snprintk.c:608
     92e:	458b      	cmp	fp, r1
     930:	f040 81a2 	bne.w	c78 <kprintf.constprop.0+0x680>
/home/mattia/soo/soo-vexpress/optee_os/lib/libutils/ext/snprintk.c:611
     934:	0772      	lsls	r2, r6, #29
     936:	f57f ae6f 	bpl.w	618 <kprintf.constprop.0+0x20>
/home/mattia/soo/soo-vexpress/optee_os/lib/libutils/ext/snprintk.c:612
     93a:	9a0f      	ldr	r2, [sp, #60]	; 0x3c
     93c:	1ad3      	subs	r3, r2, r3
/home/mattia/soo/soo-vexpress/optee_os/lib/libutils/ext/snprintk.c:614
     93e:	2220      	movs	r2, #32
/home/mattia/soo/soo-vexpress/optee_os/lib/libutils/ext/snprintk.c:613
     940:	2b00      	cmp	r3, #0
     942:	f77f ae69 	ble.w	618 <kprintf.constprop.0+0x20>
/home/mattia/soo/soo-vexpress/optee_os/lib/libutils/ext/snprintk.c:614
     946:	f1b8 0f00 	cmp.w	r8, #0
     94a:	d006      	beq.n	95a <kprintf.constprop.0+0x362>
     94c:	990d      	ldr	r1, [sp, #52]	; 0x34
     94e:	b111      	cbz	r1, 956 <kprintf.constprop.0+0x35e>
     950:	9910      	ldr	r1, [sp, #64]	; 0x40
     952:	4541      	cmp	r1, r8
     954:	d901      	bls.n	95a <kprintf.constprop.0+0x362>
     956:	f808 2b01 	strb.w	r2, [r8], #1
     95a:	3b01      	subs	r3, #1
     95c:	e7f0      	b.n	940 <kprintf.constprop.0+0x348>
/home/mattia/soo/soo-vexpress/optee_os/lib/libutils/ext/snprintk.c:390
     95e:	05f5      	lsls	r5, r6, #23
     960:	d504      	bpl.n	96c <kprintf.constprop.0+0x374>
     962:	461f      	mov	r7, r3
     964:	f857 4b04 	ldr.w	r4, [r7], #4
     968:	17e5      	asrs	r5, r4, #31
     96a:	e776      	b.n	85a <kprintf.constprop.0+0x262>
     96c:	05b4      	lsls	r4, r6, #22
     96e:	d4f8      	bmi.n	962 <kprintf.constprop.0+0x36a>
     970:	06b0      	lsls	r0, r6, #26
     972:	f53f af6d 	bmi.w	850 <kprintf.constprop.0+0x258>
     976:	06f1      	lsls	r1, r6, #27
     978:	f103 0704 	add.w	r7, r3, #4
     97c:	d501      	bpl.n	982 <kprintf.constprop.0+0x38a>
     97e:	681c      	ldr	r4, [r3, #0]
     980:	e7f2      	b.n	968 <kprintf.constprop.0+0x370>
     982:	681c      	ldr	r4, [r3, #0]
     984:	f016 0f40 	tst.w	r6, #64	; 0x40
     988:	bf18      	it	ne
     98a:	b224      	sxthne	r4, r4
     98c:	e7ec      	b.n	968 <kprintf.constprop.0+0x370>
/home/mattia/soo/soo-vexpress/optee_os/lib/libutils/ext/snprintk.c:398
     98e:	0632      	lsls	r2, r6, #24
     990:	461f      	mov	r7, r3
     992:	f857 3b04 	ldr.w	r3, [r7], #4
     996:	d507      	bpl.n	9a8 <kprintf.constprop.0+0x3b0>
/home/mattia/soo/soo-vexpress/optee_os/lib/libutils/ext/snprintk.c:405
     998:	9a0e      	ldr	r2, [sp, #56]	; 0x38
     99a:	ee80 2b90 	vdup.32	d16, r2
     99e:	efe0 00b0 	vshr.s64	d16, d16, #32
     9a2:	edc3 0b00 	vstr	d16, [r3]
     9a6:	e637      	b.n	618 <kprintf.constprop.0+0x20>
/home/mattia/soo/soo-vexpress/optee_os/lib/libutils/ext/snprintk.c:400
     9a8:	05f5      	lsls	r5, r6, #23
     9aa:	d502      	bpl.n	9b2 <kprintf.constprop.0+0x3ba>
/home/mattia/soo/soo-vexpress/optee_os/lib/libutils/ext/snprintk.c:411
     9ac:	9a0e      	ldr	r2, [sp, #56]	; 0x38
     9ae:	601a      	str	r2, [r3, #0]
     9b0:	e632      	b.n	618 <kprintf.constprop.0+0x20>
/home/mattia/soo/soo-vexpress/optee_os/lib/libutils/ext/snprintk.c:402
     9b2:	05b4      	lsls	r4, r6, #22
     9b4:	d4fa      	bmi.n	9ac <kprintf.constprop.0+0x3b4>
/home/mattia/soo/soo-vexpress/optee_os/lib/libutils/ext/snprintk.c:404
     9b6:	06b0      	lsls	r0, r6, #26
     9b8:	d4ee      	bmi.n	998 <kprintf.constprop.0+0x3a0>
/home/mattia/soo/soo-vexpress/optee_os/lib/libutils/ext/snprintk.c:406
     9ba:	06f1      	lsls	r1, r6, #27
     9bc:	d4f6      	bmi.n	9ac <kprintf.constprop.0+0x3b4>
/home/mattia/soo/soo-vexpress/optee_os/lib/libutils/ext/snprintk.c:408
     9be:	0672      	lsls	r2, r6, #25
     9c0:	d5f4      	bpl.n	9ac <kprintf.constprop.0+0x3b4>
/home/mattia/soo/soo-vexpress/optee_os/lib/libutils/ext/snprintk.c:409
     9c2:	9a0e      	ldr	r2, [sp, #56]	; 0x38
     9c4:	801a      	strh	r2, [r3, #0]
     9c6:	e627      	b.n	618 <kprintf.constprop.0+0x20>
/home/mattia/soo/soo-vexpress/optee_os/lib/libutils/ext/snprintk.c:414
     9c8:	f046 0610 	orr.w	r6, r6, #16
/home/mattia/soo/soo-vexpress/optee_os/lib/libutils/ext/snprintk.c:417
     9cc:	0637      	lsls	r7, r6, #24
     9ce:	d518      	bpl.n	a02 <kprintf.constprop.0+0x40a>
     9d0:	1ddf      	adds	r7, r3, #7
     9d2:	f027 0707 	bic.w	r7, r7, #7
     9d6:	e8f7 4502 	ldrd	r4, r5, [r7], #8
/home/mattia/soo/soo-vexpress/optee_os/lib/libutils/ext/snprintk.c:494
     9da:	f1bb 3fff 	cmp.w	fp, #4294967295	; 0xffffffff
     9de:	f04f 0900 	mov.w	r9, #0
     9e2:	f43f af50 	beq.w	886 <kprintf.constprop.0+0x28e>
     9e6:	464b      	mov	r3, r9
/home/mattia/soo/soo-vexpress/optee_os/lib/libutils/ext/snprintk.c:503
     9e8:	ea54 0205 	orrs.w	r2, r4, r5
/home/mattia/soo/soo-vexpress/optee_os/lib/libutils/ext/snprintk.c:495
     9ec:	f426 6680 	bic.w	r6, r6, #1024	; 0x400
/home/mattia/soo/soo-vexpress/optee_os/lib/libutils/ext/snprintk.c:503
     9f0:	f47f af43 	bne.w	87a <kprintf.constprop.0+0x282>
     9f4:	f1bb 0f00 	cmp.w	fp, #0
     9f8:	f47f af3f 	bne.w	87a <kprintf.constprop.0+0x282>
/home/mattia/soo/soo-vexpress/optee_os/lib/libutils/ext/snprintk.c:502
     9fc:	f10d 0a75 	add.w	sl, sp, #117	; 0x75
     a00:	e759      	b.n	8b6 <kprintf.constprop.0+0x2be>
/home/mattia/soo/soo-vexpress/optee_os/lib/libutils/ext/snprintk.c:417
     a02:	05f5      	lsls	r5, r6, #23
     a04:	d504      	bpl.n	a10 <kprintf.constprop.0+0x418>
     a06:	461f      	mov	r7, r3
     a08:	f857 4b04 	ldr.w	r4, [r7], #4
     a0c:	2500      	movs	r5, #0
     a0e:	e7e4      	b.n	9da <kprintf.constprop.0+0x3e2>
     a10:	05b4      	lsls	r4, r6, #22
     a12:	d4f8      	bmi.n	a06 <kprintf.constprop.0+0x40e>
     a14:	06b0      	lsls	r0, r6, #26
     a16:	d4db      	bmi.n	9d0 <kprintf.constprop.0+0x3d8>
     a18:	06f1      	lsls	r1, r6, #27
     a1a:	f103 0704 	add.w	r7, r3, #4
     a1e:	d501      	bpl.n	a24 <kprintf.constprop.0+0x42c>
     a20:	681c      	ldr	r4, [r3, #0]
     a22:	e7f3      	b.n	a0c <kprintf.constprop.0+0x414>
     a24:	0672      	lsls	r2, r6, #25
     a26:	d5fb      	bpl.n	a20 <kprintf.constprop.0+0x428>
     a28:	881c      	ldrh	r4, [r3, #0]
     a2a:	e7ef      	b.n	a0c <kprintf.constprop.0+0x414>
/home/mattia/soo/soo-vexpress/optee_os/lib/libutils/ext/snprintk.c:421
     a2c:	461f      	mov	r7, r3
     a2e:	9b13      	ldr	r3, [sp, #76]	; 0x4c
     a30:	f857 4b04 	ldr.w	r4, [r7], #4
     a34:	2b00      	cmp	r3, #0
     a36:	d029      	beq.n	a8c <kprintf.constprop.0+0x494>
     a38:	9b0b      	ldr	r3, [sp, #44]	; 0x2c
     a3a:	781b      	ldrb	r3, [r3, #0]
     a3c:	2b55      	cmp	r3, #85	; 0x55
     a3e:	d125      	bne.n	a8c <kprintf.constprop.0+0x494>
     a40:	9b0b      	ldr	r3, [sp, #44]	; 0x2c
     a42:	785b      	ldrb	r3, [r3, #1]
     a44:	2b6c      	cmp	r3, #108	; 0x6c
     a46:	d121      	bne.n	a8c <kprintf.constprop.0+0x494>
/home/mattia/soo/soo-vexpress/optee_os/lib/libutils/ext/snprintk.c:426
     a48:	9b0b      	ldr	r3, [sp, #44]	; 0x2c
uuid2str():
/home/mattia/soo/soo-vexpress/optee_os/lib/libutils/ext/snprintk.c:229
     a4a:	f10d 0a50 	add.w	sl, sp, #80	; 0x50
     a4e:	2125      	movs	r1, #37	; 0x25
     a50:	4a91      	ldr	r2, [pc, #580]	; (c98 <kprintf.constprop.0+0x6a0>)
     a52:	4650      	mov	r0, sl
kprintf():
/home/mattia/soo/soo-vexpress/optee_os/lib/libutils/ext/snprintk.c:426
     a54:	3302      	adds	r3, #2
uuid2str():
/home/mattia/soo/soo-vexpress/optee_os/lib/libutils/ext/snprintk.c:229
     a56:	447a      	add	r2, pc
kprintf():
/home/mattia/soo/soo-vexpress/optee_os/lib/libutils/ext/snprintk.c:426
     a58:	930b      	str	r3, [sp, #44]	; 0x2c
uuid2str():
/home/mattia/soo/soo-vexpress/optee_os/lib/libutils/ext/snprintk.c:229
     a5a:	7be3      	ldrb	r3, [r4, #15]
     a5c:	9309      	str	r3, [sp, #36]	; 0x24
     a5e:	7ba3      	ldrb	r3, [r4, #14]
     a60:	9308      	str	r3, [sp, #32]
     a62:	7b63      	ldrb	r3, [r4, #13]
     a64:	9307      	str	r3, [sp, #28]
     a66:	7b23      	ldrb	r3, [r4, #12]
     a68:	9306      	str	r3, [sp, #24]
     a6a:	7ae3      	ldrb	r3, [r4, #11]
     a6c:	9305      	str	r3, [sp, #20]
     a6e:	7aa3      	ldrb	r3, [r4, #10]
     a70:	9304      	str	r3, [sp, #16]
     a72:	7a63      	ldrb	r3, [r4, #9]
     a74:	9303      	str	r3, [sp, #12]
     a76:	7a23      	ldrb	r3, [r4, #8]
     a78:	9302      	str	r3, [sp, #8]
     a7a:	88e3      	ldrh	r3, [r4, #6]
     a7c:	9301      	str	r3, [sp, #4]
     a7e:	88a3      	ldrh	r3, [r4, #4]
     a80:	9300      	str	r3, [sp, #0]
     a82:	6823      	ldr	r3, [r4, #0]
     a84:	f7ff fdab 	bl	5de <snprintk>
kprintf():
/home/mattia/soo/soo-vexpress/optee_os/lib/libutils/ext/snprintk.c:466
     a88:	4683      	mov	fp, r0
     a8a:	e034      	b.n	af6 <kprintf.constprop.0+0x4fe>
/home/mattia/soo/soo-vexpress/optee_os/lib/libutils/ext/snprintk.c:443
     a8c:	4b83      	ldr	r3, [pc, #524]	; (c9c <kprintf.constprop.0+0x6a4>)
/home/mattia/soo/soo-vexpress/optee_os/lib/libutils/ext/snprintk.c:441
     a8e:	2500      	movs	r5, #0
/home/mattia/soo/soo-vexpress/optee_os/lib/libutils/ext/snprintk.c:444
     a90:	f046 0602 	orr.w	r6, r6, #2
/home/mattia/soo/soo-vexpress/optee_os/lib/libutils/ext/snprintk.c:443
     a94:	447b      	add	r3, pc
     a96:	3311      	adds	r3, #17
     a98:	9311      	str	r3, [sp, #68]	; 0x44
/home/mattia/soo/soo-vexpress/optee_os/lib/libutils/ext/snprintk.c:445
     a9a:	2378      	movs	r3, #120	; 0x78
     a9c:	930c      	str	r3, [sp, #48]	; 0x30
/home/mattia/soo/soo-vexpress/optee_os/lib/libutils/ext/snprintk.c:494
     a9e:	f1bb 3fff 	cmp.w	fp, #4294967295	; 0xffffffff
     aa2:	f04f 0900 	mov.w	r9, #0
     aa6:	d178      	bne.n	b9a <kprintf.constprop.0+0x5a2>
     aa8:	f10d 0a75 	add.w	sl, sp, #117	; 0x75
/home/mattia/soo/soo-vexpress/optee_os/lib/libutils/ext/snprintk.c:531
     aac:	9a11      	ldr	r2, [sp, #68]	; 0x44
     aae:	f004 030f 	and.w	r3, r4, #15
/home/mattia/soo/soo-vexpress/optee_os/lib/libutils/ext/snprintk.c:532
     ab2:	0924      	lsrs	r4, r4, #4
     ab4:	ea44 7405 	orr.w	r4, r4, r5, lsl #28
     ab8:	092d      	lsrs	r5, r5, #4
/home/mattia/soo/soo-vexpress/optee_os/lib/libutils/ext/snprintk.c:531
     aba:	5cd3      	ldrb	r3, [r2, r3]
     abc:	f80a 3d01 	strb.w	r3, [sl, #-1]!
/home/mattia/soo/soo-vexpress/optee_os/lib/libutils/ext/snprintk.c:533
     ac0:	ea54 0305 	orrs.w	r3, r4, r5
     ac4:	d1f2      	bne.n	aac <kprintf.constprop.0+0x4b4>
     ac6:	e6f6      	b.n	8b6 <kprintf.constprop.0+0x2be>
/home/mattia/soo/soo-vexpress/optee_os/lib/libutils/ext/snprintk.c:448
     ac8:	461f      	mov	r7, r3
     aca:	f857 ab04 	ldr.w	sl, [r7], #4
     ace:	f1ba 0f00 	cmp.w	sl, #0
     ad2:	d102      	bne.n	ada <kprintf.constprop.0+0x4e2>
/home/mattia/soo/soo-vexpress/optee_os/lib/libutils/ext/snprintk.c:450
     ad4:	f8df a1c8 	ldr.w	sl, [pc, #456]	; ca0 <kprintf.constprop.0+0x6a8>
     ad8:	44fa      	add	sl, pc
/home/mattia/soo/soo-vexpress/optee_os/lib/libutils/ext/snprintk.c:451
     ada:	f1bb 3fff 	cmp.w	fp, #4294967295	; 0xffffffff
     ade:	d00d      	beq.n	afc <kprintf.constprop.0+0x504>
/home/mattia/soo/soo-vexpress/optee_os/lib/libutils/ext/snprintk.c:457
     ae0:	465a      	mov	r2, fp
     ae2:	2100      	movs	r1, #0
     ae4:	4650      	mov	r0, sl
     ae6:	f008 fb47 	bl	9178 <memchr>
/home/mattia/soo/soo-vexpress/optee_os/lib/libutils/ext/snprintk.c:459
     aea:	b128      	cbz	r0, af8 <kprintf.constprop.0+0x500>
/home/mattia/soo/soo-vexpress/optee_os/lib/libutils/ext/snprintk.c:460
     aec:	eba0 000a 	sub.w	r0, r0, sl
     af0:	4583      	cmp	fp, r0
     af2:	bfa8      	it	ge
     af4:	4683      	movge	fp, r0
/home/mattia/soo/soo-vexpress/optee_os/lib/libutils/ext/snprintk.c:291
     af6:	2000      	movs	r0, #0
/home/mattia/soo/soo-vexpress/optee_os/lib/libutils/ext/snprintk.c:467
     af8:	4681      	mov	r9, r0
     afa:	e6e1      	b.n	8c0 <kprintf.constprop.0+0x2c8>
/home/mattia/soo/soo-vexpress/optee_os/lib/libutils/ext/snprintk.c:466
     afc:	4650      	mov	r0, sl
     afe:	f008 fb49 	bl	9194 <strlen>
     b02:	e7c1      	b.n	a88 <kprintf.constprop.0+0x490>
/home/mattia/soo/soo-vexpress/optee_os/lib/libutils/ext/snprintk.c:470
     b04:	f046 0610 	orr.w	r6, r6, #16
/home/mattia/soo/soo-vexpress/optee_os/lib/libutils/ext/snprintk.c:473
     b08:	f016 0280 	ands.w	r2, r6, #128	; 0x80
     b0c:	d00d      	beq.n	b2a <kprintf.constprop.0+0x532>
     b0e:	1ddf      	adds	r7, r3, #7
     b10:	f027 0707 	bic.w	r7, r7, #7
     b14:	e8f7 4502 	ldrd	r4, r5, [r7], #8
/home/mattia/soo/soo-vexpress/optee_os/lib/libutils/ext/snprintk.c:488
     b18:	f04f 0900 	mov.w	r9, #0
/home/mattia/soo/soo-vexpress/optee_os/lib/libutils/ext/snprintk.c:494
     b1c:	f1bb 3fff 	cmp.w	fp, #4294967295	; 0xffffffff
     b20:	d13d      	bne.n	b9e <kprintf.constprop.0+0x5a6>
     b22:	f10d 0375 	add.w	r3, sp, #117	; 0x75
     b26:	9312      	str	r3, [sp, #72]	; 0x48
     b28:	e04f      	b.n	bca <kprintf.constprop.0+0x5d2>
/home/mattia/soo/soo-vexpress/optee_os/lib/libutils/ext/snprintk.c:473
     b2a:	f416 7980 	ands.w	r9, r6, #256	; 0x100
     b2e:	d004      	beq.n	b3a <kprintf.constprop.0+0x542>
     b30:	461f      	mov	r7, r3
     b32:	f857 4b04 	ldr.w	r4, [r7], #4
     b36:	2500      	movs	r5, #0
     b38:	e7ee      	b.n	b18 <kprintf.constprop.0+0x520>
     b3a:	f416 7200 	ands.w	r2, r6, #512	; 0x200
     b3e:	d004      	beq.n	b4a <kprintf.constprop.0+0x552>
     b40:	461f      	mov	r7, r3
     b42:	f857 4b04 	ldr.w	r4, [r7], #4
     b46:	2500      	movs	r5, #0
     b48:	e7e8      	b.n	b1c <kprintf.constprop.0+0x524>
     b4a:	f016 0920 	ands.w	r9, r6, #32
     b4e:	d1de      	bne.n	b0e <kprintf.constprop.0+0x516>
     b50:	f016 0210 	ands.w	r2, r6, #16
     b54:	f103 0704 	add.w	r7, r3, #4
     b58:	d001      	beq.n	b5e <kprintf.constprop.0+0x566>
     b5a:	681c      	ldr	r4, [r3, #0]
     b5c:	e7f3      	b.n	b46 <kprintf.constprop.0+0x54e>
     b5e:	f016 0940 	ands.w	r9, r6, #64	; 0x40
     b62:	d0fa      	beq.n	b5a <kprintf.constprop.0+0x562>
     b64:	881c      	ldrh	r4, [r3, #0]
     b66:	e7e6      	b.n	b36 <kprintf.constprop.0+0x53e>
/home/mattia/soo/soo-vexpress/optee_os/lib/libutils/ext/snprintk.c:477
     b68:	4a4e      	ldr	r2, [pc, #312]	; (ca4 <kprintf.constprop.0+0x6ac>)
     b6a:	447a      	add	r2, pc
     b6c:	e5e1      	b.n	732 <kprintf.constprop.0+0x13a>
/home/mattia/soo/soo-vexpress/optee_os/lib/libutils/ext/snprintk.c:481
     b6e:	05f5      	lsls	r5, r6, #23
     b70:	d504      	bpl.n	b7c <kprintf.constprop.0+0x584>
     b72:	461f      	mov	r7, r3
     b74:	f857 4b04 	ldr.w	r4, [r7], #4
     b78:	2500      	movs	r5, #0
     b7a:	e5e4      	b.n	746 <kprintf.constprop.0+0x14e>
     b7c:	05b4      	lsls	r4, r6, #22
     b7e:	d4f8      	bmi.n	b72 <kprintf.constprop.0+0x57a>
     b80:	06b0      	lsls	r0, r6, #26
     b82:	f53f addb 	bmi.w	73c <kprintf.constprop.0+0x144>
     b86:	06f1      	lsls	r1, r6, #27
     b88:	f103 0704 	add.w	r7, r3, #4
     b8c:	d501      	bpl.n	b92 <kprintf.constprop.0+0x59a>
     b8e:	681c      	ldr	r4, [r3, #0]
     b90:	e7f2      	b.n	b78 <kprintf.constprop.0+0x580>
     b92:	0672      	lsls	r2, r6, #25
     b94:	d5fb      	bpl.n	b8e <kprintf.constprop.0+0x596>
     b96:	881c      	ldrh	r4, [r3, #0]
     b98:	e7ee      	b.n	b78 <kprintf.constprop.0+0x580>
/home/mattia/soo/soo-vexpress/optee_os/lib/libutils/ext/snprintk.c:494
     b9a:	2302      	movs	r3, #2
     b9c:	e724      	b.n	9e8 <kprintf.constprop.0+0x3f0>
     b9e:	2301      	movs	r3, #1
     ba0:	e722      	b.n	9e8 <kprintf.constprop.0+0x3f0>
/home/mattia/soo/soo-vexpress/optee_os/lib/libutils/ext/snprintk.c:523
     ba2:	4620      	mov	r0, r4
     ba4:	4629      	mov	r1, r5
     ba6:	220a      	movs	r2, #10
     ba8:	2300      	movs	r3, #0
     baa:	f000 e896 	blx	cd8 <__aeabi_uldivmod>
     bae:	9b12      	ldr	r3, [sp, #72]	; 0x48
     bb0:	3230      	adds	r2, #48	; 0x30
/home/mattia/soo/soo-vexpress/optee_os/lib/libutils/ext/snprintk.c:524
     bb2:	4620      	mov	r0, r4
     bb4:	4629      	mov	r1, r5
/home/mattia/soo/soo-vexpress/optee_os/lib/libutils/ext/snprintk.c:523
     bb6:	f803 2c01 	strb.w	r2, [r3, #-1]
/home/mattia/soo/soo-vexpress/optee_os/lib/libutils/ext/snprintk.c:524
     bba:	220a      	movs	r2, #10
     bbc:	2300      	movs	r3, #0
     bbe:	f000 e88c 	blx	cd8 <__aeabi_uldivmod>
     bc2:	4604      	mov	r4, r0
     bc4:	460d      	mov	r5, r1
     bc6:	f8cd a048 	str.w	sl, [sp, #72]	; 0x48
/home/mattia/soo/soo-vexpress/optee_os/lib/libutils/ext/snprintk.c:522
     bca:	9b12      	ldr	r3, [sp, #72]	; 0x48
     bcc:	2d00      	cmp	r5, #0
     bce:	bf08      	it	eq
     bd0:	2c0a      	cmpeq	r4, #10
     bd2:	f103 3aff 	add.w	sl, r3, #4294967295	; 0xffffffff
     bd6:	d2e4      	bcs.n	ba2 <kprintf.constprop.0+0x5aa>
/home/mattia/soo/soo-vexpress/optee_os/lib/libutils/ext/snprintk.c:526
     bd8:	3430      	adds	r4, #48	; 0x30
     bda:	f803 4c01 	strb.w	r4, [r3, #-1]
/home/mattia/soo/soo-vexpress/optee_os/lib/libutils/ext/snprintk.c:527
     bde:	e66a      	b.n	8b6 <kprintf.constprop.0+0x2be>
/home/mattia/soo/soo-vexpress/optee_os/lib/libutils/ext/snprintk.c:547
     be0:	9a0c      	ldr	r2, [sp, #48]	; 0x30
     be2:	2a00      	cmp	r2, #0
     be4:	f47f adbf 	bne.w	766 <kprintf.constprop.0+0x16e>
     be8:	e51b      	b.n	622 <kprintf.constprop.0+0x2a>
/home/mattia/soo/soo-vexpress/optee_os/lib/libutils/ext/snprintk.c:574
     bea:	07b4      	lsls	r4, r6, #30
/home/mattia/soo/soo-vexpress/optee_os/lib/libutils/ext/snprintk.c:575
     bec:	bf48      	it	mi
     bee:	3302      	addmi	r3, #2
     bf0:	e66f      	b.n	8d2 <kprintf.constprop.0+0x2da>
/home/mattia/soo/soo-vexpress/optee_os/lib/libutils/ext/snprintk.c:584
     bf2:	f1b8 0f00 	cmp.w	r8, #0
     bf6:	d006      	beq.n	c06 <kprintf.constprop.0+0x60e>
     bf8:	9d0d      	ldr	r5, [sp, #52]	; 0x34
     bfa:	b115      	cbz	r5, c02 <kprintf.constprop.0+0x60a>
     bfc:	9d10      	ldr	r5, [sp, #64]	; 0x40
     bfe:	4545      	cmp	r5, r8
     c00:	d901      	bls.n	c06 <kprintf.constprop.0+0x60e>
     c02:	f808 4b01 	strb.w	r4, [r8], #1
     c06:	3901      	subs	r1, #1
     c08:	e670      	b.n	8ec <kprintf.constprop.0+0x2f4>
/home/mattia/soo/soo-vexpress/optee_os/lib/libutils/ext/snprintk.c:590
     c0a:	07b1      	lsls	r1, r6, #30
     c0c:	f57f ae7f 	bpl.w	90e <kprintf.constprop.0+0x316>
/home/mattia/soo/soo-vexpress/optee_os/lib/libutils/ext/snprintk.c:591
     c10:	f1b8 0f00 	cmp.w	r8, #0
     c14:	f43f ae7b 	beq.w	90e <kprintf.constprop.0+0x316>
     c18:	990d      	ldr	r1, [sp, #52]	; 0x34
     c1a:	b119      	cbz	r1, c24 <kprintf.constprop.0+0x62c>
     c1c:	9910      	ldr	r1, [sp, #64]	; 0x40
     c1e:	4541      	cmp	r1, r8
     c20:	f67f ae75 	bls.w	90e <kprintf.constprop.0+0x316>
     c24:	2130      	movs	r1, #48	; 0x30
     c26:	f888 1000 	strb.w	r1, [r8]
/home/mattia/soo/soo-vexpress/optee_os/lib/libutils/ext/snprintk.c:592
     c2a:	990d      	ldr	r1, [sp, #52]	; 0x34
     c2c:	b121      	cbz	r1, c38 <kprintf.constprop.0+0x640>
     c2e:	9c10      	ldr	r4, [sp, #64]	; 0x40
/home/mattia/soo/soo-vexpress/optee_os/lib/libutils/ext/snprintk.c:591
     c30:	f108 0101 	add.w	r1, r8, #1
/home/mattia/soo/soo-vexpress/optee_os/lib/libutils/ext/snprintk.c:592
     c34:	428c      	cmp	r4, r1
     c36:	d905      	bls.n	c44 <kprintf.constprop.0+0x64c>
     c38:	990c      	ldr	r1, [sp, #48]	; 0x30
     c3a:	f108 0802 	add.w	r8, r8, #2
     c3e:	f808 1c01 	strb.w	r1, [r8, #-1]
     c42:	e664      	b.n	90e <kprintf.constprop.0+0x316>
     c44:	4688      	mov	r8, r1
     c46:	e662      	b.n	90e <kprintf.constprop.0+0x316>
/home/mattia/soo/soo-vexpress/optee_os/lib/libutils/ext/snprintk.c:599
     c48:	f1b8 0f00 	cmp.w	r8, #0
     c4c:	d006      	beq.n	c5c <kprintf.constprop.0+0x664>
     c4e:	9c0d      	ldr	r4, [sp, #52]	; 0x34
     c50:	b114      	cbz	r4, c58 <kprintf.constprop.0+0x660>
     c52:	9c10      	ldr	r4, [sp, #64]	; 0x40
     c54:	4544      	cmp	r4, r8
     c56:	d901      	bls.n	c5c <kprintf.constprop.0+0x664>
     c58:	f808 2b01 	strb.w	r2, [r8], #1
     c5c:	3901      	subs	r1, #1
     c5e:	e65c      	b.n	91a <kprintf.constprop.0+0x322>
/home/mattia/soo/soo-vexpress/optee_os/lib/libutils/ext/snprintk.c:605
     c60:	f1b8 0f00 	cmp.w	r8, #0
     c64:	d006      	beq.n	c74 <kprintf.constprop.0+0x67c>
     c66:	990d      	ldr	r1, [sp, #52]	; 0x34
     c68:	b111      	cbz	r1, c70 <kprintf.constprop.0+0x678>
     c6a:	9910      	ldr	r1, [sp, #64]	; 0x40
     c6c:	4541      	cmp	r1, r8
     c6e:	d901      	bls.n	c74 <kprintf.constprop.0+0x67c>
     c70:	f808 2b01 	strb.w	r2, [r8], #1
     c74:	3801      	subs	r0, #1
     c76:	e656      	b.n	926 <kprintf.constprop.0+0x32e>
/home/mattia/soo/soo-vexpress/optee_os/lib/libutils/ext/snprintk.c:609
     c78:	f1b8 0f00 	cmp.w	r8, #0
     c7c:	d008      	beq.n	c90 <kprintf.constprop.0+0x698>
     c7e:	9a0d      	ldr	r2, [sp, #52]	; 0x34
     c80:	b112      	cbz	r2, c88 <kprintf.constprop.0+0x690>
     c82:	9a10      	ldr	r2, [sp, #64]	; 0x40
     c84:	4542      	cmp	r2, r8
     c86:	d903      	bls.n	c90 <kprintf.constprop.0+0x698>
     c88:	f81a 2001 	ldrb.w	r2, [sl, r1]
     c8c:	f808 2b01 	strb.w	r2, [r8], #1
/home/mattia/soo/soo-vexpress/optee_os/lib/libutils/ext/snprintk.c:608
     c90:	3101      	adds	r1, #1
     c92:	e64c      	b.n	92e <kprintf.constprop.0+0x336>
     c94:	000093c0 	.word	0x000093c0
     c98:	00009067 	.word	0x00009067
     c9c:	0000905a 	.word	0x0000905a
     ca0:	00008fde 	.word	0x00008fde
     ca4:	00008f84 	.word	0x00008f84

00000ca8 <__vsprintf>:
__vsprintf():
/home/mattia/soo/soo-vexpress/optee_os/lib/libutils/ext/snprintk.c:155
     ca8:	b513      	push	{r0, r1, r4, lr}
     caa:	4604      	mov	r4, r0
     cac:	4608      	mov	r0, r1
/home/mattia/soo/soo-vexpress/optee_os/lib/libutils/ext/snprintk.c:156
     cae:	2100      	movs	r1, #0
/home/mattia/soo/soo-vexpress/optee_os/lib/libutils/ext/snprintk.c:155
     cb0:	4613      	mov	r3, r2
/home/mattia/soo/soo-vexpress/optee_os/lib/libutils/ext/snprintk.c:156
     cb2:	4622      	mov	r2, r4
     cb4:	9100      	str	r1, [sp, #0]
     cb6:	f7ff fc9f 	bl	5f8 <kprintf.constprop.0>
/home/mattia/soo/soo-vexpress/optee_os/lib/libutils/ext/snprintk.c:157
     cba:	b002      	add	sp, #8
     cbc:	bd10      	pop	{r4, pc}
     cbe:	bf00      	nop

00000cc0 <__aeabi_ldivmod>:
__aeabi_ldivmod():
/home/mattia/soo/soo-vexpress/optee_os/lib/libutils/isoc/arch/arm/arm32_aeabi_ldivmod_a32.S:12
     cc0:	e92d5000 	push	{ip, lr}
/home/mattia/soo/soo-vexpress/optee_os/lib/libutils/isoc/arch/arm/arm32_aeabi_ldivmod_a32.S:14
     cc4:	e92d000f 	push	{r0, r1, r2, r3}
/home/mattia/soo/soo-vexpress/optee_os/lib/libutils/isoc/arch/arm/arm32_aeabi_ldivmod_a32.S:16
     cc8:	e1a0000d 	mov	r0, sp
/home/mattia/soo/soo-vexpress/optee_os/lib/libutils/isoc/arch/arm/arm32_aeabi_ldivmod_a32.S:17
     ccc:	fa002153 	blx	9220 <__l_divmod>
/home/mattia/soo/soo-vexpress/optee_os/lib/libutils/isoc/arch/arm/arm32_aeabi_ldivmod_a32.S:18
     cd0:	e8bd000f 	pop	{r0, r1, r2, r3}
/home/mattia/soo/soo-vexpress/optee_os/lib/libutils/isoc/arch/arm/arm32_aeabi_ldivmod_a32.S:19
     cd4:	e8bd9000 	pop	{ip, pc}

00000cd8 <__aeabi_uldivmod>:
__aeabi_uldivmod():
/home/mattia/soo/soo-vexpress/optee_os/lib/libutils/isoc/arch/arm/arm32_aeabi_ldivmod_a32.S:27
     cd8:	e92d5000 	push	{ip, lr}
/home/mattia/soo/soo-vexpress/optee_os/lib/libutils/isoc/arch/arm/arm32_aeabi_ldivmod_a32.S:29
     cdc:	e92d000f 	push	{r0, r1, r2, r3}
/home/mattia/soo/soo-vexpress/optee_os/lib/libutils/isoc/arch/arm/arm32_aeabi_ldivmod_a32.S:31
     ce0:	e1a0000d 	mov	r0, sp
/home/mattia/soo/soo-vexpress/optee_os/lib/libutils/isoc/arch/arm/arm32_aeabi_ldivmod_a32.S:32
     ce4:	fa00212e 	blx	91a4 <__ul_divmod>
/home/mattia/soo/soo-vexpress/optee_os/lib/libutils/isoc/arch/arm/arm32_aeabi_ldivmod_a32.S:33
     ce8:	e8bd000f 	pop	{r0, r1, r2, r3}
/home/mattia/soo/soo-vexpress/optee_os/lib/libutils/isoc/arch/arm/arm32_aeabi_ldivmod_a32.S:34
     cec:	e8bd9000 	pop	{ip, pc}

00000cf0 <trace_ext_puts>:
trace_ext_puts():
/home/mattia/soo/soo-vexpress/optee_os/lib/libutee/trace_ext.c:22
     cf0:	b510      	push	{r4, lr}
     cf2:	4604      	mov	r4, r0
/home/mattia/soo/soo-vexpress/optee_os/lib/libutee/trace_ext.c:26
     cf4:	f008 fa4e 	bl	9194 <strlen>
     cf8:	4601      	mov	r1, r0
     cfa:	4620      	mov	r0, r4
/home/mattia/soo/soo-vexpress/optee_os/lib/libutee/trace_ext.c:28
     cfc:	e8bd 4010 	ldmia.w	sp!, {r4, lr}
/home/mattia/soo/soo-vexpress/optee_os/lib/libutee/trace_ext.c:26
     d00:	f008 bb82 	b.w	9408 <___utee_log_from_thumb>

00000d04 <trace_ext_get_thread_id>:
trace_ext_get_thread_id():
/home/mattia/soo/soo-vexpress/optee_os/lib/libutee/trace_ext.c:33
     d04:	f04f 30ff 	mov.w	r0, #4294967295	; 0xffffffff
     d08:	4770      	bx	lr

00000d0a <printf>:
printf():
/home/mattia/soo/soo-vexpress/optee_os/lib/libutee/trace_ext.c:41
     d0a:	b40f      	push	{r0, r1, r2, r3}
     d0c:	b530      	push	{r4, r5, lr}
     d0e:	b0c3      	sub	sp, #268	; 0x10c
/home/mattia/soo/soo-vexpress/optee_os/lib/libutee/trace_ext.c:46
     d10:	f7ff fb8e 	bl	430 <trace_get_level>
     d14:	2800      	cmp	r0, #0
     d16:	dd13      	ble.n	d40 <printf+0x36>
/home/mattia/soo/soo-vexpress/optee_os/lib/libutee/trace_ext.c:49
     d18:	ab47      	add	r3, sp, #284	; 0x11c
/home/mattia/soo/soo-vexpress/optee_os/lib/libutee/trace_ext.c:50
     d1a:	ad02      	add	r5, sp, #8
     d1c:	9a46      	ldr	r2, [sp, #280]	; 0x118
     d1e:	f44f 7180 	mov.w	r1, #256	; 0x100
     d22:	4628      	mov	r0, r5
/home/mattia/soo/soo-vexpress/optee_os/lib/libutee/trace_ext.c:49
     d24:	9301      	str	r3, [sp, #4]
/home/mattia/soo/soo-vexpress/optee_os/lib/libutee/trace_ext.c:50
     d26:	f008 fb0a 	bl	933e <vsnprintf>
/home/mattia/soo/soo-vexpress/optee_os/lib/libutee/trace_ext.c:53
     d2a:	1e04      	subs	r4, r0, #0
     d2c:	db02      	blt.n	d34 <printf+0x2a>
/home/mattia/soo/soo-vexpress/optee_os/lib/libutee/trace_ext.c:56
     d2e:	4628      	mov	r0, r5
     d30:	f7ff ffde 	bl	cf0 <trace_ext_puts>
/home/mattia/soo/soo-vexpress/optee_os/lib/libutee/trace_ext.c:59
     d34:	4620      	mov	r0, r4
     d36:	b043      	add	sp, #268	; 0x10c
     d38:	e8bd 4030 	ldmia.w	sp!, {r4, r5, lr}
     d3c:	b004      	add	sp, #16
     d3e:	4770      	bx	lr
/home/mattia/soo/soo-vexpress/optee_os/lib/libutee/trace_ext.c:47
     d40:	2400      	movs	r4, #0
     d42:	e7f7      	b.n	d34 <printf+0x2a>

00000d44 <puts>:
puts():
/home/mattia/soo/soo-vexpress/optee_os/lib/libutee/trace_ext.c:62
     d44:	b510      	push	{r4, lr}
     d46:	4604      	mov	r4, r0
/home/mattia/soo/soo-vexpress/optee_os/lib/libutee/trace_ext.c:63
     d48:	f7ff fb72 	bl	430 <trace_get_level>
     d4c:	2800      	cmp	r0, #0
     d4e:	dd06      	ble.n	d5e <puts+0x1a>
/home/mattia/soo/soo-vexpress/optee_os/lib/libutee/trace_ext.c:64
     d50:	4620      	mov	r0, r4
     d52:	f7ff ffcd 	bl	cf0 <trace_ext_puts>
/home/mattia/soo/soo-vexpress/optee_os/lib/libutee/trace_ext.c:65
     d56:	4803      	ldr	r0, [pc, #12]	; (d64 <puts+0x20>)
     d58:	4478      	add	r0, pc
     d5a:	f7ff ffc9 	bl	cf0 <trace_ext_puts>
/home/mattia/soo/soo-vexpress/optee_os/lib/libutee/trace_ext.c:68
     d5e:	2001      	movs	r0, #1
     d60:	bd10      	pop	{r4, pc}
     d62:	bf00      	nop
     d64:	00008a22 	.word	0x00008a22

00000d68 <putchar>:
putchar():
/home/mattia/soo/soo-vexpress/optee_os/lib/libutee/trace_ext.c:72
     d68:	2300      	movs	r3, #0
/home/mattia/soo/soo-vexpress/optee_os/lib/libutee/trace_ext.c:71
     d6a:	b513      	push	{r0, r1, r4, lr}
     d6c:	4604      	mov	r4, r0
/home/mattia/soo/soo-vexpress/optee_os/lib/libutee/trace_ext.c:72
     d6e:	f88d 0004 	strb.w	r0, [sp, #4]
     d72:	f88d 3005 	strb.w	r3, [sp, #5]
/home/mattia/soo/soo-vexpress/optee_os/lib/libutee/trace_ext.c:74
     d76:	f7ff fb5b 	bl	430 <trace_get_level>
     d7a:	2800      	cmp	r0, #0
     d7c:	dd02      	ble.n	d84 <putchar+0x1c>
/home/mattia/soo/soo-vexpress/optee_os/lib/libutee/trace_ext.c:75
     d7e:	a801      	add	r0, sp, #4
     d80:	f7ff ffb6 	bl	cf0 <trace_ext_puts>
/home/mattia/soo/soo-vexpress/optee_os/lib/libutee/trace_ext.c:82
     d84:	b2e0      	uxtb	r0, r4
     d86:	b002      	add	sp, #8
     d88:	bd10      	pop	{r4, pc}
     d8a:	bf00      	nop

00000d8c <__utee_from_attr>:
__utee_from_attr():
/home/mattia/soo/soo-vexpress/optee_os/lib/libutee/tee_api_objects.c:19
     d8c:	2318      	movs	r3, #24
/home/mattia/soo/soo-vexpress/optee_os/lib/libutee/tee_api_objects.c:16
     d8e:	b570      	push	{r4, r5, r6, lr}
     d90:	2400      	movs	r4, #0
     d92:	fb03 0202 	mla	r2, r3, r2, r0
/home/mattia/soo/soo-vexpress/optee_os/lib/libutee/tee_api_objects.c:19 (discriminator 1)
     d96:	4290      	cmp	r0, r2
     d98:	d100      	bne.n	d9c <__utee_from_attr+0x10>
/home/mattia/soo/soo-vexpress/optee_os/lib/libutee/tee_api_objects.c:29
     d9a:	bd70      	pop	{r4, r5, r6, pc}
/home/mattia/soo/soo-vexpress/optee_os/lib/libutee/tee_api_objects.c:20
     d9c:	680b      	ldr	r3, [r1, #0]
     d9e:	310c      	adds	r1, #12
     da0:	6103      	str	r3, [r0, #16]
/home/mattia/soo/soo-vexpress/optee_os/lib/libutee/tee_api_objects.c:21
     da2:	f013 5300 	ands.w	r3, r3, #536870912	; 0x20000000
     da6:	f851 5c04 	ldr.w	r5, [r1, #-4]
/home/mattia/soo/soo-vexpress/optee_os/lib/libutee/tee_api_objects.c:22
     daa:	bf17      	itett	ne
     dac:	f851 3c08 	ldrne.w	r3, [r1, #-8]
/home/mattia/soo/soo-vexpress/optee_os/lib/libutee/tee_api_objects.c:25
     db0:	f851 6c08 	ldreq.w	r6, [r1, #-8]
/home/mattia/soo/soo-vexpress/optee_os/lib/libutee/tee_api_objects.c:23
     db4:	e9c0 5402 	strdne	r5, r4, [r0, #8]
/home/mattia/soo/soo-vexpress/optee_os/lib/libutee/tee_api_objects.c:22
     db8:	e9c0 3400 	strdne	r3, r4, [r0]
/home/mattia/soo/soo-vexpress/optee_os/lib/libutee/tee_api_objects.c:25
     dbc:	bf04      	itt	eq
     dbe:	e9c0 6300 	strdeq	r6, r3, [r0]
/home/mattia/soo/soo-vexpress/optee_os/lib/libutee/tee_api_objects.c:26
     dc2:	e9c0 5302 	strdeq	r5, r3, [r0, #8]
/home/mattia/soo/soo-vexpress/optee_os/lib/libutee/tee_api_objects.c:19
     dc6:	3018      	adds	r0, #24
     dc8:	e7e5      	b.n	d96 <__utee_from_attr+0xa>

00000dca <TEE_GetObjectInfo>:
TEE_GetObjectInfo():
/home/mattia/soo/soo-vexpress/optee_os/lib/libutee/tee_api_objects.c:39
     dca:	b510      	push	{r4, lr}
     dcc:	460c      	mov	r4, r1
/home/mattia/soo/soo-vexpress/optee_os/lib/libutee/tee_api_objects.c:42
     dce:	f002 edee 	blx	39ac <_utee_cryp_obj_get_info>
/home/mattia/soo/soo-vexpress/optee_os/lib/libutee/tee_api_objects.c:44
     dd2:	b108      	cbz	r0, dd8 <TEE_GetObjectInfo+0xe>
/home/mattia/soo/soo-vexpress/optee_os/lib/libutee/tee_api_objects.c:45
     dd4:	f002 f95a 	bl	308c <TEE_Panic>
/home/mattia/soo/soo-vexpress/optee_os/lib/libutee/tee_api_objects.c:47
     dd8:	4b05      	ldr	r3, [pc, #20]	; (df0 <TEE_GetObjectInfo+0x26>)
     dda:	6822      	ldr	r2, [r4, #0]
     ddc:	429a      	cmp	r2, r3
     dde:	d106      	bne.n	dee <TEE_GetObjectInfo+0x24>
/home/mattia/soo/soo-vexpress/optee_os/lib/libutee/tee_api_objects.c:48
     de0:	2300      	movs	r3, #0
     de2:	6063      	str	r3, [r4, #4]
/home/mattia/soo/soo-vexpress/optee_os/lib/libutee/tee_api_objects.c:49
     de4:	60a3      	str	r3, [r4, #8]
/home/mattia/soo/soo-vexpress/optee_os/lib/libutee/tee_api_objects.c:50
     de6:	60e3      	str	r3, [r4, #12]
/home/mattia/soo/soo-vexpress/optee_os/lib/libutee/tee_api_objects.c:51
     de8:	6123      	str	r3, [r4, #16]
/home/mattia/soo/soo-vexpress/optee_os/lib/libutee/tee_api_objects.c:52
     dea:	6163      	str	r3, [r4, #20]
/home/mattia/soo/soo-vexpress/optee_os/lib/libutee/tee_api_objects.c:53
     dec:	61a3      	str	r3, [r4, #24]
/home/mattia/soo/soo-vexpress/optee_os/lib/libutee/tee_api_objects.c:55
     dee:	bd10      	pop	{r4, pc}
     df0:	a00000be 	.word	0xa00000be

00000df4 <TEE_GetObjectInfo1>:
TEE_GetObjectInfo1():
/home/mattia/soo/soo-vexpress/optee_os/lib/libutee/tee_api_objects.c:58
     df4:	b510      	push	{r4, lr}
/home/mattia/soo/soo-vexpress/optee_os/lib/libutee/tee_api_objects.c:61
     df6:	f002 edda 	blx	39ac <_utee_cryp_obj_get_info>
/home/mattia/soo/soo-vexpress/optee_os/lib/libutee/tee_api_objects.c:63
     dfa:	4604      	mov	r4, r0
     dfc:	b130      	cbz	r0, e0c <TEE_GetObjectInfo1+0x18>
/home/mattia/soo/soo-vexpress/optee_os/lib/libutee/tee_api_objects.c:63 (discriminator 1)
     dfe:	4b04      	ldr	r3, [pc, #16]	; (e10 <TEE_GetObjectInfo1+0x1c>)
     e00:	f020 0202 	bic.w	r2, r0, #2
     e04:	429a      	cmp	r2, r3
     e06:	d001      	beq.n	e0c <TEE_GetObjectInfo1+0x18>
/home/mattia/soo/soo-vexpress/optee_os/lib/libutee/tee_api_objects.c:66
     e08:	f002 f940 	bl	308c <TEE_Panic>
/home/mattia/soo/soo-vexpress/optee_os/lib/libutee/tee_api_objects.c:69
     e0c:	4620      	mov	r0, r4
     e0e:	bd10      	pop	{r4, pc}
     e10:	f0100001 	.word	0xf0100001

00000e14 <TEE_RestrictObjectUsage1>:
TEE_RestrictObjectUsage1():
/home/mattia/soo/soo-vexpress/optee_os/lib/libutee/tee_api_objects.c:93
     e14:	b510      	push	{r4, lr}
/home/mattia/soo/soo-vexpress/optee_os/lib/libutee/tee_api_objects.c:96
     e16:	f002 edd4 	blx	39c0 <_utee_cryp_obj_restrict_usage>
/home/mattia/soo/soo-vexpress/optee_os/lib/libutee/tee_api_objects.c:99
     e1a:	4604      	mov	r4, r0
     e1c:	b130      	cbz	r0, e2c <TEE_RestrictObjectUsage1+0x18>
/home/mattia/soo/soo-vexpress/optee_os/lib/libutee/tee_api_objects.c:99 (discriminator 1)
     e1e:	4b04      	ldr	r3, [pc, #16]	; (e30 <TEE_RestrictObjectUsage1+0x1c>)
     e20:	f020 0202 	bic.w	r2, r0, #2
     e24:	429a      	cmp	r2, r3
     e26:	d001      	beq.n	e2c <TEE_RestrictObjectUsage1+0x18>
/home/mattia/soo/soo-vexpress/optee_os/lib/libutee/tee_api_objects.c:102
     e28:	f002 f930 	bl	308c <TEE_Panic>
/home/mattia/soo/soo-vexpress/optee_os/lib/libutee/tee_api_objects.c:105
     e2c:	4620      	mov	r0, r4
     e2e:	bd10      	pop	{r4, pc}
     e30:	f0100001 	.word	0xf0100001

00000e34 <TEE_RestrictObjectUsage>:
TEE_RestrictObjectUsage():
/home/mattia/soo/soo-vexpress/optee_os/lib/libutee/tee_api_objects.c:78
     e34:	b530      	push	{r4, r5, lr}
     e36:	b089      	sub	sp, #36	; 0x24
     e38:	460d      	mov	r5, r1
/home/mattia/soo/soo-vexpress/optee_os/lib/libutee/tee_api_objects.c:82
     e3a:	a901      	add	r1, sp, #4
/home/mattia/soo/soo-vexpress/optee_os/lib/libutee/tee_api_objects.c:78
     e3c:	4604      	mov	r4, r0
/home/mattia/soo/soo-vexpress/optee_os/lib/libutee/tee_api_objects.c:82
     e3e:	f002 edb6 	blx	39ac <_utee_cryp_obj_get_info>
/home/mattia/soo/soo-vexpress/optee_os/lib/libutee/tee_api_objects.c:83
     e42:	4b06      	ldr	r3, [pc, #24]	; (e5c <TEE_RestrictObjectUsage+0x28>)
     e44:	9a01      	ldr	r2, [sp, #4]
     e46:	429a      	cmp	r2, r3
     e48:	d006      	beq.n	e58 <TEE_RestrictObjectUsage+0x24>
/home/mattia/soo/soo-vexpress/optee_os/lib/libutee/tee_api_objects.c:86
     e4a:	4629      	mov	r1, r5
     e4c:	4620      	mov	r0, r4
     e4e:	f7ff ffe1 	bl	e14 <TEE_RestrictObjectUsage1>
/home/mattia/soo/soo-vexpress/optee_os/lib/libutee/tee_api_objects.c:88
     e52:	b108      	cbz	r0, e58 <TEE_RestrictObjectUsage+0x24>
/home/mattia/soo/soo-vexpress/optee_os/lib/libutee/tee_api_objects.c:89
     e54:	f002 f91a 	bl	308c <TEE_Panic>
/home/mattia/soo/soo-vexpress/optee_os/lib/libutee/tee_api_objects.c:90
     e58:	b009      	add	sp, #36	; 0x24
     e5a:	bd30      	pop	{r4, r5, pc}
     e5c:	a00000be 	.word	0xa00000be

00000e60 <TEE_GetObjectBufferAttribute>:
TEE_GetObjectBufferAttribute():
/home/mattia/soo/soo-vexpress/optee_os/lib/libutee/tee_api_objects.c:110
     e60:	e92d 41f0 	stmdb	sp!, {r4, r5, r6, r7, r8, lr}
     e64:	4606      	mov	r6, r0
     e66:	b08a      	sub	sp, #40	; 0x28
/home/mattia/soo/soo-vexpress/optee_os/lib/libutee/tee_api_objects.c:115
     e68:	4618      	mov	r0, r3
/home/mattia/soo/soo-vexpress/optee_os/lib/libutee/tee_api_objects.c:110
     e6a:	460f      	mov	r7, r1
/home/mattia/soo/soo-vexpress/optee_os/lib/libutee/tee_api_objects.c:115
     e6c:	2104      	movs	r1, #4
/home/mattia/soo/soo-vexpress/optee_os/lib/libutee/tee_api_objects.c:110
     e6e:	4690      	mov	r8, r2
     e70:	461d      	mov	r5, r3
/home/mattia/soo/soo-vexpress/optee_os/lib/libutee/tee_api_objects.c:115
     e72:	f002 f95e 	bl	3132 <__utee_check_inout_annotation>
/home/mattia/soo/soo-vexpress/optee_os/lib/libutee/tee_api_objects.c:117
     e76:	a903      	add	r1, sp, #12
     e78:	4630      	mov	r0, r6
     e7a:	f002 ed98 	blx	39ac <_utee_cryp_obj_get_info>
/home/mattia/soo/soo-vexpress/optee_os/lib/libutee/tee_api_objects.c:118
     e7e:	4604      	mov	r4, r0
     e80:	b970      	cbnz	r0, ea0 <TEE_GetObjectBufferAttribute+0x40>
/home/mattia/soo/soo-vexpress/optee_os/lib/libutee/tee_api_objects.c:122
     e82:	00bb      	lsls	r3, r7, #2
     e84:	d422      	bmi.n	ecc <TEE_GetObjectBufferAttribute+0x6c>
/home/mattia/soo/soo-vexpress/optee_os/lib/libutee/tee_api_objects.c:127
     e86:	682b      	ldr	r3, [r5, #0]
/home/mattia/soo/soo-vexpress/optee_os/lib/libutee/tee_api_objects.c:128
     e88:	4642      	mov	r2, r8
     e8a:	4639      	mov	r1, r7
     e8c:	4630      	mov	r0, r6
/home/mattia/soo/soo-vexpress/optee_os/lib/libutee/tee_api_objects.c:127
     e8e:	e9cd 3400 	strd	r3, r4, [sp]
/home/mattia/soo/soo-vexpress/optee_os/lib/libutee/tee_api_objects.c:128
     e92:	466b      	mov	r3, sp
     e94:	f002 ed9e 	blx	39d4 <_utee_cryp_obj_get_attr>
/home/mattia/soo/soo-vexpress/optee_os/lib/libutee/tee_api_objects.c:130
     e98:	9b00      	ldr	r3, [sp, #0]
/home/mattia/soo/soo-vexpress/optee_os/lib/libutee/tee_api_objects.c:133
     e9a:	4604      	mov	r4, r0
/home/mattia/soo/soo-vexpress/optee_os/lib/libutee/tee_api_objects.c:130
     e9c:	602b      	str	r3, [r5, #0]
/home/mattia/soo/soo-vexpress/optee_os/lib/libutee/tee_api_objects.c:133
     e9e:	b188      	cbz	r0, ec4 <TEE_GetObjectBufferAttribute+0x64>
     ea0:	4b0b      	ldr	r3, [pc, #44]	; (ed0 <TEE_GetObjectBufferAttribute+0x70>)
     ea2:	429c      	cmp	r4, r3
     ea4:	d00e      	beq.n	ec4 <TEE_GetObjectBufferAttribute+0x64>
/home/mattia/soo/soo-vexpress/optee_os/lib/libutee/tee_api_objects.c:134
     ea6:	3308      	adds	r3, #8
     ea8:	429c      	cmp	r4, r3
     eaa:	d00b      	beq.n	ec4 <TEE_GetObjectBufferAttribute+0x64>
/home/mattia/soo/soo-vexpress/optee_os/lib/libutee/tee_api_objects.c:135
     eac:	f1a3 637e 	sub.w	r3, r3, #266338304	; 0xfe00000
     eb0:	f1a3 130f 	sub.w	r3, r3, #983055	; 0xf000f
     eb4:	429c      	cmp	r4, r3
     eb6:	d005      	beq.n	ec4 <TEE_GetObjectBufferAttribute+0x64>
/home/mattia/soo/soo-vexpress/optee_os/lib/libutee/tee_api_objects.c:136
     eb8:	3302      	adds	r3, #2
     eba:	429c      	cmp	r4, r3
     ebc:	d002      	beq.n	ec4 <TEE_GetObjectBufferAttribute+0x64>
/home/mattia/soo/soo-vexpress/optee_os/lib/libutee/tee_api_objects.c:138
     ebe:	4620      	mov	r0, r4
     ec0:	f002 f8e4 	bl	308c <TEE_Panic>
/home/mattia/soo/soo-vexpress/optee_os/lib/libutee/tee_api_objects.c:141
     ec4:	4620      	mov	r0, r4
     ec6:	b00a      	add	sp, #40	; 0x28
     ec8:	e8bd 81f0 	ldmia.w	sp!, {r4, r5, r6, r7, r8, pc}
/home/mattia/soo/soo-vexpress/optee_os/lib/libutee/tee_api_objects.c:123
     ecc:	4c01      	ldr	r4, [pc, #4]	; (ed4 <TEE_GetObjectBufferAttribute+0x74>)
     ece:	e7f6      	b.n	ebe <TEE_GetObjectBufferAttribute+0x5e>
     ed0:	ffff0008 	.word	0xffff0008
     ed4:	ffff0006 	.word	0xffff0006

00000ed8 <TEE_GetObjectValueAttribute>:
TEE_GetObjectValueAttribute():
/home/mattia/soo/soo-vexpress/optee_os/lib/libutee/tee_api_objects.c:146
     ed8:	e92d 41f0 	stmdb	sp!, {r4, r5, r6, r7, r8, lr}
     edc:	4607      	mov	r7, r0
     ede:	b08c      	sub	sp, #48	; 0x30
     ee0:	4688      	mov	r8, r1
/home/mattia/soo/soo-vexpress/optee_os/lib/libutee/tee_api_objects.c:150
     ee2:	2008      	movs	r0, #8
     ee4:	2100      	movs	r1, #0
/home/mattia/soo/soo-vexpress/optee_os/lib/libutee/tee_api_objects.c:146
     ee6:	461d      	mov	r5, r3
/home/mattia/soo/soo-vexpress/optee_os/lib/libutee/tee_api_objects.c:152
     ee8:	4616      	mov	r6, r2
/home/mattia/soo/soo-vexpress/optee_os/lib/libutee/tee_api_objects.c:150
     eea:	e9cd 0100 	strd	r0, r1, [sp]
/home/mattia/soo/soo-vexpress/optee_os/lib/libutee/tee_api_objects.c:152
     eee:	b11a      	cbz	r2, ef8 <TEE_GetObjectValueAttribute+0x20>
/home/mattia/soo/soo-vexpress/optee_os/lib/libutee/tee_api_objects.c:153
     ef0:	2104      	movs	r1, #4
     ef2:	4610      	mov	r0, r2
     ef4:	f002 f90a 	bl	310c <__utee_check_out_annotation>
/home/mattia/soo/soo-vexpress/optee_os/lib/libutee/tee_api_objects.c:154
     ef8:	b11d      	cbz	r5, f02 <TEE_GetObjectValueAttribute+0x2a>
/home/mattia/soo/soo-vexpress/optee_os/lib/libutee/tee_api_objects.c:155
     efa:	2104      	movs	r1, #4
     efc:	4628      	mov	r0, r5
     efe:	f002 f905 	bl	310c <__utee_check_out_annotation>
/home/mattia/soo/soo-vexpress/optee_os/lib/libutee/tee_api_objects.c:157
     f02:	a905      	add	r1, sp, #20
     f04:	4638      	mov	r0, r7
     f06:	f002 ed52 	blx	39ac <_utee_cryp_obj_get_info>
/home/mattia/soo/soo-vexpress/optee_os/lib/libutee/tee_api_objects.c:158
     f0a:	4604      	mov	r4, r0
     f0c:	b950      	cbnz	r0, f24 <TEE_GetObjectValueAttribute+0x4c>
/home/mattia/soo/soo-vexpress/optee_os/lib/libutee/tee_api_objects.c:162
     f0e:	f018 5f00 	tst.w	r8, #536870912	; 0x20000000
     f12:	d027      	beq.n	f64 <TEE_GetObjectValueAttribute+0x8c>
/home/mattia/soo/soo-vexpress/optee_os/lib/libutee/tee_api_objects.c:167
     f14:	466b      	mov	r3, sp
     f16:	aa03      	add	r2, sp, #12
     f18:	4641      	mov	r1, r8
     f1a:	4638      	mov	r0, r7
     f1c:	f002 ed5a 	blx	39d4 <_utee_cryp_obj_get_attr>
/home/mattia/soo/soo-vexpress/optee_os/lib/libutee/tee_api_objects.c:171
     f20:	4604      	mov	r4, r0
     f22:	b158      	cbz	r0, f3c <TEE_GetObjectValueAttribute+0x64>
     f24:	4b10      	ldr	r3, [pc, #64]	; (f68 <TEE_GetObjectValueAttribute+0x90>)
     f26:	429c      	cmp	r4, r3
     f28:	d008      	beq.n	f3c <TEE_GetObjectValueAttribute+0x64>
/home/mattia/soo/soo-vexpress/optee_os/lib/libutee/tee_api_objects.c:172
     f2a:	4b10      	ldr	r3, [pc, #64]	; (f6c <TEE_GetObjectValueAttribute+0x94>)
     f2c:	429c      	cmp	r4, r3
     f2e:	d005      	beq.n	f3c <TEE_GetObjectValueAttribute+0x64>
/home/mattia/soo/soo-vexpress/optee_os/lib/libutee/tee_api_objects.c:173
     f30:	3302      	adds	r3, #2
     f32:	429c      	cmp	r4, r3
     f34:	d002      	beq.n	f3c <TEE_GetObjectValueAttribute+0x64>
/home/mattia/soo/soo-vexpress/optee_os/lib/libutee/tee_api_objects.c:175
     f36:	4620      	mov	r0, r4
     f38:	f002 f8a8 	bl	308c <TEE_Panic>
/home/mattia/soo/soo-vexpress/optee_os/lib/libutee/tee_api_objects.c:177
     f3c:	e9dd 2300 	ldrd	r2, r3, [sp]
     f40:	2b00      	cmp	r3, #0
     f42:	bf08      	it	eq
     f44:	2a08      	cmpeq	r2, #8
     f46:	d002      	beq.n	f4e <TEE_GetObjectValueAttribute+0x76>
/home/mattia/soo/soo-vexpress/optee_os/lib/libutee/tee_api_objects.c:178
     f48:	2000      	movs	r0, #0
     f4a:	f002 f89f 	bl	308c <TEE_Panic>
/home/mattia/soo/soo-vexpress/optee_os/lib/libutee/tee_api_objects.c:180
     f4e:	b92c      	cbnz	r4, f5c <TEE_GetObjectValueAttribute+0x84>
/home/mattia/soo/soo-vexpress/optee_os/lib/libutee/tee_api_objects.c:181
     f50:	b10e      	cbz	r6, f56 <TEE_GetObjectValueAttribute+0x7e>
/home/mattia/soo/soo-vexpress/optee_os/lib/libutee/tee_api_objects.c:182
     f52:	9b03      	ldr	r3, [sp, #12]
     f54:	6033      	str	r3, [r6, #0]
/home/mattia/soo/soo-vexpress/optee_os/lib/libutee/tee_api_objects.c:183
     f56:	b10d      	cbz	r5, f5c <TEE_GetObjectValueAttribute+0x84>
/home/mattia/soo/soo-vexpress/optee_os/lib/libutee/tee_api_objects.c:184
     f58:	9b04      	ldr	r3, [sp, #16]
     f5a:	602b      	str	r3, [r5, #0]
/home/mattia/soo/soo-vexpress/optee_os/lib/libutee/tee_api_objects.c:188
     f5c:	4620      	mov	r0, r4
     f5e:	b00c      	add	sp, #48	; 0x30
     f60:	e8bd 81f0 	ldmia.w	sp!, {r4, r5, r6, r7, r8, pc}
/home/mattia/soo/soo-vexpress/optee_os/lib/libutee/tee_api_objects.c:163
     f64:	4c02      	ldr	r4, [pc, #8]	; (f70 <TEE_GetObjectValueAttribute+0x98>)
     f66:	e7e6      	b.n	f36 <TEE_GetObjectValueAttribute+0x5e>
     f68:	ffff0008 	.word	0xffff0008
     f6c:	f0100001 	.word	0xf0100001
     f70:	ffff0006 	.word	0xffff0006

00000f74 <TEE_CloseObject>:
TEE_CloseObject():
/home/mattia/soo/soo-vexpress/optee_os/lib/libutee/tee_api_objects.c:191
     f74:	b508      	push	{r3, lr}
/home/mattia/soo/soo-vexpress/optee_os/lib/libutee/tee_api_objects.c:194
     f76:	b130      	cbz	r0, f86 <TEE_CloseObject+0x12>
/home/mattia/soo/soo-vexpress/optee_os/lib/libutee/tee_api_objects.c:197
     f78:	f002 ed40 	blx	39fc <_utee_cryp_obj_close>
/home/mattia/soo/soo-vexpress/optee_os/lib/libutee/tee_api_objects.c:198
     f7c:	b118      	cbz	r0, f86 <TEE_CloseObject+0x12>
/home/mattia/soo/soo-vexpress/optee_os/lib/libutee/tee_api_objects.c:200
     f7e:	e8bd 4008 	ldmia.w	sp!, {r3, lr}
/home/mattia/soo/soo-vexpress/optee_os/lib/libutee/tee_api_objects.c:199
     f82:	f002 b883 	b.w	308c <TEE_Panic>
/home/mattia/soo/soo-vexpress/optee_os/lib/libutee/tee_api_objects.c:200
     f86:	bd08      	pop	{r3, pc}

00000f88 <TEE_AllocateTransientObject>:
TEE_AllocateTransientObject():
/home/mattia/soo/soo-vexpress/optee_os/lib/libutee/tee_api_objects.c:207
     f88:	b573      	push	{r0, r1, r4, r5, r6, lr}
     f8a:	4604      	mov	r4, r0
     f8c:	460e      	mov	r6, r1
/home/mattia/soo/soo-vexpress/optee_os/lib/libutee/tee_api_objects.c:211
     f8e:	4610      	mov	r0, r2
     f90:	2104      	movs	r1, #4
/home/mattia/soo/soo-vexpress/optee_os/lib/libutee/tee_api_objects.c:207
     f92:	4615      	mov	r5, r2
/home/mattia/soo/soo-vexpress/optee_os/lib/libutee/tee_api_objects.c:211
     f94:	f002 f8ba 	bl	310c <__utee_check_out_annotation>
/home/mattia/soo/soo-vexpress/optee_os/lib/libutee/tee_api_objects.c:213
     f98:	4620      	mov	r0, r4
     f9a:	aa01      	add	r2, sp, #4
     f9c:	4631      	mov	r1, r6
     f9e:	f002 ed24 	blx	39e8 <_utee_cryp_obj_alloc>
/home/mattia/soo/soo-vexpress/optee_os/lib/libutee/tee_api_objects.c:215
     fa2:	4604      	mov	r4, r0
     fa4:	b150      	cbz	r0, fbc <TEE_AllocateTransientObject+0x34>
/home/mattia/soo/soo-vexpress/optee_os/lib/libutee/tee_api_objects.c:215 (discriminator 1)
     fa6:	4b07      	ldr	r3, [pc, #28]	; (fc4 <TEE_AllocateTransientObject+0x3c>)
     fa8:	4298      	cmp	r0, r3
     faa:	d004      	beq.n	fb6 <TEE_AllocateTransientObject+0x2e>
/home/mattia/soo/soo-vexpress/optee_os/lib/libutee/tee_api_objects.c:216
     fac:	3b02      	subs	r3, #2
     fae:	4298      	cmp	r0, r3
     fb0:	d001      	beq.n	fb6 <TEE_AllocateTransientObject+0x2e>
/home/mattia/soo/soo-vexpress/optee_os/lib/libutee/tee_api_objects.c:218
     fb2:	f002 f86b 	bl	308c <TEE_Panic>
/home/mattia/soo/soo-vexpress/optee_os/lib/libutee/tee_api_objects.c:224
     fb6:	4620      	mov	r0, r4
     fb8:	b002      	add	sp, #8
     fba:	bd70      	pop	{r4, r5, r6, pc}
/home/mattia/soo/soo-vexpress/optee_os/lib/libutee/tee_api_objects.c:221
     fbc:	9b01      	ldr	r3, [sp, #4]
     fbe:	602b      	str	r3, [r5, #0]
     fc0:	e7f9      	b.n	fb6 <TEE_AllocateTransientObject+0x2e>
     fc2:	bf00      	nop
     fc4:	ffff000c 	.word	0xffff000c

00000fc8 <TEE_FreeTransientObject>:
TEE_FreeTransientObject():
/home/mattia/soo/soo-vexpress/optee_os/lib/libutee/tee_api_objects.c:227
     fc8:	b510      	push	{r4, lr}
/home/mattia/soo/soo-vexpress/optee_os/lib/libutee/tee_api_objects.c:231
     fca:	4604      	mov	r4, r0
/home/mattia/soo/soo-vexpress/optee_os/lib/libutee/tee_api_objects.c:227
     fcc:	b088      	sub	sp, #32
/home/mattia/soo/soo-vexpress/optee_os/lib/libutee/tee_api_objects.c:231
     fce:	b188      	cbz	r0, ff4 <TEE_FreeTransientObject+0x2c>
/home/mattia/soo/soo-vexpress/optee_os/lib/libutee/tee_api_objects.c:234
     fd0:	a901      	add	r1, sp, #4
     fd2:	f002 ecec 	blx	39ac <_utee_cryp_obj_get_info>
/home/mattia/soo/soo-vexpress/optee_os/lib/libutee/tee_api_objects.c:235
     fd6:	b108      	cbz	r0, fdc <TEE_FreeTransientObject+0x14>
/home/mattia/soo/soo-vexpress/optee_os/lib/libutee/tee_api_objects.c:236
     fd8:	f002 f858 	bl	308c <TEE_Panic>
/home/mattia/soo/soo-vexpress/optee_os/lib/libutee/tee_api_objects.c:238
     fdc:	9b07      	ldr	r3, [sp, #28]
     fde:	03db      	lsls	r3, r3, #15
     fe0:	d502      	bpl.n	fe8 <TEE_FreeTransientObject+0x20>
/home/mattia/soo/soo-vexpress/optee_os/lib/libutee/tee_api_objects.c:239
     fe2:	2000      	movs	r0, #0
     fe4:	f002 f852 	bl	308c <TEE_Panic>
/home/mattia/soo/soo-vexpress/optee_os/lib/libutee/tee_api_objects.c:241
     fe8:	4620      	mov	r0, r4
     fea:	f002 ed08 	blx	39fc <_utee_cryp_obj_close>
/home/mattia/soo/soo-vexpress/optee_os/lib/libutee/tee_api_objects.c:242
     fee:	b108      	cbz	r0, ff4 <TEE_FreeTransientObject+0x2c>
/home/mattia/soo/soo-vexpress/optee_os/lib/libutee/tee_api_objects.c:243
     ff0:	f002 f84c 	bl	308c <TEE_Panic>
/home/mattia/soo/soo-vexpress/optee_os/lib/libutee/tee_api_objects.c:244
     ff4:	b008      	add	sp, #32
     ff6:	bd10      	pop	{r4, pc}

00000ff8 <TEE_ResetTransientObject>:
TEE_ResetTransientObject():
/home/mattia/soo/soo-vexpress/optee_os/lib/libutee/tee_api_objects.c:247
     ff8:	b510      	push	{r4, lr}
/home/mattia/soo/soo-vexpress/optee_os/lib/libutee/tee_api_objects.c:251
     ffa:	4604      	mov	r4, r0
/home/mattia/soo/soo-vexpress/optee_os/lib/libutee/tee_api_objects.c:247
     ffc:	b088      	sub	sp, #32
/home/mattia/soo/soo-vexpress/optee_os/lib/libutee/tee_api_objects.c:251
     ffe:	b188      	cbz	r0, 1024 <TEE_ResetTransientObject+0x2c>
/home/mattia/soo/soo-vexpress/optee_os/lib/libutee/tee_api_objects.c:254
    1000:	a901      	add	r1, sp, #4
    1002:	f002 ecd4 	blx	39ac <_utee_cryp_obj_get_info>
/home/mattia/soo/soo-vexpress/optee_os/lib/libutee/tee_api_objects.c:255
    1006:	b108      	cbz	r0, 100c <TEE_ResetTransientObject+0x14>
/home/mattia/soo/soo-vexpress/optee_os/lib/libutee/tee_api_objects.c:256
    1008:	f002 f840 	bl	308c <TEE_Panic>
/home/mattia/soo/soo-vexpress/optee_os/lib/libutee/tee_api_objects.c:258
    100c:	9b07      	ldr	r3, [sp, #28]
    100e:	03db      	lsls	r3, r3, #15
    1010:	d502      	bpl.n	1018 <TEE_ResetTransientObject+0x20>
/home/mattia/soo/soo-vexpress/optee_os/lib/libutee/tee_api_objects.c:259
    1012:	2000      	movs	r0, #0
    1014:	f002 f83a 	bl	308c <TEE_Panic>
/home/mattia/soo/soo-vexpress/optee_os/lib/libutee/tee_api_objects.c:261
    1018:	4620      	mov	r0, r4
    101a:	f002 ecfa 	blx	3a10 <_utee_cryp_obj_reset>
/home/mattia/soo/soo-vexpress/optee_os/lib/libutee/tee_api_objects.c:262
    101e:	b108      	cbz	r0, 1024 <TEE_ResetTransientObject+0x2c>
/home/mattia/soo/soo-vexpress/optee_os/lib/libutee/tee_api_objects.c:263
    1020:	f002 f834 	bl	308c <TEE_Panic>
/home/mattia/soo/soo-vexpress/optee_os/lib/libutee/tee_api_objects.c:264
    1024:	b008      	add	sp, #32
    1026:	bd10      	pop	{r4, pc}

00001028 <TEE_PopulateTransientObject>:
TEE_PopulateTransientObject():
/home/mattia/soo/soo-vexpress/optee_os/lib/libutee/tee_api_objects.c:269
    1028:	e92d 41f0 	stmdb	sp!, {r4, r5, r6, r7, r8, lr}
    102c:	b088      	sub	sp, #32
    102e:	4614      	mov	r4, r2
/home/mattia/soo/soo-vexpress/optee_os/lib/libutee/tee_api_objects.c:272
    1030:	2318      	movs	r3, #24
    1032:	466a      	mov	r2, sp
/home/mattia/soo/soo-vexpress/optee_os/lib/libutee/tee_api_objects.c:269
    1034:	460e      	mov	r6, r1
/home/mattia/soo/soo-vexpress/optee_os/lib/libutee/tee_api_objects.c:272
    1036:	fb03 2314 	mls	r3, r3, r4, r2
/home/mattia/soo/soo-vexpress/optee_os/lib/libutee/tee_api_objects.c:269
    103a:	af00      	add	r7, sp, #0
    103c:	4605      	mov	r5, r0
/home/mattia/soo/soo-vexpress/optee_os/lib/libutee/tee_api_objects.c:274
    103e:	4621      	mov	r1, r4
    1040:	4630      	mov	r0, r6
/home/mattia/soo/soo-vexpress/optee_os/lib/libutee/tee_api_objects.c:272
    1042:	469d      	mov	sp, r3
/home/mattia/soo/soo-vexpress/optee_os/lib/libutee/tee_api_objects.c:274
    1044:	f002 f86b 	bl	311e <__utee_check_attr_in_annotation>
/home/mattia/soo/soo-vexpress/optee_os/lib/libutee/tee_api_objects.c:276
    1048:	1d39      	adds	r1, r7, #4
    104a:	4628      	mov	r0, r5
/home/mattia/soo/soo-vexpress/optee_os/lib/libutee/tee_api_objects.c:272
    104c:	46e8      	mov	r8, sp
/home/mattia/soo/soo-vexpress/optee_os/lib/libutee/tee_api_objects.c:276
    104e:	f002 ecae 	blx	39ac <_utee_cryp_obj_get_info>
/home/mattia/soo/soo-vexpress/optee_os/lib/libutee/tee_api_objects.c:277
    1052:	b108      	cbz	r0, 1058 <TEE_PopulateTransientObject+0x30>
/home/mattia/soo/soo-vexpress/optee_os/lib/libutee/tee_api_objects.c:278
    1054:	f002 f81a 	bl	308c <TEE_Panic>
/home/mattia/soo/soo-vexpress/optee_os/lib/libutee/tee_api_objects.c:281
    1058:	69fb      	ldr	r3, [r7, #28]
    105a:	03da      	lsls	r2, r3, #15
    105c:	d502      	bpl.n	1064 <TEE_PopulateTransientObject+0x3c>
/home/mattia/soo/soo-vexpress/optee_os/lib/libutee/tee_api_objects.c:282
    105e:	2000      	movs	r0, #0
    1060:	f002 f814 	bl	308c <TEE_Panic>
/home/mattia/soo/soo-vexpress/optee_os/lib/libutee/tee_api_objects.c:285
    1064:	69fb      	ldr	r3, [r7, #28]
    1066:	039b      	lsls	r3, r3, #14
    1068:	d502      	bpl.n	1070 <TEE_PopulateTransientObject+0x48>
/home/mattia/soo/soo-vexpress/optee_os/lib/libutee/tee_api_objects.c:286
    106a:	2000      	movs	r0, #0
    106c:	f002 f80e 	bl	308c <TEE_Panic>
/home/mattia/soo/soo-vexpress/optee_os/lib/libutee/tee_api_objects.c:288
    1070:	4622      	mov	r2, r4
    1072:	4631      	mov	r1, r6
    1074:	4640      	mov	r0, r8
    1076:	f7ff fe89 	bl	d8c <__utee_from_attr>
/home/mattia/soo/soo-vexpress/optee_os/lib/libutee/tee_api_objects.c:289
    107a:	4622      	mov	r2, r4
    107c:	4641      	mov	r1, r8
    107e:	4628      	mov	r0, r5
    1080:	f002 ecd0 	blx	3a24 <_utee_cryp_obj_populate>
/home/mattia/soo/soo-vexpress/optee_os/lib/libutee/tee_api_objects.c:290
    1084:	4604      	mov	r4, r0
    1086:	b120      	cbz	r0, 1092 <TEE_PopulateTransientObject+0x6a>
/home/mattia/soo/soo-vexpress/optee_os/lib/libutee/tee_api_objects.c:290 (discriminator 1)
    1088:	4b04      	ldr	r3, [pc, #16]	; (109c <TEE_PopulateTransientObject+0x74>)
    108a:	4298      	cmp	r0, r3
    108c:	d001      	beq.n	1092 <TEE_PopulateTransientObject+0x6a>
/home/mattia/soo/soo-vexpress/optee_os/lib/libutee/tee_api_objects.c:291
    108e:	f001 fffd 	bl	308c <TEE_Panic>
/home/mattia/soo/soo-vexpress/optee_os/lib/libutee/tee_api_objects.c:293
    1092:	4620      	mov	r0, r4
    1094:	3720      	adds	r7, #32
    1096:	46bd      	mov	sp, r7
    1098:	e8bd 81f0 	ldmia.w	sp!, {r4, r5, r6, r7, r8, pc}
    109c:	ffff0006 	.word	0xffff0006

000010a0 <TEE_InitRefAttribute>:
TEE_InitRefAttribute():
/home/mattia/soo/soo-vexpress/optee_os/lib/libutee/tee_api_objects.c:297
    10a0:	b5f8      	push	{r3, r4, r5, r6, r7, lr}
    10a2:	460d      	mov	r5, r1
/home/mattia/soo/soo-vexpress/optee_os/lib/libutee/tee_api_objects.c:298
    10a4:	210c      	movs	r1, #12
/home/mattia/soo/soo-vexpress/optee_os/lib/libutee/tee_api_objects.c:297
    10a6:	461e      	mov	r6, r3
    10a8:	4604      	mov	r4, r0
    10aa:	4617      	mov	r7, r2
/home/mattia/soo/soo-vexpress/optee_os/lib/libutee/tee_api_objects.c:298
    10ac:	f002 f82e 	bl	310c <__utee_check_out_annotation>
/home/mattia/soo/soo-vexpress/optee_os/lib/libutee/tee_api_objects.c:300
    10b0:	00ab      	lsls	r3, r5, #2
    10b2:	d502      	bpl.n	10ba <TEE_InitRefAttribute+0x1a>
/home/mattia/soo/soo-vexpress/optee_os/lib/libutee/tee_api_objects.c:301
    10b4:	2000      	movs	r0, #0
    10b6:	f001 ffe9 	bl	308c <TEE_Panic>
/home/mattia/soo/soo-vexpress/optee_os/lib/libutee/tee_api_objects.c:303
    10ba:	e9c4 5700 	strd	r5, r7, [r4]
/home/mattia/soo/soo-vexpress/optee_os/lib/libutee/tee_api_objects.c:304
    10be:	60a6      	str	r6, [r4, #8]
/home/mattia/soo/soo-vexpress/optee_os/lib/libutee/tee_api_objects.c:305
    10c0:	bdf8      	pop	{r3, r4, r5, r6, r7, pc}

000010c2 <TEE_InitValueAttribute>:
TEE_InitValueAttribute():
/home/mattia/soo/soo-vexpress/optee_os/lib/libutee/tee_api_objects.c:309
    10c2:	b5f8      	push	{r3, r4, r5, r6, r7, lr}
    10c4:	460d      	mov	r5, r1
/home/mattia/soo/soo-vexpress/optee_os/lib/libutee/tee_api_objects.c:310
    10c6:	210c      	movs	r1, #12
/home/mattia/soo/soo-vexpress/optee_os/lib/libutee/tee_api_objects.c:309
    10c8:	4604      	mov	r4, r0
    10ca:	4617      	mov	r7, r2
    10cc:	461e      	mov	r6, r3
/home/mattia/soo/soo-vexpress/optee_os/lib/libutee/tee_api_objects.c:310
    10ce:	f002 f81d 	bl	310c <__utee_check_out_annotation>
/home/mattia/soo/soo-vexpress/optee_os/lib/libutee/tee_api_objects.c:312
    10d2:	f015 5000 	ands.w	r0, r5, #536870912	; 0x20000000
    10d6:	d101      	bne.n	10dc <TEE_InitValueAttribute+0x1a>
/home/mattia/soo/soo-vexpress/optee_os/lib/libutee/tee_api_objects.c:313
    10d8:	f001 ffd8 	bl	308c <TEE_Panic>
/home/mattia/soo/soo-vexpress/optee_os/lib/libutee/tee_api_objects.c:315
    10dc:	e9c4 5700 	strd	r5, r7, [r4]
/home/mattia/soo/soo-vexpress/optee_os/lib/libutee/tee_api_objects.c:316
    10e0:	60a6      	str	r6, [r4, #8]
/home/mattia/soo/soo-vexpress/optee_os/lib/libutee/tee_api_objects.c:317
    10e2:	bdf8      	pop	{r3, r4, r5, r6, r7, pc}

000010e4 <TEE_CopyObjectAttributes1>:
TEE_CopyObjectAttributes1():
/home/mattia/soo/soo-vexpress/optee_os/lib/libutee/tee_api_objects.c:342
    10e4:	b570      	push	{r4, r5, r6, lr}
    10e6:	b08e      	sub	sp, #56	; 0x38
    10e8:	460d      	mov	r5, r1
/home/mattia/soo/soo-vexpress/optee_os/lib/libutee/tee_api_objects.c:347
    10ea:	4669      	mov	r1, sp
/home/mattia/soo/soo-vexpress/optee_os/lib/libutee/tee_api_objects.c:342
    10ec:	4606      	mov	r6, r0
/home/mattia/soo/soo-vexpress/optee_os/lib/libutee/tee_api_objects.c:347
    10ee:	f002 ec5e 	blx	39ac <_utee_cryp_obj_get_info>
/home/mattia/soo/soo-vexpress/optee_os/lib/libutee/tee_api_objects.c:348
    10f2:	4604      	mov	r4, r0
    10f4:	b9e0      	cbnz	r0, 1130 <TEE_CopyObjectAttributes1+0x4c>
/home/mattia/soo/soo-vexpress/optee_os/lib/libutee/tee_api_objects.c:351
    10f6:	a907      	add	r1, sp, #28
    10f8:	4628      	mov	r0, r5
    10fa:	f002 ec58 	blx	39ac <_utee_cryp_obj_get_info>
/home/mattia/soo/soo-vexpress/optee_os/lib/libutee/tee_api_objects.c:352
    10fe:	4604      	mov	r4, r0
    1100:	b9b0      	cbnz	r0, 1130 <TEE_CopyObjectAttributes1+0x4c>
/home/mattia/soo/soo-vexpress/optee_os/lib/libutee/tee_api_objects.c:355
    1102:	9b0d      	ldr	r3, [sp, #52]	; 0x34
    1104:	0399      	lsls	r1, r3, #14
    1106:	d401      	bmi.n	110c <TEE_CopyObjectAttributes1+0x28>
/home/mattia/soo/soo-vexpress/optee_os/lib/libutee/tee_api_objects.c:356
    1108:	f001 ffc0 	bl	308c <TEE_Panic>
/home/mattia/soo/soo-vexpress/optee_os/lib/libutee/tee_api_objects.c:358
    110c:	9b06      	ldr	r3, [sp, #24]
    110e:	03da      	lsls	r2, r3, #15
    1110:	d502      	bpl.n	1118 <TEE_CopyObjectAttributes1+0x34>
/home/mattia/soo/soo-vexpress/optee_os/lib/libutee/tee_api_objects.c:359
    1112:	2000      	movs	r0, #0
    1114:	f001 ffba 	bl	308c <TEE_Panic>
/home/mattia/soo/soo-vexpress/optee_os/lib/libutee/tee_api_objects.c:361
    1118:	9b06      	ldr	r3, [sp, #24]
    111a:	039b      	lsls	r3, r3, #14
    111c:	d502      	bpl.n	1124 <TEE_CopyObjectAttributes1+0x40>
/home/mattia/soo/soo-vexpress/optee_os/lib/libutee/tee_api_objects.c:362
    111e:	2000      	movs	r0, #0
    1120:	f001 ffb4 	bl	308c <TEE_Panic>
/home/mattia/soo/soo-vexpress/optee_os/lib/libutee/tee_api_objects.c:364
    1124:	4629      	mov	r1, r5
    1126:	4630      	mov	r0, r6
    1128:	f002 ec86 	blx	3a38 <_utee_cryp_obj_copy>
/home/mattia/soo/soo-vexpress/optee_os/lib/libutee/tee_api_objects.c:368
    112c:	4604      	mov	r4, r0
    112e:	b140      	cbz	r0, 1142 <TEE_CopyObjectAttributes1+0x5e>
/home/mattia/soo/soo-vexpress/optee_os/lib/libutee/tee_api_objects.c:368 (discriminator 1)
    1130:	4b05      	ldr	r3, [pc, #20]	; (1148 <TEE_CopyObjectAttributes1+0x64>)
    1132:	429c      	cmp	r4, r3
    1134:	d005      	beq.n	1142 <TEE_CopyObjectAttributes1+0x5e>
/home/mattia/soo/soo-vexpress/optee_os/lib/libutee/tee_api_objects.c:369
    1136:	3302      	adds	r3, #2
    1138:	429c      	cmp	r4, r3
    113a:	d002      	beq.n	1142 <TEE_CopyObjectAttributes1+0x5e>
/home/mattia/soo/soo-vexpress/optee_os/lib/libutee/tee_api_objects.c:371
    113c:	4620      	mov	r0, r4
    113e:	f001 ffa5 	bl	308c <TEE_Panic>
/home/mattia/soo/soo-vexpress/optee_os/lib/libutee/tee_api_objects.c:374
    1142:	4620      	mov	r0, r4
    1144:	b00e      	add	sp, #56	; 0x38
    1146:	bd70      	pop	{r4, r5, r6, pc}
    1148:	f0100001 	.word	0xf0100001

0000114c <TEE_CopyObjectAttributes>:
TEE_CopyObjectAttributes():
/home/mattia/soo/soo-vexpress/optee_os/lib/libutee/tee_api_objects.c:327
    114c:	b530      	push	{r4, r5, lr}
    114e:	460c      	mov	r4, r1
    1150:	b089      	sub	sp, #36	; 0x24
    1152:	4605      	mov	r5, r0
/home/mattia/soo/soo-vexpress/optee_os/lib/libutee/tee_api_objects.c:331
    1154:	a901      	add	r1, sp, #4
    1156:	4620      	mov	r0, r4
    1158:	f002 ec28 	blx	39ac <_utee_cryp_obj_get_info>
/home/mattia/soo/soo-vexpress/optee_os/lib/libutee/tee_api_objects.c:332
    115c:	4b06      	ldr	r3, [pc, #24]	; (1178 <TEE_CopyObjectAttributes+0x2c>)
    115e:	9a01      	ldr	r2, [sp, #4]
    1160:	429a      	cmp	r2, r3
    1162:	d006      	beq.n	1172 <TEE_CopyObjectAttributes+0x26>
/home/mattia/soo/soo-vexpress/optee_os/lib/libutee/tee_api_objects.c:335
    1164:	4621      	mov	r1, r4
    1166:	4628      	mov	r0, r5
    1168:	f7ff ffbc 	bl	10e4 <TEE_CopyObjectAttributes1>
/home/mattia/soo/soo-vexpress/optee_os/lib/libutee/tee_api_objects.c:336
    116c:	b108      	cbz	r0, 1172 <TEE_CopyObjectAttributes+0x26>
/home/mattia/soo/soo-vexpress/optee_os/lib/libutee/tee_api_objects.c:337
    116e:	f001 ff8d 	bl	308c <TEE_Panic>
/home/mattia/soo/soo-vexpress/optee_os/lib/libutee/tee_api_objects.c:338
    1172:	b009      	add	sp, #36	; 0x24
    1174:	bd30      	pop	{r4, r5, pc}
    1176:	bf00      	nop
    1178:	a00000be 	.word	0xa00000be

0000117c <TEE_GenerateKey>:
TEE_GenerateKey():
/home/mattia/soo/soo-vexpress/optee_os/lib/libutee/tee_api_objects.c:378
    117c:	e92d 43f8 	stmdb	sp!, {r3, r4, r5, r6, r7, r8, r9, lr}
    1180:	461c      	mov	r4, r3
    1182:	4615      	mov	r5, r2
/home/mattia/soo/soo-vexpress/optee_os/lib/libutee/tee_api_objects.c:380
    1184:	2318      	movs	r3, #24
    1186:	466a      	mov	r2, sp
/home/mattia/soo/soo-vexpress/optee_os/lib/libutee/tee_api_objects.c:378
    1188:	af00      	add	r7, sp, #0
    118a:	4606      	mov	r6, r0
    118c:	4688      	mov	r8, r1
/home/mattia/soo/soo-vexpress/optee_os/lib/libutee/tee_api_objects.c:380
    118e:	fb03 2314 	mls	r3, r3, r4, r2
/home/mattia/soo/soo-vexpress/optee_os/lib/libutee/tee_api_objects.c:382
    1192:	4621      	mov	r1, r4
    1194:	4628      	mov	r0, r5
/home/mattia/soo/soo-vexpress/optee_os/lib/libutee/tee_api_objects.c:380
    1196:	469d      	mov	sp, r3
    1198:	46e9      	mov	r9, sp
/home/mattia/soo/soo-vexpress/optee_os/lib/libutee/tee_api_objects.c:382
    119a:	f001 ffc0 	bl	311e <__utee_check_attr_in_annotation>
/home/mattia/soo/soo-vexpress/optee_os/lib/libutee/tee_api_objects.c:384
    119e:	4622      	mov	r2, r4
    11a0:	4629      	mov	r1, r5
    11a2:	4648      	mov	r0, r9
    11a4:	f7ff fdf2 	bl	d8c <__utee_from_attr>
/home/mattia/soo/soo-vexpress/optee_os/lib/libutee/tee_api_objects.c:385
    11a8:	4623      	mov	r3, r4
    11aa:	464a      	mov	r2, r9
    11ac:	4641      	mov	r1, r8
    11ae:	4630      	mov	r0, r6
    11b0:	f002 ed38 	blx	3c24 <_utee_cryp_obj_generate_key>
/home/mattia/soo/soo-vexpress/optee_os/lib/libutee/tee_api_objects.c:388
    11b4:	4604      	mov	r4, r0
    11b6:	b120      	cbz	r0, 11c2 <TEE_GenerateKey+0x46>
/home/mattia/soo/soo-vexpress/optee_os/lib/libutee/tee_api_objects.c:388 (discriminator 1)
    11b8:	4b04      	ldr	r3, [pc, #16]	; (11cc <TEE_GenerateKey+0x50>)
    11ba:	4298      	cmp	r0, r3
    11bc:	d001      	beq.n	11c2 <TEE_GenerateKey+0x46>
/home/mattia/soo/soo-vexpress/optee_os/lib/libutee/tee_api_objects.c:389
    11be:	f001 ff65 	bl	308c <TEE_Panic>
/home/mattia/soo/soo-vexpress/optee_os/lib/libutee/tee_api_objects.c:392
    11c2:	4620      	mov	r0, r4
    11c4:	46bd      	mov	sp, r7
    11c6:	e8bd 83f8 	ldmia.w	sp!, {r3, r4, r5, r6, r7, r8, r9, pc}
    11ca:	bf00      	nop
    11cc:	ffff0006 	.word	0xffff0006

000011d0 <TEE_OpenPersistentObject>:
TEE_OpenPersistentObject():
/home/mattia/soo/soo-vexpress/optee_os/lib/libutee/tee_api_objects.c:399
    11d0:	b530      	push	{r4, r5, lr}
    11d2:	b085      	sub	sp, #20
    11d4:	9d08      	ldr	r5, [sp, #32]
/home/mattia/soo/soo-vexpress/optee_os/lib/libutee/tee_api_objects.c:403
    11d6:	b1e9      	cbz	r1, 1214 <TEE_OpenPersistentObject+0x44>
/home/mattia/soo/soo-vexpress/optee_os/lib/libutee/tee_api_objects.c:408
    11d8:	ac03      	add	r4, sp, #12
    11da:	9400      	str	r4, [sp, #0]
    11dc:	f002 ec9c 	blx	3b18 <_utee_storage_obj_open>
/home/mattia/soo/soo-vexpress/optee_os/lib/libutee/tee_api_objects.c:410
    11e0:	4604      	mov	r4, r0
    11e2:	b9a0      	cbnz	r0, 120e <TEE_OpenPersistentObject+0x3e>
/home/mattia/soo/soo-vexpress/optee_os/lib/libutee/tee_api_objects.c:411
    11e4:	9b03      	ldr	r3, [sp, #12]
/home/mattia/soo/soo-vexpress/optee_os/lib/libutee/tee_api_objects.c:426
    11e6:	4620      	mov	r0, r4
/home/mattia/soo/soo-vexpress/optee_os/lib/libutee/tee_api_objects.c:423
    11e8:	602b      	str	r3, [r5, #0]
/home/mattia/soo/soo-vexpress/optee_os/lib/libutee/tee_api_objects.c:426
    11ea:	b005      	add	sp, #20
    11ec:	bd30      	pop	{r4, r5, pc}
/home/mattia/soo/soo-vexpress/optee_os/lib/libutee/tee_api_objects.c:415
    11ee:	4b0a      	ldr	r3, [pc, #40]	; (1218 <TEE_OpenPersistentObject+0x48>)
    11f0:	429c      	cmp	r4, r3
    11f2:	d00a      	beq.n	120a <TEE_OpenPersistentObject+0x3a>
/home/mattia/soo/soo-vexpress/optee_os/lib/libutee/tee_api_objects.c:416
    11f4:	3309      	adds	r3, #9
    11f6:	429c      	cmp	r4, r3
    11f8:	d007      	beq.n	120a <TEE_OpenPersistentObject+0x3a>
/home/mattia/soo/soo-vexpress/optee_os/lib/libutee/tee_api_objects.c:417
    11fa:	4b08      	ldr	r3, [pc, #32]	; (121c <TEE_OpenPersistentObject+0x4c>)
    11fc:	429c      	cmp	r4, r3
    11fe:	d004      	beq.n	120a <TEE_OpenPersistentObject+0x3a>
/home/mattia/soo/soo-vexpress/optee_os/lib/libutee/tee_api_objects.c:418
    1200:	3302      	adds	r3, #2
    1202:	429c      	cmp	r4, r3
    1204:	d001      	beq.n	120a <TEE_OpenPersistentObject+0x3a>
/home/mattia/soo/soo-vexpress/optee_os/lib/libutee/tee_api_objects.c:420
    1206:	f001 ff41 	bl	308c <TEE_Panic>
/home/mattia/soo/soo-vexpress/optee_os/lib/libutee/tee_api_objects.c:423
    120a:	2300      	movs	r3, #0
    120c:	e7eb      	b.n	11e6 <TEE_OpenPersistentObject+0x16>
/home/mattia/soo/soo-vexpress/optee_os/lib/libutee/tee_api_objects.c:414
    120e:	4b04      	ldr	r3, [pc, #16]	; (1220 <TEE_OpenPersistentObject+0x50>)
    1210:	4298      	cmp	r0, r3
    1212:	d1ec      	bne.n	11ee <TEE_OpenPersistentObject+0x1e>
/home/mattia/soo/soo-vexpress/optee_os/lib/libutee/tee_api_objects.c:404
    1214:	4c02      	ldr	r4, [pc, #8]	; (1220 <TEE_OpenPersistentObject+0x50>)
    1216:	e7f8      	b.n	120a <TEE_OpenPersistentObject+0x3a>
    1218:	ffff0003 	.word	0xffff0003
    121c:	f0100001 	.word	0xf0100001
    1220:	ffff0008 	.word	0xffff0008

00001224 <TEE_CreatePersistentObject>:
TEE_CreatePersistentObject():
/home/mattia/soo/soo-vexpress/optee_os/lib/libutee/tee_api_objects.c:434
    1224:	e92d 41f0 	stmdb	sp!, {r4, r5, r6, r7, r8, lr}
    1228:	b086      	sub	sp, #24
    122a:	4606      	mov	r6, r0
    122c:	4617      	mov	r7, r2
    122e:	9d0f      	ldr	r5, [sp, #60]	; 0x3c
    1230:	4698      	mov	r8, r3
/home/mattia/soo/soo-vexpress/optee_os/lib/libutee/tee_api_objects.c:438
    1232:	460c      	mov	r4, r1
    1234:	b379      	cbz	r1, 1296 <TEE_CreatePersistentObject+0x72>
/home/mattia/soo/soo-vexpress/optee_os/lib/libutee/tee_api_objects.c:443
    1236:	2104      	movs	r1, #4
    1238:	4628      	mov	r0, r5
    123a:	f001 ff67 	bl	310c <__utee_check_out_annotation>
/home/mattia/soo/soo-vexpress/optee_os/lib/libutee/tee_api_objects.c:445
    123e:	ab05      	add	r3, sp, #20
    1240:	4621      	mov	r1, r4
    1242:	463a      	mov	r2, r7
    1244:	4630      	mov	r0, r6
    1246:	9303      	str	r3, [sp, #12]
    1248:	9b0e      	ldr	r3, [sp, #56]	; 0x38
    124a:	9302      	str	r3, [sp, #8]
    124c:	9b0d      	ldr	r3, [sp, #52]	; 0x34
    124e:	9301      	str	r3, [sp, #4]
    1250:	9b0c      	ldr	r3, [sp, #48]	; 0x30
    1252:	9300      	str	r3, [sp, #0]
    1254:	4643      	mov	r3, r8
    1256:	f002 ec6c 	blx	3b30 <_utee_storage_obj_create>
/home/mattia/soo/soo-vexpress/optee_os/lib/libutee/tee_api_objects.c:449
    125a:	4604      	mov	r4, r0
    125c:	b9c0      	cbnz	r0, 1290 <TEE_CreatePersistentObject+0x6c>
/home/mattia/soo/soo-vexpress/optee_os/lib/libutee/tee_api_objects.c:450
    125e:	9b05      	ldr	r3, [sp, #20]
/home/mattia/soo/soo-vexpress/optee_os/lib/libutee/tee_api_objects.c:466
    1260:	4620      	mov	r0, r4
/home/mattia/soo/soo-vexpress/optee_os/lib/libutee/tee_api_objects.c:463
    1262:	602b      	str	r3, [r5, #0]
/home/mattia/soo/soo-vexpress/optee_os/lib/libutee/tee_api_objects.c:466
    1264:	b006      	add	sp, #24
    1266:	e8bd 81f0 	ldmia.w	sp!, {r4, r5, r6, r7, r8, pc}
/home/mattia/soo/soo-vexpress/optee_os/lib/libutee/tee_api_objects.c:454
    126a:	4b0c      	ldr	r3, [pc, #48]	; (129c <TEE_CreatePersistentObject+0x78>)
    126c:	429c      	cmp	r4, r3
    126e:	d00d      	beq.n	128c <TEE_CreatePersistentObject+0x68>
/home/mattia/soo/soo-vexpress/optee_os/lib/libutee/tee_api_objects.c:455
    1270:	3309      	adds	r3, #9
    1272:	429c      	cmp	r4, r3
    1274:	d00a      	beq.n	128c <TEE_CreatePersistentObject+0x68>
/home/mattia/soo/soo-vexpress/optee_os/lib/libutee/tee_api_objects.c:456
    1276:	4b0a      	ldr	r3, [pc, #40]	; (12a0 <TEE_CreatePersistentObject+0x7c>)
    1278:	429c      	cmp	r4, r3
    127a:	d007      	beq.n	128c <TEE_CreatePersistentObject+0x68>
/home/mattia/soo/soo-vexpress/optee_os/lib/libutee/tee_api_objects.c:457
    127c:	4b09      	ldr	r3, [pc, #36]	; (12a4 <TEE_CreatePersistentObject+0x80>)
    127e:	429c      	cmp	r4, r3
    1280:	d004      	beq.n	128c <TEE_CreatePersistentObject+0x68>
/home/mattia/soo/soo-vexpress/optee_os/lib/libutee/tee_api_objects.c:458
    1282:	3302      	adds	r3, #2
    1284:	429c      	cmp	r4, r3
    1286:	d001      	beq.n	128c <TEE_CreatePersistentObject+0x68>
/home/mattia/soo/soo-vexpress/optee_os/lib/libutee/tee_api_objects.c:460
    1288:	f001 ff00 	bl	308c <TEE_Panic>
/home/mattia/soo/soo-vexpress/optee_os/lib/libutee/tee_api_objects.c:463
    128c:	2300      	movs	r3, #0
    128e:	e7e7      	b.n	1260 <TEE_CreatePersistentObject+0x3c>
/home/mattia/soo/soo-vexpress/optee_os/lib/libutee/tee_api_objects.c:453
    1290:	4b05      	ldr	r3, [pc, #20]	; (12a8 <TEE_CreatePersistentObject+0x84>)
    1292:	4298      	cmp	r0, r3
    1294:	d1e9      	bne.n	126a <TEE_CreatePersistentObject+0x46>
/home/mattia/soo/soo-vexpress/optee_os/lib/libutee/tee_api_objects.c:439
    1296:	4c04      	ldr	r4, [pc, #16]	; (12a8 <TEE_CreatePersistentObject+0x84>)
    1298:	e7f8      	b.n	128c <TEE_CreatePersistentObject+0x68>
    129a:	bf00      	nop
    129c:	ffff0003 	.word	0xffff0003
    12a0:	ffff3041 	.word	0xffff3041
    12a4:	f0100001 	.word	0xf0100001
    12a8:	ffff0008 	.word	0xffff0008

000012ac <TEE_CloseAndDeletePersistentObject1>:
TEE_CloseAndDeletePersistentObject1():
/home/mattia/soo/soo-vexpress/optee_os/lib/libutee/tee_api_objects.c:488
    12ac:	b510      	push	{r4, lr}
/home/mattia/soo/soo-vexpress/optee_os/lib/libutee/tee_api_objects.c:491
    12ae:	b910      	cbnz	r0, 12b6 <TEE_CloseAndDeletePersistentObject1+0xa>
/home/mattia/soo/soo-vexpress/optee_os/lib/libutee/tee_api_objects.c:492
    12b0:	2400      	movs	r4, #0
/home/mattia/soo/soo-vexpress/optee_os/lib/libutee/tee_api_objects.c:500
    12b2:	4620      	mov	r0, r4
    12b4:	bd10      	pop	{r4, pc}
/home/mattia/soo/soo-vexpress/optee_os/lib/libutee/tee_api_objects.c:494
    12b6:	f002 ec48 	blx	3b48 <_utee_storage_obj_del>
/home/mattia/soo/soo-vexpress/optee_os/lib/libutee/tee_api_objects.c:496
    12ba:	4604      	mov	r4, r0
    12bc:	2800      	cmp	r0, #0
    12be:	d0f7      	beq.n	12b0 <TEE_CloseAndDeletePersistentObject1+0x4>
    12c0:	4b02      	ldr	r3, [pc, #8]	; (12cc <TEE_CloseAndDeletePersistentObject1+0x20>)
    12c2:	4298      	cmp	r0, r3
    12c4:	d0f5      	beq.n	12b2 <TEE_CloseAndDeletePersistentObject1+0x6>
/home/mattia/soo/soo-vexpress/optee_os/lib/libutee/tee_api_objects.c:497
    12c6:	f001 fee1 	bl	308c <TEE_Panic>
    12ca:	e7f2      	b.n	12b2 <TEE_CloseAndDeletePersistentObject1+0x6>
    12cc:	f0100003 	.word	0xf0100003

000012d0 <TEE_CloseAndDeletePersistentObject>:
TEE_CloseAndDeletePersistentObject():
/home/mattia/soo/soo-vexpress/optee_os/lib/libutee/tee_api_objects.c:475
    12d0:	b508      	push	{r3, lr}
/home/mattia/soo/soo-vexpress/optee_os/lib/libutee/tee_api_objects.c:478
    12d2:	b138      	cbz	r0, 12e4 <TEE_CloseAndDeletePersistentObject+0x14>
/home/mattia/soo/soo-vexpress/optee_os/lib/libutee/tee_api_objects.c:481
    12d4:	f7ff ffea 	bl	12ac <TEE_CloseAndDeletePersistentObject1>
/home/mattia/soo/soo-vexpress/optee_os/lib/libutee/tee_api_objects.c:483
    12d8:	b120      	cbz	r0, 12e4 <TEE_CloseAndDeletePersistentObject+0x14>
/home/mattia/soo/soo-vexpress/optee_os/lib/libutee/tee_api_objects.c:485
    12da:	e8bd 4008 	ldmia.w	sp!, {r3, lr}
/home/mattia/soo/soo-vexpress/optee_os/lib/libutee/tee_api_objects.c:484
    12de:	2000      	movs	r0, #0
    12e0:	f001 bed4 	b.w	308c <TEE_Panic>
/home/mattia/soo/soo-vexpress/optee_os/lib/libutee/tee_api_objects.c:485
    12e4:	bd08      	pop	{r3, pc}

000012e6 <TEE_RenamePersistentObject>:
TEE_RenamePersistentObject():
/home/mattia/soo/soo-vexpress/optee_os/lib/libutee/tee_api_objects.c:506
    12e6:	b510      	push	{r4, lr}
/home/mattia/soo/soo-vexpress/optee_os/lib/libutee/tee_api_objects.c:509
    12e8:	b188      	cbz	r0, 130e <TEE_RenamePersistentObject+0x28>
/home/mattia/soo/soo-vexpress/optee_os/lib/libutee/tee_api_objects.c:514
    12ea:	f002 ec38 	blx	3b5c <_utee_storage_obj_rename>
/home/mattia/soo/soo-vexpress/optee_os/lib/libutee/tee_api_objects.c:518
    12ee:	4604      	mov	r4, r0
    12f0:	b158      	cbz	r0, 130a <TEE_RenamePersistentObject+0x24>
/home/mattia/soo/soo-vexpress/optee_os/lib/libutee/tee_api_objects.c:518 (discriminator 1)
    12f2:	4b08      	ldr	r3, [pc, #32]	; (1314 <TEE_RenamePersistentObject+0x2e>)
    12f4:	4298      	cmp	r0, r3
    12f6:	d008      	beq.n	130a <TEE_RenamePersistentObject+0x24>
/home/mattia/soo/soo-vexpress/optee_os/lib/libutee/tee_api_objects.c:519
    12f8:	4b07      	ldr	r3, [pc, #28]	; (1318 <TEE_RenamePersistentObject+0x32>)
    12fa:	4298      	cmp	r0, r3
    12fc:	d005      	beq.n	130a <TEE_RenamePersistentObject+0x24>
/home/mattia/soo/soo-vexpress/optee_os/lib/libutee/tee_api_objects.c:520
    12fe:	3302      	adds	r3, #2
    1300:	4298      	cmp	r0, r3
    1302:	d002      	beq.n	130a <TEE_RenamePersistentObject+0x24>
/home/mattia/soo/soo-vexpress/optee_os/lib/libutee/tee_api_objects.c:522
    1304:	4620      	mov	r0, r4
    1306:	f001 fec1 	bl	308c <TEE_Panic>
/home/mattia/soo/soo-vexpress/optee_os/lib/libutee/tee_api_objects.c:525
    130a:	4620      	mov	r0, r4
    130c:	bd10      	pop	{r4, pc}
/home/mattia/soo/soo-vexpress/optee_os/lib/libutee/tee_api_objects.c:510
    130e:	4c03      	ldr	r4, [pc, #12]	; (131c <TEE_RenamePersistentObject+0x36>)
    1310:	e7f8      	b.n	1304 <TEE_RenamePersistentObject+0x1e>
    1312:	bf00      	nop
    1314:	ffff0003 	.word	0xffff0003
    1318:	f0100001 	.word	0xf0100001
    131c:	ffff0008 	.word	0xffff0008

00001320 <TEE_AllocatePersistentObjectEnumerator>:
TEE_AllocatePersistentObjectEnumerator():
/home/mattia/soo/soo-vexpress/optee_os/lib/libutee/tee_api_objects.c:529
    1320:	b537      	push	{r0, r1, r2, r4, r5, lr}
/home/mattia/soo/soo-vexpress/optee_os/lib/libutee/tee_api_objects.c:533
    1322:	2104      	movs	r1, #4
/home/mattia/soo/soo-vexpress/optee_os/lib/libutee/tee_api_objects.c:529
    1324:	4605      	mov	r5, r0
/home/mattia/soo/soo-vexpress/optee_os/lib/libutee/tee_api_objects.c:533
    1326:	f001 fef1 	bl	310c <__utee_check_out_annotation>
/home/mattia/soo/soo-vexpress/optee_os/lib/libutee/tee_api_objects.c:536
    132a:	a801      	add	r0, sp, #4
    132c:	f002 ec20 	blx	3b70 <_utee_storage_alloc_enum>
/home/mattia/soo/soo-vexpress/optee_os/lib/libutee/tee_api_objects.c:538
    1330:	4604      	mov	r4, r0
    1332:	b108      	cbz	r0, 1338 <TEE_AllocatePersistentObjectEnumerator+0x18>
/home/mattia/soo/soo-vexpress/optee_os/lib/libutee/tee_api_objects.c:539
    1334:	2300      	movs	r3, #0
    1336:	9301      	str	r3, [sp, #4]
/home/mattia/soo/soo-vexpress/optee_os/lib/libutee/tee_api_objects.c:541
    1338:	9b01      	ldr	r3, [sp, #4]
    133a:	602b      	str	r3, [r5, #0]
/home/mattia/soo/soo-vexpress/optee_os/lib/libutee/tee_api_objects.c:543
    133c:	b12c      	cbz	r4, 134a <TEE_AllocatePersistentObjectEnumerator+0x2a>
/home/mattia/soo/soo-vexpress/optee_os/lib/libutee/tee_api_objects.c:543 (discriminator 1)
    133e:	4b04      	ldr	r3, [pc, #16]	; (1350 <TEE_AllocatePersistentObjectEnumerator+0x30>)
    1340:	429c      	cmp	r4, r3
    1342:	d002      	beq.n	134a <TEE_AllocatePersistentObjectEnumerator+0x2a>
/home/mattia/soo/soo-vexpress/optee_os/lib/libutee/tee_api_objects.c:545
    1344:	4620      	mov	r0, r4
    1346:	f001 fea1 	bl	308c <TEE_Panic>
/home/mattia/soo/soo-vexpress/optee_os/lib/libutee/tee_api_objects.c:548
    134a:	4620      	mov	r0, r4
    134c:	b003      	add	sp, #12
    134e:	bd30      	pop	{r4, r5, pc}
    1350:	ffff0003 	.word	0xffff0003

00001354 <TEE_FreePersistentObjectEnumerator>:
TEE_FreePersistentObjectEnumerator():
/home/mattia/soo/soo-vexpress/optee_os/lib/libutee/tee_api_objects.c:551
    1354:	b508      	push	{r3, lr}
/home/mattia/soo/soo-vexpress/optee_os/lib/libutee/tee_api_objects.c:554
    1356:	b130      	cbz	r0, 1366 <TEE_FreePersistentObjectEnumerator+0x12>
/home/mattia/soo/soo-vexpress/optee_os/lib/libutee/tee_api_objects.c:557
    1358:	f002 ec14 	blx	3b84 <_utee_storage_free_enum>
/home/mattia/soo/soo-vexpress/optee_os/lib/libutee/tee_api_objects.c:559
    135c:	b118      	cbz	r0, 1366 <TEE_FreePersistentObjectEnumerator+0x12>
/home/mattia/soo/soo-vexpress/optee_os/lib/libutee/tee_api_objects.c:561
    135e:	e8bd 4008 	ldmia.w	sp!, {r3, lr}
/home/mattia/soo/soo-vexpress/optee_os/lib/libutee/tee_api_objects.c:560
    1362:	f001 be93 	b.w	308c <TEE_Panic>
/home/mattia/soo/soo-vexpress/optee_os/lib/libutee/tee_api_objects.c:561
    1366:	bd08      	pop	{r3, pc}

00001368 <TEE_ResetPersistentObjectEnumerator>:
TEE_ResetPersistentObjectEnumerator():
/home/mattia/soo/soo-vexpress/optee_os/lib/libutee/tee_api_objects.c:564
    1368:	b508      	push	{r3, lr}
/home/mattia/soo/soo-vexpress/optee_os/lib/libutee/tee_api_objects.c:567
    136a:	b130      	cbz	r0, 137a <TEE_ResetPersistentObjectEnumerator+0x12>
/home/mattia/soo/soo-vexpress/optee_os/lib/libutee/tee_api_objects.c:570
    136c:	f002 ec14 	blx	3b98 <_utee_storage_reset_enum>
/home/mattia/soo/soo-vexpress/optee_os/lib/libutee/tee_api_objects.c:572
    1370:	b118      	cbz	r0, 137a <TEE_ResetPersistentObjectEnumerator+0x12>
/home/mattia/soo/soo-vexpress/optee_os/lib/libutee/tee_api_objects.c:574
    1372:	e8bd 4008 	ldmia.w	sp!, {r3, lr}
/home/mattia/soo/soo-vexpress/optee_os/lib/libutee/tee_api_objects.c:573
    1376:	f001 be89 	b.w	308c <TEE_Panic>
/home/mattia/soo/soo-vexpress/optee_os/lib/libutee/tee_api_objects.c:574
    137a:	bd08      	pop	{r3, pc}

0000137c <TEE_StartPersistentObjectEnumerator>:
TEE_StartPersistentObjectEnumerator():
/home/mattia/soo/soo-vexpress/optee_os/lib/libutee/tee_api_objects.c:579
    137c:	b510      	push	{r4, lr}
/home/mattia/soo/soo-vexpress/optee_os/lib/libutee/tee_api_objects.c:582
    137e:	f002 ec16 	blx	3bac <_utee_storage_start_enum>
/home/mattia/soo/soo-vexpress/optee_os/lib/libutee/tee_api_objects.c:585
    1382:	4604      	mov	r4, r0
    1384:	b148      	cbz	r0, 139a <TEE_StartPersistentObjectEnumerator+0x1e>
/home/mattia/soo/soo-vexpress/optee_os/lib/libutee/tee_api_objects.c:585 (discriminator 1)
    1386:	4b06      	ldr	r3, [pc, #24]	; (13a0 <TEE_StartPersistentObjectEnumerator+0x24>)
    1388:	4298      	cmp	r0, r3
    138a:	d006      	beq.n	139a <TEE_StartPersistentObjectEnumerator+0x1e>
/home/mattia/soo/soo-vexpress/optee_os/lib/libutee/tee_api_objects.c:586
    138c:	4b05      	ldr	r3, [pc, #20]	; (13a4 <TEE_StartPersistentObjectEnumerator+0x28>)
    138e:	f020 0202 	bic.w	r2, r0, #2
    1392:	429a      	cmp	r2, r3
    1394:	d001      	beq.n	139a <TEE_StartPersistentObjectEnumerator+0x1e>
/home/mattia/soo/soo-vexpress/optee_os/lib/libutee/tee_api_objects.c:589
    1396:	f001 fe79 	bl	308c <TEE_Panic>
/home/mattia/soo/soo-vexpress/optee_os/lib/libutee/tee_api_objects.c:592
    139a:	4620      	mov	r0, r4
    139c:	bd10      	pop	{r4, pc}
    139e:	bf00      	nop
    13a0:	ffff0008 	.word	0xffff0008
    13a4:	f0100001 	.word	0xf0100001

000013a8 <TEE_GetNextPersistentObject>:
TEE_GetNextPersistentObject():
/home/mattia/soo/soo-vexpress/optee_os/lib/libutee/tee_api_objects.c:597
    13a8:	b5f0      	push	{r4, r5, r6, r7, lr}
    13aa:	4607      	mov	r7, r0
    13ac:	b08b      	sub	sp, #44	; 0x2c
    13ae:	4616      	mov	r6, r2
    13b0:	461d      	mov	r5, r3
/home/mattia/soo/soo-vexpress/optee_os/lib/libutee/tee_api_objects.c:603
    13b2:	460c      	mov	r4, r1
    13b4:	b119      	cbz	r1, 13be <TEE_GetNextPersistentObject+0x16>
/home/mattia/soo/soo-vexpress/optee_os/lib/libutee/tee_api_objects.c:604
    13b6:	211c      	movs	r1, #28
    13b8:	4620      	mov	r0, r4
    13ba:	f001 fea7 	bl	310c <__utee_check_out_annotation>
/home/mattia/soo/soo-vexpress/optee_os/lib/libutee/tee_api_objects.c:605
    13be:	2104      	movs	r1, #4
    13c0:	4628      	mov	r0, r5
    13c2:	f001 fea3 	bl	310c <__utee_check_out_annotation>
/home/mattia/soo/soo-vexpress/optee_os/lib/libutee/tee_api_objects.c:607
    13c6:	b1f6      	cbz	r6, 1406 <TEE_GetNextPersistentObject+0x5e>
/home/mattia/soo/soo-vexpress/optee_os/lib/libutee/tee_api_objects.c:612
    13c8:	b904      	cbnz	r4, 13cc <TEE_GetNextPersistentObject+0x24>
/home/mattia/soo/soo-vexpress/optee_os/lib/libutee/tee_api_objects.c:615
    13ca:	ac03      	add	r4, sp, #12
/home/mattia/soo/soo-vexpress/optee_os/lib/libutee/tee_api_objects.c:616
    13cc:	682b      	ldr	r3, [r5, #0]
/home/mattia/soo/soo-vexpress/optee_os/lib/libutee/tee_api_objects.c:617
    13ce:	4621      	mov	r1, r4
    13d0:	4632      	mov	r2, r6
    13d2:	4638      	mov	r0, r7
/home/mattia/soo/soo-vexpress/optee_os/lib/libutee/tee_api_objects.c:616
    13d4:	9300      	str	r3, [sp, #0]
    13d6:	2300      	movs	r3, #0
    13d8:	9301      	str	r3, [sp, #4]
/home/mattia/soo/soo-vexpress/optee_os/lib/libutee/tee_api_objects.c:617
    13da:	466b      	mov	r3, sp
    13dc:	f002 ebf0 	blx	3bc0 <_utee_storage_next_enum>
/home/mattia/soo/soo-vexpress/optee_os/lib/libutee/tee_api_objects.c:619
    13e0:	9b00      	ldr	r3, [sp, #0]
/home/mattia/soo/soo-vexpress/optee_os/lib/libutee/tee_api_objects.c:622
    13e2:	4604      	mov	r4, r0
/home/mattia/soo/soo-vexpress/optee_os/lib/libutee/tee_api_objects.c:619
    13e4:	602b      	str	r3, [r5, #0]
/home/mattia/soo/soo-vexpress/optee_os/lib/libutee/tee_api_objects.c:622
    13e6:	b158      	cbz	r0, 1400 <TEE_GetNextPersistentObject+0x58>
/home/mattia/soo/soo-vexpress/optee_os/lib/libutee/tee_api_objects.c:622 (discriminator 1)
    13e8:	4b08      	ldr	r3, [pc, #32]	; (140c <TEE_GetNextPersistentObject+0x64>)
    13ea:	4298      	cmp	r0, r3
    13ec:	d008      	beq.n	1400 <TEE_GetNextPersistentObject+0x58>
/home/mattia/soo/soo-vexpress/optee_os/lib/libutee/tee_api_objects.c:623
    13ee:	4b08      	ldr	r3, [pc, #32]	; (1410 <TEE_GetNextPersistentObject+0x68>)
    13f0:	4298      	cmp	r0, r3
    13f2:	d005      	beq.n	1400 <TEE_GetNextPersistentObject+0x58>
/home/mattia/soo/soo-vexpress/optee_os/lib/libutee/tee_api_objects.c:624
    13f4:	3302      	adds	r3, #2
    13f6:	4298      	cmp	r0, r3
    13f8:	d002      	beq.n	1400 <TEE_GetNextPersistentObject+0x58>
/home/mattia/soo/soo-vexpress/optee_os/lib/libutee/tee_api_objects.c:626
    13fa:	4620      	mov	r0, r4
    13fc:	f001 fe46 	bl	308c <TEE_Panic>
/home/mattia/soo/soo-vexpress/optee_os/lib/libutee/tee_api_objects.c:629
    1400:	4620      	mov	r0, r4
    1402:	b00b      	add	sp, #44	; 0x2c
    1404:	bdf0      	pop	{r4, r5, r6, r7, pc}
/home/mattia/soo/soo-vexpress/optee_os/lib/libutee/tee_api_objects.c:608
    1406:	4c03      	ldr	r4, [pc, #12]	; (1414 <TEE_GetNextPersistentObject+0x6c>)
    1408:	e7f7      	b.n	13fa <TEE_GetNextPersistentObject+0x52>
    140a:	bf00      	nop
    140c:	ffff0008 	.word	0xffff0008
    1410:	f0100001 	.word	0xf0100001
    1414:	ffff0006 	.word	0xffff0006

00001418 <TEE_ReadObjectData>:
TEE_ReadObjectData():
/home/mattia/soo/soo-vexpress/optee_os/lib/libutee/tee_api_objects.c:635
    1418:	b5f7      	push	{r0, r1, r2, r4, r5, r6, r7, lr}
    141a:	460e      	mov	r6, r1
    141c:	4617      	mov	r7, r2
    141e:	461c      	mov	r4, r3
/home/mattia/soo/soo-vexpress/optee_os/lib/libutee/tee_api_objects.c:639
    1420:	4605      	mov	r5, r0
    1422:	b1e8      	cbz	r0, 1460 <TEE_ReadObjectData+0x48>
/home/mattia/soo/soo-vexpress/optee_os/lib/libutee/tee_api_objects.c:643
    1424:	4618      	mov	r0, r3
    1426:	2104      	movs	r1, #4
    1428:	f001 fe70 	bl	310c <__utee_check_out_annotation>
/home/mattia/soo/soo-vexpress/optee_os/lib/libutee/tee_api_objects.c:645
    142c:	6823      	ldr	r3, [r4, #0]
/home/mattia/soo/soo-vexpress/optee_os/lib/libutee/tee_api_objects.c:646
    142e:	463a      	mov	r2, r7
    1430:	4631      	mov	r1, r6
    1432:	4628      	mov	r0, r5
/home/mattia/soo/soo-vexpress/optee_os/lib/libutee/tee_api_objects.c:645
    1434:	9300      	str	r3, [sp, #0]
    1436:	2300      	movs	r3, #0
    1438:	9301      	str	r3, [sp, #4]
/home/mattia/soo/soo-vexpress/optee_os/lib/libutee/tee_api_objects.c:646
    143a:	466b      	mov	r3, sp
    143c:	f002 ebca 	blx	3bd4 <_utee_storage_obj_read>
/home/mattia/soo/soo-vexpress/optee_os/lib/libutee/tee_api_objects.c:648
    1440:	9b00      	ldr	r3, [sp, #0]
    1442:	6023      	str	r3, [r4, #0]
/home/mattia/soo/soo-vexpress/optee_os/lib/libutee/tee_api_objects.c:651
    1444:	4604      	mov	r4, r0
    1446:	b140      	cbz	r0, 145a <TEE_ReadObjectData+0x42>
/home/mattia/soo/soo-vexpress/optee_os/lib/libutee/tee_api_objects.c:651 (discriminator 1)
    1448:	4b06      	ldr	r3, [pc, #24]	; (1464 <TEE_ReadObjectData+0x4c>)
    144a:	4298      	cmp	r0, r3
    144c:	d005      	beq.n	145a <TEE_ReadObjectData+0x42>
/home/mattia/soo/soo-vexpress/optee_os/lib/libutee/tee_api_objects.c:652
    144e:	3302      	adds	r3, #2
    1450:	4298      	cmp	r0, r3
    1452:	d002      	beq.n	145a <TEE_ReadObjectData+0x42>
/home/mattia/soo/soo-vexpress/optee_os/lib/libutee/tee_api_objects.c:654
    1454:	4620      	mov	r0, r4
    1456:	f001 fe19 	bl	308c <TEE_Panic>
/home/mattia/soo/soo-vexpress/optee_os/lib/libutee/tee_api_objects.c:657
    145a:	4620      	mov	r0, r4
    145c:	b003      	add	sp, #12
    145e:	bdf0      	pop	{r4, r5, r6, r7, pc}
/home/mattia/soo/soo-vexpress/optee_os/lib/libutee/tee_api_objects.c:640
    1460:	4c01      	ldr	r4, [pc, #4]	; (1468 <TEE_ReadObjectData+0x50>)
    1462:	e7f7      	b.n	1454 <TEE_ReadObjectData+0x3c>
    1464:	f0100001 	.word	0xf0100001
    1468:	ffff0006 	.word	0xffff0006

0000146c <TEE_WriteObjectData>:
TEE_WriteObjectData():
/home/mattia/soo/soo-vexpress/optee_os/lib/libutee/tee_api_objects.c:661
    146c:	b510      	push	{r4, lr}
/home/mattia/soo/soo-vexpress/optee_os/lib/libutee/tee_api_objects.c:664
    146e:	b1a0      	cbz	r0, 149a <TEE_WriteObjectData+0x2e>
/home/mattia/soo/soo-vexpress/optee_os/lib/libutee/tee_api_objects.c:674
    1470:	f002 ebba 	blx	3be8 <_utee_storage_obj_write>
/home/mattia/soo/soo-vexpress/optee_os/lib/libutee/tee_api_objects.c:677
    1474:	4604      	mov	r4, r0
    1476:	b170      	cbz	r0, 1496 <TEE_WriteObjectData+0x2a>
/home/mattia/soo/soo-vexpress/optee_os/lib/libutee/tee_api_objects.c:677 (discriminator 1)
    1478:	4b09      	ldr	r3, [pc, #36]	; (14a0 <TEE_WriteObjectData+0x34>)
    147a:	4298      	cmp	r0, r3
    147c:	d00b      	beq.n	1496 <TEE_WriteObjectData+0x2a>
/home/mattia/soo/soo-vexpress/optee_os/lib/libutee/tee_api_objects.c:678
    147e:	3b32      	subs	r3, #50	; 0x32
    1480:	4298      	cmp	r0, r3
    1482:	d008      	beq.n	1496 <TEE_WriteObjectData+0x2a>
/home/mattia/soo/soo-vexpress/optee_os/lib/libutee/tee_api_objects.c:679
    1484:	4b07      	ldr	r3, [pc, #28]	; (14a4 <TEE_WriteObjectData+0x38>)
    1486:	4298      	cmp	r0, r3
    1488:	d005      	beq.n	1496 <TEE_WriteObjectData+0x2a>
/home/mattia/soo/soo-vexpress/optee_os/lib/libutee/tee_api_objects.c:680
    148a:	3302      	adds	r3, #2
    148c:	4298      	cmp	r0, r3
    148e:	d002      	beq.n	1496 <TEE_WriteObjectData+0x2a>
/home/mattia/soo/soo-vexpress/optee_os/lib/libutee/tee_api_objects.c:682
    1490:	4620      	mov	r0, r4
    1492:	f001 fdfb 	bl	308c <TEE_Panic>
/home/mattia/soo/soo-vexpress/optee_os/lib/libutee/tee_api_objects.c:685
    1496:	4620      	mov	r0, r4
    1498:	bd10      	pop	{r4, pc}
/home/mattia/soo/soo-vexpress/optee_os/lib/libutee/tee_api_objects.c:665
    149a:	4c03      	ldr	r4, [pc, #12]	; (14a8 <TEE_WriteObjectData+0x3c>)
    149c:	e7f8      	b.n	1490 <TEE_WriteObjectData+0x24>
    149e:	bf00      	nop
    14a0:	ffff3041 	.word	0xffff3041
    14a4:	f0100001 	.word	0xf0100001
    14a8:	ffff0006 	.word	0xffff0006

000014ac <TEE_TruncateObjectData>:
TEE_TruncateObjectData():
/home/mattia/soo/soo-vexpress/optee_os/lib/libutee/tee_api_objects.c:688
    14ac:	b510      	push	{r4, lr}
/home/mattia/soo/soo-vexpress/optee_os/lib/libutee/tee_api_objects.c:691
    14ae:	b188      	cbz	r0, 14d4 <TEE_TruncateObjectData+0x28>
/home/mattia/soo/soo-vexpress/optee_os/lib/libutee/tee_api_objects.c:696
    14b0:	f002 eba4 	blx	3bfc <_utee_storage_obj_trunc>
/home/mattia/soo/soo-vexpress/optee_os/lib/libutee/tee_api_objects.c:699
    14b4:	4604      	mov	r4, r0
    14b6:	b158      	cbz	r0, 14d0 <TEE_TruncateObjectData+0x24>
/home/mattia/soo/soo-vexpress/optee_os/lib/libutee/tee_api_objects.c:699 (discriminator 1)
    14b8:	4b07      	ldr	r3, [pc, #28]	; (14d8 <TEE_TruncateObjectData+0x2c>)
    14ba:	4298      	cmp	r0, r3
    14bc:	d008      	beq.n	14d0 <TEE_TruncateObjectData+0x24>
/home/mattia/soo/soo-vexpress/optee_os/lib/libutee/tee_api_objects.c:700
    14be:	4b07      	ldr	r3, [pc, #28]	; (14dc <TEE_TruncateObjectData+0x30>)
    14c0:	4298      	cmp	r0, r3
    14c2:	d005      	beq.n	14d0 <TEE_TruncateObjectData+0x24>
/home/mattia/soo/soo-vexpress/optee_os/lib/libutee/tee_api_objects.c:701
    14c4:	3302      	adds	r3, #2
    14c6:	4298      	cmp	r0, r3
    14c8:	d002      	beq.n	14d0 <TEE_TruncateObjectData+0x24>
/home/mattia/soo/soo-vexpress/optee_os/lib/libutee/tee_api_objects.c:703
    14ca:	4620      	mov	r0, r4
    14cc:	f001 fdde 	bl	308c <TEE_Panic>
/home/mattia/soo/soo-vexpress/optee_os/lib/libutee/tee_api_objects.c:706
    14d0:	4620      	mov	r0, r4
    14d2:	bd10      	pop	{r4, pc}
/home/mattia/soo/soo-vexpress/optee_os/lib/libutee/tee_api_objects.c:692
    14d4:	4c02      	ldr	r4, [pc, #8]	; (14e0 <TEE_TruncateObjectData+0x34>)
    14d6:	e7f8      	b.n	14ca <TEE_TruncateObjectData+0x1e>
    14d8:	ffff3041 	.word	0xffff3041
    14dc:	f0100001 	.word	0xf0100001
    14e0:	ffff0006 	.word	0xffff0006

000014e4 <TEE_SeekObjectData>:
TEE_SeekObjectData():
/home/mattia/soo/soo-vexpress/optee_os/lib/libutee/tee_api_objects.c:710
    14e4:	b5f0      	push	{r4, r5, r6, r7, lr}
    14e6:	460d      	mov	r5, r1
    14e8:	b089      	sub	sp, #36	; 0x24
    14ea:	4616      	mov	r6, r2
/home/mattia/soo/soo-vexpress/optee_os/lib/libutee/tee_api_objects.c:714
    14ec:	4607      	mov	r7, r0
    14ee:	b368      	cbz	r0, 154c <TEE_SeekObjectData+0x68>
/home/mattia/soo/soo-vexpress/optee_os/lib/libutee/tee_api_objects.c:719
    14f0:	a901      	add	r1, sp, #4
    14f2:	f002 ea5c 	blx	39ac <_utee_cryp_obj_get_info>
/home/mattia/soo/soo-vexpress/optee_os/lib/libutee/tee_api_objects.c:720
    14f6:	4604      	mov	r4, r0
    14f8:	b9f0      	cbnz	r0, 1538 <TEE_SeekObjectData+0x54>
/home/mattia/soo/soo-vexpress/optee_os/lib/libutee/tee_api_objects.c:723
    14fa:	2e01      	cmp	r6, #1
    14fc:	d007      	beq.n	150e <TEE_SeekObjectData+0x2a>
    14fe:	2e02      	cmp	r6, #2
    1500:	d00e      	beq.n	1520 <TEE_SeekObjectData+0x3c>
    1502:	b18e      	cbz	r6, 1528 <TEE_SeekObjectData+0x44>
    1504:	4c12      	ldr	r4, [pc, #72]	; (1550 <TEE_SeekObjectData+0x6c>)
/home/mattia/soo/soo-vexpress/optee_os/lib/libutee/tee_api_objects.c:760
    1506:	4620      	mov	r0, r4
    1508:	f001 fdc0 	bl	308c <TEE_Panic>
/home/mattia/soo/soo-vexpress/optee_os/lib/libutee/tee_api_objects.c:762
    150c:	e005      	b.n	151a <TEE_SeekObjectData+0x36>
/home/mattia/soo/soo-vexpress/optee_os/lib/libutee/tee_api_objects.c:731
    150e:	2d00      	cmp	r5, #0
    1510:	dd0a      	ble.n	1528 <TEE_SeekObjectData+0x44>
/home/mattia/soo/soo-vexpress/optee_os/lib/libutee/tee_api_objects.c:731 (discriminator 1)
    1512:	9b06      	ldr	r3, [sp, #24]
    1514:	42dd      	cmn	r5, r3
    1516:	d307      	bcc.n	1528 <TEE_SeekObjectData+0x44>
/home/mattia/soo/soo-vexpress/optee_os/lib/libutee/tee_api_objects.c:736
    1518:	4c0e      	ldr	r4, [pc, #56]	; (1554 <TEE_SeekObjectData+0x70>)
/home/mattia/soo/soo-vexpress/optee_os/lib/libutee/tee_api_objects.c:763
    151a:	4620      	mov	r0, r4
    151c:	b009      	add	sp, #36	; 0x24
    151e:	bdf0      	pop	{r4, r5, r6, r7, pc}
/home/mattia/soo/soo-vexpress/optee_os/lib/libutee/tee_api_objects.c:741
    1520:	2d00      	cmp	r5, #0
    1522:	dd01      	ble.n	1528 <TEE_SeekObjectData+0x44>
/home/mattia/soo/soo-vexpress/optee_os/lib/libutee/tee_api_objects.c:741 (discriminator 1)
    1524:	9b05      	ldr	r3, [sp, #20]
    1526:	e7f5      	b.n	1514 <TEE_SeekObjectData+0x30>
/home/mattia/soo/soo-vexpress/optee_os/lib/libutee/tee_api_objects.c:753
    1528:	4632      	mov	r2, r6
    152a:	4629      	mov	r1, r5
    152c:	4638      	mov	r0, r7
    152e:	f002 eb70 	blx	3c10 <_utee_storage_obj_seek>
/home/mattia/soo/soo-vexpress/optee_os/lib/libutee/tee_api_objects.c:756
    1532:	4604      	mov	r4, r0
    1534:	2800      	cmp	r0, #0
    1536:	d0f0      	beq.n	151a <TEE_SeekObjectData+0x36>
    1538:	4b06      	ldr	r3, [pc, #24]	; (1554 <TEE_SeekObjectData+0x70>)
    153a:	429c      	cmp	r4, r3
    153c:	d0ec      	beq.n	1518 <TEE_SeekObjectData+0x34>
/home/mattia/soo/soo-vexpress/optee_os/lib/libutee/tee_api_objects.c:757
    153e:	4b06      	ldr	r3, [pc, #24]	; (1558 <TEE_SeekObjectData+0x74>)
    1540:	429c      	cmp	r4, r3
    1542:	d0ea      	beq.n	151a <TEE_SeekObjectData+0x36>
/home/mattia/soo/soo-vexpress/optee_os/lib/libutee/tee_api_objects.c:758
    1544:	3302      	adds	r3, #2
    1546:	429c      	cmp	r4, r3
    1548:	d0e7      	beq.n	151a <TEE_SeekObjectData+0x36>
    154a:	e7dc      	b.n	1506 <TEE_SeekObjectData+0x22>
/home/mattia/soo/soo-vexpress/optee_os/lib/libutee/tee_api_objects.c:715
    154c:	4c03      	ldr	r4, [pc, #12]	; (155c <TEE_SeekObjectData+0x78>)
    154e:	e7da      	b.n	1506 <TEE_SeekObjectData+0x22>
    1550:	ffff0008 	.word	0xffff0008
    1554:	ffff300f 	.word	0xffff300f
    1558:	f0100001 	.word	0xf0100001
    155c:	ffff0006 	.word	0xffff0006

00001560 <tee_buffer_update>:
tee_buffer_update():
/home/mattia/soo/soo-vexpress/optee_os/lib/libutee/tee_api_operations.c:866
    1560:	e92d 4ff0 	stmdb	sp!, {r4, r5, r6, r7, r8, r9, sl, fp, lr}
    1564:	b089      	sub	sp, #36	; 0x24
    1566:	4604      	mov	r4, r0
    1568:	460e      	mov	r6, r1
    156a:	f8dd b048 	ldr.w	fp, [sp, #72]	; 0x48
    156e:	461d      	mov	r5, r3
/home/mattia/soo/soo-vexpress/optee_os/lib/libutee/tee_api_operations.c:878
    1570:	9203      	str	r2, [sp, #12]
    1572:	b962      	cbnz	r2, 158e <tee_buffer_update+0x2e>
/home/mattia/soo/soo-vexpress/optee_os/lib/libutee/tee_api_operations.c:879
    1574:	b93d      	cbnz	r5, 1586 <tee_buffer_update+0x26>
/home/mattia/soo/soo-vexpress/optee_os/lib/libutee/tee_api_operations.c:872
    1576:	2700      	movs	r7, #0
/home/mattia/soo/soo-vexpress/optee_os/lib/libutee/tee_api_operations.c:954
    1578:	9b13      	ldr	r3, [sp, #76]	; 0x4c
    157a:	2000      	movs	r0, #0
    157c:	e9c3 7000 	strd	r7, r0, [r3]
/home/mattia/soo/soo-vexpress/optee_os/lib/libutee/tee_api_operations.c:956
    1580:	b009      	add	sp, #36	; 0x24
    1582:	e8bd 8ff0 	ldmia.w	sp!, {r4, r5, r6, r7, r8, r9, sl, fp, pc}
/home/mattia/soo/soo-vexpress/optee_os/lib/libutee/tee_api_operations.c:880
    1586:	9803      	ldr	r0, [sp, #12]
    1588:	f001 fd80 	bl	308c <TEE_Panic>
    158c:	e7f3      	b.n	1576 <tee_buffer_update+0x16>
/home/mattia/soo/soo-vexpress/optee_os/lib/libutee/tee_api_operations.c:884
    158e:	f890 9030 	ldrb.w	r9, [r0, #48]	; 0x30
    1592:	6b47      	ldr	r7, [r0, #52]	; 0x34
    1594:	f1b9 0f00 	cmp.w	r9, #0
    1598:	d064      	beq.n	1664 <tee_buffer_update+0x104>
/home/mattia/soo/soo-vexpress/optee_os/lib/libutee/tee_api_operations.c:885
    159a:	ea4f 0a47 	mov.w	sl, r7, lsl #1
/home/mattia/soo/soo-vexpress/optee_os/lib/libutee/tee_api_operations.c:886
    159e:	f04f 0901 	mov.w	r9, #1
/home/mattia/soo/soo-vexpress/optee_os/lib/libutee/tee_api_operations.c:871
    15a2:	9b13      	ldr	r3, [sp, #76]	; 0x4c
/home/mattia/soo/soo-vexpress/optee_os/lib/libutee/tee_api_operations.c:892
    15a4:	6ba0      	ldr	r0, [r4, #56]	; 0x38
/home/mattia/soo/soo-vexpress/optee_os/lib/libutee/tee_api_operations.c:871
    15a6:	e9d3 2300 	ldrd	r2, r3, [r3]
    15aa:	e9cd 2304 	strd	r2, r3, [sp, #16]
/home/mattia/soo/soo-vexpress/optee_os/lib/libutee/tee_api_operations.c:892
    15ae:	b1d8      	cbz	r0, 15e8 <tee_buffer_update+0x88>
/home/mattia/soo/soo-vexpress/optee_os/lib/libutee/tee_api_operations.c:894
    15b0:	42b8      	cmp	r0, r7
/home/mattia/soo/soo-vexpress/optee_os/lib/libutee/tee_api_operations.c:898
    15b2:	6ae3      	ldr	r3, [r4, #44]	; 0x2c
/home/mattia/soo/soo-vexpress/optee_os/lib/libutee/tee_api_operations.c:897
    15b4:	bf2c      	ite	cs
    15b6:	ebaa 0700 	subcs.w	r7, sl, r0
/home/mattia/soo/soo-vexpress/optee_os/lib/libutee/tee_api_operations.c:895
    15ba:	1a3f      	subcc	r7, r7, r0
/home/mattia/soo/soo-vexpress/optee_os/lib/libutee/tee_api_operations.c:898
    15bc:	9903      	ldr	r1, [sp, #12]
/home/mattia/soo/soo-vexpress/optee_os/lib/libutee/tee_api_operations.c:897
    15be:	42af      	cmp	r7, r5
    15c0:	bf28      	it	cs
    15c2:	462f      	movcs	r7, r5
/home/mattia/soo/soo-vexpress/optee_os/lib/libutee/tee_api_operations.c:898
    15c4:	463a      	mov	r2, r7
    15c6:	4418      	add	r0, r3
    15c8:	f7fe feb0 	bl	32c <memcpy>
/home/mattia/soo/soo-vexpress/optee_os/lib/libutee/tee_api_operations.c:902
    15cc:	6b61      	ldr	r1, [r4, #52]	; 0x34
/home/mattia/soo/soo-vexpress/optee_os/lib/libutee/tee_api_operations.c:899
    15ce:	6ba3      	ldr	r3, [r4, #56]	; 0x38
    15d0:	443b      	add	r3, r7
/home/mattia/soo/soo-vexpress/optee_os/lib/libutee/tee_api_operations.c:902
    15d2:	fbb3 f2f1 	udiv	r2, r3, r1
/home/mattia/soo/soo-vexpress/optee_os/lib/libutee/tee_api_operations.c:899
    15d6:	63a3      	str	r3, [r4, #56]	; 0x38
/home/mattia/soo/soo-vexpress/optee_os/lib/libutee/tee_api_operations.c:902
    15d8:	fb01 3312 	mls	r3, r1, r2, r3
    15dc:	2b00      	cmp	r3, #0
    15de:	d1ca      	bne.n	1576 <tee_buffer_update+0x16>
/home/mattia/soo/soo-vexpress/optee_os/lib/libutee/tee_api_operations.c:900
    15e0:	9b03      	ldr	r3, [sp, #12]
/home/mattia/soo/soo-vexpress/optee_os/lib/libutee/tee_api_operations.c:901
    15e2:	1bed      	subs	r5, r5, r7
/home/mattia/soo/soo-vexpress/optee_os/lib/libutee/tee_api_operations.c:900
    15e4:	443b      	add	r3, r7
    15e6:	9303      	str	r3, [sp, #12]
/home/mattia/soo/soo-vexpress/optee_os/lib/libutee/tee_api_operations.c:907
    15e8:	6ba7      	ldr	r7, [r4, #56]	; 0x38
    15ea:	44d1      	add	r9, sl
/home/mattia/soo/soo-vexpress/optee_os/lib/libutee/tee_api_operations.c:871
    15ec:	9904      	ldr	r1, [sp, #16]
/home/mattia/soo/soo-vexpress/optee_os/lib/libutee/tee_api_operations.c:907
    15ee:	2f00      	cmp	r7, #0
    15f0:	d03b      	beq.n	166a <tee_buffer_update+0x10a>
/home/mattia/soo/soo-vexpress/optee_os/lib/libutee/tee_api_operations.c:908 (discriminator 1)
    15f2:	197a      	adds	r2, r7, r5
/home/mattia/soo/soo-vexpress/optee_os/lib/libutee/tee_api_operations.c:907 (discriminator 1)
    15f4:	454a      	cmp	r2, r9
    15f6:	d337      	bcc.n	1668 <tee_buffer_update+0x108>
/home/mattia/soo/soo-vexpress/optee_os/lib/libutee/tee_api_operations.c:913
    15f8:	6ae1      	ldr	r1, [r4, #44]	; 0x2c
/home/mattia/soo/soo-vexpress/optee_os/lib/libutee/tee_api_operations.c:909
    15fa:	6b63      	ldr	r3, [r4, #52]	; 0x34
/home/mattia/soo/soo-vexpress/optee_os/lib/libutee/tee_api_operations.c:913
    15fc:	6be0      	ldr	r0, [r4, #60]	; 0x3c
/home/mattia/soo/soo-vexpress/optee_os/lib/libutee/tee_api_operations.c:909
    15fe:	f103 38ff 	add.w	r8, r3, #4294967295	; 0xffffffff
    1602:	425b      	negs	r3, r3
    1604:	eba8 080a 	sub.w	r8, r8, sl
    1608:	4490      	add	r8, r2
    160a:	ea08 0803 	and.w	r8, r8, r3
/home/mattia/soo/soo-vexpress/optee_os/lib/libutee/tee_api_operations.c:912
    160e:	e9dd 2304 	ldrd	r2, r3, [sp, #16]
    1612:	2300      	movs	r3, #0
/home/mattia/soo/soo-vexpress/optee_os/lib/libutee/tee_api_operations.c:911
    1614:	45b8      	cmp	r8, r7
    1616:	bf28      	it	cs
    1618:	46b8      	movcs	r8, r7
/home/mattia/soo/soo-vexpress/optee_os/lib/libutee/tee_api_operations.c:912
    161a:	e9cd 2306 	strd	r2, r3, [sp, #24]
/home/mattia/soo/soo-vexpress/optee_os/lib/libutee/tee_api_operations.c:913
    161e:	ab06      	add	r3, sp, #24
    1620:	4642      	mov	r2, r8
    1622:	9300      	str	r3, [sp, #0]
    1624:	465b      	mov	r3, fp
    1626:	47b0      	blx	r6
/home/mattia/soo/soo-vexpress/optee_os/lib/libutee/tee_api_operations.c:914
    1628:	b108      	cbz	r0, 162e <tee_buffer_update+0xce>
/home/mattia/soo/soo-vexpress/optee_os/lib/libutee/tee_api_operations.c:915
    162a:	f001 fd2f 	bl	308c <TEE_Panic>
/home/mattia/soo/soo-vexpress/optee_os/lib/libutee/tee_api_operations.c:917
    162e:	9b04      	ldr	r3, [sp, #16]
/home/mattia/soo/soo-vexpress/optee_os/lib/libutee/tee_api_operations.c:916
    1630:	9f06      	ldr	r7, [sp, #24]
/home/mattia/soo/soo-vexpress/optee_os/lib/libutee/tee_api_operations.c:917
    1632:	1bd9      	subs	r1, r3, r7
/home/mattia/soo/soo-vexpress/optee_os/lib/libutee/tee_api_operations.c:919
    1634:	6ba3      	ldr	r3, [r4, #56]	; 0x38
/home/mattia/soo/soo-vexpress/optee_os/lib/libutee/tee_api_operations.c:916
    1636:	44bb      	add	fp, r7
/home/mattia/soo/soo-vexpress/optee_os/lib/libutee/tee_api_operations.c:919
    1638:	eba3 0308 	sub.w	r3, r3, r8
    163c:	63a3      	str	r3, [r4, #56]	; 0x38
/home/mattia/soo/soo-vexpress/optee_os/lib/libutee/tee_api_operations.c:920
    163e:	b1a3      	cbz	r3, 166a <tee_buffer_update+0x10a>
/home/mattia/soo/soo-vexpress/optee_os/lib/libutee/tee_api_operations.c:924
    1640:	6ae0      	ldr	r0, [r4, #44]	; 0x2c
    1642:	ebaa 0208 	sub.w	r2, sl, r8
    1646:	eb00 0108 	add.w	r1, r0, r8
    164a:	f7fe fe6f 	bl	32c <memcpy>
/home/mattia/soo/soo-vexpress/optee_os/lib/libutee/tee_api_operations.c:950
    164e:	6ae0      	ldr	r0, [r4, #44]	; 0x2c
    1650:	462a      	mov	r2, r5
    1652:	6ba3      	ldr	r3, [r4, #56]	; 0x38
    1654:	9903      	ldr	r1, [sp, #12]
    1656:	4418      	add	r0, r3
    1658:	f7fe fe68 	bl	32c <memcpy>
/home/mattia/soo/soo-vexpress/optee_os/lib/libutee/tee_api_operations.c:951
    165c:	6ba3      	ldr	r3, [r4, #56]	; 0x38
    165e:	442b      	add	r3, r5
    1660:	63a3      	str	r3, [r4, #56]	; 0x38
    1662:	e789      	b.n	1578 <tee_buffer_update+0x18>
    1664:	46ba      	mov	sl, r7
    1666:	e79c      	b.n	15a2 <tee_buffer_update+0x42>
/home/mattia/soo/soo-vexpress/optee_os/lib/libutee/tee_api_operations.c:872
    1668:	2700      	movs	r7, #0
/home/mattia/soo/soo-vexpress/optee_os/lib/libutee/tee_api_operations.c:931
    166a:	454d      	cmp	r5, r9
    166c:	d3ef      	bcc.n	164e <tee_buffer_update+0xee>
/home/mattia/soo/soo-vexpress/optee_os/lib/libutee/tee_api_operations.c:933
    166e:	f8df c048 	ldr.w	ip, [pc, #72]	; 16b8 <tee_buffer_update+0x158>
    1672:	6820      	ldr	r0, [r4, #0]
    1674:	6b63      	ldr	r3, [r4, #52]	; 0x34
    1676:	4560      	cmp	r0, ip
/home/mattia/soo/soo-vexpress/optee_os/lib/libutee/tee_api_operations.c:939
    1678:	6be0      	ldr	r0, [r4, #60]	; 0x3c
    167a:	f1c3 0200 	rsb	r2, r3, #0
/home/mattia/soo/soo-vexpress/optee_os/lib/libutee/tee_api_operations.c:934
    167e:	bf08      	it	eq
    1680:	f103 33ff 	addeq.w	r3, r3, #4294967295	; 0xffffffff
/home/mattia/soo/soo-vexpress/optee_os/lib/libutee/tee_api_operations.c:936
    1684:	eba3 0a0a 	sub.w	sl, r3, sl
/home/mattia/soo/soo-vexpress/optee_os/lib/libutee/tee_api_operations.c:938
    1688:	2300      	movs	r3, #0
/home/mattia/soo/soo-vexpress/optee_os/lib/libutee/tee_api_operations.c:936
    168a:	44aa      	add	sl, r5
/home/mattia/soo/soo-vexpress/optee_os/lib/libutee/tee_api_operations.c:938
    168c:	e9cd 1306 	strd	r1, r3, [sp, #24]
/home/mattia/soo/soo-vexpress/optee_os/lib/libutee/tee_api_operations.c:939
    1690:	ab06      	add	r3, sp, #24
/home/mattia/soo/soo-vexpress/optee_os/lib/libutee/tee_api_operations.c:936
    1692:	ea0a 0a02 	and.w	sl, sl, r2
/home/mattia/soo/soo-vexpress/optee_os/lib/libutee/tee_api_operations.c:939
    1696:	4652      	mov	r2, sl
    1698:	9903      	ldr	r1, [sp, #12]
    169a:	9300      	str	r3, [sp, #0]
    169c:	465b      	mov	r3, fp
    169e:	47b0      	blx	r6
/home/mattia/soo/soo-vexpress/optee_os/lib/libutee/tee_api_operations.c:940
    16a0:	b108      	cbz	r0, 16a6 <tee_buffer_update+0x146>
/home/mattia/soo/soo-vexpress/optee_os/lib/libutee/tee_api_operations.c:941
    16a2:	f001 fcf3 	bl	308c <TEE_Panic>
/home/mattia/soo/soo-vexpress/optee_os/lib/libutee/tee_api_operations.c:942
    16a6:	9b03      	ldr	r3, [sp, #12]
/home/mattia/soo/soo-vexpress/optee_os/lib/libutee/tee_api_operations.c:943
    16a8:	eba5 050a 	sub.w	r5, r5, sl
/home/mattia/soo/soo-vexpress/optee_os/lib/libutee/tee_api_operations.c:942
    16ac:	4453      	add	r3, sl
    16ae:	9303      	str	r3, [sp, #12]
/home/mattia/soo/soo-vexpress/optee_os/lib/libutee/tee_api_operations.c:946
    16b0:	9b06      	ldr	r3, [sp, #24]
    16b2:	441f      	add	r7, r3
    16b4:	e7cb      	b.n	164e <tee_buffer_update+0xee>
    16b6:	bf00      	nop
    16b8:	10000310 	.word	0x10000310

000016bc <TEE_FreeOperation>:
TEE_FreeOperation():
/home/mattia/soo/soo-vexpress/optee_os/lib/libutee/tee_api_operations.c:369
    16bc:	b510      	push	{r4, lr}
/home/mattia/soo/soo-vexpress/optee_os/lib/libutee/tee_api_operations.c:372
    16be:	4604      	mov	r4, r0
    16c0:	b908      	cbnz	r0, 16c6 <TEE_FreeOperation+0xa>
/home/mattia/soo/soo-vexpress/optee_os/lib/libutee/tee_api_operations.c:373
    16c2:	f001 fce3 	bl	308c <TEE_Panic>
/home/mattia/soo/soo-vexpress/optee_os/lib/libutee/tee_api_operations.c:380
    16c6:	6be0      	ldr	r0, [r4, #60]	; 0x3c
    16c8:	f002 e924 	blx	3914 <_utee_cryp_state_free>
/home/mattia/soo/soo-vexpress/optee_os/lib/libutee/tee_api_operations.c:381
    16cc:	b108      	cbz	r0, 16d2 <TEE_FreeOperation+0x16>
/home/mattia/soo/soo-vexpress/optee_os/lib/libutee/tee_api_operations.c:382
    16ce:	f001 fcdd 	bl	308c <TEE_Panic>
/home/mattia/soo/soo-vexpress/optee_os/lib/libutee/tee_api_operations.c:384
    16d2:	6ae0      	ldr	r0, [r4, #44]	; 0x2c
    16d4:	f003 f824 	bl	4720 <TEE_Free>
/home/mattia/soo/soo-vexpress/optee_os/lib/libutee/tee_api_operations.c:385
    16d8:	4620      	mov	r0, r4
/home/mattia/soo/soo-vexpress/optee_os/lib/libutee/tee_api_operations.c:386
    16da:	e8bd 4010 	ldmia.w	sp!, {r4, lr}
/home/mattia/soo/soo-vexpress/optee_os/lib/libutee/tee_api_operations.c:385
    16de:	f003 b81f 	b.w	4720 <TEE_Free>

000016e2 <TEE_AllocateOperation>:
TEE_AllocateOperation():
/home/mattia/soo/soo-vexpress/optee_os/lib/libutee/tee_api_operations.c:34
    16e2:	e92d 4ff0 	stmdb	sp!, {r4, r5, r6, r7, r8, r9, sl, fp, lr}
    16e6:	b087      	sub	sp, #28
    16e8:	460c      	mov	r4, r1
    16ea:	4691      	mov	r9, r2
    16ec:	461f      	mov	r7, r3
/home/mattia/soo/soo-vexpress/optee_os/lib/libutee/tee_api_operations.c:43
    16ee:	9002      	str	r0, [sp, #8]
    16f0:	b908      	cbnz	r0, 16f6 <TEE_AllocateOperation+0x14>
/home/mattia/soo/soo-vexpress/optee_os/lib/libutee/tee_api_operations.c:44
    16f2:	f001 fccb 	bl	308c <TEE_Panic>
/home/mattia/soo/soo-vexpress/optee_os/lib/libutee/tee_api_operations.c:46
    16f6:	4bbf      	ldr	r3, [pc, #764]	; (19f4 <TEE_AllocateOperation+0x312>)
    16f8:	429c      	cmp	r4, r3
    16fa:	f000 8370 	beq.w	1dde <TEE_AllocateOperation+0x6fc>
/home/mattia/soo/soo-vexpress/optee_os/lib/libutee/tee_api_operations.c:46 (discriminator 1)
    16fe:	4bbe      	ldr	r3, [pc, #760]	; (19f8 <TEE_AllocateOperation+0x316>)
    1700:	429c      	cmp	r4, r3
    1702:	f000 8122 	beq.w	194a <TEE_AllocateOperation+0x268>
/home/mattia/soo/soo-vexpress/optee_os/lib/libutee/tee_api_operations.c:50
    1706:	4bbd      	ldr	r3, [pc, #756]	; (19fc <TEE_AllocateOperation+0x31a>)
    1708:	429c      	cmp	r4, r3
    170a:	f000 8119 	beq.w	1940 <TEE_AllocateOperation+0x25e>
    170e:	d873      	bhi.n	17f8 <TEE_AllocateOperation+0x116>
    1710:	4abb      	ldr	r2, [pc, #748]	; (1a00 <TEE_AllocateOperation+0x31e>)
    1712:	4294      	cmp	r4, r2
    1714:	f000 8107 	beq.w	1926 <TEE_AllocateOperation+0x244>
    1718:	d82e      	bhi.n	1778 <TEE_AllocateOperation+0x96>
    171a:	3af0      	subs	r2, #240	; 0xf0
    171c:	4294      	cmp	r4, r2
    171e:	f000 837c 	beq.w	1e1a <TEE_AllocateOperation+0x738>
    1722:	d804      	bhi.n	172e <TEE_AllocateOperation+0x4c>
    1724:	f5a2 5280 	sub.w	r2, r2, #4096	; 0x1000
    1728:	4294      	cmp	r4, r2
    172a:	f000 8372 	beq.w	1e12 <TEE_AllocateOperation+0x730>
/home/mattia/soo/soo-vexpress/optee_os/lib/libutee/tee_api_operations.c:113
    172e:	4ab5      	ldr	r2, [pc, #724]	; (1a04 <TEE_AllocateOperation+0x322>)
    1730:	4294      	cmp	r4, r2
    1732:	f000 824a 	beq.w	1bca <TEE_AllocateOperation+0x4e8>
    1736:	f200 818b 	bhi.w	1a50 <TEE_AllocateOperation+0x36e>
    173a:	4bb3      	ldr	r3, [pc, #716]	; (1a08 <TEE_AllocateOperation+0x326>)
    173c:	429c      	cmp	r4, r3
    173e:	f000 835a 	beq.w	1df6 <TEE_AllocateOperation+0x714>
    1742:	f200 812d 	bhi.w	19a0 <TEE_AllocateOperation+0x2be>
    1746:	f5a3 7380 	sub.w	r3, r3, #256	; 0x100
    174a:	429c      	cmp	r4, r3
    174c:	f000 823d 	beq.w	1bca <TEE_AllocateOperation+0x4e8>
    1750:	f200 8121 	bhi.w	1996 <TEE_AllocateOperation+0x2b4>
    1754:	3bff      	subs	r3, #255	; 0xff
    1756:	429c      	cmp	r4, r3
    1758:	f200 8117 	bhi.w	198a <TEE_AllocateOperation+0x2a8>
    175c:	3b02      	subs	r3, #2
    175e:	429c      	cmp	r4, r3
    1760:	d807      	bhi.n	1772 <TEE_AllocateOperation+0x90>
    1762:	3bfe      	subs	r3, #254	; 0xfe
    1764:	429c      	cmp	r4, r3
    1766:	f200 8109 	bhi.w	197c <TEE_AllocateOperation+0x29a>
    176a:	3b02      	subs	r3, #2
    176c:	429c      	cmp	r4, r3
    176e:	f240 80e1 	bls.w	1934 <TEE_AllocateOperation+0x252>
    1772:	2500      	movs	r5, #0
    1774:	46a8      	mov	r8, r5
    1776:	e336      	b.n	1de6 <TEE_AllocateOperation+0x704>
/home/mattia/soo/soo-vexpress/optee_os/lib/libutee/tee_api_operations.c:50
    1778:	4ba4      	ldr	r3, [pc, #656]	; (1a0c <TEE_AllocateOperation+0x32a>)
    177a:	429c      	cmp	r4, r3
    177c:	f000 80dc 	beq.w	1938 <TEE_AllocateOperation+0x256>
    1780:	f503 6371 	add.w	r3, r3, #3856	; 0xf10
    1784:	429c      	cmp	r4, r3
    1786:	f000 8356 	beq.w	1e36 <TEE_AllocateOperation+0x754>
    178a:	f5a3 5380 	sub.w	r3, r3, #4096	; 0x1000
    178e:	429c      	cmp	r4, r3
    1790:	f000 8348 	beq.w	1e24 <TEE_AllocateOperation+0x742>
/home/mattia/soo/soo-vexpress/optee_os/lib/libutee/tee_api_operations.c:113
    1794:	4b9e      	ldr	r3, [pc, #632]	; (1a10 <TEE_AllocateOperation+0x32e>)
    1796:	429c      	cmp	r4, r3
    1798:	f200 80cc 	bhi.w	1934 <TEE_AllocateOperation+0x252>
    179c:	f46f 6001 	mvn.w	r0, #2064	; 0x810
    17a0:	4403      	add	r3, r0
    17a2:	429c      	cmp	r4, r3
    17a4:	f000 808b 	beq.w	18be <TEE_AllocateOperation+0x1dc>
    17a8:	f200 80c4 	bhi.w	1934 <TEE_AllocateOperation+0x252>
    17ac:	f2a3 63ff 	subw	r3, r3, #1791	; 0x6ff
    17b0:	429c      	cmp	r4, r3
    17b2:	f000 8084 	beq.w	18be <TEE_AllocateOperation+0x1dc>
    17b6:	f200 80bd 	bhi.w	1934 <TEE_AllocateOperation+0x252>
    17ba:	3bf0      	subs	r3, #240	; 0xf0
    17bc:	429c      	cmp	r4, r3
    17be:	d07e      	beq.n	18be <TEE_AllocateOperation+0x1dc>
    17c0:	f200 80b8 	bhi.w	1934 <TEE_AllocateOperation+0x252>
    17c4:	f46f 6101 	mvn.w	r1, #2064	; 0x810
    17c8:	440b      	add	r3, r1
    17ca:	429c      	cmp	r4, r3
    17cc:	d077      	beq.n	18be <TEE_AllocateOperation+0x1dc>
    17ce:	f200 80b1 	bhi.w	1934 <TEE_AllocateOperation+0x252>
    17d2:	f2a3 63ff 	subw	r3, r3, #1791	; 0x6ff
    17d6:	429c      	cmp	r4, r3
    17d8:	d071      	beq.n	18be <TEE_AllocateOperation+0x1dc>
    17da:	f200 80ab 	bhi.w	1934 <TEE_AllocateOperation+0x252>
    17de:	3bf0      	subs	r3, #240	; 0xf0
    17e0:	429c      	cmp	r4, r3
    17e2:	d06c      	beq.n	18be <TEE_AllocateOperation+0x1dc>
    17e4:	f200 80a6 	bhi.w	1934 <TEE_AllocateOperation+0x252>
    17e8:	f5a3 5380 	sub.w	r3, r3, #4096	; 0x1000
    17ec:	429c      	cmp	r4, r3
    17ee:	d066      	beq.n	18be <TEE_AllocateOperation+0x1dc>
    17f0:	f203 73ef 	addw	r3, r3, #2031	; 0x7ef
    17f4:	429c      	cmp	r4, r3
    17f6:	e0a1      	b.n	193c <TEE_AllocateOperation+0x25a>
/home/mattia/soo/soo-vexpress/optee_os/lib/libutee/tee_api_operations.c:50
    17f8:	4a86      	ldr	r2, [pc, #536]	; (1a14 <TEE_AllocateOperation+0x332>)
    17fa:	4294      	cmp	r4, r2
    17fc:	f000 830b 	beq.w	1e16 <TEE_AllocateOperation+0x734>
    1800:	d871      	bhi.n	18e6 <TEE_AllocateOperation+0x204>
    1802:	4a85      	ldr	r2, [pc, #532]	; (1a18 <TEE_AllocateOperation+0x336>)
    1804:	4294      	cmp	r4, r2
    1806:	f000 8310 	beq.w	1e2a <TEE_AllocateOperation+0x748>
    180a:	d864      	bhi.n	18d6 <TEE_AllocateOperation+0x1f4>
    180c:	4a83      	ldr	r2, [pc, #524]	; (1a1c <TEE_AllocateOperation+0x33a>)
    180e:	4294      	cmp	r4, r2
    1810:	f000 80aa 	beq.w	1968 <TEE_AllocateOperation+0x286>
    1814:	f502 5280 	add.w	r2, r2, #4096	; 0x1000
    1818:	3204      	adds	r2, #4
    181a:	4294      	cmp	r4, r2
    181c:	f000 8302 	beq.w	1e24 <TEE_AllocateOperation+0x742>
/home/mattia/soo/soo-vexpress/optee_os/lib/libutee/tee_api_operations.c:113
    1820:	4a7f      	ldr	r2, [pc, #508]	; (1a20 <TEE_AllocateOperation+0x33e>)
    1822:	4294      	cmp	r4, r2
    1824:	d07d      	beq.n	1922 <TEE_AllocateOperation+0x240>
    1826:	f200 8085 	bhi.w	1934 <TEE_AllocateOperation+0x252>
    182a:	f1a2 6279 	sub.w	r2, r2, #261095424	; 0xf900000
    182e:	f5a2 2269 	sub.w	r2, r2, #954368	; 0xe9000
    1832:	f2a2 7202 	subw	r2, r2, #1794	; 0x702
    1836:	4294      	cmp	r4, r2
    1838:	d041      	beq.n	18be <TEE_AllocateOperation+0x1dc>
    183a:	d87b      	bhi.n	1934 <TEE_AllocateOperation+0x252>
    183c:	f5a2 1280 	sub.w	r2, r2, #1048576	; 0x100000
    1840:	f5a2 5280 	sub.w	r2, r2, #4096	; 0x1000
    1844:	4294      	cmp	r4, r2
    1846:	d03a      	beq.n	18be <TEE_AllocateOperation+0x1dc>
    1848:	d874      	bhi.n	1934 <TEE_AllocateOperation+0x252>
    184a:	f5a2 1280 	sub.w	r2, r2, #1048576	; 0x100000
    184e:	f5a2 5280 	sub.w	r2, r2, #4096	; 0x1000
    1852:	4294      	cmp	r4, r2
    1854:	d033      	beq.n	18be <TEE_AllocateOperation+0x1dc>
    1856:	d86d      	bhi.n	1934 <TEE_AllocateOperation+0x252>
    1858:	f5a2 1280 	sub.w	r2, r2, #1048576	; 0x100000
    185c:	f5a2 5280 	sub.w	r2, r2, #4096	; 0x1000
    1860:	4294      	cmp	r4, r2
    1862:	d02c      	beq.n	18be <TEE_AllocateOperation+0x1dc>
    1864:	3201      	adds	r2, #1
    1866:	4294      	cmp	r4, r2
    1868:	d264      	bcs.n	1934 <TEE_AllocateOperation+0x252>
    186a:	f5a2 1280 	sub.w	r2, r2, #1048576	; 0x100000
    186e:	f5a2 5280 	sub.w	r2, r2, #4096	; 0x1000
    1872:	3a01      	subs	r2, #1
    1874:	4294      	cmp	r4, r2
    1876:	d022      	beq.n	18be <TEE_AllocateOperation+0x1dc>
    1878:	d85c      	bhi.n	1934 <TEE_AllocateOperation+0x252>
    187a:	f5a2 1203 	sub.w	r2, r2, #2146304	; 0x20c000
    187e:	f5a2 7280 	sub.w	r2, r2, #256	; 0x100
    1882:	4294      	cmp	r4, r2
    1884:	d01b      	beq.n	18be <TEE_AllocateOperation+0x1dc>
    1886:	d855      	bhi.n	1934 <TEE_AllocateOperation+0x252>
    1888:	f2a2 72eb 	subw	r2, r2, #2027	; 0x7eb
    188c:	4294      	cmp	r4, r2
    188e:	d016      	beq.n	18be <TEE_AllocateOperation+0x1dc>
    1890:	d850      	bhi.n	1934 <TEE_AllocateOperation+0x252>
    1892:	f6a2 0215 	subw	r2, r2, #2069	; 0x815
    1896:	4294      	cmp	r4, r2
    1898:	d011      	beq.n	18be <TEE_AllocateOperation+0x1dc>
    189a:	d84b      	bhi.n	1934 <TEE_AllocateOperation+0x252>
    189c:	f2a2 72ef 	subw	r2, r2, #2031	; 0x7ef
    18a0:	4294      	cmp	r4, r2
    18a2:	d00c      	beq.n	18be <TEE_AllocateOperation+0x1dc>
    18a4:	d846      	bhi.n	1934 <TEE_AllocateOperation+0x252>
    18a6:	f46f 6501 	mvn.w	r5, #2064	; 0x810
    18aa:	442a      	add	r2, r5
    18ac:	4294      	cmp	r4, r2
    18ae:	d006      	beq.n	18be <TEE_AllocateOperation+0x1dc>
    18b0:	d840      	bhi.n	1934 <TEE_AllocateOperation+0x252>
    18b2:	429c      	cmp	r4, r3
    18b4:	d83e      	bhi.n	1934 <TEE_AllocateOperation+0x252>
    18b6:	4b56      	ldr	r3, [pc, #344]	; (1a10 <TEE_AllocateOperation+0x32e>)
    18b8:	429c      	cmp	r4, r3
    18ba:	f47f af6b 	bne.w	1794 <TEE_AllocateOperation+0xb2>
/home/mattia/soo/soo-vexpress/optee_os/lib/libutee/tee_api_operations.c:168
    18be:	f1b9 0f02 	cmp.w	r9, #2
    18c2:	f000 81a0 	beq.w	1c06 <TEE_AllocateOperation+0x524>
/home/mattia/soo/soo-vexpress/optee_os/lib/libutee/tee_api_operations.c:171
    18c6:	f1b9 0f03 	cmp.w	r9, #3
    18ca:	d133      	bne.n	1934 <TEE_AllocateOperation+0x252>
/home/mattia/soo/soo-vexpress/optee_os/lib/libutee/tee_api_operations.c:41
    18cc:	f04f 0800 	mov.w	r8, #0
/home/mattia/soo/soo-vexpress/optee_os/lib/libutee/tee_api_operations.c:172
    18d0:	2220      	movs	r2, #32
/home/mattia/soo/soo-vexpress/optee_os/lib/libutee/tee_api_operations.c:40
    18d2:	4643      	mov	r3, r8
    18d4:	e076      	b.n	19c4 <TEE_AllocateOperation+0x2e2>
/home/mattia/soo/soo-vexpress/optee_os/lib/libutee/tee_api_operations.c:50
    18d6:	4b53      	ldr	r3, [pc, #332]	; (1a24 <TEE_AllocateOperation+0x342>)
    18d8:	429c      	cmp	r4, r3
    18da:	f000 8298 	beq.w	1e0e <TEE_AllocateOperation+0x72c>
/home/mattia/soo/soo-vexpress/optee_os/lib/libutee/tee_api_operations.c:113
    18de:	4b52      	ldr	r3, [pc, #328]	; (1a28 <TEE_AllocateOperation+0x346>)
    18e0:	429c      	cmp	r4, r3
    18e2:	d127      	bne.n	1934 <TEE_AllocateOperation+0x252>
    18e4:	e01d      	b.n	1922 <TEE_AllocateOperation+0x240>
/home/mattia/soo/soo-vexpress/optee_os/lib/libutee/tee_api_operations.c:50
    18e6:	4a51      	ldr	r2, [pc, #324]	; (1a2c <TEE_AllocateOperation+0x34a>)
    18e8:	4294      	cmp	r4, r2
    18ea:	f000 82a1 	beq.w	1e30 <TEE_AllocateOperation+0x74e>
    18ee:	f502 5280 	add.w	r2, r2, #4096	; 0x1000
    18f2:	4294      	cmp	r4, r2
    18f4:	d038      	beq.n	1968 <TEE_AllocateOperation+0x286>
    18f6:	4b4e      	ldr	r3, [pc, #312]	; (1a30 <TEE_AllocateOperation+0x34e>)
    18f8:	429c      	cmp	r4, r3
    18fa:	f000 8290 	beq.w	1e1e <TEE_AllocateOperation+0x73c>
/home/mattia/soo/soo-vexpress/optee_os/lib/libutee/tee_api_operations.c:113
    18fe:	4b4d      	ldr	r3, [pc, #308]	; (1a34 <TEE_AllocateOperation+0x352>)
    1900:	429c      	cmp	r4, r3
    1902:	f200 8143 	bhi.w	1b8c <TEE_AllocateOperation+0x4aa>
    1906:	3b01      	subs	r3, #1
    1908:	429c      	cmp	r4, r3
    190a:	d20a      	bcs.n	1922 <TEE_AllocateOperation+0x240>
    190c:	f5a3 5383 	sub.w	r3, r3, #4192	; 0x1060
    1910:	3b1e      	subs	r3, #30
    1912:	429c      	cmp	r4, r3
    1914:	d005      	beq.n	1922 <TEE_AllocateOperation+0x240>
    1916:	f200 812f 	bhi.w	1b78 <TEE_AllocateOperation+0x496>
    191a:	f5a3 5380 	sub.w	r3, r3, #4096	; 0x1000
    191e:	429c      	cmp	r4, r3
    1920:	d1dd      	bne.n	18de <TEE_AllocateOperation+0x1fc>
    1922:	2500      	movs	r5, #0
    1924:	e016      	b.n	1954 <TEE_AllocateOperation+0x272>
/home/mattia/soo/soo-vexpress/optee_os/lib/libutee/tee_api_operations.c:52
    1926:	f5a7 7300 	sub.w	r3, r7, #512	; 0x200
    192a:	f5b3 7f00 	cmp.w	r3, #512	; 0x200
    192e:	d801      	bhi.n	1934 <TEE_AllocateOperation+0x252>
/home/mattia/soo/soo-vexpress/optee_os/lib/libutee/tee_api_operations.c:56
    1930:	06bb      	lsls	r3, r7, #26
    1932:	d0c4      	beq.n	18be <TEE_AllocateOperation+0x1dc>
/home/mattia/soo/soo-vexpress/optee_os/lib/libutee/tee_api_operations.c:53
    1934:	4d40      	ldr	r5, [pc, #256]	; (1a38 <TEE_AllocateOperation+0x356>)
    1936:	e23d      	b.n	1db4 <TEE_AllocateOperation+0x6d2>
/home/mattia/soo/soo-vexpress/optee_os/lib/libutee/tee_api_operations.c:61
    1938:	f5b7 6f00 	cmp.w	r7, #2048	; 0x800
/home/mattia/soo/soo-vexpress/optee_os/lib/libutee/tee_api_operations.c:98
    193c:	d1fa      	bne.n	1934 <TEE_AllocateOperation+0x252>
    193e:	e7be      	b.n	18be <TEE_AllocateOperation+0x1dc>
/home/mattia/soo/soo-vexpress/optee_os/lib/libutee/tee_api_operations.c:66
    1940:	f427 6380 	bic.w	r3, r7, #1024	; 0x400
    1944:	f5b3 6f00 	cmp.w	r3, #2048	; 0x800
    1948:	e7f8      	b.n	193c <TEE_AllocateOperation+0x25a>
/home/mattia/soo/soo-vexpress/optee_os/lib/libutee/tee_api_operations.c:92
    194a:	f5b7 7f00 	cmp.w	r7, #512	; 0x200
    194e:	d1f1      	bne.n	1934 <TEE_AllocateOperation+0x252>
    1950:	f44f 2500 	mov.w	r5, #524288	; 0x80000
/home/mattia/soo/soo-vexpress/optee_os/lib/libutee/tee_api_operations.c:225
    1954:	f1b9 0f06 	cmp.w	r9, #6
    1958:	d1ec      	bne.n	1934 <TEE_AllocateOperation+0x252>
/home/mattia/soo/soo-vexpress/optee_os/lib/libutee/tee_api_operations.c:41
    195a:	f04f 0800 	mov.w	r8, #0
/home/mattia/soo/soo-vexpress/optee_os/lib/libutee/tee_api_operations.c:227
    195e:	2301      	movs	r3, #1
/home/mattia/soo/soo-vexpress/optee_os/lib/libutee/tee_api_operations.c:228
    1960:	2240      	movs	r2, #64	; 0x40
/home/mattia/soo/soo-vexpress/optee_os/lib/libutee/tee_api_operations.c:38
    1962:	f04f 0a01 	mov.w	sl, #1
    1966:	e08c      	b.n	1a82 <TEE_AllocateOperation+0x3a0>
/home/mattia/soo/soo-vexpress/optee_os/lib/libutee/tee_api_operations.c:104
    1968:	f240 2209 	movw	r2, #521	; 0x209
    196c:	4297      	cmp	r7, r2
    196e:	d1e1      	bne.n	1934 <TEE_AllocateOperation+0x252>
/home/mattia/soo/soo-vexpress/optee_os/lib/libutee/tee_api_operations.c:113
    1970:	4a29      	ldr	r2, [pc, #164]	; (1a18 <TEE_AllocateOperation+0x336>)
    1972:	4294      	cmp	r4, r2
    1974:	f000 80ec 	beq.w	1b50 <TEE_AllocateOperation+0x46e>
    1978:	d8c1      	bhi.n	18fe <TEE_AllocateOperation+0x21c>
    197a:	e751      	b.n	1820 <TEE_AllocateOperation+0x13e>
    197c:	f104 4370 	add.w	r3, r4, #4026531840	; 0xf0000000
    1980:	3b13      	subs	r3, #19
    1982:	2b01      	cmp	r3, #1
    1984:	f67f aef5 	bls.w	1772 <TEE_AllocateOperation+0x90>
    1988:	e7d4      	b.n	1934 <TEE_AllocateOperation+0x252>
    198a:	f104 4370 	add.w	r3, r4, #4026531840	; 0xf0000000
    198e:	f46f 7689 	mvn.w	r6, #274	; 0x112
    1992:	4433      	add	r3, r6
    1994:	e7f5      	b.n	1982 <TEE_AllocateOperation+0x2a0>
    1996:	4b29      	ldr	r3, [pc, #164]	; (1a3c <TEE_AllocateOperation+0x35a>)
    1998:	429c      	cmp	r4, r3
    199a:	f43f aeea 	beq.w	1772 <TEE_AllocateOperation+0x90>
    199e:	e7c9      	b.n	1934 <TEE_AllocateOperation+0x252>
    19a0:	4b27      	ldr	r3, [pc, #156]	; (1a40 <TEE_AllocateOperation+0x35e>)
    19a2:	429c      	cmp	r4, r3
    19a4:	d812      	bhi.n	19cc <TEE_AllocateOperation+0x2ea>
    19a6:	3b02      	subs	r3, #2
    19a8:	429c      	cmp	r4, r3
    19aa:	d804      	bhi.n	19b6 <TEE_AllocateOperation+0x2d4>
    19ac:	f104 4350 	add.w	r3, r4, #3489660928	; 0xd0000000
    19b0:	3b01      	subs	r3, #1
    19b2:	2b06      	cmp	r3, #6
    19b4:	d8be      	bhi.n	1934 <TEE_AllocateOperation+0x252>
/home/mattia/soo/soo-vexpress/optee_os/lib/libutee/tee_api_operations.c:261
    19b6:	f1b9 0f04 	cmp.w	r9, #4
    19ba:	d1bb      	bne.n	1934 <TEE_AllocateOperation+0x252>
/home/mattia/soo/soo-vexpress/optee_os/lib/libutee/tee_api_operations.c:41
    19bc:	f04f 0800 	mov.w	r8, #0
/home/mattia/soo/soo-vexpress/optee_os/lib/libutee/tee_api_operations.c:263
    19c0:	2208      	movs	r2, #8
/home/mattia/soo/soo-vexpress/optee_os/lib/libutee/tee_api_operations.c:40
    19c2:	4643      	mov	r3, r8
/home/mattia/soo/soo-vexpress/optee_os/lib/libutee/tee_api_operations.c:38
    19c4:	f04f 0a01 	mov.w	sl, #1
    19c8:	4645      	mov	r5, r8
    19ca:	e05a      	b.n	1a82 <TEE_AllocateOperation+0x3a0>
/home/mattia/soo/soo-vexpress/optee_os/lib/libutee/tee_api_operations.c:113
    19cc:	4b1d      	ldr	r3, [pc, #116]	; (1a44 <TEE_AllocateOperation+0x362>)
    19ce:	429c      	cmp	r4, r3
    19d0:	d0f1      	beq.n	19b6 <TEE_AllocateOperation+0x2d4>
    19d2:	d809      	bhi.n	19e8 <TEE_AllocateOperation+0x306>
    19d4:	f5a3 6380 	sub.w	r3, r3, #1024	; 0x400
    19d8:	429c      	cmp	r4, r3
    19da:	d0ec      	beq.n	19b6 <TEE_AllocateOperation+0x2d4>
    19dc:	f104 4350 	add.w	r3, r4, #3489660928	; 0xd0000000
    19e0:	f5a3 63a2 	sub.w	r3, r3, #1296	; 0x510
    19e4:	2b01      	cmp	r3, #1
    19e6:	e7e5      	b.n	19b4 <TEE_AllocateOperation+0x2d2>
    19e8:	4b17      	ldr	r3, [pc, #92]	; (1a48 <TEE_AllocateOperation+0x366>)
    19ea:	429c      	cmp	r4, r3
    19ec:	d0e3      	beq.n	19b6 <TEE_AllocateOperation+0x2d4>
    19ee:	4b17      	ldr	r3, [pc, #92]	; (1a4c <TEE_AllocateOperation+0x36a>)
    19f0:	e7d2      	b.n	1998 <TEE_AllocateOperation+0x2b6>
    19f2:	bf00      	nop
    19f4:	10000410 	.word	0x10000410
    19f8:	60000045 	.word	0x60000045
    19fc:	70004131 	.word	0x70004131
    1a00:	70002131 	.word	0x70002131
    1a04:	40000810 	.word	0x40000810
    1a08:	10000310 	.word	0x10000310
    1a0c:	70003131 	.word	0x70003131
    1a10:	70004041 	.word	0x70004041
    1a14:	80002042 	.word	0x80002042
    1a18:	80000045 	.word	0x80000045
    1a1c:	70005041 	.word	0x70005041
    1a20:	80000032 	.word	0x80000032
    1a24:	80001042 	.word	0x80001042
    1a28:	800010c0 	.word	0x800010c0
    1a2c:	80004042 	.word	0x80004042
    1a30:	80003042 	.word	0x80003042
    1a34:	800030c1 	.word	0x800030c1
    1a38:	ffff000a 	.word	0xffff000a
    1a3c:	10000214 	.word	0x10000214
    1a40:	30000111 	.word	0x30000111
    1a44:	30000513 	.word	0x30000513
    1a48:	30000610 	.word	0x30000610
    1a4c:	40000710 	.word	0x40000710
    1a50:	4ab8      	ldr	r2, [pc, #736]	; (1d34 <TEE_AllocateOperation+0x652>)
    1a52:	4294      	cmp	r4, r2
    1a54:	f000 80c7 	beq.w	1be6 <TEE_AllocateOperation+0x504>
    1a58:	d86d      	bhi.n	1b36 <TEE_AllocateOperation+0x454>
    1a5a:	f104 4330 	add.w	r3, r4, #2952790016	; 0xb0000000
    1a5e:	3b01      	subs	r3, #1
    1a60:	2b06      	cmp	r3, #6
    1a62:	f63f af67 	bhi.w	1934 <TEE_AllocateOperation+0x252>
/home/mattia/soo/soo-vexpress/optee_os/lib/libutee/tee_api_operations.c:238
    1a66:	f1b9 0f05 	cmp.w	r9, #5
    1a6a:	f47f af63 	bne.w	1934 <TEE_AllocateOperation+0x252>
/home/mattia/soo/soo-vexpress/optee_os/lib/libutee/tee_api_operations.c:240
    1a6e:	2f00      	cmp	r7, #0
    1a70:	f47f af60 	bne.w	1934 <TEE_AllocateOperation+0x252>
/home/mattia/soo/soo-vexpress/optee_os/lib/libutee/tee_api_operations.c:244
    1a74:	463a      	mov	r2, r7
/home/mattia/soo/soo-vexpress/optee_os/lib/libutee/tee_api_operations.c:41
    1a76:	46b8      	mov	r8, r7
/home/mattia/soo/soo-vexpress/optee_os/lib/libutee/tee_api_operations.c:40
    1a78:	463b      	mov	r3, r7
/home/mattia/soo/soo-vexpress/optee_os/lib/libutee/tee_api_operations.c:38
    1a7a:	f04f 0a01 	mov.w	sl, #1
/home/mattia/soo/soo-vexpress/optee_os/lib/libutee/tee_api_operations.c:243
    1a7e:	f44f 2580 	mov.w	r5, #262144	; 0x40000
/home/mattia/soo/soo-vexpress/optee_os/lib/libutee/tee_api_operations.c:270
    1a82:	2100      	movs	r1, #0
    1a84:	2040      	movs	r0, #64	; 0x40
    1a86:	9204      	str	r2, [sp, #16]
    1a88:	9305      	str	r3, [sp, #20]
    1a8a:	f002 fe22 	bl	46d2 <TEE_Malloc>
/home/mattia/soo/soo-vexpress/optee_os/lib/libutee/tee_api_operations.c:271
    1a8e:	4606      	mov	r6, r0
    1a90:	2800      	cmp	r0, #0
    1a92:	f000 81a0 	beq.w	1dd6 <TEE_AllocateOperation+0x6f4>
__tee_alg_get_class():
/home/mattia/soo/soo-vexpress/optee_os/lib/libutee/include/utee_defines.h:56
    1a96:	49a8      	ldr	r1, [pc, #672]	; (1d38 <TEE_AllocateOperation+0x656>)
TEE_AllocateOperation():
/home/mattia/soo/soo-vexpress/optee_os/lib/libutee/tee_api_operations.c:274
    1a98:	6004      	str	r4, [r0, #0]
__tee_alg_get_class():
/home/mattia/soo/soo-vexpress/optee_os/lib/libutee/include/utee_defines.h:56
    1a9a:	9a04      	ldr	r2, [sp, #16]
    1a9c:	9b05      	ldr	r3, [sp, #20]
    1a9e:	428c      	cmp	r4, r1
    1aa0:	9103      	str	r1, [sp, #12]
    1aa2:	f000 81aa 	beq.w	1dfa <TEE_AllocateOperation+0x718>
/home/mattia/soo/soo-vexpress/optee_os/lib/libutee/include/utee_defines.h:58
    1aa6:	f101 4160 	add.w	r1, r1, #3758096384	; 0xe0000000
    1aaa:	428c      	cmp	r4, r1
    1aac:	f000 81a8 	beq.w	1e00 <TEE_AllocateOperation+0x71e>
/home/mattia/soo/soo-vexpress/optee_os/lib/libutee/include/utee_defines.h:60
    1ab0:	49a2      	ldr	r1, [pc, #648]	; (1d3c <TEE_AllocateOperation+0x65a>)
    1ab2:	428c      	cmp	r4, r1
    1ab4:	f000 81a7 	beq.w	1e06 <TEE_AllocateOperation+0x724>
/home/mattia/soo/soo-vexpress/optee_os/lib/libutee/include/utee_defines.h:63
    1ab8:	ea4f 7b14 	mov.w	fp, r4, lsr #28
TEE_AllocateOperation():
/home/mattia/soo/soo-vexpress/optee_os/lib/libutee/tee_api_operations.c:275
    1abc:	f8c6 b004 	str.w	fp, [r6, #4]
__tee_alg_get_digest_size():
/home/mattia/soo/soo-vexpress/optee_os/lib/libutee/include/utee_defines.h:173
    1ac0:	499f      	ldr	r1, [pc, #636]	; (1d40 <TEE_AllocateOperation+0x65e>)
TEE_AllocateOperation():
/home/mattia/soo/soo-vexpress/optee_os/lib/libutee/tee_api_operations.c:280
    1ac2:	f8c6 9008 	str.w	r9, [r6, #8]
__tee_alg_get_digest_size():
/home/mattia/soo/soo-vexpress/optee_os/lib/libutee/include/utee_defines.h:173
    1ac6:	428c      	cmp	r4, r1
    1ac8:	f000 80e7 	beq.w	1c9a <TEE_AllocateOperation+0x5b8>
    1acc:	f200 80c5 	bhi.w	1c5a <TEE_AllocateOperation+0x578>
    1ad0:	f2a1 510c 	subw	r1, r1, #1292	; 0x50c
    1ad4:	428c      	cmp	r4, r1
    1ad6:	f200 80b2 	bhi.w	1c3e <TEE_AllocateOperation+0x55c>
    1ada:	f1b4 5f40 	cmp.w	r4, #805306368	; 0x30000000
    1ade:	f200 80ab 	bhi.w	1c38 <TEE_AllocateOperation+0x556>
/home/mattia/soo/soo-vexpress/optee_os/lib/libutee/include/utee_defines.h:208
    1ae2:	2100      	movs	r1, #0
TEE_AllocateOperation():
/home/mattia/soo/soo-vexpress/optee_os/lib/libutee/tee_api_operations.c:286
    1ae4:	f1ba 0f01 	cmp.w	sl, #1
/home/mattia/soo/soo-vexpress/optee_os/lib/libutee/tee_api_operations.c:281
    1ae8:	60f1      	str	r1, [r6, #12]
/home/mattia/soo/soo-vexpress/optee_os/lib/libutee/tee_api_operations.c:282
    1aea:	6137      	str	r7, [r6, #16]
/home/mattia/soo/soo-vexpress/optee_os/lib/libutee/tee_api_operations.c:283
    1aec:	61b2      	str	r2, [r6, #24]
/home/mattia/soo/soo-vexpress/optee_os/lib/libutee/tee_api_operations.c:284
    1aee:	61f5      	str	r5, [r6, #28]
/home/mattia/soo/soo-vexpress/optee_os/lib/libutee/tee_api_operations.c:286
    1af0:	f040 80db 	bne.w	1caa <TEE_AllocateOperation+0x5c8>
/home/mattia/soo/soo-vexpress/optee_os/lib/libutee/tee_api_operations.c:302
    1af4:	f1bb 0f05 	cmp.w	fp, #5
/home/mattia/soo/soo-vexpress/optee_os/lib/libutee/tee_api_operations.c:300
    1af8:	f886 8030 	strb.w	r8, [r6, #48]	; 0x30
/home/mattia/soo/soo-vexpress/optee_os/lib/libutee/tee_api_operations.c:299
    1afc:	f8c6 a034 	str.w	sl, [r6, #52]	; 0x34
/home/mattia/soo/soo-vexpress/optee_os/lib/libutee/tee_api_operations.c:302
    1b00:	f040 80ec 	bne.w	1cdc <TEE_AllocateOperation+0x5fa>
/home/mattia/soo/soo-vexpress/optee_os/lib/libutee/tee_api_operations.c:326
    1b04:	f106 033c 	add.w	r3, r6, #60	; 0x3c
    1b08:	4649      	mov	r1, r9
    1b0a:	4620      	mov	r0, r4
    1b0c:	9300      	str	r3, [sp, #0]
    1b0e:	6a32      	ldr	r2, [r6, #32]
    1b10:	6a73      	ldr	r3, [r6, #36]	; 0x24
    1b12:	f001 eeea 	blx	38e8 <_utee_cryp_state_alloc>
/home/mattia/soo/soo-vexpress/optee_os/lib/libutee/tee_api_operations.c:328
    1b16:	4605      	mov	r5, r0
    1b18:	2800      	cmp	r0, #0
    1b1a:	f000 813a 	beq.w	1d92 <TEE_AllocateOperation+0x6b0>
/home/mattia/soo/soo-vexpress/optee_os/lib/libutee/tee_api_operations.c:350
    1b1e:	4b89      	ldr	r3, [pc, #548]	; (1d44 <TEE_AllocateOperation+0x662>)
    1b20:	429d      	cmp	r5, r3
    1b22:	f000 80d1 	beq.w	1cc8 <TEE_AllocateOperation+0x5e6>
/home/mattia/soo/soo-vexpress/optee_os/lib/libutee/tee_api_operations.c:350 (discriminator 1)
    1b26:	4b88      	ldr	r3, [pc, #544]	; (1d48 <TEE_AllocateOperation+0x666>)
    1b28:	429d      	cmp	r5, r3
    1b2a:	f000 80ce 	beq.w	1cca <TEE_AllocateOperation+0x5e8>
/home/mattia/soo/soo-vexpress/optee_os/lib/libutee/tee_api_operations.c:352
    1b2e:	4628      	mov	r0, r5
    1b30:	f001 faac 	bl	308c <TEE_Panic>
    1b34:	e0c9      	b.n	1cca <TEE_AllocateOperation+0x5e8>
/home/mattia/soo/soo-vexpress/optee_os/lib/libutee/tee_api_operations.c:113
    1b36:	4a85      	ldr	r2, [pc, #532]	; (1d4c <TEE_AllocateOperation+0x66a>)
    1b38:	4294      	cmp	r4, r2
    1b3a:	d009      	beq.n	1b50 <TEE_AllocateOperation+0x46e>
    1b3c:	d815      	bhi.n	1b6a <TEE_AllocateOperation+0x488>
    1b3e:	4b84      	ldr	r3, [pc, #528]	; (1d50 <TEE_AllocateOperation+0x66e>)
    1b40:	429c      	cmp	r4, r3
    1b42:	d005      	beq.n	1b50 <TEE_AllocateOperation+0x46e>
    1b44:	bf94      	ite	ls
    1b46:	4b83      	ldrls	r3, [pc, #524]	; (1d54 <TEE_AllocateOperation+0x672>)
    1b48:	4b83      	ldrhi	r3, [pc, #524]	; (1d58 <TEE_AllocateOperation+0x676>)
    1b4a:	429c      	cmp	r4, r3
/home/mattia/soo/soo-vexpress/optee_os/lib/libutee/tee_api_operations.c:86
    1b4c:	f47f aef2 	bne.w	1934 <TEE_AllocateOperation+0x252>
/home/mattia/soo/soo-vexpress/optee_os/lib/libutee/tee_api_operations.c:185
    1b50:	f1b9 0f00 	cmp.w	r9, #0
    1b54:	d05c      	beq.n	1c10 <TEE_AllocateOperation+0x52e>
/home/mattia/soo/soo-vexpress/optee_os/lib/libutee/tee_api_operations.c:187
    1b56:	f1b9 0f01 	cmp.w	r9, #1
    1b5a:	f47f aeeb 	bne.w	1934 <TEE_AllocateOperation+0x252>
/home/mattia/soo/soo-vexpress/optee_os/lib/libutee/tee_api_operations.c:38
    1b5e:	46ca      	mov	sl, r9
/home/mattia/soo/soo-vexpress/optee_os/lib/libutee/tee_api_operations.c:41
    1b60:	f04f 0800 	mov.w	r8, #0
/home/mattia/soo/soo-vexpress/optee_os/lib/libutee/tee_api_operations.c:188
    1b64:	464b      	mov	r3, r9
/home/mattia/soo/soo-vexpress/optee_os/lib/libutee/tee_api_operations.c:189
    1b66:	2204      	movs	r2, #4
    1b68:	e72e      	b.n	19c8 <TEE_AllocateOperation+0x2e6>
/home/mattia/soo/soo-vexpress/optee_os/lib/libutee/tee_api_operations.c:113
    1b6a:	4a7c      	ldr	r2, [pc, #496]	; (1d5c <TEE_AllocateOperation+0x67a>)
    1b6c:	4294      	cmp	r4, r2
    1b6e:	d0ef      	beq.n	1b50 <TEE_AllocateOperation+0x46e>
    1b70:	f63f aefe 	bhi.w	1970 <TEE_AllocateOperation+0x28e>
    1b74:	4b7a      	ldr	r3, [pc, #488]	; (1d60 <TEE_AllocateOperation+0x67e>)
    1b76:	e7e8      	b.n	1b4a <TEE_AllocateOperation+0x468>
    1b78:	4b7a      	ldr	r3, [pc, #488]	; (1d64 <TEE_AllocateOperation+0x682>)
    1b7a:	429c      	cmp	r4, r3
    1b7c:	d804      	bhi.n	1b88 <TEE_AllocateOperation+0x4a6>
    1b7e:	3b02      	subs	r3, #2
    1b80:	429c      	cmp	r4, r3
    1b82:	f4ff aed7 	bcc.w	1934 <TEE_AllocateOperation+0x252>
    1b86:	e6cc      	b.n	1922 <TEE_AllocateOperation+0x240>
    1b88:	4b77      	ldr	r3, [pc, #476]	; (1d68 <TEE_AllocateOperation+0x686>)
    1b8a:	e6a9      	b.n	18e0 <TEE_AllocateOperation+0x1fe>
    1b8c:	4b77      	ldr	r3, [pc, #476]	; (1d6c <TEE_AllocateOperation+0x68a>)
    1b8e:	429c      	cmp	r4, r3
    1b90:	f43f aec7 	beq.w	1922 <TEE_AllocateOperation+0x240>
    1b94:	d80c      	bhi.n	1bb0 <TEE_AllocateOperation+0x4ce>
    1b96:	f5a3 5380 	sub.w	r3, r3, #4096	; 0x1000
    1b9a:	429c      	cmp	r4, r3
    1b9c:	f43f aec1 	beq.w	1922 <TEE_AllocateOperation+0x240>
    1ba0:	f5a3 4301 	sub.w	r3, r3, #33024	; 0x8100
    1ba4:	3b02      	subs	r3, #2
    1ba6:	4423      	add	r3, r4
    1ba8:	2b01      	cmp	r3, #1
    1baa:	f63f aec3 	bhi.w	1934 <TEE_AllocateOperation+0x252>
    1bae:	e6b8      	b.n	1922 <TEE_AllocateOperation+0x240>
    1bb0:	4b6f      	ldr	r3, [pc, #444]	; (1d70 <TEE_AllocateOperation+0x68e>)
    1bb2:	429c      	cmp	r4, r3
    1bb4:	d807      	bhi.n	1bc6 <TEE_AllocateOperation+0x4e4>
    1bb6:	3b02      	subs	r3, #2
    1bb8:	429c      	cmp	r4, r3
    1bba:	f63f aeb2 	bhi.w	1922 <TEE_AllocateOperation+0x240>
    1bbe:	f5a3 4331 	sub.w	r3, r3, #45312	; 0xb100
    1bc2:	3b7f      	subs	r3, #127	; 0x7f
    1bc4:	e7ef      	b.n	1ba6 <TEE_AllocateOperation+0x4c4>
    1bc6:	4b5d      	ldr	r3, [pc, #372]	; (1d3c <TEE_AllocateOperation+0x65a>)
    1bc8:	e614      	b.n	17f4 <TEE_AllocateOperation+0x112>
    1bca:	2500      	movs	r5, #0
    1bcc:	f04f 0a01 	mov.w	sl, #1
    1bd0:	46a8      	mov	r8, r5
/home/mattia/soo/soo-vexpress/optee_os/lib/libutee/tee_api_operations.c:137
    1bd2:	f1b9 0f00 	cmp.w	r9, #0
    1bd6:	d013      	beq.n	1c00 <TEE_AllocateOperation+0x51e>
/home/mattia/soo/soo-vexpress/optee_os/lib/libutee/tee_api_operations.c:139
    1bd8:	f1b9 0f01 	cmp.w	r9, #1
    1bdc:	f47f aeaa 	bne.w	1934 <TEE_AllocateOperation+0x252>
/home/mattia/soo/soo-vexpress/optee_os/lib/libutee/tee_api_operations.c:40
    1be0:	2300      	movs	r3, #0
/home/mattia/soo/soo-vexpress/optee_os/lib/libutee/tee_api_operations.c:140
    1be2:	2204      	movs	r2, #4
    1be4:	e74d      	b.n	1a82 <TEE_AllocateOperation+0x3a0>
/home/mattia/soo/soo-vexpress/optee_os/lib/libutee/tee_api_operations.c:196
    1be6:	f1b9 0f00 	cmp.w	r9, #0
    1bea:	d016      	beq.n	1c1a <TEE_AllocateOperation+0x538>
/home/mattia/soo/soo-vexpress/optee_os/lib/libutee/tee_api_operations.c:198
    1bec:	f1b9 0f01 	cmp.w	r9, #1
    1bf0:	f47f aea0 	bne.w	1934 <TEE_AllocateOperation+0x252>
/home/mattia/soo/soo-vexpress/optee_os/lib/libutee/tee_api_operations.c:38
    1bf4:	46ca      	mov	sl, r9
/home/mattia/soo/soo-vexpress/optee_os/lib/libutee/tee_api_operations.c:41
    1bf6:	f04f 0800 	mov.w	r8, #0
/home/mattia/soo/soo-vexpress/optee_os/lib/libutee/tee_api_operations.c:199
    1bfa:	464b      	mov	r3, r9
/home/mattia/soo/soo-vexpress/optee_os/lib/libutee/tee_api_operations.c:200
    1bfc:	2214      	movs	r2, #20
    1bfe:	e6e3      	b.n	19c8 <TEE_AllocateOperation+0x2e6>
/home/mattia/soo/soo-vexpress/optee_os/lib/libutee/tee_api_operations.c:40
    1c00:	464b      	mov	r3, r9
/home/mattia/soo/soo-vexpress/optee_os/lib/libutee/tee_api_operations.c:138
    1c02:	2202      	movs	r2, #2
    1c04:	e73d      	b.n	1a82 <TEE_AllocateOperation+0x3a0>
/home/mattia/soo/soo-vexpress/optee_os/lib/libutee/tee_api_operations.c:41
    1c06:	f04f 0800 	mov.w	r8, #0
/home/mattia/soo/soo-vexpress/optee_os/lib/libutee/tee_api_operations.c:169
    1c0a:	2301      	movs	r3, #1
/home/mattia/soo/soo-vexpress/optee_os/lib/libutee/tee_api_operations.c:170
    1c0c:	2210      	movs	r2, #16
    1c0e:	e6d9      	b.n	19c4 <TEE_AllocateOperation+0x2e2>
    1c10:	464d      	mov	r5, r9
/home/mattia/soo/soo-vexpress/optee_os/lib/libutee/tee_api_operations.c:41
    1c12:	46c8      	mov	r8, r9
/home/mattia/soo/soo-vexpress/optee_os/lib/libutee/tee_api_operations.c:40
    1c14:	464b      	mov	r3, r9
/home/mattia/soo/soo-vexpress/optee_os/lib/libutee/tee_api_operations.c:186
    1c16:	2202      	movs	r2, #2
    1c18:	e6a3      	b.n	1962 <TEE_AllocateOperation+0x280>
    1c1a:	464d      	mov	r5, r9
/home/mattia/soo/soo-vexpress/optee_os/lib/libutee/tee_api_operations.c:41
    1c1c:	46c8      	mov	r8, r9
/home/mattia/soo/soo-vexpress/optee_os/lib/libutee/tee_api_operations.c:40
    1c1e:	464b      	mov	r3, r9
/home/mattia/soo/soo-vexpress/optee_os/lib/libutee/tee_api_operations.c:197
    1c20:	2222      	movs	r2, #34	; 0x22
    1c22:	e69e      	b.n	1962 <TEE_AllocateOperation+0x280>
    1c24:	f104 4130 	add.w	r1, r4, #2952790016	; 0xb0000000
    1c28:	3902      	subs	r1, #2
    1c2a:	2905      	cmp	r1, #5
    1c2c:	d837      	bhi.n	1c9e <TEE_AllocateOperation+0x5bc>
    1c2e:	e8df f001 	tbb	[pc, r1]
    1c32:	3830      	.short	0x3830
    1c34:	3a322e3a 	.word	0x3a322e3a
    1c38:	f104 4150 	add.w	r1, r4, #3489660928	; 0xd0000000
    1c3c:	e7f4      	b.n	1c28 <TEE_AllocateOperation+0x546>
__tee_alg_get_digest_size():
/home/mattia/soo/soo-vexpress/optee_os/lib/libutee/include/utee_defines.h:173
    1c3e:	494d      	ldr	r1, [pc, #308]	; (1d74 <TEE_AllocateOperation+0x692>)
    1c40:	428c      	cmp	r4, r1
    1c42:	d02a      	beq.n	1c9a <TEE_AllocateOperation+0x5b8>
    1c44:	bf8c      	ite	hi
    1c46:	494c      	ldrhi	r1, [pc, #304]	; (1d78 <TEE_AllocateOperation+0x696>)
    1c48:	3903      	subls	r1, #3
    1c4a:	428c      	cmp	r4, r1
    1c4c:	d027      	beq.n	1c9e <TEE_AllocateOperation+0x5bc>
/home/mattia/soo/soo-vexpress/optee_os/lib/libutee/include/utee_defines.h:208
    1c4e:	3101      	adds	r1, #1
    1c50:	428c      	cmp	r4, r1
    1c52:	bf0c      	ite	eq
    1c54:	2108      	moveq	r1, #8
    1c56:	2100      	movne	r1, #0
    1c58:	e744      	b.n	1ae4 <TEE_AllocateOperation+0x402>
/home/mattia/soo/soo-vexpress/optee_os/lib/libutee/include/utee_defines.h:173
    1c5a:	4948      	ldr	r1, [pc, #288]	; (1d7c <TEE_AllocateOperation+0x69a>)
    1c5c:	428c      	cmp	r4, r1
    1c5e:	d808      	bhi.n	1c72 <TEE_AllocateOperation+0x590>
    1c60:	f1b4 4fa0 	cmp.w	r4, #1342177280	; 0x50000000
    1c64:	d8de      	bhi.n	1c24 <TEE_AllocateOperation+0x542>
/home/mattia/soo/soo-vexpress/optee_os/lib/libutee/include/utee_defines.h:208
    1c66:	4946      	ldr	r1, [pc, #280]	; (1d80 <TEE_AllocateOperation+0x69e>)
    1c68:	428c      	cmp	r4, r1
    1c6a:	bf0c      	ite	eq
    1c6c:	2110      	moveq	r1, #16
    1c6e:	2100      	movne	r1, #0
    1c70:	e738      	b.n	1ae4 <TEE_AllocateOperation+0x402>
/home/mattia/soo/soo-vexpress/optee_os/lib/libutee/include/utee_defines.h:173
    1c72:	4944      	ldr	r1, [pc, #272]	; (1d84 <TEE_AllocateOperation+0x6a2>)
    1c74:	428c      	cmp	r4, r1
    1c76:	d014      	beq.n	1ca2 <TEE_AllocateOperation+0x5c0>
    1c78:	f501 5180 	add.w	r1, r1, #4096	; 0x1000
    1c7c:	428c      	cmp	r4, r1
    1c7e:	d012      	beq.n	1ca6 <TEE_AllocateOperation+0x5c4>
/home/mattia/soo/soo-vexpress/optee_os/lib/libutee/include/utee_defines.h:208
    1c80:	f5a1 5100 	sub.w	r1, r1, #8192	; 0x2000
    1c84:	428c      	cmp	r4, r1
    1c86:	bf0c      	ite	eq
    1c88:	2114      	moveq	r1, #20
    1c8a:	2100      	movne	r1, #0
    1c8c:	e72a      	b.n	1ae4 <TEE_AllocateOperation+0x402>
/home/mattia/soo/soo-vexpress/optee_os/lib/libutee/include/utee_defines.h:191
    1c8e:	2130      	movs	r1, #48	; 0x30
    1c90:	e728      	b.n	1ae4 <TEE_AllocateOperation+0x402>
/home/mattia/soo/soo-vexpress/optee_os/lib/libutee/include/utee_defines.h:180
    1c92:	2114      	movs	r1, #20
    1c94:	e726      	b.n	1ae4 <TEE_AllocateOperation+0x402>
/home/mattia/soo/soo-vexpress/optee_os/lib/libutee/include/utee_defines.h:194
    1c96:	2140      	movs	r1, #64	; 0x40
    1c98:	e724      	b.n	1ae4 <TEE_AllocateOperation+0x402>
/home/mattia/soo/soo-vexpress/optee_os/lib/libutee/include/utee_defines.h:206
    1c9a:	2108      	movs	r1, #8
    1c9c:	e722      	b.n	1ae4 <TEE_AllocateOperation+0x402>
/home/mattia/soo/soo-vexpress/optee_os/lib/libutee/include/utee_defines.h:173
    1c9e:	2110      	movs	r1, #16
    1ca0:	e720      	b.n	1ae4 <TEE_AllocateOperation+0x402>
/home/mattia/soo/soo-vexpress/optee_os/lib/libutee/include/utee_defines.h:184
    1ca2:	211c      	movs	r1, #28
    1ca4:	e71e      	b.n	1ae4 <TEE_AllocateOperation+0x402>
/home/mattia/soo/soo-vexpress/optee_os/lib/libutee/include/utee_defines.h:188
    1ca6:	2120      	movs	r1, #32
    1ca8:	e71c      	b.n	1ae4 <TEE_AllocateOperation+0x402>
TEE_AllocateOperation():
/home/mattia/soo/soo-vexpress/optee_os/lib/libutee/tee_api_operations.c:289
    1caa:	f1b8 0f00 	cmp.w	r8, #0
    1cae:	d013      	beq.n	1cd8 <TEE_AllocateOperation+0x5f6>
/home/mattia/soo/soo-vexpress/optee_os/lib/libutee/tee_api_operations.c:290
    1cb0:	ea4f 004a 	mov.w	r0, sl, lsl #1
/home/mattia/soo/soo-vexpress/optee_os/lib/libutee/tee_api_operations.c:292
    1cb4:	f04f 4100 	mov.w	r1, #2147483648	; 0x80000000
    1cb8:	9304      	str	r3, [sp, #16]
    1cba:	f002 fd0a 	bl	46d2 <TEE_Malloc>
    1cbe:	62f0      	str	r0, [r6, #44]	; 0x2c
/home/mattia/soo/soo-vexpress/optee_os/lib/libutee/tee_api_operations.c:294
    1cc0:	9b04      	ldr	r3, [sp, #16]
    1cc2:	2800      	cmp	r0, #0
    1cc4:	f47f af16 	bne.w	1af4 <TEE_AllocateOperation+0x412>
/home/mattia/soo/soo-vexpress/optee_os/lib/libutee/tee_api_operations.c:295
    1cc8:	4d1e      	ldr	r5, [pc, #120]	; (1d44 <TEE_AllocateOperation+0x662>)
/home/mattia/soo/soo-vexpress/optee_os/lib/libutee/tee_api_operations.c:354
    1cca:	6bf3      	ldr	r3, [r6, #60]	; 0x3c
    1ccc:	2b00      	cmp	r3, #0
    1cce:	d075      	beq.n	1dbc <TEE_AllocateOperation+0x6da>
/home/mattia/soo/soo-vexpress/optee_os/lib/libutee/tee_api_operations.c:355
    1cd0:	4630      	mov	r0, r6
    1cd2:	f7ff fcf3 	bl	16bc <TEE_FreeOperation>
    1cd6:	e06d      	b.n	1db4 <TEE_AllocateOperation+0x6d2>
    1cd8:	4650      	mov	r0, sl
    1cda:	e7eb      	b.n	1cb4 <TEE_AllocateOperation+0x5d2>
__tee_alg_get_main_alg():
/home/mattia/soo/soo-vexpress/optee_os/lib/libutee/include/utee_defines.h:70
    1cdc:	4a2a      	ldr	r2, [pc, #168]	; (1d88 <TEE_AllocateOperation+0x6a6>)
    1cde:	4294      	cmp	r4, r2
    1ce0:	d024      	beq.n	1d2c <TEE_AllocateOperation+0x64a>
    1ce2:	9a03      	ldr	r2, [sp, #12]
    1ce4:	4294      	cmp	r4, r2
    1ce6:	d023      	beq.n	1d30 <TEE_AllocateOperation+0x64e>
/home/mattia/soo/soo-vexpress/optee_os/lib/libutee/include/utee_defines.h:79
    1ce8:	b2e0      	uxtb	r0, r4
__tee_alg_get_key_type():
/home/mattia/soo/soo-vexpress/optee_os/lib/libutee/include/utee_defines.h:113
    1cea:	2b00      	cmp	r3, #0
    1cec:	d14e      	bne.n	1d8c <TEE_AllocateOperation+0x6aa>
/home/mattia/soo/soo-vexpress/optee_os/lib/libutee/include/utee_defines.h:111
    1cee:	f040 4820 	orr.w	r8, r0, #2684354560	; 0xa0000000
TEE_AllocateOperation():
/home/mattia/soo/soo-vexpress/optee_os/lib/libutee/tee_api_operations.c:311
    1cf2:	69f3      	ldr	r3, [r6, #28]
/home/mattia/soo/soo-vexpress/optee_os/lib/libutee/tee_api_operations.c:314
    1cf4:	4640      	mov	r0, r8
/home/mattia/soo/soo-vexpress/optee_os/lib/libutee/tee_api_operations.c:311
    1cf6:	031a      	lsls	r2, r3, #12
/home/mattia/soo/soo-vexpress/optee_os/lib/libutee/tee_api_operations.c:314
    1cf8:	f106 0220 	add.w	r2, r6, #32
/home/mattia/soo/soo-vexpress/optee_os/lib/libutee/tee_api_operations.c:312
    1cfc:	bf48      	it	mi
    1cfe:	087f      	lsrmi	r7, r7, #1
/home/mattia/soo/soo-vexpress/optee_os/lib/libutee/tee_api_operations.c:314
    1d00:	4639      	mov	r1, r7
    1d02:	f7ff f941 	bl	f88 <TEE_AllocateTransientObject>
/home/mattia/soo/soo-vexpress/optee_os/lib/libutee/tee_api_operations.c:315
    1d06:	4605      	mov	r5, r0
    1d08:	2800      	cmp	r0, #0
    1d0a:	f47f af08 	bne.w	1b1e <TEE_AllocateOperation+0x43c>
/home/mattia/soo/soo-vexpress/optee_os/lib/libutee/tee_api_operations.c:318
    1d0e:	69f3      	ldr	r3, [r6, #28]
    1d10:	031b      	lsls	r3, r3, #12
    1d12:	f57f aef7 	bpl.w	1b04 <TEE_AllocateOperation+0x422>
/home/mattia/soo/soo-vexpress/optee_os/lib/libutee/tee_api_operations.c:319
    1d16:	f106 0224 	add.w	r2, r6, #36	; 0x24
    1d1a:	4639      	mov	r1, r7
    1d1c:	4640      	mov	r0, r8
    1d1e:	f7ff f933 	bl	f88 <TEE_AllocateTransientObject>
/home/mattia/soo/soo-vexpress/optee_os/lib/libutee/tee_api_operations.c:321
    1d22:	4605      	mov	r5, r0
    1d24:	2800      	cmp	r0, #0
    1d26:	f43f aeed 	beq.w	1b04 <TEE_AllocateOperation+0x422>
    1d2a:	e6f8      	b.n	1b1e <TEE_AllocateOperation+0x43c>
__tee_alg_get_main_alg():
/home/mattia/soo/soo-vexpress/optee_os/lib/libutee/include/utee_defines.h:74
    1d2c:	2046      	movs	r0, #70	; 0x46
    1d2e:	e7dc      	b.n	1cea <TEE_AllocateOperation+0x608>
/home/mattia/soo/soo-vexpress/optee_os/lib/libutee/include/utee_defines.h:70
    1d30:	2047      	movs	r0, #71	; 0x47
    1d32:	e7da      	b.n	1cea <TEE_AllocateOperation+0x608>
    1d34:	60000030 	.word	0x60000030
    1d38:	80000045 	.word	0x80000045
    1d3c:	f0000830 	.word	0xf0000830
    1d40:	30000513 	.word	0x30000513
    1d44:	ffff000c 	.word	0xffff000c
    1d48:	ffff000a 	.word	0xffff000a
    1d4c:	60410230 	.word	0x60410230
    1d50:	60210230 	.word	0x60210230
    1d54:	60000130 	.word	0x60000130
    1d58:	60310230 	.word	0x60310230
    1d5c:	60610230 	.word	0x60610230
    1d60:	60510230 	.word	0x60510230
    1d64:	800020c2 	.word	0x800020c2
    1d68:	80003042 	.word	0x80003042
    1d6c:	80005042 	.word	0x80005042
    1d70:	800060c1 	.word	0x800060c1
    1d74:	30000113 	.word	0x30000113
    1d78:	30000510 	.word	0x30000510
    1d7c:	50000007 	.word	0x50000007
    1d80:	30000610 	.word	0x30000610
    1d84:	70003131 	.word	0x70003131
    1d88:	60000045 	.word	0x60000045
__tee_alg_get_key_type():
/home/mattia/soo/soo-vexpress/optee_os/lib/libutee/include/utee_defines.h:114
    1d8c:	f040 4821 	orr.w	r8, r0, #2701131776	; 0xa1000000
    1d90:	e7af      	b.n	1cf2 <TEE_AllocateOperation+0x610>
TEE_AllocateOperation():
/home/mattia/soo/soo-vexpress/optee_os/lib/libutee/tee_api_operations.c:336
    1d92:	f1bb 0f05 	cmp.w	fp, #5
    1d96:	d109      	bne.n	1dac <TEE_AllocateOperation+0x6ca>
/home/mattia/soo/soo-vexpress/optee_os/lib/libutee/tee_api_operations.c:337
    1d98:	4602      	mov	r2, r0
    1d9a:	4601      	mov	r1, r0
    1d9c:	6bf0      	ldr	r0, [r6, #60]	; 0x3c
    1d9e:	f001 edc4 	blx	3928 <_utee_hash_init>
/home/mattia/soo/soo-vexpress/optee_os/lib/libutee/tee_api_operations.c:338
    1da2:	b9d0      	cbnz	r0, 1dda <TEE_AllocateOperation+0x6f8>
/home/mattia/soo/soo-vexpress/optee_os/lib/libutee/tee_api_operations.c:341
    1da4:	69f3      	ldr	r3, [r6, #28]
    1da6:	f443 3300 	orr.w	r3, r3, #131072	; 0x20000
    1daa:	61f3      	str	r3, [r6, #28]
/home/mattia/soo/soo-vexpress/optee_os/lib/libutee/tee_api_operations.c:344
    1dac:	2300      	movs	r3, #0
    1dae:	62b3      	str	r3, [r6, #40]	; 0x28
/home/mattia/soo/soo-vexpress/optee_os/lib/libutee/tee_api_operations.c:346
    1db0:	9b02      	ldr	r3, [sp, #8]
    1db2:	601e      	str	r6, [r3, #0]
/home/mattia/soo/soo-vexpress/optee_os/lib/libutee/tee_api_operations.c:366
    1db4:	4628      	mov	r0, r5
    1db6:	b007      	add	sp, #28
    1db8:	e8bd 8ff0 	ldmia.w	sp!, {r4, r5, r6, r7, r8, r9, sl, fp, pc}
/home/mattia/soo/soo-vexpress/optee_os/lib/libutee/tee_api_operations.c:357
    1dbc:	6af0      	ldr	r0, [r6, #44]	; 0x2c
    1dbe:	f002 fcaf 	bl	4720 <TEE_Free>
/home/mattia/soo/soo-vexpress/optee_os/lib/libutee/tee_api_operations.c:358
    1dc2:	6a30      	ldr	r0, [r6, #32]
    1dc4:	f7ff f900 	bl	fc8 <TEE_FreeTransientObject>
/home/mattia/soo/soo-vexpress/optee_os/lib/libutee/tee_api_operations.c:359
    1dc8:	6a70      	ldr	r0, [r6, #36]	; 0x24
    1dca:	f7ff f8fd 	bl	fc8 <TEE_FreeTransientObject>
/home/mattia/soo/soo-vexpress/optee_os/lib/libutee/tee_api_operations.c:360
    1dce:	4630      	mov	r0, r6
    1dd0:	f002 fca6 	bl	4720 <TEE_Free>
    1dd4:	e7ee      	b.n	1db4 <TEE_AllocateOperation+0x6d2>
/home/mattia/soo/soo-vexpress/optee_os/lib/libutee/tee_api_operations.c:272
    1dd6:	4d19      	ldr	r5, [pc, #100]	; (1e3c <TEE_AllocateOperation+0x75a>)
    1dd8:	e7ec      	b.n	1db4 <TEE_AllocateOperation+0x6d2>
    1dda:	4605      	mov	r5, r0
    1ddc:	e69f      	b.n	1b1e <TEE_AllocateOperation+0x43c>
/home/mattia/soo/soo-vexpress/optee_os/lib/libutee/tee_api_operations.c:47
    1dde:	f44f 2500 	mov.w	r5, #524288	; 0x80000
/home/mattia/soo/soo-vexpress/optee_os/lib/libutee/tee_api_operations.c:116
    1de2:	f04f 0801 	mov.w	r8, #1
/home/mattia/soo/soo-vexpress/optee_os/lib/libutee/tee_api_operations.c:128
    1de6:	f004 0afb 	and.w	sl, r4, #251	; 0xfb
/home/mattia/soo/soo-vexpress/optee_os/lib/libutee/tee_api_operations.c:133
    1dea:	f1ba 0f10 	cmp.w	sl, #16
    1dee:	bf18      	it	ne
    1df0:	f04f 0a08 	movne.w	sl, #8
    1df4:	e6ed      	b.n	1bd2 <TEE_AllocateOperation+0x4f0>
/home/mattia/soo/soo-vexpress/optee_os/lib/libutee/tee_api_operations.c:113
    1df6:	2500      	movs	r5, #0
    1df8:	e7f3      	b.n	1de2 <TEE_AllocateOperation+0x700>
__tee_alg_get_class():
/home/mattia/soo/soo-vexpress/optee_os/lib/libutee/include/utee_defines.h:57
    1dfa:	f04f 0b06 	mov.w	fp, #6
    1dfe:	e65d      	b.n	1abc <TEE_AllocateOperation+0x3da>
/home/mattia/soo/soo-vexpress/optee_os/lib/libutee/include/utee_defines.h:59
    1e00:	f04f 0b08 	mov.w	fp, #8
    1e04:	e65a      	b.n	1abc <TEE_AllocateOperation+0x3da>
TEE_AllocateOperation():
/home/mattia/soo/soo-vexpress/optee_os/lib/libutee/tee_api_operations.c:278
    1e06:	2107      	movs	r1, #7
__tee_alg_get_class():
/home/mattia/soo/soo-vexpress/optee_os/lib/libutee/include/utee_defines.h:61
    1e08:	468b      	mov	fp, r1
TEE_AllocateOperation():
/home/mattia/soo/soo-vexpress/optee_os/lib/libutee/tee_api_operations.c:278
    1e0a:	6041      	str	r1, [r0, #4]
    1e0c:	e658      	b.n	1ac0 <TEE_AllocateOperation+0x3de>
/home/mattia/soo/soo-vexpress/optee_os/lib/libutee/tee_api_operations.c:72
    1e0e:	2fc0      	cmp	r7, #192	; 0xc0
    1e10:	e567      	b.n	18e2 <TEE_AllocateOperation+0x200>
    1e12:	2fc0      	cmp	r7, #192	; 0xc0
    1e14:	e592      	b.n	193c <TEE_AllocateOperation+0x25a>
/home/mattia/soo/soo-vexpress/optee_os/lib/libutee/tee_api_operations.c:78
    1e16:	2fe0      	cmp	r7, #224	; 0xe0
    1e18:	e563      	b.n	18e2 <TEE_AllocateOperation+0x200>
    1e1a:	2fe0      	cmp	r7, #224	; 0xe0
    1e1c:	e58e      	b.n	193c <TEE_AllocateOperation+0x25a>
/home/mattia/soo/soo-vexpress/optee_os/lib/libutee/tee_api_operations.c:86
    1e1e:	f5b7 7f80 	cmp.w	r7, #256	; 0x100
    1e22:	e55e      	b.n	18e2 <TEE_AllocateOperation+0x200>
    1e24:	f5b7 7f80 	cmp.w	r7, #256	; 0x100
    1e28:	e588      	b.n	193c <TEE_AllocateOperation+0x25a>
    1e2a:	f5b7 7f80 	cmp.w	r7, #256	; 0x100
    1e2e:	e68d      	b.n	1b4c <TEE_AllocateOperation+0x46a>
/home/mattia/soo/soo-vexpress/optee_os/lib/libutee/tee_api_operations.c:98
    1e30:	f5b7 7fc0 	cmp.w	r7, #384	; 0x180
    1e34:	e555      	b.n	18e2 <TEE_AllocateOperation+0x200>
    1e36:	f5b7 7fc0 	cmp.w	r7, #384	; 0x180
    1e3a:	e57f      	b.n	193c <TEE_AllocateOperation+0x25a>
    1e3c:	ffff000c 	.word	0xffff000c

00001e40 <TEE_GetOperationInfo>:
TEE_GetOperationInfo():
/home/mattia/soo/soo-vexpress/optee_os/lib/libutee/tee_api_operations.c:390
    1e40:	b570      	push	{r4, r5, r6, lr}
    1e42:	4604      	mov	r4, r0
    1e44:	460e      	mov	r6, r1
/home/mattia/soo/soo-vexpress/optee_os/lib/libutee/tee_api_operations.c:391
    1e46:	b908      	cbnz	r0, 1e4c <TEE_GetOperationInfo+0xc>
/home/mattia/soo/soo-vexpress/optee_os/lib/libutee/tee_api_operations.c:392
    1e48:	f001 f920 	bl	308c <TEE_Panic>
/home/mattia/soo/soo-vexpress/optee_os/lib/libutee/tee_api_operations.c:394
    1e4c:	2120      	movs	r1, #32
    1e4e:	4630      	mov	r0, r6
    1e50:	f001 f95c 	bl	310c <__utee_check_out_annotation>
/home/mattia/soo/soo-vexpress/optee_os/lib/libutee/tee_api_operations.c:396
    1e54:	cc0f      	ldmia	r4!, {r0, r1, r2, r3}
    1e56:	4635      	mov	r5, r6
    1e58:	c50f      	stmia	r5!, {r0, r1, r2, r3}
    1e5a:	e894 000f 	ldmia.w	r4, {r0, r1, r2, r3}
    1e5e:	e885 000f 	stmia.w	r5, {r0, r1, r2, r3}
/home/mattia/soo/soo-vexpress/optee_os/lib/libutee/tee_api_operations.c:397
    1e62:	69f3      	ldr	r3, [r6, #28]
    1e64:	031b      	lsls	r3, r3, #12
/home/mattia/soo/soo-vexpress/optee_os/lib/libutee/tee_api_operations.c:398
    1e66:	bf42      	ittt	mi
    1e68:	2300      	movmi	r3, #0
    1e6a:	6173      	strmi	r3, [r6, #20]
/home/mattia/soo/soo-vexpress/optee_os/lib/libutee/tee_api_operations.c:399
    1e6c:	61b3      	strmi	r3, [r6, #24]
/home/mattia/soo/soo-vexpress/optee_os/lib/libutee/tee_api_operations.c:401
    1e6e:	bd70      	pop	{r4, r5, r6, pc}

00001e70 <TEE_GetOperationInfoMultiple>:
TEE_GetOperationInfoMultiple():
/home/mattia/soo/soo-vexpress/optee_os/lib/libutee/tee_api_operations.c:406
    1e70:	b5f0      	push	{r4, r5, r6, r7, lr}
    1e72:	b089      	sub	sp, #36	; 0x24
    1e74:	4605      	mov	r5, r0
/home/mattia/soo/soo-vexpress/optee_os/lib/libutee/tee_api_operations.c:408
    1e76:	af01      	add	r7, sp, #4
/home/mattia/soo/soo-vexpress/optee_os/lib/libutee/tee_api_operations.c:406
    1e78:	460c      	mov	r4, r1
    1e7a:	4616      	mov	r6, r2
/home/mattia/soo/soo-vexpress/optee_os/lib/libutee/tee_api_operations.c:408
    1e7c:	2100      	movs	r1, #0
    1e7e:	221c      	movs	r2, #28
    1e80:	4638      	mov	r0, r7
    1e82:	f007 f96e 	bl	9162 <memset>
/home/mattia/soo/soo-vexpress/optee_os/lib/libutee/tee_api_operations.c:412
    1e86:	2d00      	cmp	r5, #0
    1e88:	d04e      	beq.n	1f28 <TEE_GetOperationInfoMultiple+0xb8>
/home/mattia/soo/soo-vexpress/optee_os/lib/libutee/tee_api_operations.c:417
    1e8a:	4631      	mov	r1, r6
    1e8c:	4620      	mov	r0, r4
    1e8e:	f001 f904 	bl	309a <__utee_check_outbuf_annotation>
/home/mattia/soo/soo-vexpress/optee_os/lib/libutee/tee_api_operations.c:419
    1e92:	6836      	ldr	r6, [r6, #0]
    1e94:	2e1f      	cmp	r6, #31
    1e96:	d947      	bls.n	1f28 <TEE_GetOperationInfoMultiple+0xb8>
/home/mattia/soo/soo-vexpress/optee_os/lib/libutee/tee_api_operations.c:426
    1e98:	4632      	mov	r2, r6
    1e9a:	2100      	movs	r1, #0
    1e9c:	4620      	mov	r0, r4
    1e9e:	f002 fbbf 	bl	4620 <TEE_MemFill>
/home/mattia/soo/soo-vexpress/optee_os/lib/libutee/tee_api_operations.c:431
    1ea2:	68ab      	ldr	r3, [r5, #8]
    1ea4:	2b05      	cmp	r3, #5
    1ea6:	d111      	bne.n	1ecc <TEE_GetOperationInfoMultiple+0x5c>
/home/mattia/soo/soo-vexpress/optee_os/lib/libutee/tee_api_operations.c:432
    1ea8:	2300      	movs	r3, #0
/home/mattia/soo/soo-vexpress/optee_os/lib/libutee/tee_api_operations.c:472
    1eaa:	61e3      	str	r3, [r4, #28]
/home/mattia/soo/soo-vexpress/optee_os/lib/libutee/tee_api_operations.c:475
    1eac:	682b      	ldr	r3, [r5, #0]
/home/mattia/soo/soo-vexpress/optee_os/lib/libutee/tee_api_operations.c:481
    1eae:	2600      	movs	r6, #0
/home/mattia/soo/soo-vexpress/optee_os/lib/libutee/tee_api_operations.c:475
    1eb0:	6023      	str	r3, [r4, #0]
/home/mattia/soo/soo-vexpress/optee_os/lib/libutee/tee_api_operations.c:476
    1eb2:	686b      	ldr	r3, [r5, #4]
    1eb4:	6063      	str	r3, [r4, #4]
/home/mattia/soo/soo-vexpress/optee_os/lib/libutee/tee_api_operations.c:477
    1eb6:	68ab      	ldr	r3, [r5, #8]
    1eb8:	60a3      	str	r3, [r4, #8]
/home/mattia/soo/soo-vexpress/optee_os/lib/libutee/tee_api_operations.c:478
    1eba:	68eb      	ldr	r3, [r5, #12]
    1ebc:	60e3      	str	r3, [r4, #12]
/home/mattia/soo/soo-vexpress/optee_os/lib/libutee/tee_api_operations.c:479
    1ebe:	692b      	ldr	r3, [r5, #16]
    1ec0:	6123      	str	r3, [r4, #16]
/home/mattia/soo/soo-vexpress/optee_os/lib/libutee/tee_api_operations.c:480
    1ec2:	69eb      	ldr	r3, [r5, #28]
    1ec4:	6163      	str	r3, [r4, #20]
/home/mattia/soo/soo-vexpress/optee_os/lib/libutee/tee_api_operations.c:481
    1ec6:	6aab      	ldr	r3, [r5, #40]	; 0x28
    1ec8:	61a3      	str	r3, [r4, #24]
/home/mattia/soo/soo-vexpress/optee_os/lib/libutee/tee_api_operations.c:484
    1eca:	e006      	b.n	1eda <TEE_GetOperationInfoMultiple+0x6a>
/home/mattia/soo/soo-vexpress/optee_os/lib/libutee/tee_api_operations.c:429
    1ecc:	69eb      	ldr	r3, [r5, #28]
/home/mattia/soo/soo-vexpress/optee_os/lib/libutee/tee_api_operations.c:423
    1ece:	3e20      	subs	r6, #32
/home/mattia/soo/soo-vexpress/optee_os/lib/libutee/tee_api_operations.c:433
    1ed0:	031b      	lsls	r3, r3, #12
    1ed2:	d411      	bmi.n	1ef8 <TEE_GetOperationInfoMultiple+0x88>
/home/mattia/soo/soo-vexpress/optee_os/lib/libutee/tee_api_operations.c:434
    1ed4:	2e07      	cmp	r6, #7
    1ed6:	d803      	bhi.n	1ee0 <TEE_GetOperationInfoMultiple+0x70>
/home/mattia/soo/soo-vexpress/optee_os/lib/libutee/tee_api_operations.c:435
    1ed8:	4e18      	ldr	r6, [pc, #96]	; (1f3c <TEE_GetOperationInfoMultiple+0xcc>)
/home/mattia/soo/soo-vexpress/optee_os/lib/libutee/tee_api_operations.c:489
    1eda:	4630      	mov	r0, r6
    1edc:	b009      	add	sp, #36	; 0x24
    1ede:	bdf0      	pop	{r4, r5, r6, r7, pc}
/home/mattia/soo/soo-vexpress/optee_os/lib/libutee/tee_api_operations.c:439
    1ee0:	4639      	mov	r1, r7
    1ee2:	6a28      	ldr	r0, [r5, #32]
    1ee4:	f7fe ff86 	bl	df4 <TEE_GetObjectInfo1>
/home/mattia/soo/soo-vexpress/optee_os/lib/libutee/tee_api_operations.c:441
    1ee8:	4606      	mov	r6, r0
    1eea:	bb10      	cbnz	r0, 1f32 <TEE_GetOperationInfoMultiple+0xc2>
/home/mattia/soo/soo-vexpress/optee_os/lib/libutee/tee_api_operations.c:444
    1eec:	9b02      	ldr	r3, [sp, #8]
    1eee:	6223      	str	r3, [r4, #32]
/home/mattia/soo/soo-vexpress/optee_os/lib/libutee/tee_api_operations.c:445
    1ef0:	69ab      	ldr	r3, [r5, #24]
