
6aca96ec-d0a4-11e9-bb65-2a2ae2dbcce4.elf:     file format elf32-littlearm


Disassembly of section .text:

00000020 <asf_enc_dec>:
      20:	e92d 47f0 	stmdb	sp!, {r4, r5, r6, r7, r8, r9, sl, lr}
      24:	2310      	movs	r3, #16
      26:	b08c      	sub	sp, #48	; 0x30
      28:	2817      	cmp	r0, #23
      2a:	4690      	mov	r8, r2
      2c:	9306      	str	r3, [sp, #24]
      2e:	f04f 0300 	mov.w	r3, #0
      32:	9307      	str	r3, [sp, #28]
      34:	9308      	str	r3, [sp, #32]
      36:	d116      	bne.n	66 <asf_enc_dec+0x46>
      38:	e9d1 5700 	ldrd	r5, r7, [r1]
      3c:	f1a7 031c 	sub.w	r3, r7, #28
      40:	9305      	str	r3, [sp, #20]
      42:	b192      	cbz	r2, 6a <asf_enc_dec+0x4a>
      44:	eb05 0903 	add.w	r9, r5, r3
      48:	688b      	ldr	r3, [r1, #8]
      4a:	b193      	cbz	r3, 72 <asf_enc_dec+0x52>
      4c:	2b01      	cmp	r3, #1
      4e:	d02b      	beq.n	a8 <asf_enc_dec+0x88>
      50:	9301      	str	r3, [sp, #4]
      52:	4b71      	ldr	r3, [pc, #452]	; (218 <asf_enc_dec+0x1f8>)
      54:	2155      	movs	r1, #85	; 0x55
      56:	4871      	ldr	r0, [pc, #452]	; (21c <asf_enc_dec+0x1fc>)
      58:	447b      	add	r3, pc
      5a:	4478      	add	r0, pc
      5c:	9300      	str	r3, [sp, #0]
      5e:	2301      	movs	r3, #1
      60:	461a      	mov	r2, r3
      62:	f000 fa8b 	bl	57c <trace_printf>
      66:	4e69      	ldr	r6, [pc, #420]	; (20c <asf_enc_dec+0x1ec>)
      68:	e01a      	b.n	a0 <asf_enc_dec+0x80>
      6a:	f8df 91b4 	ldr.w	r9, [pc, #436]	; 220 <asf_enc_dec+0x200>
      6e:	44f9      	add	r9, pc
      70:	e7ea      	b.n	48 <asf_enc_dec+0x28>
      72:	f8df a1b0 	ldr.w	sl, [pc, #432]	; 224 <asf_enc_dec+0x204>
      76:	44fa      	add	sl, pc
      78:	f44f 7380 	mov.w	r3, #256	; 0x100
      7c:	4642      	mov	r2, r8
      7e:	4964      	ldr	r1, [pc, #400]	; (210 <asf_enc_dec+0x1f0>)
      80:	a807      	add	r0, sp, #28
      82:	f001 fb68 	bl	1756 <TEE_AllocateOperation>
      86:	4606      	mov	r6, r0
      88:	b1a0      	cbz	r0, b4 <asf_enc_dec+0x94>
      8a:	4b67      	ldr	r3, [pc, #412]	; (228 <asf_enc_dec+0x208>)
      8c:	215b      	movs	r1, #91	; 0x5b
      8e:	4867      	ldr	r0, [pc, #412]	; (22c <asf_enc_dec+0x20c>)
      90:	447b      	add	r3, pc
      92:	4478      	add	r0, pc
      94:	e9cd 3600 	strd	r3, r6, [sp]
      98:	2301      	movs	r3, #1
      9a:	461a      	mov	r2, r3
      9c:	f000 fa6e 	bl	57c <trace_printf>
      a0:	4630      	mov	r0, r6
      a2:	b00c      	add	sp, #48	; 0x30
      a4:	e8bd 87f0 	ldmia.w	sp!, {r4, r5, r6, r7, r8, r9, sl, pc}
      a8:	f8df a184 	ldr.w	sl, [pc, #388]	; 230 <asf_enc_dec+0x210>
      ac:	44fa      	add	sl, pc
      ae:	f10a 0a20 	add.w	sl, sl, #32
      b2:	e7e1      	b.n	78 <asf_enc_dec+0x58>
      b4:	aa08      	add	r2, sp, #32
      b6:	f44f 7180 	mov.w	r1, #256	; 0x100
      ba:	4856      	ldr	r0, [pc, #344]	; (214 <asf_enc_dec+0x1f4>)
      bc:	f000 ffa2 	bl	1004 <TEE_AllocateTransientObject>
      c0:	4604      	mov	r4, r0
      c2:	b178      	cbz	r0, e4 <asf_enc_dec+0xc4>
      c4:	4b5b      	ldr	r3, [pc, #364]	; (234 <asf_enc_dec+0x214>)
      c6:	2162      	movs	r1, #98	; 0x62
      c8:	485b      	ldr	r0, [pc, #364]	; (238 <asf_enc_dec+0x218>)
      ca:	447b      	add	r3, pc
      cc:	4478      	add	r0, pc
      ce:	9300      	str	r3, [sp, #0]
      d0:	2301      	movs	r3, #1
      d2:	461a      	mov	r2, r3
      d4:	f000 fa52 	bl	57c <trace_printf>
      d8:	9608      	str	r6, [sp, #32]
      da:	9807      	ldr	r0, [sp, #28]
      dc:	4626      	mov	r6, r4
      de:	f001 fb27 	bl	1730 <TEE_FreeOperation>
      e2:	e7dd      	b.n	a0 <asf_enc_dec+0x80>
      e4:	ac09      	add	r4, sp, #36	; 0x24
      e6:	2320      	movs	r3, #32
      e8:	4620      	mov	r0, r4
      ea:	4652      	mov	r2, sl
      ec:	f04f 4140 	mov.w	r1, #3221225472	; 0xc0000000
      f0:	f001 f814 	bl	111c <TEE_InitRefAttribute>
      f4:	4621      	mov	r1, r4
      f6:	2201      	movs	r2, #1
      f8:	9808      	ldr	r0, [sp, #32]
      fa:	f000 ffd3 	bl	10a4 <TEE_PopulateTransientObject>
      fe:	4604      	mov	r4, r0
     100:	b158      	cbz	r0, 11a <asf_enc_dec+0xfa>
     102:	4b4e      	ldr	r3, [pc, #312]	; (23c <asf_enc_dec+0x21c>)
     104:	216b      	movs	r1, #107	; 0x6b
     106:	484e      	ldr	r0, [pc, #312]	; (240 <asf_enc_dec+0x220>)
     108:	447b      	add	r3, pc
     10a:	4478      	add	r0, pc
     10c:	e9cd 3400 	strd	r3, r4, [sp]
     110:	2301      	movs	r3, #1
     112:	461a      	mov	r2, r3
     114:	f000 fa32 	bl	57c <trace_printf>
     118:	e047      	b.n	1aa <asf_enc_dec+0x18a>
     11a:	9807      	ldr	r0, [sp, #28]
     11c:	9908      	ldr	r1, [sp, #32]
     11e:	f001 ff55 	bl	1fcc <TEE_SetOperationKey>
     122:	9400      	str	r4, [sp, #0]
     124:	2380      	movs	r3, #128	; 0x80
     126:	220c      	movs	r2, #12
     128:	9401      	str	r4, [sp, #4]
     12a:	4649      	mov	r1, r9
     12c:	9807      	ldr	r0, [sp, #28]
     12e:	f002 facd 	bl	26cc <TEE_AEInit>
     132:	4604      	mov	r4, r0
     134:	4606      	mov	r6, r0
     136:	b148      	cbz	r0, 14c <asf_enc_dec+0x12c>
     138:	4b42      	ldr	r3, [pc, #264]	; (244 <asf_enc_dec+0x224>)
     13a:	2175      	movs	r1, #117	; 0x75
     13c:	4842      	ldr	r0, [pc, #264]	; (248 <asf_enc_dec+0x228>)
     13e:	447b      	add	r3, pc
     140:	4478      	add	r0, pc
     142:	e9cd 3400 	strd	r3, r4, [sp]
     146:	2301      	movs	r3, #1
     148:	461a      	mov	r2, r3
     14a:	e7e3      	b.n	114 <asf_enc_dec+0xf4>
     14c:	3f10      	subs	r7, #16
     14e:	442f      	add	r7, r5
     150:	f1b8 0f00 	cmp.w	r8, #0
     154:	d12d      	bne.n	1b2 <asf_enc_dec+0x192>
     156:	ab06      	add	r3, sp, #24
     158:	4629      	mov	r1, r5
     15a:	9a05      	ldr	r2, [sp, #20]
     15c:	9807      	ldr	r0, [sp, #28]
     15e:	9701      	str	r7, [sp, #4]
     160:	9302      	str	r3, [sp, #8]
     162:	ab05      	add	r3, sp, #20
     164:	9300      	str	r3, [sp, #0]
     166:	462b      	mov	r3, r5
     168:	f002 fb84 	bl	2874 <TEE_AEEncryptFinal>
     16c:	4604      	mov	r4, r0
     16e:	b148      	cbz	r0, 184 <asf_enc_dec+0x164>
     170:	4b36      	ldr	r3, [pc, #216]	; (24c <asf_enc_dec+0x22c>)
     172:	217d      	movs	r1, #125	; 0x7d
     174:	4836      	ldr	r0, [pc, #216]	; (250 <asf_enc_dec+0x230>)
     176:	447b      	add	r3, pc
     178:	4478      	add	r0, pc
     17a:	e9cd 3400 	strd	r3, r4, [sp]
     17e:	2301      	movs	r3, #1
     180:	461a      	mov	r2, r3
     182:	e7c7      	b.n	114 <asf_enc_dec+0xf4>
     184:	9805      	ldr	r0, [sp, #20]
     186:	220c      	movs	r2, #12
     188:	4649      	mov	r1, r9
     18a:	4428      	add	r0, r5
     18c:	f000 f8dc 	bl	348 <memcpy>
     190:	4b30      	ldr	r3, [pc, #192]	; (254 <asf_enc_dec+0x234>)
     192:	447b      	add	r3, pc
     194:	1e59      	subs	r1, r3, #1
     196:	f103 020b 	add.w	r2, r3, #11
     19a:	784b      	ldrb	r3, [r1, #1]
     19c:	3301      	adds	r3, #1
     19e:	b2db      	uxtb	r3, r3
     1a0:	f801 3f01 	strb.w	r3, [r1, #1]!
     1a4:	b90b      	cbnz	r3, 1aa <asf_enc_dec+0x18a>
     1a6:	4291      	cmp	r1, r2
     1a8:	d1f7      	bne.n	19a <asf_enc_dec+0x17a>
     1aa:	9808      	ldr	r0, [sp, #32]
     1ac:	f000 ff4a 	bl	1044 <TEE_FreeTransientObject>
     1b0:	e793      	b.n	da <asf_enc_dec+0xba>
     1b2:	f1b8 0f01 	cmp.w	r8, #1
     1b6:	d11e      	bne.n	1f6 <asf_enc_dec+0x1d6>
     1b8:	2310      	movs	r3, #16
     1ba:	4629      	mov	r1, r5
     1bc:	9a05      	ldr	r2, [sp, #20]
     1be:	9807      	ldr	r0, [sp, #28]
     1c0:	9701      	str	r7, [sp, #4]
     1c2:	9302      	str	r3, [sp, #8]
     1c4:	ab05      	add	r3, sp, #20
     1c6:	9300      	str	r3, [sp, #0]
     1c8:	462b      	mov	r3, r5
     1ca:	f002 fbdf 	bl	298c <TEE_AEDecryptFinal>
     1ce:	4604      	mov	r4, r0
     1d0:	2800      	cmp	r0, #0
     1d2:	d0ea      	beq.n	1aa <asf_enc_dec+0x18a>
     1d4:	4b20      	ldr	r3, [pc, #128]	; (258 <asf_enc_dec+0x238>)
     1d6:	4642      	mov	r2, r8
     1d8:	2189      	movs	r1, #137	; 0x89
     1da:	4820      	ldr	r0, [pc, #128]	; (25c <asf_enc_dec+0x23c>)
     1dc:	447b      	add	r3, pc
     1de:	4478      	add	r0, pc
     1e0:	e9cd 3400 	strd	r3, r4, [sp]
     1e4:	4643      	mov	r3, r8
     1e6:	f000 f9c9 	bl	57c <trace_printf>
     1ea:	4631      	mov	r1, r6
     1ec:	4628      	mov	r0, r5
     1ee:	9a05      	ldr	r2, [sp, #20]
     1f0:	f008 ffb1 	bl	9156 <memset>
     1f4:	e7d9      	b.n	1aa <asf_enc_dec+0x18a>
     1f6:	4b1a      	ldr	r3, [pc, #104]	; (260 <asf_enc_dec+0x240>)
     1f8:	2190      	movs	r1, #144	; 0x90
     1fa:	481a      	ldr	r0, [pc, #104]	; (264 <asf_enc_dec+0x244>)
     1fc:	447b      	add	r3, pc
     1fe:	4478      	add	r0, pc
     200:	e9cd 3800 	strd	r3, r8, [sp]
     204:	2301      	movs	r3, #1
     206:	461a      	mov	r2, r3
     208:	e784      	b.n	114 <asf_enc_dec+0xf4>
     20a:	bf00      	nop
     20c:	ffff0006 	.word	0xffff0006
     210:	40000810 	.word	0x40000810
     214:	a0000010 	.word	0xa0000010
     218:	00009728 	.word	0x00009728
     21c:	000096e6 	.word	0x000096e6
     220:	0000c2de 	.word	0x0000c2de
     224:	0000f32e 	.word	0x0000f32e
     228:	0000970c 	.word	0x0000970c
     22c:	000096ae 	.word	0x000096ae
     230:	0000f2f8 	.word	0x0000f2f8
     234:	000096ff 	.word	0x000096ff
     238:	00009674 	.word	0x00009674
     23c:	000096ea 	.word	0x000096ea
     240:	00009636 	.word	0x00009636
     244:	000096db 	.word	0x000096db
     248:	00009600 	.word	0x00009600
     24c:	000096cf 	.word	0x000096cf
     250:	000095c8 	.word	0x000095c8
     254:	0000c1ba 	.word	0x0000c1ba
     258:	0000969b 	.word	0x0000969b
     25c:	00009562 	.word	0x00009562
     260:	000096ad 	.word	0x000096ad
     264:	00009542 	.word	0x00009542

00000268 <TA_CreateEntryPoint>:
     268:	2000      	movs	r0, #0
     26a:	4770      	bx	lr

0000026c <TA_DestroyEntryPoint>:
     26c:	4770      	bx	lr

0000026e <TA_OpenSessionEntryPoint>:
     26e:	b51f      	push	{r0, r1, r2, r3, r4, lr}
     270:	2800      	cmp	r0, #0
     272:	d131      	bne.n	2d8 <TA_OpenSessionEntryPoint+0x6a>
     274:	4c1b      	ldr	r4, [pc, #108]	; (2e4 <TA_OpenSessionEntryPoint+0x76>)
     276:	ab02      	add	r3, sp, #8
     278:	f04f 30ff 	mov.w	r0, #4294967295	; 0xffffffff
     27c:	491a      	ldr	r1, [pc, #104]	; (2e8 <TA_OpenSessionEntryPoint+0x7a>)
     27e:	447c      	add	r4, pc
     280:	4622      	mov	r2, r4
     282:	4479      	add	r1, pc
     284:	f003 f95c 	bl	3540 <TEE_GetPropertyAsBinaryBlock>
     288:	b910      	cbnz	r0, 290 <TA_OpenSessionEntryPoint+0x22>
     28a:	9b02      	ldr	r3, [sp, #8]
     28c:	2b20      	cmp	r3, #32
     28e:	d00d      	beq.n	2ac <TA_OpenSessionEntryPoint+0x3e>
     290:	4b16      	ldr	r3, [pc, #88]	; (2ec <TA_OpenSessionEntryPoint+0x7e>)
     292:	21c9      	movs	r1, #201	; 0xc9
     294:	4816      	ldr	r0, [pc, #88]	; (2f0 <TA_OpenSessionEntryPoint+0x82>)
     296:	447b      	add	r3, pc
     298:	4478      	add	r0, pc
     29a:	9300      	str	r3, [sp, #0]
     29c:	2301      	movs	r3, #1
     29e:	461a      	mov	r2, r3
     2a0:	300c      	adds	r0, #12
     2a2:	f000 f96b 	bl	57c <trace_printf>
     2a6:	480d      	ldr	r0, [pc, #52]	; (2dc <TA_OpenSessionEntryPoint+0x6e>)
     2a8:	b004      	add	sp, #16
     2aa:	bd10      	pop	{r4, pc}
     2ac:	4911      	ldr	r1, [pc, #68]	; (2f4 <TA_OpenSessionEntryPoint+0x86>)
     2ae:	ab03      	add	r3, sp, #12
     2b0:	f104 0220 	add.w	r2, r4, #32
     2b4:	f04f 30ff 	mov.w	r0, #4294967295	; 0xffffffff
     2b8:	4479      	add	r1, pc
     2ba:	f003 f941 	bl	3540 <TEE_GetPropertyAsBinaryBlock>
     2be:	b910      	cbnz	r0, 2c6 <TA_OpenSessionEntryPoint+0x58>
     2c0:	9b03      	ldr	r3, [sp, #12]
     2c2:	2b20      	cmp	r3, #32
     2c4:	d0f0      	beq.n	2a8 <TA_OpenSessionEntryPoint+0x3a>
     2c6:	4b0c      	ldr	r3, [pc, #48]	; (2f8 <TA_OpenSessionEntryPoint+0x8a>)
     2c8:	21d1      	movs	r1, #209	; 0xd1
     2ca:	480c      	ldr	r0, [pc, #48]	; (2fc <TA_OpenSessionEntryPoint+0x8e>)
     2cc:	447b      	add	r3, pc
     2ce:	4478      	add	r0, pc
     2d0:	9300      	str	r3, [sp, #0]
     2d2:	2301      	movs	r3, #1
     2d4:	461a      	mov	r2, r3
     2d6:	e7e3      	b.n	2a0 <TA_OpenSessionEntryPoint+0x32>
     2d8:	4801      	ldr	r0, [pc, #4]	; (2e0 <TA_OpenSessionEntryPoint+0x72>)
     2da:	e7e5      	b.n	2a8 <TA_OpenSessionEntryPoint+0x3a>
     2dc:	ffff0000 	.word	0xffff0000
     2e0:	ffff0006 	.word	0xffff0006
     2e4:	0000f126 	.word	0x0000f126
     2e8:	0000965e 	.word	0x0000965e
     2ec:	00009658 	.word	0x00009658
     2f0:	000094a8 	.word	0x000094a8
     2f4:	00009669 	.word	0x00009669
     2f8:	00009622 	.word	0x00009622
     2fc:	00009472 	.word	0x00009472

00000300 <TA_CloseSessionEntryPoint>:
     300:	4770      	bx	lr

00000302 <TA_InvokeCommandEntryPoint>:
     302:	b507      	push	{r0, r1, r2, lr}
     304:	4610      	mov	r0, r2
     306:	460a      	mov	r2, r1
     308:	b189      	cbz	r1, 32e <TA_InvokeCommandEntryPoint+0x2c>
     30a:	2901      	cmp	r1, #1
     30c:	d00f      	beq.n	32e <TA_InvokeCommandEntryPoint+0x2c>
     30e:	4b0b      	ldr	r3, [pc, #44]	; (33c <TA_InvokeCommandEntryPoint+0x3a>)
     310:	9201      	str	r2, [sp, #4]
     312:	21ea      	movs	r1, #234	; 0xea
     314:	480a      	ldr	r0, [pc, #40]	; (340 <TA_InvokeCommandEntryPoint+0x3e>)
     316:	447b      	add	r3, pc
     318:	4478      	add	r0, pc
     31a:	9300      	str	r3, [sp, #0]
     31c:	2301      	movs	r3, #1
     31e:	3025      	adds	r0, #37	; 0x25
     320:	461a      	mov	r2, r3
     322:	f000 f92b 	bl	57c <trace_printf>
     326:	4804      	ldr	r0, [pc, #16]	; (338 <TA_InvokeCommandEntryPoint+0x36>)
     328:	b003      	add	sp, #12
     32a:	f85d fb04 	ldr.w	pc, [sp], #4
     32e:	4619      	mov	r1, r3
     330:	b003      	add	sp, #12
     332:	f85d eb04 	ldr.w	lr, [sp], #4
     336:	e673      	b.n	20 <asf_enc_dec>
     338:	ffff0006 	.word	0xffff0006
     33c:	0000961c 	.word	0x0000961c
     340:	00009428 	.word	0x00009428

00000344 <__ta_entry>:
     344:	fa00237f 	blx	9148 <__ta_entry_c>

00000348 <memcpy>:
     348:	2a0f      	cmp	r2, #15
     34a:	e96d 4504 	strd	r4, r5, [sp, #-16]!
     34e:	bf98      	it	ls
     350:	4603      	movls	r3, r0
     352:	e9cd 6702 	strd	r6, r7, [sp, #8]
     356:	d944      	bls.n	3e2 <memcpy+0x9a>
     358:	ea41 0300 	orr.w	r3, r1, r0
     35c:	079b      	lsls	r3, r3, #30
     35e:	d150      	bne.n	402 <memcpy+0xba>
     360:	f100 0410 	add.w	r4, r0, #16
     364:	f101 0310 	add.w	r3, r1, #16
     368:	4615      	mov	r5, r2
     36a:	f853 6c10 	ldr.w	r6, [r3, #-16]
     36e:	f1a5 0510 	sub.w	r5, r5, #16
     372:	f103 0310 	add.w	r3, r3, #16
     376:	2d0f      	cmp	r5, #15
     378:	f104 0410 	add.w	r4, r4, #16
     37c:	f844 6c20 	str.w	r6, [r4, #-32]
     380:	f853 6c1c 	ldr.w	r6, [r3, #-28]
     384:	f844 6c1c 	str.w	r6, [r4, #-28]
     388:	f853 6c18 	ldr.w	r6, [r3, #-24]
     38c:	f844 6c18 	str.w	r6, [r4, #-24]
     390:	f853 6c14 	ldr.w	r6, [r3, #-20]
     394:	f844 6c14 	str.w	r6, [r4, #-20]
     398:	d8e7      	bhi.n	36a <memcpy+0x22>
     39a:	f1a2 0310 	sub.w	r3, r2, #16
     39e:	f002 060f 	and.w	r6, r2, #15
     3a2:	f023 030f 	bic.w	r3, r3, #15
     3a6:	2e03      	cmp	r6, #3
     3a8:	f103 0310 	add.w	r3, r3, #16
     3ac:	4419      	add	r1, r3
     3ae:	eb00 0c03 	add.w	ip, r0, r3
     3b2:	d928      	bls.n	406 <memcpy+0xbe>
     3b4:	f1ac 0704 	sub.w	r7, ip, #4
     3b8:	460d      	mov	r5, r1
     3ba:	4634      	mov	r4, r6
     3bc:	f855 3b04 	ldr.w	r3, [r5], #4
     3c0:	f1a4 0404 	sub.w	r4, r4, #4
     3c4:	2c03      	cmp	r4, #3
     3c6:	f847 3f04 	str.w	r3, [r7, #4]!
     3ca:	d8f7      	bhi.n	3bc <memcpy+0x74>
     3cc:	f1a6 0404 	sub.w	r4, r6, #4
     3d0:	f002 0203 	and.w	r2, r2, #3
     3d4:	f024 0403 	bic.w	r4, r4, #3
     3d8:	f104 0404 	add.w	r4, r4, #4
     3dc:	4421      	add	r1, r4
     3de:	eb0c 0304 	add.w	r3, ip, r4
     3e2:	b142      	cbz	r2, 3f6 <memcpy+0xae>
     3e4:	f103 33ff 	add.w	r3, r3, #4294967295	; 0xffffffff
     3e8:	440a      	add	r2, r1
     3ea:	f811 4b01 	ldrb.w	r4, [r1], #1
     3ee:	4291      	cmp	r1, r2
     3f0:	f803 4f01 	strb.w	r4, [r3, #1]!
     3f4:	d1f9      	bne.n	3ea <memcpy+0xa2>
     3f6:	e9dd 4500 	ldrd	r4, r5, [sp]
     3fa:	e9dd 6702 	ldrd	r6, r7, [sp, #8]
     3fe:	b004      	add	sp, #16
     400:	4770      	bx	lr
     402:	4603      	mov	r3, r0
     404:	e7ee      	b.n	3e4 <memcpy+0x9c>
     406:	4663      	mov	r3, ip
     408:	4632      	mov	r2, r6
     40a:	e7ea      	b.n	3e2 <memcpy+0x9a>

0000040c <trace_set_level>:
     40c:	4b04      	ldr	r3, [pc, #16]	; (420 <trace_set_level+0x14>)
     40e:	2804      	cmp	r0, #4
     410:	4a04      	ldr	r2, [pc, #16]	; (424 <trace_set_level+0x18>)
     412:	447b      	add	r3, pc
     414:	589b      	ldr	r3, [r3, r2]
     416:	bf8a      	itet	hi
     418:	2204      	movhi	r2, #4
     41a:	6018      	strls	r0, [r3, #0]
     41c:	601a      	strhi	r2, [r3, #0]
     41e:	4770      	bx	lr
     420:	0000bc6a 	.word	0x0000bc6a
     424:	00000014 	.word	0x00000014

00000428 <trace_get_level>:
     428:	4b02      	ldr	r3, [pc, #8]	; (434 <trace_get_level+0xc>)
     42a:	4a03      	ldr	r2, [pc, #12]	; (438 <trace_get_level+0x10>)
     42c:	447b      	add	r3, pc
     42e:	589b      	ldr	r3, [r3, r2]
     430:	6818      	ldr	r0, [r3, #0]
     432:	4770      	bx	lr
     434:	0000bc50 	.word	0x0000bc50
     438:	00000014 	.word	0x00000014

0000043c <trace_vprintf>:
     43c:	e92d 47f0 	stmdb	sp!, {r4, r5, r6, r7, r8, r9, sl, lr}
     440:	4607      	mov	r7, r0
     442:	f8df 9110 	ldr.w	r9, [pc, #272]	; 554 <trace_vprintf+0x118>
     446:	b0c4      	sub	sp, #272	; 0x110
     448:	4688      	mov	r8, r1
     44a:	4614      	mov	r4, r2
     44c:	469a      	mov	sl, r3
     44e:	44f9      	add	r9, pc
     450:	2b00      	cmp	r3, #0
     452:	d06b      	beq.n	52c <trace_vprintf+0xf0>
     454:	4b40      	ldr	r3, [pc, #256]	; (558 <trace_vprintf+0x11c>)
     456:	f859 3003 	ldr.w	r3, [r9, r3]
     45a:	681b      	ldr	r3, [r3, #0]
     45c:	4293      	cmp	r3, r2
     45e:	db62      	blt.n	526 <trace_vprintf+0xea>
     460:	2a04      	cmp	r2, #4
     462:	bf98      	it	ls
     464:	4613      	movls	r3, r2
     466:	4a3d      	ldr	r2, [pc, #244]	; (55c <trace_vprintf+0x120>)
     468:	bf88      	it	hi
     46a:	2300      	movhi	r3, #0
     46c:	447a      	add	r2, pc
     46e:	5cd3      	ldrb	r3, [r2, r3]
     470:	4a3b      	ldr	r2, [pc, #236]	; (560 <trace_vprintf+0x124>)
     472:	ad04      	add	r5, sp, #16
     474:	f44f 7180 	mov.w	r1, #256	; 0x100
     478:	4628      	mov	r0, r5
     47a:	447a      	add	r2, pc
     47c:	f000 f8ac 	bl	5d8 <snprintk>
     480:	1e06      	subs	r6, r0, #0
     482:	db50      	blt.n	526 <trace_vprintf+0xea>
     484:	4b37      	ldr	r3, [pc, #220]	; (564 <trace_vprintf+0x128>)
     486:	f5c6 7180 	rsb	r1, r6, #256	; 0x100
     48a:	19a8      	adds	r0, r5, r6
     48c:	4a36      	ldr	r2, [pc, #216]	; (568 <trace_vprintf+0x12c>)
     48e:	f859 3003 	ldr.w	r3, [r9, r3]
     492:	447a      	add	r2, pc
     494:	9303      	str	r3, [sp, #12]
     496:	f000 f89f 	bl	5d8 <snprintk>
     49a:	2800      	cmp	r0, #0
     49c:	db43      	blt.n	526 <trace_vprintf+0xea>
     49e:	4406      	add	r6, r0
     4a0:	f1ba 0f00 	cmp.w	sl, #0
     4a4:	d04b      	beq.n	53e <trace_vprintf+0x102>
     4a6:	231a      	movs	r3, #26
     4a8:	fa23 f404 	lsr.w	r4, r3, r4
     4ac:	07e3      	lsls	r3, r4, #31
     4ae:	d546      	bpl.n	53e <trace_vprintf+0x102>
     4b0:	f000 fc68 	bl	d84 <trace_ext_get_thread_id>
     4b4:	2800      	cmp	r0, #0
     4b6:	eb05 0406 	add.w	r4, r5, r6
     4ba:	f5c6 7980 	rsb	r9, r6, #256	; 0x100
     4be:	db37      	blt.n	530 <trace_vprintf+0xf4>
     4c0:	4a2a      	ldr	r2, [pc, #168]	; (56c <trace_vprintf+0x130>)
     4c2:	2301      	movs	r3, #1
     4c4:	9000      	str	r0, [sp, #0]
     4c6:	447a      	add	r2, pc
     4c8:	4649      	mov	r1, r9
     4ca:	4620      	mov	r0, r4
     4cc:	f000 f884 	bl	5d8 <snprintk>
     4d0:	2800      	cmp	r0, #0
     4d2:	db28      	blt.n	526 <trace_vprintf+0xea>
     4d4:	1984      	adds	r4, r0, r6
     4d6:	b167      	cbz	r7, 4f2 <trace_vprintf+0xb6>
     4d8:	4a25      	ldr	r2, [pc, #148]	; (570 <trace_vprintf+0x134>)
     4da:	463b      	mov	r3, r7
     4dc:	f5c4 7180 	rsb	r1, r4, #256	; 0x100
     4e0:	1928      	adds	r0, r5, r4
     4e2:	f8cd 8000 	str.w	r8, [sp]
     4e6:	447a      	add	r2, pc
     4e8:	f000 f876 	bl	5d8 <snprintk>
     4ec:	2800      	cmp	r0, #0
     4ee:	db1a      	blt.n	526 <trace_vprintf+0xea>
     4f0:	4404      	add	r4, r0
     4f2:	f5c4 7180 	rsb	r1, r4, #256	; 0x100
     4f6:	1928      	adds	r0, r5, r4
     4f8:	9a4c      	ldr	r2, [sp, #304]	; 0x130
     4fa:	9b4d      	ldr	r3, [sp, #308]	; 0x134
     4fc:	f000 f865 	bl	5ca <vsnprintk>
     500:	2800      	cmp	r0, #0
     502:	f04f 030a 	mov.w	r3, #10
     506:	bfc8      	it	gt
     508:	1824      	addgt	r4, r4, r0
     50a:	2cfe      	cmp	r4, #254	; 0xfe
     50c:	bf28      	it	cs
     50e:	24fe      	movcs	r4, #254	; 0xfe
     510:	552b      	strb	r3, [r5, r4]
     512:	b114      	cbz	r4, 51a <trace_vprintf+0xde>
     514:	5d2b      	ldrb	r3, [r5, r4]
     516:	2b0a      	cmp	r3, #10
     518:	d019      	beq.n	54e <trace_vprintf+0x112>
     51a:	442c      	add	r4, r5
     51c:	2300      	movs	r3, #0
     51e:	4628      	mov	r0, r5
     520:	70a3      	strb	r3, [r4, #2]
     522:	f000 fc25 	bl	d70 <trace_ext_puts>
     526:	b044      	add	sp, #272	; 0x110
     528:	e8bd 87f0 	ldmia.w	sp!, {r4, r5, r6, r7, r8, r9, sl, pc}
     52c:	234d      	movs	r3, #77	; 0x4d
     52e:	e79f      	b.n	470 <trace_vprintf+0x34>
     530:	4b10      	ldr	r3, [pc, #64]	; (574 <trace_vprintf+0x138>)
     532:	4a11      	ldr	r2, [pc, #68]	; (578 <trace_vprintf+0x13c>)
     534:	447b      	add	r3, pc
     536:	447a      	add	r2, pc
     538:	9300      	str	r3, [sp, #0]
     53a:	2301      	movs	r3, #1
     53c:	e7c4      	b.n	4c8 <trace_vprintf+0x8c>
     53e:	2efe      	cmp	r6, #254	; 0xfe
     540:	d8f1      	bhi.n	526 <trace_vprintf+0xea>
     542:	2320      	movs	r3, #32
     544:	1c74      	adds	r4, r6, #1
     546:	55ab      	strb	r3, [r5, r6]
     548:	2300      	movs	r3, #0
     54a:	552b      	strb	r3, [r5, r4]
     54c:	e7d1      	b.n	4f2 <trace_vprintf+0xb6>
     54e:	3c01      	subs	r4, #1
     550:	e7df      	b.n	512 <trace_vprintf+0xd6>
     552:	bf00      	nop
     554:	0000bc2e 	.word	0x0000bc2e
     558:	00000014 	.word	0x00000014
     55c:	00009600 	.word	0x00009600
     560:	000095f7 	.word	0x000095f7
     564:	0000001c 	.word	0x0000001c
     568:	000095e3 	.word	0x000095e3
     56c:	000095b3 	.word	0x000095b3
     570:	0000959e 	.word	0x0000959e
     574:	00009267 	.word	0x00009267
     578:	00009549 	.word	0x00009549

0000057c <trace_printf>:
     57c:	b530      	push	{r4, r5, lr}
     57e:	b085      	sub	sp, #20
     580:	ac08      	add	r4, sp, #32
     582:	f854 5b04 	ldr.w	r5, [r4], #4
     586:	9500      	str	r5, [sp, #0]
     588:	9401      	str	r4, [sp, #4]
     58a:	9403      	str	r4, [sp, #12]
     58c:	f7ff ff56 	bl	43c <trace_vprintf>
     590:	b005      	add	sp, #20
     592:	bd30      	pop	{r4, r5, pc}

00000594 <dhex_dump>:
     594:	4770      	bx	lr
     596:	bf00      	nop

00000598 <__vsnprintf>:
     598:	b57f      	push	{r0, r1, r2, r3, r4, r5, r6, lr}
     59a:	4604      	mov	r4, r0
     59c:	4610      	mov	r0, r2
     59e:	f89d 2020 	ldrb.w	r2, [sp, #32]
     5a2:	1866      	adds	r6, r4, r1
     5a4:	460d      	mov	r5, r1
     5a6:	a904      	add	r1, sp, #16
     5a8:	f841 6d04 	str.w	r6, [r1, #-4]!
     5ac:	9200      	str	r2, [sp, #0]
     5ae:	4622      	mov	r2, r4
     5b0:	f000 f81f 	bl	5f2 <kprintf.constprop.0>
     5b4:	b13c      	cbz	r4, 5c6 <__vsnprintf+0x2e>
     5b6:	b135      	cbz	r5, 5c6 <__vsnprintf+0x2e>
     5b8:	4285      	cmp	r5, r0
     5ba:	f04f 0300 	mov.w	r3, #0
     5be:	bf94      	ite	ls
     5c0:	f806 3c01 	strbls.w	r3, [r6, #-1]
     5c4:	5423      	strbhi	r3, [r4, r0]
     5c6:	b004      	add	sp, #16
     5c8:	bd70      	pop	{r4, r5, r6, pc}

000005ca <vsnprintk>:
     5ca:	b513      	push	{r0, r1, r4, lr}
     5cc:	2401      	movs	r4, #1
     5ce:	9400      	str	r4, [sp, #0]
     5d0:	f7ff ffe2 	bl	598 <__vsnprintf>
     5d4:	b002      	add	sp, #8
     5d6:	bd10      	pop	{r4, pc}

000005d8 <snprintk>:
     5d8:	b40c      	push	{r2, r3}
     5da:	b507      	push	{r0, r1, r2, lr}
     5dc:	ab04      	add	r3, sp, #16
     5de:	f853 2b04 	ldr.w	r2, [r3], #4
     5e2:	9301      	str	r3, [sp, #4]
     5e4:	f7ff fff1 	bl	5ca <vsnprintk>
     5e8:	b003      	add	sp, #12
     5ea:	f85d eb04 	ldr.w	lr, [sp], #4
     5ee:	b002      	add	sp, #8
     5f0:	4770      	bx	lr

000005f2 <kprintf.constprop.0>:
     5f2:	e92d 4ff0 	stmdb	sp!, {r4, r5, r6, r7, r8, r9, sl, fp, lr}
     5f6:	b09d      	sub	sp, #116	; 0x74
     5f8:	4690      	mov	r8, r2
     5fa:	f89d 2098 	ldrb.w	r2, [sp, #152]	; 0x98
     5fe:	461f      	mov	r7, r3
     600:	900a      	str	r0, [sp, #40]	; 0x28
     602:	910b      	str	r1, [sp, #44]	; 0x2c
     604:	9211      	str	r2, [sp, #68]	; 0x44
     606:	b189      	cbz	r1, 62c <kprintf.constprop.0+0x3a>
     608:	680b      	ldr	r3, [r1, #0]
     60a:	930e      	str	r3, [sp, #56]	; 0x38
     60c:	2300      	movs	r3, #0
     60e:	930c      	str	r3, [sp, #48]	; 0x30
     610:	930f      	str	r3, [sp, #60]	; 0x3c
     612:	9b0a      	ldr	r3, [sp, #40]	; 0x28
     614:	781b      	ldrb	r3, [r3, #0]
     616:	2b25      	cmp	r3, #37	; 0x25
     618:	d01d      	beq.n	656 <kprintf.constprop.0+0x64>
     61a:	b94b      	cbnz	r3, 630 <kprintf.constprop.0+0x3e>
     61c:	9b0b      	ldr	r3, [sp, #44]	; 0x2c
     61e:	b10b      	cbz	r3, 624 <kprintf.constprop.0+0x32>
     620:	f8c3 8000 	str.w	r8, [r3]
     624:	980c      	ldr	r0, [sp, #48]	; 0x30
     626:	b01d      	add	sp, #116	; 0x74
     628:	e8bd 8ff0 	ldmia.w	sp!, {r4, r5, r6, r7, r8, r9, sl, fp, pc}
     62c:	9b0b      	ldr	r3, [sp, #44]	; 0x2c
     62e:	e7ec      	b.n	60a <kprintf.constprop.0+0x18>
     630:	9a0c      	ldr	r2, [sp, #48]	; 0x30
     632:	3201      	adds	r2, #1
     634:	920c      	str	r2, [sp, #48]	; 0x30
     636:	f1b8 0f00 	cmp.w	r8, #0
     63a:	d008      	beq.n	64e <kprintf.constprop.0+0x5c>
     63c:	9a0b      	ldr	r2, [sp, #44]	; 0x2c
     63e:	b112      	cbz	r2, 646 <kprintf.constprop.0+0x54>
     640:	9a0e      	ldr	r2, [sp, #56]	; 0x38
     642:	4590      	cmp	r8, r2
     644:	d203      	bcs.n	64e <kprintf.constprop.0+0x5c>
     646:	f888 3000 	strb.w	r3, [r8]
     64a:	f108 0801 	add.w	r8, r8, #1
     64e:	9b0a      	ldr	r3, [sp, #40]	; 0x28
     650:	3301      	adds	r3, #1
     652:	930a      	str	r3, [sp, #40]	; 0x28
     654:	e7dd      	b.n	612 <kprintf.constprop.0+0x20>
     656:	9b0a      	ldr	r3, [sp, #40]	; 0x28
     658:	f04f 0a00 	mov.w	sl, #0
     65c:	463a      	mov	r2, r7
     65e:	f04f 3bff 	mov.w	fp, #4294967295	; 0xffffffff
     662:	4656      	mov	r6, sl
     664:	f8cd a034 	str.w	sl, [sp, #52]	; 0x34
     668:	3301      	adds	r3, #1
     66a:	f893 9000 	ldrb.w	r9, [r3]
     66e:	1c59      	adds	r1, r3, #1
     670:	910a      	str	r1, [sp, #40]	; 0x28
     672:	f1b9 0f63 	cmp.w	r9, #99	; 0x63
     676:	f000 8162 	beq.w	93e <kprintf.constprop.0+0x34c>
     67a:	dc63      	bgt.n	744 <kprintf.constprop.0+0x152>
     67c:	f1b9 0f30 	cmp.w	r9, #48	; 0x30
     680:	f000 8147 	beq.w	912 <kprintf.constprop.0+0x320>
     684:	dc26      	bgt.n	6d4 <kprintf.constprop.0+0xe2>
     686:	f1b9 0f2a 	cmp.w	r9, #42	; 0x2a
     68a:	f000 8119 	beq.w	8c0 <kprintf.constprop.0+0x2ce>
     68e:	dc13      	bgt.n	6b8 <kprintf.constprop.0+0xc6>
     690:	f1b9 0f20 	cmp.w	r9, #32
     694:	f000 810b 	beq.w	8ae <kprintf.constprop.0+0x2bc>
     698:	f1b9 0f23 	cmp.w	r9, #35	; 0x23
     69c:	f000 810d 	beq.w	8ba <kprintf.constprop.0+0x2c8>
     6a0:	f1b9 0f00 	cmp.w	r9, #0
     6a4:	d0ba      	beq.n	61c <kprintf.constprop.0+0x2a>
     6a6:	ab1c      	add	r3, sp, #112	; 0x70
     6a8:	4617      	mov	r7, r2
     6aa:	f04f 0b01 	mov.w	fp, #1
     6ae:	f803 9d28 	strb.w	r9, [r3, #-40]!
     6b2:	e08d      	b.n	7d0 <kprintf.constprop.0+0x1de>
     6b4:	461a      	mov	r2, r3
     6b6:	e00b      	b.n	6d0 <kprintf.constprop.0+0xde>
     6b8:	f1b9 0f2d 	cmp.w	r9, #45	; 0x2d
     6bc:	f000 8109 	beq.w	8d2 <kprintf.constprop.0+0x2e0>
     6c0:	f1b9 0f2e 	cmp.w	r9, #46	; 0x2e
     6c4:	f000 8108 	beq.w	8d8 <kprintf.constprop.0+0x2e6>
     6c8:	f1b9 0f2b 	cmp.w	r9, #43	; 0x2b
     6cc:	d1e8      	bne.n	6a0 <kprintf.constprop.0+0xae>
     6ce:	46ca      	mov	sl, r9
     6d0:	9b0a      	ldr	r3, [sp, #40]	; 0x28
     6d2:	e7ca      	b.n	66a <kprintf.constprop.0+0x78>
     6d4:	f1b9 0f44 	cmp.w	r9, #68	; 0x44
     6d8:	f000 818c 	beq.w	9f4 <kprintf.constprop.0+0x402>
     6dc:	dc14      	bgt.n	708 <kprintf.constprop.0+0x116>
     6de:	f1b9 0f39 	cmp.w	r9, #57	; 0x39
     6e2:	dcdd      	bgt.n	6a0 <kprintf.constprop.0+0xae>
     6e4:	2300      	movs	r3, #0
     6e6:	930d      	str	r3, [sp, #52]	; 0x34
     6e8:	9b0d      	ldr	r3, [sp, #52]	; 0x34
     6ea:	f1a9 0930 	sub.w	r9, r9, #48	; 0x30
     6ee:	210a      	movs	r1, #10
     6f0:	fb01 9303 	mla	r3, r1, r3, r9
     6f4:	930d      	str	r3, [sp, #52]	; 0x34
     6f6:	9b0a      	ldr	r3, [sp, #40]	; 0x28
     6f8:	f813 9b01 	ldrb.w	r9, [r3], #1
     6fc:	930a      	str	r3, [sp, #40]	; 0x28
     6fe:	f1a9 0330 	sub.w	r3, r9, #48	; 0x30
     702:	2b09      	cmp	r3, #9
     704:	d9f0      	bls.n	6e8 <kprintf.constprop.0+0xf6>
     706:	e7b4      	b.n	672 <kprintf.constprop.0+0x80>
     708:	f1b9 0f55 	cmp.w	r9, #85	; 0x55
     70c:	f000 823d 	beq.w	b8a <kprintf.constprop.0+0x598>
     710:	f1b9 0f58 	cmp.w	r9, #88	; 0x58
     714:	d079      	beq.n	80a <kprintf.constprop.0+0x218>
     716:	f1b9 0f4f 	cmp.w	r9, #79	; 0x4f
     71a:	d1c1      	bne.n	6a0 <kprintf.constprop.0+0xae>
     71c:	f046 0610 	orr.w	r6, r6, #16
     720:	0635      	lsls	r5, r6, #24
     722:	f140 81c3 	bpl.w	aac <kprintf.constprop.0+0x4ba>
     726:	3207      	adds	r2, #7
     728:	f022 0207 	bic.w	r2, r2, #7
     72c:	e9d2 4500 	ldrd	r4, r5, [r2]
     730:	f102 0708 	add.w	r7, r2, #8
     734:	f1bb 3fff 	cmp.w	fp, #4294967295	; 0xffffffff
     738:	f04f 0a00 	mov.w	sl, #0
     73c:	f000 8095 	beq.w	86a <kprintf.constprop.0+0x278>
     740:	4653      	mov	r3, sl
     742:	e081      	b.n	848 <kprintf.constprop.0+0x256>
     744:	f1b9 0f6f 	cmp.w	r9, #111	; 0x6f
     748:	d0ea      	beq.n	720 <kprintf.constprop.0+0x12e>
     74a:	dc1c      	bgt.n	786 <kprintf.constprop.0+0x194>
     74c:	f1b9 0f69 	cmp.w	r9, #105	; 0x69
     750:	f000 8152 	beq.w	9f8 <kprintf.constprop.0+0x406>
     754:	dc09      	bgt.n	76a <kprintf.constprop.0+0x178>
     756:	f1b9 0f64 	cmp.w	r9, #100	; 0x64
     75a:	f000 814d 	beq.w	9f8 <kprintf.constprop.0+0x406>
     75e:	f1b9 0f68 	cmp.w	r9, #104	; 0x68
     762:	d19d      	bne.n	6a0 <kprintf.constprop.0+0xae>
     764:	f046 0640 	orr.w	r6, r6, #64	; 0x40
     768:	e7b2      	b.n	6d0 <kprintf.constprop.0+0xde>
     76a:	f1b9 0f6c 	cmp.w	r9, #108	; 0x6c
     76e:	f000 80d3 	beq.w	918 <kprintf.constprop.0+0x326>
     772:	f1b9 0f6e 	cmp.w	r9, #110	; 0x6e
     776:	f000 817a 	beq.w	a6e <kprintf.constprop.0+0x47c>
     77a:	f1b9 0f6a 	cmp.w	r9, #106	; 0x6a
     77e:	d18f      	bne.n	6a0 <kprintf.constprop.0+0xae>
     780:	f046 0680 	orr.w	r6, r6, #128	; 0x80
     784:	e7a4      	b.n	6d0 <kprintf.constprop.0+0xde>
     786:	f1b9 0f74 	cmp.w	r9, #116	; 0x74
     78a:	f000 80d2 	beq.w	932 <kprintf.constprop.0+0x340>
     78e:	dc22      	bgt.n	7d6 <kprintf.constprop.0+0x1e4>
     790:	f1b9 0f71 	cmp.w	r9, #113	; 0x71
     794:	f000 80c7 	beq.w	926 <kprintf.constprop.0+0x334>
     798:	f2c0 819c 	blt.w	ad4 <kprintf.constprop.0+0x4e2>
     79c:	f1b9 0f73 	cmp.w	r9, #115	; 0x73
     7a0:	f47f af7e 	bne.w	6a0 <kprintf.constprop.0+0xae>
     7a4:	6813      	ldr	r3, [r2, #0]
     7a6:	1d17      	adds	r7, r2, #4
     7a8:	b913      	cbnz	r3, 7b0 <kprintf.constprop.0+0x1be>
     7aa:	f8df 3568 	ldr.w	r3, [pc, #1384]	; d14 <kprintf.constprop.0+0x722>
     7ae:	447b      	add	r3, pc
     7b0:	f1bb 3fff 	cmp.w	fp, #4294967295	; 0xffffffff
     7b4:	f000 81e0 	beq.w	b78 <kprintf.constprop.0+0x586>
     7b8:	4618      	mov	r0, r3
     7ba:	465a      	mov	r2, fp
     7bc:	9310      	str	r3, [sp, #64]	; 0x40
     7be:	2100      	movs	r1, #0
     7c0:	f008 fcd4 	bl	916c <memchr>
     7c4:	9b10      	ldr	r3, [sp, #64]	; 0x40
     7c6:	b120      	cbz	r0, 7d2 <kprintf.constprop.0+0x1e0>
     7c8:	1ac0      	subs	r0, r0, r3
     7ca:	4583      	cmp	fp, r0
     7cc:	bfa8      	it	ge
     7ce:	4683      	movge	fp, r0
     7d0:	2000      	movs	r0, #0
     7d2:	4682      	mov	sl, r0
     7d4:	e0bd      	b.n	952 <kprintf.constprop.0+0x360>
     7d6:	f1b9 0f78 	cmp.w	r9, #120	; 0x78
     7da:	f000 81f5 	beq.w	bc8 <kprintf.constprop.0+0x5d6>
     7de:	f1b9 0f7a 	cmp.w	r9, #122	; 0x7a
     7e2:	f000 80a9 	beq.w	938 <kprintf.constprop.0+0x346>
     7e6:	f1b9 0f75 	cmp.w	r9, #117	; 0x75
     7ea:	f47f af59 	bne.w	6a0 <kprintf.constprop.0+0xae>
     7ee:	f016 0380 	ands.w	r3, r6, #128	; 0x80
     7f2:	f000 81cd 	beq.w	b90 <kprintf.constprop.0+0x59e>
     7f6:	3207      	adds	r2, #7
     7f8:	f022 0207 	bic.w	r2, r2, #7
     7fc:	e9d2 4500 	ldrd	r4, r5, [r2]
     800:	f102 0708 	add.w	r7, r2, #8
     804:	f04f 0a00 	mov.w	sl, #0
     808:	e108      	b.n	a1c <kprintf.constprop.0+0x42a>
     80a:	f8df 350c 	ldr.w	r3, [pc, #1292]	; d18 <kprintf.constprop.0+0x726>
     80e:	447b      	add	r3, pc
     810:	f016 0f80 	tst.w	r6, #128	; 0x80
     814:	930f      	str	r3, [sp, #60]	; 0x3c
     816:	f000 81db 	beq.w	bd0 <kprintf.constprop.0+0x5de>
     81a:	3207      	adds	r2, #7
     81c:	f022 0207 	bic.w	r2, r2, #7
     820:	e9d2 4500 	ldrd	r4, r5, [r2]
     824:	f102 0708 	add.w	r7, r2, #8
     828:	07f3      	lsls	r3, r6, #31
     82a:	f140 818d 	bpl.w	b48 <kprintf.constprop.0+0x556>
     82e:	ea54 0305 	orrs.w	r3, r4, r5
     832:	f000 8269 	beq.w	d08 <kprintf.constprop.0+0x716>
     836:	f1bb 3fff 	cmp.w	fp, #4294967295	; 0xffffffff
     83a:	f046 0602 	orr.w	r6, r6, #2
     83e:	f000 8266 	beq.w	d0e <kprintf.constprop.0+0x71c>
     842:	f04f 0a00 	mov.w	sl, #0
     846:	2302      	movs	r3, #2
     848:	ea54 0205 	orrs.w	r2, r4, r5
     84c:	f426 6680 	bic.w	r6, r6, #1024	; 0x400
     850:	d105      	bne.n	85e <kprintf.constprop.0+0x26c>
     852:	f1bb 0f00 	cmp.w	fp, #0
     856:	f000 81e6 	beq.w	c26 <kprintf.constprop.0+0x634>
     85a:	2400      	movs	r4, #0
     85c:	2500      	movs	r5, #0
     85e:	2b01      	cmp	r3, #1
     860:	f000 80e0 	beq.w	a24 <kprintf.constprop.0+0x432>
     864:	2b02      	cmp	r3, #2
     866:	f000 8175 	beq.w	b54 <kprintf.constprop.0+0x562>
     86a:	f10d 026d 	add.w	r2, sp, #109	; 0x6d
     86e:	08e0      	lsrs	r0, r4, #3
     870:	ea4f 0cd5 	mov.w	ip, r5, lsr #3
     874:	ea40 7045 	orr.w	r0, r0, r5, lsl #29
     878:	f004 0107 	and.w	r1, r4, #7
     87c:	4665      	mov	r5, ip
     87e:	4604      	mov	r4, r0
     880:	3130      	adds	r1, #48	; 0x30
     882:	ea54 0005 	orrs.w	r0, r4, r5
     886:	f102 33ff 	add.w	r3, r2, #4294967295	; 0xffffffff
     88a:	f802 1c01 	strb.w	r1, [r2, #-1]
     88e:	f040 81b5 	bne.w	bfc <kprintf.constprop.0+0x60a>
     892:	07f5      	lsls	r5, r6, #31
     894:	d505      	bpl.n	8a2 <kprintf.constprop.0+0x2b0>
     896:	2930      	cmp	r1, #48	; 0x30
     898:	d003      	beq.n	8a2 <kprintf.constprop.0+0x2b0>
     89a:	2130      	movs	r1, #48	; 0x30
     89c:	f803 1c01 	strb.w	r1, [r3, #-1]
     8a0:	1e93      	subs	r3, r2, #2
     8a2:	f10d 026d 	add.w	r2, sp, #109	; 0x6d
     8a6:	4658      	mov	r0, fp
     8a8:	eba2 0b03 	sub.w	fp, r2, r3
     8ac:	e051      	b.n	952 <kprintf.constprop.0+0x360>
     8ae:	f1ba 0f00 	cmp.w	sl, #0
     8b2:	bf08      	it	eq
     8b4:	f04f 0a20 	moveq.w	sl, #32
     8b8:	e70a      	b.n	6d0 <kprintf.constprop.0+0xde>
     8ba:	f046 0601 	orr.w	r6, r6, #1
     8be:	e707      	b.n	6d0 <kprintf.constprop.0+0xde>
     8c0:	1d13      	adds	r3, r2, #4
     8c2:	6812      	ldr	r2, [r2, #0]
     8c4:	2a00      	cmp	r2, #0
     8c6:	920d      	str	r2, [sp, #52]	; 0x34
     8c8:	f6bf aef4 	bge.w	6b4 <kprintf.constprop.0+0xc2>
     8cc:	4252      	negs	r2, r2
     8ce:	920d      	str	r2, [sp, #52]	; 0x34
     8d0:	461a      	mov	r2, r3
     8d2:	f046 0604 	orr.w	r6, r6, #4
     8d6:	e6fb      	b.n	6d0 <kprintf.constprop.0+0xde>
     8d8:	990a      	ldr	r1, [sp, #40]	; 0x28
     8da:	9b0a      	ldr	r3, [sp, #40]	; 0x28
     8dc:	f891 9000 	ldrb.w	r9, [r1]
     8e0:	3301      	adds	r3, #1
     8e2:	f1b9 0f2a 	cmp.w	r9, #42	; 0x2a
     8e6:	d00e      	beq.n	906 <kprintf.constprop.0+0x314>
     8e8:	f04f 0b00 	mov.w	fp, #0
     8ec:	930a      	str	r3, [sp, #40]	; 0x28
     8ee:	f1a9 0330 	sub.w	r3, r9, #48	; 0x30
     8f2:	2b09      	cmp	r3, #9
     8f4:	f63f aebd 	bhi.w	672 <kprintf.constprop.0+0x80>
     8f8:	210a      	movs	r1, #10
     8fa:	fb01 3b0b 	mla	fp, r1, fp, r3
     8fe:	9b0a      	ldr	r3, [sp, #40]	; 0x28
     900:	f813 9b01 	ldrb.w	r9, [r3], #1
     904:	e7f2      	b.n	8ec <kprintf.constprop.0+0x2fa>
     906:	6811      	ldr	r1, [r2, #0]
     908:	930a      	str	r3, [sp, #40]	; 0x28
     90a:	3204      	adds	r2, #4
     90c:	ea41 7be1 	orr.w	fp, r1, r1, asr #31
     910:	e6de      	b.n	6d0 <kprintf.constprop.0+0xde>
     912:	f446 6680 	orr.w	r6, r6, #1024	; 0x400
     916:	e6db      	b.n	6d0 <kprintf.constprop.0+0xde>
     918:	9b0a      	ldr	r3, [sp, #40]	; 0x28
     91a:	781b      	ldrb	r3, [r3, #0]
     91c:	2b6c      	cmp	r3, #108	; 0x6c
     91e:	d105      	bne.n	92c <kprintf.constprop.0+0x33a>
     920:	9b0a      	ldr	r3, [sp, #40]	; 0x28
     922:	3301      	adds	r3, #1
     924:	930a      	str	r3, [sp, #40]	; 0x28
     926:	f046 0620 	orr.w	r6, r6, #32
     92a:	e6d1      	b.n	6d0 <kprintf.constprop.0+0xde>
     92c:	f046 0610 	orr.w	r6, r6, #16
     930:	e6ce      	b.n	6d0 <kprintf.constprop.0+0xde>
     932:	f446 7680 	orr.w	r6, r6, #256	; 0x100
     936:	e6cb      	b.n	6d0 <kprintf.constprop.0+0xde>
     938:	f446 7600 	orr.w	r6, r6, #512	; 0x200
     93c:	e6c8      	b.n	6d0 <kprintf.constprop.0+0xde>
     93e:	1d17      	adds	r7, r2, #4
     940:	6812      	ldr	r2, [r2, #0]
     942:	f04f 0a00 	mov.w	sl, #0
     946:	ab1c      	add	r3, sp, #112	; 0x70
     948:	f04f 0b01 	mov.w	fp, #1
     94c:	4650      	mov	r0, sl
     94e:	f803 2d28 	strb.w	r2, [r3, #-40]!
     952:	4558      	cmp	r0, fp
     954:	4602      	mov	r2, r0
     956:	bfb8      	it	lt
     958:	465a      	movlt	r2, fp
     95a:	f1ba 0f00 	cmp.w	sl, #0
     95e:	f000 8165 	beq.w	c2c <kprintf.constprop.0+0x63a>
     962:	3201      	adds	r2, #1
     964:	990c      	ldr	r1, [sp, #48]	; 0x30
     966:	9c0d      	ldr	r4, [sp, #52]	; 0x34
     968:	4294      	cmp	r4, r2
     96a:	bfac      	ite	ge
     96c:	1909      	addge	r1, r1, r4
     96e:	1889      	addlt	r1, r1, r2
     970:	910c      	str	r1, [sp, #48]	; 0x30
     972:	f240 4104 	movw	r1, #1028	; 0x404
     976:	ea16 0401 	ands.w	r4, r6, r1
     97a:	d106      	bne.n	98a <kprintf.constprop.0+0x398>
     97c:	990d      	ldr	r1, [sp, #52]	; 0x34
     97e:	f04f 0c20 	mov.w	ip, #32
     982:	1a89      	subs	r1, r1, r2
     984:	2900      	cmp	r1, #0
     986:	f300 8155 	bgt.w	c34 <kprintf.constprop.0+0x642>
     98a:	f1ba 0f00 	cmp.w	sl, #0
     98e:	f000 816a 	beq.w	c66 <kprintf.constprop.0+0x674>
     992:	f1b8 0f00 	cmp.w	r8, #0
     996:	f040 815b 	bne.w	c50 <kprintf.constprop.0+0x65e>
     99a:	f04f 0800 	mov.w	r8, #0
     99e:	f5b4 6f80 	cmp.w	r4, #1024	; 0x400
     9a2:	d105      	bne.n	9b0 <kprintf.constprop.0+0x3be>
     9a4:	990d      	ldr	r1, [sp, #52]	; 0x34
     9a6:	2430      	movs	r4, #48	; 0x30
     9a8:	1a89      	subs	r1, r1, r2
     9aa:	2900      	cmp	r1, #0
     9ac:	f300 817b 	bgt.w	ca6 <kprintf.constprop.0+0x6b4>
     9b0:	eba0 000b 	sub.w	r0, r0, fp
     9b4:	2130      	movs	r1, #48	; 0x30
     9b6:	2800      	cmp	r0, #0
     9b8:	f300 8183 	bgt.w	cc2 <kprintf.constprop.0+0x6d0>
     9bc:	eb03 010b 	add.w	r1, r3, fp
     9c0:	428b      	cmp	r3, r1
     9c2:	f040 818c 	bne.w	cde <kprintf.constprop.0+0x6ec>
     9c6:	0773      	lsls	r3, r6, #29
     9c8:	f57f ae23 	bpl.w	612 <kprintf.constprop.0+0x20>
     9cc:	9b0d      	ldr	r3, [sp, #52]	; 0x34
     9ce:	1a9b      	subs	r3, r3, r2
     9d0:	2220      	movs	r2, #32
     9d2:	2b00      	cmp	r3, #0
     9d4:	f77f ae1d 	ble.w	612 <kprintf.constprop.0+0x20>
     9d8:	f1b8 0f00 	cmp.w	r8, #0
     9dc:	d008      	beq.n	9f0 <kprintf.constprop.0+0x3fe>
     9de:	990b      	ldr	r1, [sp, #44]	; 0x2c
     9e0:	b111      	cbz	r1, 9e8 <kprintf.constprop.0+0x3f6>
     9e2:	990e      	ldr	r1, [sp, #56]	; 0x38
     9e4:	4541      	cmp	r1, r8
     9e6:	d903      	bls.n	9f0 <kprintf.constprop.0+0x3fe>
     9e8:	f888 2000 	strb.w	r2, [r8]
     9ec:	f108 0801 	add.w	r8, r8, #1
     9f0:	3b01      	subs	r3, #1
     9f2:	e7ee      	b.n	9d2 <kprintf.constprop.0+0x3e0>
     9f4:	f046 0610 	orr.w	r6, r6, #16
     9f8:	0631      	lsls	r1, r6, #24
     9fa:	d523      	bpl.n	a44 <kprintf.constprop.0+0x452>
     9fc:	3207      	adds	r2, #7
     9fe:	f022 0207 	bic.w	r2, r2, #7
     a02:	e9d2 4500 	ldrd	r4, r5, [r2]
     a06:	f102 0708 	add.w	r7, r2, #8
     a0a:	2c00      	cmp	r4, #0
     a0c:	f175 0300 	sbcs.w	r3, r5, #0
     a10:	da04      	bge.n	a1c <kprintf.constprop.0+0x42a>
     a12:	4264      	negs	r4, r4
     a14:	f04f 0a2d 	mov.w	sl, #45	; 0x2d
     a18:	eb65 0545 	sbc.w	r5, r5, r5, lsl #1
     a1c:	f1bb 3fff 	cmp.w	fp, #4294967295	; 0xffffffff
     a20:	f040 80ea 	bne.w	bf8 <kprintf.constprop.0+0x606>
     a24:	f10d 036d 	add.w	r3, sp, #109	; 0x6d
     a28:	9310      	str	r3, [sp, #64]	; 0x40
     a2a:	9b10      	ldr	r3, [sp, #64]	; 0x40
     a2c:	2d00      	cmp	r5, #0
     a2e:	bf08      	it	eq
     a30:	2c0a      	cmpeq	r4, #10
     a32:	f103 33ff 	add.w	r3, r3, #4294967295	; 0xffffffff
     a36:	f080 80e3 	bcs.w	c00 <kprintf.constprop.0+0x60e>
     a3a:	9a10      	ldr	r2, [sp, #64]	; 0x40
     a3c:	3430      	adds	r4, #48	; 0x30
     a3e:	f802 4c01 	strb.w	r4, [r2, #-1]
     a42:	e72e      	b.n	8a2 <kprintf.constprop.0+0x2b0>
     a44:	05f3      	lsls	r3, r6, #23
     a46:	d503      	bpl.n	a50 <kprintf.constprop.0+0x45e>
     a48:	1d17      	adds	r7, r2, #4
     a4a:	6814      	ldr	r4, [r2, #0]
     a4c:	17e5      	asrs	r5, r4, #31
     a4e:	e7dc      	b.n	a0a <kprintf.constprop.0+0x418>
     a50:	05b7      	lsls	r7, r6, #22
     a52:	d4f9      	bmi.n	a48 <kprintf.constprop.0+0x456>
     a54:	06b5      	lsls	r5, r6, #26
     a56:	d4d1      	bmi.n	9fc <kprintf.constprop.0+0x40a>
     a58:	f016 0f10 	tst.w	r6, #16
     a5c:	f102 0704 	add.w	r7, r2, #4
     a60:	d1f3      	bne.n	a4a <kprintf.constprop.0+0x458>
     a62:	6814      	ldr	r4, [r2, #0]
     a64:	f016 0f40 	tst.w	r6, #64	; 0x40
     a68:	bf18      	it	ne
     a6a:	b224      	sxthne	r4, r4
     a6c:	e7ee      	b.n	a4c <kprintf.constprop.0+0x45a>
     a6e:	f016 0f80 	tst.w	r6, #128	; 0x80
     a72:	f102 0704 	add.w	r7, r2, #4
     a76:	d006      	beq.n	a86 <kprintf.constprop.0+0x494>
     a78:	6813      	ldr	r3, [r2, #0]
     a7a:	9a0c      	ldr	r2, [sp, #48]	; 0x30
     a7c:	17d1      	asrs	r1, r2, #31
     a7e:	4610      	mov	r0, r2
     a80:	e9c3 0100 	strd	r0, r1, [r3]
     a84:	e5c5      	b.n	612 <kprintf.constprop.0+0x20>
     a86:	05f4      	lsls	r4, r6, #23
     a88:	d503      	bpl.n	a92 <kprintf.constprop.0+0x4a0>
     a8a:	6813      	ldr	r3, [r2, #0]
     a8c:	9a0c      	ldr	r2, [sp, #48]	; 0x30
     a8e:	601a      	str	r2, [r3, #0]
     a90:	e5bf      	b.n	612 <kprintf.constprop.0+0x20>
     a92:	05b0      	lsls	r0, r6, #22
     a94:	d4f9      	bmi.n	a8a <kprintf.constprop.0+0x498>
     a96:	06b1      	lsls	r1, r6, #26
     a98:	d4ee      	bmi.n	a78 <kprintf.constprop.0+0x486>
     a9a:	06f3      	lsls	r3, r6, #27
     a9c:	d4f5      	bmi.n	a8a <kprintf.constprop.0+0x498>
     a9e:	0676      	lsls	r6, r6, #25
     aa0:	d5f3      	bpl.n	a8a <kprintf.constprop.0+0x498>
     aa2:	6813      	ldr	r3, [r2, #0]
     aa4:	f8bd 2030 	ldrh.w	r2, [sp, #48]	; 0x30
     aa8:	801a      	strh	r2, [r3, #0]
     aaa:	e5b2      	b.n	612 <kprintf.constprop.0+0x20>
     aac:	05f4      	lsls	r4, r6, #23
     aae:	d502      	bpl.n	ab6 <kprintf.constprop.0+0x4c4>
     ab0:	1d17      	adds	r7, r2, #4
     ab2:	6814      	ldr	r4, [r2, #0]
     ab4:	e00c      	b.n	ad0 <kprintf.constprop.0+0x4de>
     ab6:	05b0      	lsls	r0, r6, #22
     ab8:	d4fa      	bmi.n	ab0 <kprintf.constprop.0+0x4be>
     aba:	06b1      	lsls	r1, r6, #26
     abc:	f53f ae33 	bmi.w	726 <kprintf.constprop.0+0x134>
     ac0:	f016 0f10 	tst.w	r6, #16
     ac4:	f102 0704 	add.w	r7, r2, #4
     ac8:	d1f3      	bne.n	ab2 <kprintf.constprop.0+0x4c0>
     aca:	0673      	lsls	r3, r6, #25
     acc:	d5f1      	bpl.n	ab2 <kprintf.constprop.0+0x4c0>
     ace:	8814      	ldrh	r4, [r2, #0]
     ad0:	2500      	movs	r5, #0
     ad2:	e62f      	b.n	734 <kprintf.constprop.0+0x142>
     ad4:	9b11      	ldr	r3, [sp, #68]	; 0x44
     ad6:	1d17      	adds	r7, r2, #4
     ad8:	6814      	ldr	r4, [r2, #0]
     ada:	2b00      	cmp	r3, #0
     adc:	d02b      	beq.n	b36 <kprintf.constprop.0+0x544>
     ade:	9b0a      	ldr	r3, [sp, #40]	; 0x28
     ae0:	781b      	ldrb	r3, [r3, #0]
     ae2:	2b55      	cmp	r3, #85	; 0x55
     ae4:	d127      	bne.n	b36 <kprintf.constprop.0+0x544>
     ae6:	9b0a      	ldr	r3, [sp, #40]	; 0x28
     ae8:	785b      	ldrb	r3, [r3, #1]
     aea:	2b6c      	cmp	r3, #108	; 0x6c
     aec:	d123      	bne.n	b36 <kprintf.constprop.0+0x544>
     aee:	9b0a      	ldr	r3, [sp, #40]	; 0x28
     af0:	2125      	movs	r1, #37	; 0x25
     af2:	4a8a      	ldr	r2, [pc, #552]	; (d1c <kprintf.constprop.0+0x72a>)
     af4:	3302      	adds	r3, #2
     af6:	447a      	add	r2, pc
     af8:	930a      	str	r3, [sp, #40]	; 0x28
     afa:	7be3      	ldrb	r3, [r4, #15]
     afc:	9309      	str	r3, [sp, #36]	; 0x24
     afe:	7ba3      	ldrb	r3, [r4, #14]
     b00:	9308      	str	r3, [sp, #32]
     b02:	7b63      	ldrb	r3, [r4, #13]
     b04:	9307      	str	r3, [sp, #28]
     b06:	7b23      	ldrb	r3, [r4, #12]
     b08:	9306      	str	r3, [sp, #24]
     b0a:	7ae3      	ldrb	r3, [r4, #11]
     b0c:	9305      	str	r3, [sp, #20]
     b0e:	7aa3      	ldrb	r3, [r4, #10]
     b10:	9304      	str	r3, [sp, #16]
     b12:	7a63      	ldrb	r3, [r4, #9]
     b14:	9303      	str	r3, [sp, #12]
     b16:	7a23      	ldrb	r3, [r4, #8]
     b18:	9302      	str	r3, [sp, #8]
     b1a:	88e3      	ldrh	r3, [r4, #6]
     b1c:	9301      	str	r3, [sp, #4]
     b1e:	88a3      	ldrh	r3, [r4, #4]
     b20:	9300      	str	r3, [sp, #0]
     b22:	6823      	ldr	r3, [r4, #0]
     b24:	ac12      	add	r4, sp, #72	; 0x48
     b26:	4620      	mov	r0, r4
     b28:	f7ff fd56 	bl	5d8 <snprintk>
     b2c:	4683      	mov	fp, r0
     b2e:	2000      	movs	r0, #0
     b30:	4682      	mov	sl, r0
     b32:	4623      	mov	r3, r4
     b34:	e70d      	b.n	952 <kprintf.constprop.0+0x360>
     b36:	4b7a      	ldr	r3, [pc, #488]	; (d20 <kprintf.constprop.0+0x72e>)
     b38:	2500      	movs	r5, #0
     b3a:	f046 0602 	orr.w	r6, r6, #2
     b3e:	f04f 0978 	mov.w	r9, #120	; 0x78
     b42:	447b      	add	r3, pc
     b44:	3311      	adds	r3, #17
     b46:	930f      	str	r3, [sp, #60]	; 0x3c
     b48:	f1bb 3fff 	cmp.w	fp, #4294967295	; 0xffffffff
     b4c:	f47f ae79 	bne.w	842 <kprintf.constprop.0+0x250>
     b50:	f04f 0a00 	mov.w	sl, #0
     b54:	f10d 036d 	add.w	r3, sp, #109	; 0x6d
     b58:	990f      	ldr	r1, [sp, #60]	; 0x3c
     b5a:	f004 020f 	and.w	r2, r4, #15
     b5e:	5c8a      	ldrb	r2, [r1, r2]
     b60:	0929      	lsrs	r1, r5, #4
     b62:	f803 2d01 	strb.w	r2, [r3, #-1]!
     b66:	0922      	lsrs	r2, r4, #4
     b68:	ea42 7205 	orr.w	r2, r2, r5, lsl #28
     b6c:	460d      	mov	r5, r1
     b6e:	4614      	mov	r4, r2
     b70:	ea54 0205 	orrs.w	r2, r4, r5
     b74:	d1f0      	bne.n	b58 <kprintf.constprop.0+0x566>
     b76:	e694      	b.n	8a2 <kprintf.constprop.0+0x2b0>
     b78:	4618      	mov	r0, r3
     b7a:	9310      	str	r3, [sp, #64]	; 0x40
     b7c:	f008 fb04 	bl	9188 <strlen>
     b80:	4683      	mov	fp, r0
     b82:	2000      	movs	r0, #0
     b84:	9b10      	ldr	r3, [sp, #64]	; 0x40
     b86:	4682      	mov	sl, r0
     b88:	e6e3      	b.n	952 <kprintf.constprop.0+0x360>
     b8a:	f046 0610 	orr.w	r6, r6, #16
     b8e:	e62e      	b.n	7ee <kprintf.constprop.0+0x1fc>
     b90:	f416 7a80 	ands.w	sl, r6, #256	; 0x100
     b94:	d003      	beq.n	b9e <kprintf.constprop.0+0x5ac>
     b96:	6814      	ldr	r4, [r2, #0]
     b98:	1d17      	adds	r7, r2, #4
     b9a:	2500      	movs	r5, #0
     b9c:	e632      	b.n	804 <kprintf.constprop.0+0x212>
     b9e:	f416 7300 	ands.w	r3, r6, #512	; 0x200
     ba2:	d003      	beq.n	bac <kprintf.constprop.0+0x5ba>
     ba4:	1d17      	adds	r7, r2, #4
     ba6:	2500      	movs	r5, #0
     ba8:	6814      	ldr	r4, [r2, #0]
     baa:	e737      	b.n	a1c <kprintf.constprop.0+0x42a>
     bac:	f016 0a20 	ands.w	sl, r6, #32
     bb0:	f47f ae21 	bne.w	7f6 <kprintf.constprop.0+0x204>
     bb4:	f016 0310 	ands.w	r3, r6, #16
     bb8:	f102 0704 	add.w	r7, r2, #4
     bbc:	d1f3      	bne.n	ba6 <kprintf.constprop.0+0x5b4>
     bbe:	f016 0a40 	ands.w	sl, r6, #64	; 0x40
     bc2:	d0f0      	beq.n	ba6 <kprintf.constprop.0+0x5b4>
     bc4:	8814      	ldrh	r4, [r2, #0]
     bc6:	e7e8      	b.n	b9a <kprintf.constprop.0+0x5a8>
     bc8:	4b56      	ldr	r3, [pc, #344]	; (d24 <kprintf.constprop.0+0x732>)
     bca:	447b      	add	r3, pc
     bcc:	3311      	adds	r3, #17
     bce:	e61f      	b.n	810 <kprintf.constprop.0+0x21e>
     bd0:	05f5      	lsls	r5, r6, #23
     bd2:	d502      	bpl.n	bda <kprintf.constprop.0+0x5e8>
     bd4:	1d17      	adds	r7, r2, #4
     bd6:	6814      	ldr	r4, [r2, #0]
     bd8:	e00c      	b.n	bf4 <kprintf.constprop.0+0x602>
     bda:	05b4      	lsls	r4, r6, #22
     bdc:	d4fa      	bmi.n	bd4 <kprintf.constprop.0+0x5e2>
     bde:	06b0      	lsls	r0, r6, #26
     be0:	f53f ae1b 	bmi.w	81a <kprintf.constprop.0+0x228>
     be4:	f016 0f10 	tst.w	r6, #16
     be8:	f102 0704 	add.w	r7, r2, #4
     bec:	d1f3      	bne.n	bd6 <kprintf.constprop.0+0x5e4>
     bee:	0671      	lsls	r1, r6, #25
     bf0:	d5f1      	bpl.n	bd6 <kprintf.constprop.0+0x5e4>
     bf2:	8814      	ldrh	r4, [r2, #0]
     bf4:	2500      	movs	r5, #0
     bf6:	e617      	b.n	828 <kprintf.constprop.0+0x236>
     bf8:	2301      	movs	r3, #1
     bfa:	e625      	b.n	848 <kprintf.constprop.0+0x256>
     bfc:	461a      	mov	r2, r3
     bfe:	e636      	b.n	86e <kprintf.constprop.0+0x27c>
     c00:	4620      	mov	r0, r4
     c02:	4629      	mov	r1, r5
     c04:	9310      	str	r3, [sp, #64]	; 0x40
     c06:	220a      	movs	r2, #10
     c08:	2300      	movs	r3, #0
     c0a:	f000 e8a6 	blx	d58 <__aeabi_uldivmod>
     c0e:	9b10      	ldr	r3, [sp, #64]	; 0x40
     c10:	3230      	adds	r2, #48	; 0x30
     c12:	4620      	mov	r0, r4
     c14:	4629      	mov	r1, r5
     c16:	701a      	strb	r2, [r3, #0]
     c18:	220a      	movs	r2, #10
     c1a:	2300      	movs	r3, #0
     c1c:	f000 e89c 	blx	d58 <__aeabi_uldivmod>
     c20:	4604      	mov	r4, r0
     c22:	460d      	mov	r5, r1
     c24:	e701      	b.n	a2a <kprintf.constprop.0+0x438>
     c26:	f10d 036d 	add.w	r3, sp, #109	; 0x6d
     c2a:	e63a      	b.n	8a2 <kprintf.constprop.0+0x2b0>
     c2c:	07b4      	lsls	r4, r6, #30
     c2e:	bf48      	it	mi
     c30:	3202      	addmi	r2, #2
     c32:	e697      	b.n	964 <kprintf.constprop.0+0x372>
     c34:	f1b8 0f00 	cmp.w	r8, #0
     c38:	d008      	beq.n	c4c <kprintf.constprop.0+0x65a>
     c3a:	9d0b      	ldr	r5, [sp, #44]	; 0x2c
     c3c:	b115      	cbz	r5, c44 <kprintf.constprop.0+0x652>
     c3e:	9d0e      	ldr	r5, [sp, #56]	; 0x38
     c40:	4545      	cmp	r5, r8
     c42:	d903      	bls.n	c4c <kprintf.constprop.0+0x65a>
     c44:	f888 c000 	strb.w	ip, [r8]
     c48:	f108 0801 	add.w	r8, r8, #1
     c4c:	3901      	subs	r1, #1
     c4e:	e699      	b.n	984 <kprintf.constprop.0+0x392>
     c50:	990b      	ldr	r1, [sp, #44]	; 0x2c
     c52:	b119      	cbz	r1, c5c <kprintf.constprop.0+0x66a>
     c54:	990e      	ldr	r1, [sp, #56]	; 0x38
     c56:	4541      	cmp	r1, r8
     c58:	f67f aea1 	bls.w	99e <kprintf.constprop.0+0x3ac>
     c5c:	f888 a000 	strb.w	sl, [r8]
     c60:	f108 0801 	add.w	r8, r8, #1
     c64:	e69b      	b.n	99e <kprintf.constprop.0+0x3ac>
     c66:	07b1      	lsls	r1, r6, #30
     c68:	f57f ae99 	bpl.w	99e <kprintf.constprop.0+0x3ac>
     c6c:	f1b8 0f00 	cmp.w	r8, #0
     c70:	f43f ae93 	beq.w	99a <kprintf.constprop.0+0x3a8>
     c74:	990b      	ldr	r1, [sp, #44]	; 0x2c
     c76:	b119      	cbz	r1, c80 <kprintf.constprop.0+0x68e>
     c78:	990e      	ldr	r1, [sp, #56]	; 0x38
     c7a:	4541      	cmp	r1, r8
     c7c:	f67f ae8f 	bls.w	99e <kprintf.constprop.0+0x3ac>
     c80:	2130      	movs	r1, #48	; 0x30
     c82:	f888 1000 	strb.w	r1, [r8]
     c86:	f118 0101 	adds.w	r1, r8, #1
     c8a:	f43f ae86 	beq.w	99a <kprintf.constprop.0+0x3a8>
     c8e:	9d0b      	ldr	r5, [sp, #44]	; 0x2c
     c90:	b115      	cbz	r5, c98 <kprintf.constprop.0+0x6a6>
     c92:	9d0e      	ldr	r5, [sp, #56]	; 0x38
     c94:	428d      	cmp	r5, r1
     c96:	d904      	bls.n	ca2 <kprintf.constprop.0+0x6b0>
     c98:	f888 9001 	strb.w	r9, [r8, #1]
     c9c:	f108 0802 	add.w	r8, r8, #2
     ca0:	e67d      	b.n	99e <kprintf.constprop.0+0x3ac>
     ca2:	4688      	mov	r8, r1
     ca4:	e67b      	b.n	99e <kprintf.constprop.0+0x3ac>
     ca6:	f1b8 0f00 	cmp.w	r8, #0
     caa:	d008      	beq.n	cbe <kprintf.constprop.0+0x6cc>
     cac:	9d0b      	ldr	r5, [sp, #44]	; 0x2c
     cae:	b115      	cbz	r5, cb6 <kprintf.constprop.0+0x6c4>
     cb0:	9d0e      	ldr	r5, [sp, #56]	; 0x38
     cb2:	4545      	cmp	r5, r8
     cb4:	d903      	bls.n	cbe <kprintf.constprop.0+0x6cc>
     cb6:	f888 4000 	strb.w	r4, [r8]
     cba:	f108 0801 	add.w	r8, r8, #1
     cbe:	3901      	subs	r1, #1
     cc0:	e673      	b.n	9aa <kprintf.constprop.0+0x3b8>
     cc2:	f1b8 0f00 	cmp.w	r8, #0
     cc6:	d008      	beq.n	cda <kprintf.constprop.0+0x6e8>
     cc8:	9c0b      	ldr	r4, [sp, #44]	; 0x2c
     cca:	b114      	cbz	r4, cd2 <kprintf.constprop.0+0x6e0>
     ccc:	9c0e      	ldr	r4, [sp, #56]	; 0x38
     cce:	4544      	cmp	r4, r8
     cd0:	d903      	bls.n	cda <kprintf.constprop.0+0x6e8>
     cd2:	f888 1000 	strb.w	r1, [r8]
     cd6:	f108 0801 	add.w	r8, r8, #1
     cda:	3801      	subs	r0, #1
     cdc:	e66b      	b.n	9b6 <kprintf.constprop.0+0x3c4>
     cde:	f1b8 0f00 	cmp.w	r8, #0
     ce2:	d009      	beq.n	cf8 <kprintf.constprop.0+0x706>
     ce4:	980b      	ldr	r0, [sp, #44]	; 0x2c
     ce6:	b110      	cbz	r0, cee <kprintf.constprop.0+0x6fc>
     ce8:	980e      	ldr	r0, [sp, #56]	; 0x38
     cea:	4540      	cmp	r0, r8
     cec:	d904      	bls.n	cf8 <kprintf.constprop.0+0x706>
     cee:	7818      	ldrb	r0, [r3, #0]
     cf0:	f108 0801 	add.w	r8, r8, #1
     cf4:	f808 0c01 	strb.w	r0, [r8, #-1]
     cf8:	3301      	adds	r3, #1
     cfa:	e661      	b.n	9c0 <kprintf.constprop.0+0x3ce>
     cfc:	f426 6680 	bic.w	r6, r6, #1024	; 0x400
     d00:	f04f 0a00 	mov.w	sl, #0
     d04:	2302      	movs	r3, #2
     d06:	e5a4      	b.n	852 <kprintf.constprop.0+0x260>
     d08:	f1bb 3fff 	cmp.w	fp, #4294967295	; 0xffffffff
     d0c:	d1f6      	bne.n	cfc <kprintf.constprop.0+0x70a>
     d0e:	f04f 3bff 	mov.w	fp, #4294967295	; 0xffffffff
     d12:	e71d      	b.n	b50 <kprintf.constprop.0+0x55e>
     d14:	000092ff 	.word	0x000092ff
     d18:	0000927d 	.word	0x0000927d
     d1c:	00008fbe 	.word	0x00008fbe
     d20:	00008f49 	.word	0x00008f49
     d24:	00008ec1 	.word	0x00008ec1

00000d28 <__vsprintf>:
     d28:	b513      	push	{r0, r1, r4, lr}
     d2a:	460c      	mov	r4, r1
     d2c:	2100      	movs	r1, #0
     d2e:	4613      	mov	r3, r2
     d30:	4602      	mov	r2, r0
     d32:	4620      	mov	r0, r4
     d34:	9100      	str	r1, [sp, #0]
     d36:	f7ff fc5c 	bl	5f2 <kprintf.constprop.0>
     d3a:	b002      	add	sp, #8
     d3c:	bd10      	pop	{r4, pc}
     d3e:	bf00      	nop

00000d40 <__aeabi_ldivmod>:
     d40:	e92d5000 	push	{ip, lr}
     d44:	e92d000f 	push	{r0, r1, r2, r3}
     d48:	e1a0000d 	mov	r0, sp
     d4c:	fa00212e 	blx	920c <__l_divmod>
     d50:	e8bd000f 	pop	{r0, r1, r2, r3}
     d54:	e8bd9000 	pop	{ip, pc}

00000d58 <__aeabi_uldivmod>:
     d58:	e92d5000 	push	{ip, lr}
     d5c:	e92d000f 	push	{r0, r1, r2, r3}
     d60:	e1a0000d 	mov	r0, sp
     d64:	fa00210b 	blx	9198 <__ul_divmod>
     d68:	e8bd000f 	pop	{r0, r1, r2, r3}
     d6c:	e8bd9000 	pop	{ip, pc}

00000d70 <trace_ext_puts>:
     d70:	b510      	push	{r4, lr}
     d72:	4604      	mov	r4, r0
     d74:	f008 fa08 	bl	9188 <strlen>
     d78:	4601      	mov	r1, r0
     d7a:	4620      	mov	r0, r4
     d7c:	e8bd 4010 	ldmia.w	sp!, {r4, lr}
     d80:	f008 bb42 	b.w	9408 <___utee_log_from_thumb>

00000d84 <trace_ext_get_thread_id>:
     d84:	f04f 30ff 	mov.w	r0, #4294967295	; 0xffffffff
     d88:	4770      	bx	lr

00000d8a <printf>:
     d8a:	b40f      	push	{r0, r1, r2, r3}
     d8c:	b530      	push	{r4, r5, lr}
     d8e:	b0c3      	sub	sp, #268	; 0x10c
     d90:	f7ff fb4a 	bl	428 <trace_get_level>
     d94:	2800      	cmp	r0, #0
     d96:	dd13      	ble.n	dc0 <printf+0x36>
     d98:	ab47      	add	r3, sp, #284	; 0x11c
     d9a:	ad02      	add	r5, sp, #8
     d9c:	9a46      	ldr	r2, [sp, #280]	; 0x118
     d9e:	f44f 7180 	mov.w	r1, #256	; 0x100
     da2:	4628      	mov	r0, r5
     da4:	9301      	str	r3, [sp, #4]
     da6:	f008 fab6 	bl	9316 <vsnprintf>
     daa:	1e04      	subs	r4, r0, #0
     dac:	db02      	blt.n	db4 <printf+0x2a>
     dae:	4628      	mov	r0, r5
     db0:	f7ff ffde 	bl	d70 <trace_ext_puts>
     db4:	4620      	mov	r0, r4
     db6:	b043      	add	sp, #268	; 0x10c
     db8:	e8bd 4030 	ldmia.w	sp!, {r4, r5, lr}
     dbc:	b004      	add	sp, #16
     dbe:	4770      	bx	lr
     dc0:	2400      	movs	r4, #0
     dc2:	e7f7      	b.n	db4 <printf+0x2a>

00000dc4 <puts>:
     dc4:	b510      	push	{r4, lr}
     dc6:	4604      	mov	r4, r0
     dc8:	f7ff fb2e 	bl	428 <trace_get_level>
     dcc:	2800      	cmp	r0, #0
     dce:	dd06      	ble.n	dde <puts+0x1a>
     dd0:	4620      	mov	r0, r4
     dd2:	f7ff ffcd 	bl	d70 <trace_ext_puts>
     dd6:	4803      	ldr	r0, [pc, #12]	; (de4 <puts+0x20>)
     dd8:	4478      	add	r0, pc
     dda:	f7ff ffc9 	bl	d70 <trace_ext_puts>
     dde:	2001      	movs	r0, #1
     de0:	bd10      	pop	{r4, pc}
     de2:	bf00      	nop
     de4:	000089c2 	.word	0x000089c2

00000de8 <putchar>:
     de8:	2300      	movs	r3, #0
     dea:	b513      	push	{r0, r1, r4, lr}
     dec:	4604      	mov	r4, r0
     dee:	f88d 0004 	strb.w	r0, [sp, #4]
     df2:	f88d 3005 	strb.w	r3, [sp, #5]
     df6:	f7ff fb17 	bl	428 <trace_get_level>
     dfa:	2800      	cmp	r0, #0
     dfc:	dd02      	ble.n	e04 <putchar+0x1c>
     dfe:	a801      	add	r0, sp, #4
     e00:	f7ff ffb6 	bl	d70 <trace_ext_puts>
     e04:	b2e0      	uxtb	r0, r4
     e06:	b002      	add	sp, #8
     e08:	bd10      	pop	{r4, pc}
     e0a:	bf00      	nop

00000e0c <__utee_from_attr>:
     e0c:	2318      	movs	r3, #24
     e0e:	b530      	push	{r4, r5, lr}
     e10:	2400      	movs	r4, #0
     e12:	fb03 0202 	mla	r2, r3, r2, r0
     e16:	4290      	cmp	r0, r2
     e18:	d100      	bne.n	e1c <__utee_from_attr+0x10>
     e1a:	bd30      	pop	{r4, r5, pc}
     e1c:	680b      	ldr	r3, [r1, #0]
     e1e:	6103      	str	r3, [r0, #16]
     e20:	f013 5300 	ands.w	r3, r3, #536870912	; 0x20000000
     e24:	d008      	beq.n	e38 <__utee_from_attr+0x2c>
     e26:	684b      	ldr	r3, [r1, #4]
     e28:	e9c0 3400 	strd	r3, r4, [r0]
     e2c:	688b      	ldr	r3, [r1, #8]
     e2e:	6083      	str	r3, [r0, #8]
     e30:	60c4      	str	r4, [r0, #12]
     e32:	310c      	adds	r1, #12
     e34:	3018      	adds	r0, #24
     e36:	e7ee      	b.n	e16 <__utee_from_attr+0xa>
     e38:	684d      	ldr	r5, [r1, #4]
     e3a:	6005      	str	r5, [r0, #0]
     e3c:	6043      	str	r3, [r0, #4]
     e3e:	688d      	ldr	r5, [r1, #8]
     e40:	6085      	str	r5, [r0, #8]
     e42:	60c3      	str	r3, [r0, #12]
     e44:	e7f5      	b.n	e32 <__utee_from_attr+0x26>

00000e46 <TEE_GetObjectInfo>:
     e46:	b510      	push	{r4, lr}
     e48:	460c      	mov	r4, r1
     e4a:	f002 edb2 	blx	39b0 <_utee_cryp_obj_get_info>
     e4e:	b108      	cbz	r0, e54 <TEE_GetObjectInfo+0xe>
     e50:	f002 f926 	bl	30a0 <TEE_Panic>
     e54:	4b05      	ldr	r3, [pc, #20]	; (e6c <TEE_GetObjectInfo+0x26>)
     e56:	6822      	ldr	r2, [r4, #0]
     e58:	429a      	cmp	r2, r3
     e5a:	d106      	bne.n	e6a <TEE_GetObjectInfo+0x24>
     e5c:	2300      	movs	r3, #0
     e5e:	6063      	str	r3, [r4, #4]
     e60:	60a3      	str	r3, [r4, #8]
     e62:	60e3      	str	r3, [r4, #12]
     e64:	6123      	str	r3, [r4, #16]
     e66:	6163      	str	r3, [r4, #20]
     e68:	61a3      	str	r3, [r4, #24]
     e6a:	bd10      	pop	{r4, pc}
     e6c:	a00000be 	.word	0xa00000be

00000e70 <TEE_GetObjectInfo1>:
     e70:	b510      	push	{r4, lr}
     e72:	f002 ed9e 	blx	39b0 <_utee_cryp_obj_get_info>
     e76:	4604      	mov	r4, r0
     e78:	b130      	cbz	r0, e88 <TEE_GetObjectInfo1+0x18>
     e7a:	4b04      	ldr	r3, [pc, #16]	; (e8c <TEE_GetObjectInfo1+0x1c>)
     e7c:	f020 0202 	bic.w	r2, r0, #2
     e80:	429a      	cmp	r2, r3
     e82:	d001      	beq.n	e88 <TEE_GetObjectInfo1+0x18>
     e84:	f002 f90c 	bl	30a0 <TEE_Panic>
     e88:	4620      	mov	r0, r4
     e8a:	bd10      	pop	{r4, pc}
     e8c:	f0100001 	.word	0xf0100001

00000e90 <TEE_RestrictObjectUsage1>:
     e90:	b510      	push	{r4, lr}
     e92:	f002 ed98 	blx	39c4 <_utee_cryp_obj_restrict_usage>
     e96:	4604      	mov	r4, r0
     e98:	b130      	cbz	r0, ea8 <TEE_RestrictObjectUsage1+0x18>
     e9a:	4b04      	ldr	r3, [pc, #16]	; (eac <TEE_RestrictObjectUsage1+0x1c>)
     e9c:	f020 0202 	bic.w	r2, r0, #2
     ea0:	429a      	cmp	r2, r3
     ea2:	d001      	beq.n	ea8 <TEE_RestrictObjectUsage1+0x18>
     ea4:	f002 f8fc 	bl	30a0 <TEE_Panic>
     ea8:	4620      	mov	r0, r4
     eaa:	bd10      	pop	{r4, pc}
     eac:	f0100001 	.word	0xf0100001

00000eb0 <TEE_RestrictObjectUsage>:
     eb0:	b530      	push	{r4, r5, lr}
     eb2:	b089      	sub	sp, #36	; 0x24
     eb4:	460d      	mov	r5, r1
     eb6:	a901      	add	r1, sp, #4
     eb8:	4604      	mov	r4, r0
     eba:	f002 ed7a 	blx	39b0 <_utee_cryp_obj_get_info>
     ebe:	4b06      	ldr	r3, [pc, #24]	; (ed8 <TEE_RestrictObjectUsage+0x28>)
     ec0:	9a01      	ldr	r2, [sp, #4]
     ec2:	429a      	cmp	r2, r3
     ec4:	d006      	beq.n	ed4 <TEE_RestrictObjectUsage+0x24>
     ec6:	4629      	mov	r1, r5
     ec8:	4620      	mov	r0, r4
     eca:	f7ff ffe1 	bl	e90 <TEE_RestrictObjectUsage1>
     ece:	b108      	cbz	r0, ed4 <TEE_RestrictObjectUsage+0x24>
     ed0:	f002 f8e6 	bl	30a0 <TEE_Panic>
     ed4:	b009      	add	sp, #36	; 0x24
     ed6:	bd30      	pop	{r4, r5, pc}
     ed8:	a00000be 	.word	0xa00000be

00000edc <TEE_GetObjectBufferAttribute>:
     edc:	e92d 41f0 	stmdb	sp!, {r4, r5, r6, r7, r8, lr}
     ee0:	4606      	mov	r6, r0
     ee2:	b08a      	sub	sp, #40	; 0x28
     ee4:	4618      	mov	r0, r3
     ee6:	460f      	mov	r7, r1
     ee8:	2104      	movs	r1, #4
     eea:	4690      	mov	r8, r2
     eec:	461d      	mov	r5, r3
     eee:	f002 f92a 	bl	3146 <__utee_check_inout_annotation>
     ef2:	a903      	add	r1, sp, #12
     ef4:	4630      	mov	r0, r6
     ef6:	f002 ed5c 	blx	39b0 <_utee_cryp_obj_get_info>
     efa:	4604      	mov	r4, r0
     efc:	b970      	cbnz	r0, f1c <TEE_GetObjectBufferAttribute+0x40>
     efe:	00bb      	lsls	r3, r7, #2
     f00:	d422      	bmi.n	f48 <TEE_GetObjectBufferAttribute+0x6c>
     f02:	682b      	ldr	r3, [r5, #0]
     f04:	4642      	mov	r2, r8
     f06:	4639      	mov	r1, r7
     f08:	4630      	mov	r0, r6
     f0a:	e9cd 3400 	strd	r3, r4, [sp]
     f0e:	466b      	mov	r3, sp
     f10:	f002 ed62 	blx	39d8 <_utee_cryp_obj_get_attr>
     f14:	9b00      	ldr	r3, [sp, #0]
     f16:	4604      	mov	r4, r0
     f18:	602b      	str	r3, [r5, #0]
     f1a:	b188      	cbz	r0, f40 <TEE_GetObjectBufferAttribute+0x64>
     f1c:	4b0b      	ldr	r3, [pc, #44]	; (f4c <TEE_GetObjectBufferAttribute+0x70>)
     f1e:	429c      	cmp	r4, r3
     f20:	d00e      	beq.n	f40 <TEE_GetObjectBufferAttribute+0x64>
     f22:	3308      	adds	r3, #8
     f24:	429c      	cmp	r4, r3
     f26:	d00b      	beq.n	f40 <TEE_GetObjectBufferAttribute+0x64>
     f28:	f1a3 637e 	sub.w	r3, r3, #266338304	; 0xfe00000
     f2c:	f1a3 130f 	sub.w	r3, r3, #983055	; 0xf000f
     f30:	429c      	cmp	r4, r3
     f32:	d005      	beq.n	f40 <TEE_GetObjectBufferAttribute+0x64>
     f34:	3302      	adds	r3, #2
     f36:	429c      	cmp	r4, r3
     f38:	d002      	beq.n	f40 <TEE_GetObjectBufferAttribute+0x64>
     f3a:	4620      	mov	r0, r4
     f3c:	f002 f8b0 	bl	30a0 <TEE_Panic>
     f40:	4620      	mov	r0, r4
     f42:	b00a      	add	sp, #40	; 0x28
     f44:	e8bd 81f0 	ldmia.w	sp!, {r4, r5, r6, r7, r8, pc}
     f48:	4c01      	ldr	r4, [pc, #4]	; (f50 <TEE_GetObjectBufferAttribute+0x74>)
     f4a:	e7f6      	b.n	f3a <TEE_GetObjectBufferAttribute+0x5e>
     f4c:	ffff0008 	.word	0xffff0008
     f50:	ffff0006 	.word	0xffff0006

00000f54 <TEE_GetObjectValueAttribute>:
     f54:	e92d 41f0 	stmdb	sp!, {r4, r5, r6, r7, r8, lr}
     f58:	4607      	mov	r7, r0
     f5a:	b08c      	sub	sp, #48	; 0x30
     f5c:	4688      	mov	r8, r1
     f5e:	2008      	movs	r0, #8
     f60:	2100      	movs	r1, #0
     f62:	461d      	mov	r5, r3
     f64:	4616      	mov	r6, r2
     f66:	e9cd 0100 	strd	r0, r1, [sp]
     f6a:	b11a      	cbz	r2, f74 <TEE_GetObjectValueAttribute+0x20>
     f6c:	2104      	movs	r1, #4
     f6e:	4610      	mov	r0, r2
     f70:	f002 f8d6 	bl	3120 <__utee_check_out_annotation>
     f74:	b11d      	cbz	r5, f7e <TEE_GetObjectValueAttribute+0x2a>
     f76:	2104      	movs	r1, #4
     f78:	4628      	mov	r0, r5
     f7a:	f002 f8d1 	bl	3120 <__utee_check_out_annotation>
     f7e:	a905      	add	r1, sp, #20
     f80:	4638      	mov	r0, r7
     f82:	f002 ed16 	blx	39b0 <_utee_cryp_obj_get_info>
     f86:	4604      	mov	r4, r0
     f88:	b950      	cbnz	r0, fa0 <TEE_GetObjectValueAttribute+0x4c>
     f8a:	f018 5f00 	tst.w	r8, #536870912	; 0x20000000
     f8e:	d027      	beq.n	fe0 <TEE_GetObjectValueAttribute+0x8c>
     f90:	466b      	mov	r3, sp
     f92:	aa03      	add	r2, sp, #12
     f94:	4641      	mov	r1, r8
     f96:	4638      	mov	r0, r7
     f98:	f002 ed1e 	blx	39d8 <_utee_cryp_obj_get_attr>
     f9c:	4604      	mov	r4, r0
     f9e:	b158      	cbz	r0, fb8 <TEE_GetObjectValueAttribute+0x64>
     fa0:	4b10      	ldr	r3, [pc, #64]	; (fe4 <TEE_GetObjectValueAttribute+0x90>)
     fa2:	429c      	cmp	r4, r3
     fa4:	d008      	beq.n	fb8 <TEE_GetObjectValueAttribute+0x64>
     fa6:	4b10      	ldr	r3, [pc, #64]	; (fe8 <TEE_GetObjectValueAttribute+0x94>)
     fa8:	429c      	cmp	r4, r3
     faa:	d005      	beq.n	fb8 <TEE_GetObjectValueAttribute+0x64>
     fac:	3302      	adds	r3, #2
     fae:	429c      	cmp	r4, r3
     fb0:	d002      	beq.n	fb8 <TEE_GetObjectValueAttribute+0x64>
     fb2:	4620      	mov	r0, r4
     fb4:	f002 f874 	bl	30a0 <TEE_Panic>
     fb8:	e9dd 2300 	ldrd	r2, r3, [sp]
     fbc:	2b00      	cmp	r3, #0
     fbe:	bf08      	it	eq
     fc0:	2a08      	cmpeq	r2, #8
     fc2:	d002      	beq.n	fca <TEE_GetObjectValueAttribute+0x76>
     fc4:	2000      	movs	r0, #0
     fc6:	f002 f86b 	bl	30a0 <TEE_Panic>
     fca:	b92c      	cbnz	r4, fd8 <TEE_GetObjectValueAttribute+0x84>
     fcc:	b10e      	cbz	r6, fd2 <TEE_GetObjectValueAttribute+0x7e>
     fce:	9b03      	ldr	r3, [sp, #12]
     fd0:	6033      	str	r3, [r6, #0]
     fd2:	b10d      	cbz	r5, fd8 <TEE_GetObjectValueAttribute+0x84>
     fd4:	9b04      	ldr	r3, [sp, #16]
     fd6:	602b      	str	r3, [r5, #0]
     fd8:	4620      	mov	r0, r4
     fda:	b00c      	add	sp, #48	; 0x30
     fdc:	e8bd 81f0 	ldmia.w	sp!, {r4, r5, r6, r7, r8, pc}
     fe0:	4c02      	ldr	r4, [pc, #8]	; (fec <TEE_GetObjectValueAttribute+0x98>)
     fe2:	e7e6      	b.n	fb2 <TEE_GetObjectValueAttribute+0x5e>
     fe4:	ffff0008 	.word	0xffff0008
     fe8:	f0100001 	.word	0xf0100001
     fec:	ffff0006 	.word	0xffff0006

00000ff0 <TEE_CloseObject>:
     ff0:	b508      	push	{r3, lr}
     ff2:	b130      	cbz	r0, 1002 <TEE_CloseObject+0x12>
     ff4:	f002 ed04 	blx	3a00 <_utee_cryp_obj_close>
     ff8:	b118      	cbz	r0, 1002 <TEE_CloseObject+0x12>
     ffa:	e8bd 4008 	ldmia.w	sp!, {r3, lr}
     ffe:	f002 b84f 	b.w	30a0 <TEE_Panic>
    1002:	bd08      	pop	{r3, pc}

00001004 <TEE_AllocateTransientObject>:
    1004:	b573      	push	{r0, r1, r4, r5, r6, lr}
    1006:	4604      	mov	r4, r0
    1008:	460e      	mov	r6, r1
    100a:	4610      	mov	r0, r2
    100c:	2104      	movs	r1, #4
    100e:	4615      	mov	r5, r2
    1010:	f002 f886 	bl	3120 <__utee_check_out_annotation>
    1014:	4620      	mov	r0, r4
    1016:	aa01      	add	r2, sp, #4
    1018:	4631      	mov	r1, r6
    101a:	f002 ece8 	blx	39ec <_utee_cryp_obj_alloc>
    101e:	4604      	mov	r4, r0
    1020:	b150      	cbz	r0, 1038 <TEE_AllocateTransientObject+0x34>
    1022:	4b07      	ldr	r3, [pc, #28]	; (1040 <TEE_AllocateTransientObject+0x3c>)
    1024:	4298      	cmp	r0, r3
    1026:	d004      	beq.n	1032 <TEE_AllocateTransientObject+0x2e>
    1028:	3b02      	subs	r3, #2
    102a:	4298      	cmp	r0, r3
    102c:	d001      	beq.n	1032 <TEE_AllocateTransientObject+0x2e>
    102e:	f002 f837 	bl	30a0 <TEE_Panic>
    1032:	4620      	mov	r0, r4
    1034:	b002      	add	sp, #8
    1036:	bd70      	pop	{r4, r5, r6, pc}
    1038:	9b01      	ldr	r3, [sp, #4]
    103a:	602b      	str	r3, [r5, #0]
    103c:	e7f9      	b.n	1032 <TEE_AllocateTransientObject+0x2e>
    103e:	bf00      	nop
    1040:	ffff000c 	.word	0xffff000c

00001044 <TEE_FreeTransientObject>:
    1044:	b510      	push	{r4, lr}
    1046:	4604      	mov	r4, r0
    1048:	b088      	sub	sp, #32
    104a:	b188      	cbz	r0, 1070 <TEE_FreeTransientObject+0x2c>
    104c:	a901      	add	r1, sp, #4
    104e:	f002 ecb0 	blx	39b0 <_utee_cryp_obj_get_info>
    1052:	b108      	cbz	r0, 1058 <TEE_FreeTransientObject+0x14>
    1054:	f002 f824 	bl	30a0 <TEE_Panic>
    1058:	9b07      	ldr	r3, [sp, #28]
    105a:	03db      	lsls	r3, r3, #15
    105c:	d502      	bpl.n	1064 <TEE_FreeTransientObject+0x20>
    105e:	2000      	movs	r0, #0
    1060:	f002 f81e 	bl	30a0 <TEE_Panic>
    1064:	4620      	mov	r0, r4
    1066:	f002 eccc 	blx	3a00 <_utee_cryp_obj_close>
    106a:	b108      	cbz	r0, 1070 <TEE_FreeTransientObject+0x2c>
    106c:	f002 f818 	bl	30a0 <TEE_Panic>
    1070:	b008      	add	sp, #32
    1072:	bd10      	pop	{r4, pc}

00001074 <TEE_ResetTransientObject>:
    1074:	b510      	push	{r4, lr}
    1076:	4604      	mov	r4, r0
    1078:	b088      	sub	sp, #32
    107a:	b188      	cbz	r0, 10a0 <TEE_ResetTransientObject+0x2c>
    107c:	a901      	add	r1, sp, #4
    107e:	f002 ec98 	blx	39b0 <_utee_cryp_obj_get_info>
    1082:	b108      	cbz	r0, 1088 <TEE_ResetTransientObject+0x14>
    1084:	f002 f80c 	bl	30a0 <TEE_Panic>
    1088:	9b07      	ldr	r3, [sp, #28]
    108a:	03db      	lsls	r3, r3, #15
    108c:	d502      	bpl.n	1094 <TEE_ResetTransientObject+0x20>
    108e:	2000      	movs	r0, #0
    1090:	f002 f806 	bl	30a0 <TEE_Panic>
    1094:	4620      	mov	r0, r4
    1096:	f002 ecbe 	blx	3a14 <_utee_cryp_obj_reset>
    109a:	b108      	cbz	r0, 10a0 <TEE_ResetTransientObject+0x2c>
    109c:	f002 f800 	bl	30a0 <TEE_Panic>
    10a0:	b008      	add	sp, #32
    10a2:	bd10      	pop	{r4, pc}

000010a4 <TEE_PopulateTransientObject>:
    10a4:	2318      	movs	r3, #24
    10a6:	e92d 41f0 	stmdb	sp!, {r4, r5, r6, r7, r8, lr}
    10aa:	b088      	sub	sp, #32
    10ac:	4688      	mov	r8, r1
    10ae:	4353      	muls	r3, r2
    10b0:	4605      	mov	r5, r0
    10b2:	4611      	mov	r1, r2
    10b4:	4640      	mov	r0, r8
    10b6:	af00      	add	r7, sp, #0
    10b8:	3308      	adds	r3, #8
    10ba:	4614      	mov	r4, r2
    10bc:	ebad 0d03 	sub.w	sp, sp, r3
    10c0:	f002 f837 	bl	3132 <__utee_check_attr_in_annotation>
    10c4:	1d39      	adds	r1, r7, #4
    10c6:	4628      	mov	r0, r5
    10c8:	466e      	mov	r6, sp
    10ca:	f002 ec72 	blx	39b0 <_utee_cryp_obj_get_info>
    10ce:	b108      	cbz	r0, 10d4 <TEE_PopulateTransientObject+0x30>
    10d0:	f001 ffe6 	bl	30a0 <TEE_Panic>
    10d4:	69fb      	ldr	r3, [r7, #28]
    10d6:	03da      	lsls	r2, r3, #15
    10d8:	d502      	bpl.n	10e0 <TEE_PopulateTransientObject+0x3c>
    10da:	2000      	movs	r0, #0
    10dc:	f001 ffe0 	bl	30a0 <TEE_Panic>
    10e0:	69fb      	ldr	r3, [r7, #28]
    10e2:	039b      	lsls	r3, r3, #14
    10e4:	d502      	bpl.n	10ec <TEE_PopulateTransientObject+0x48>
    10e6:	2000      	movs	r0, #0
    10e8:	f001 ffda 	bl	30a0 <TEE_Panic>
    10ec:	4622      	mov	r2, r4
    10ee:	4641      	mov	r1, r8
    10f0:	4630      	mov	r0, r6
    10f2:	f7ff fe8b 	bl	e0c <__utee_from_attr>
    10f6:	4622      	mov	r2, r4
    10f8:	4631      	mov	r1, r6
    10fa:	4628      	mov	r0, r5
    10fc:	f002 ec94 	blx	3a28 <_utee_cryp_obj_populate>
    1100:	4604      	mov	r4, r0
    1102:	b120      	cbz	r0, 110e <TEE_PopulateTransientObject+0x6a>
    1104:	4b04      	ldr	r3, [pc, #16]	; (1118 <TEE_PopulateTransientObject+0x74>)
    1106:	4298      	cmp	r0, r3
    1108:	d001      	beq.n	110e <TEE_PopulateTransientObject+0x6a>
    110a:	f001 ffc9 	bl	30a0 <TEE_Panic>
    110e:	4620      	mov	r0, r4
    1110:	3720      	adds	r7, #32
    1112:	46bd      	mov	sp, r7
    1114:	e8bd 81f0 	ldmia.w	sp!, {r4, r5, r6, r7, r8, pc}
    1118:	ffff0006 	.word	0xffff0006

0000111c <TEE_InitRefAttribute>:
    111c:	b5f8      	push	{r3, r4, r5, r6, r7, lr}
    111e:	460d      	mov	r5, r1
    1120:	210c      	movs	r1, #12
    1122:	461e      	mov	r6, r3
    1124:	4604      	mov	r4, r0
    1126:	4617      	mov	r7, r2
    1128:	f001 fffa 	bl	3120 <__utee_check_out_annotation>
    112c:	00ab      	lsls	r3, r5, #2
    112e:	d502      	bpl.n	1136 <TEE_InitRefAttribute+0x1a>
    1130:	2000      	movs	r0, #0
    1132:	f001 ffb5 	bl	30a0 <TEE_Panic>
    1136:	e9c4 5700 	strd	r5, r7, [r4]
    113a:	60a6      	str	r6, [r4, #8]
    113c:	bdf8      	pop	{r3, r4, r5, r6, r7, pc}

0000113e <TEE_InitValueAttribute>:
    113e:	b5f8      	push	{r3, r4, r5, r6, r7, lr}
    1140:	460d      	mov	r5, r1
    1142:	210c      	movs	r1, #12
    1144:	4604      	mov	r4, r0
    1146:	4617      	mov	r7, r2
    1148:	461e      	mov	r6, r3
    114a:	f001 ffe9 	bl	3120 <__utee_check_out_annotation>
    114e:	f015 5000 	ands.w	r0, r5, #536870912	; 0x20000000
    1152:	d101      	bne.n	1158 <TEE_InitValueAttribute+0x1a>
    1154:	f001 ffa4 	bl	30a0 <TEE_Panic>
    1158:	e9c4 5700 	strd	r5, r7, [r4]
    115c:	60a6      	str	r6, [r4, #8]
    115e:	bdf8      	pop	{r3, r4, r5, r6, r7, pc}

00001160 <TEE_CopyObjectAttributes1>:
    1160:	b570      	push	{r4, r5, r6, lr}
    1162:	b08e      	sub	sp, #56	; 0x38
    1164:	460d      	mov	r5, r1
    1166:	4669      	mov	r1, sp
    1168:	4606      	mov	r6, r0
    116a:	f002 ec22 	blx	39b0 <_utee_cryp_obj_get_info>
    116e:	4604      	mov	r4, r0
    1170:	b9e0      	cbnz	r0, 11ac <TEE_CopyObjectAttributes1+0x4c>
    1172:	a907      	add	r1, sp, #28
    1174:	4628      	mov	r0, r5
    1176:	f002 ec1c 	blx	39b0 <_utee_cryp_obj_get_info>
    117a:	4604      	mov	r4, r0
    117c:	b9b0      	cbnz	r0, 11ac <TEE_CopyObjectAttributes1+0x4c>
    117e:	9b0d      	ldr	r3, [sp, #52]	; 0x34
    1180:	0399      	lsls	r1, r3, #14
    1182:	d401      	bmi.n	1188 <TEE_CopyObjectAttributes1+0x28>
    1184:	f001 ff8c 	bl	30a0 <TEE_Panic>
    1188:	9b06      	ldr	r3, [sp, #24]
    118a:	03da      	lsls	r2, r3, #15
    118c:	d502      	bpl.n	1194 <TEE_CopyObjectAttributes1+0x34>
    118e:	2000      	movs	r0, #0
    1190:	f001 ff86 	bl	30a0 <TEE_Panic>
    1194:	9b06      	ldr	r3, [sp, #24]
    1196:	039b      	lsls	r3, r3, #14
    1198:	d502      	bpl.n	11a0 <TEE_CopyObjectAttributes1+0x40>
    119a:	2000      	movs	r0, #0
    119c:	f001 ff80 	bl	30a0 <TEE_Panic>
    11a0:	4629      	mov	r1, r5
    11a2:	4630      	mov	r0, r6
    11a4:	f002 ec4a 	blx	3a3c <_utee_cryp_obj_copy>
    11a8:	4604      	mov	r4, r0
    11aa:	b140      	cbz	r0, 11be <TEE_CopyObjectAttributes1+0x5e>
    11ac:	4b05      	ldr	r3, [pc, #20]	; (11c4 <TEE_CopyObjectAttributes1+0x64>)
    11ae:	429c      	cmp	r4, r3
    11b0:	d005      	beq.n	11be <TEE_CopyObjectAttributes1+0x5e>
    11b2:	3302      	adds	r3, #2
    11b4:	429c      	cmp	r4, r3
    11b6:	d002      	beq.n	11be <TEE_CopyObjectAttributes1+0x5e>
    11b8:	4620      	mov	r0, r4
    11ba:	f001 ff71 	bl	30a0 <TEE_Panic>
    11be:	4620      	mov	r0, r4
    11c0:	b00e      	add	sp, #56	; 0x38
    11c2:	bd70      	pop	{r4, r5, r6, pc}
    11c4:	f0100001 	.word	0xf0100001

000011c8 <TEE_CopyObjectAttributes>:
    11c8:	b530      	push	{r4, r5, lr}
    11ca:	460c      	mov	r4, r1
    11cc:	b089      	sub	sp, #36	; 0x24
    11ce:	4605      	mov	r5, r0
    11d0:	a901      	add	r1, sp, #4
    11d2:	4620      	mov	r0, r4
    11d4:	f002 ebec 	blx	39b0 <_utee_cryp_obj_get_info>
    11d8:	4b06      	ldr	r3, [pc, #24]	; (11f4 <TEE_CopyObjectAttributes+0x2c>)
    11da:	9a01      	ldr	r2, [sp, #4]
    11dc:	429a      	cmp	r2, r3
    11de:	d006      	beq.n	11ee <TEE_CopyObjectAttributes+0x26>
    11e0:	4621      	mov	r1, r4
    11e2:	4628      	mov	r0, r5
    11e4:	f7ff ffbc 	bl	1160 <TEE_CopyObjectAttributes1>
    11e8:	b108      	cbz	r0, 11ee <TEE_CopyObjectAttributes+0x26>
    11ea:	f001 ff59 	bl	30a0 <TEE_Panic>
    11ee:	b009      	add	sp, #36	; 0x24
    11f0:	bd30      	pop	{r4, r5, pc}
    11f2:	bf00      	nop
    11f4:	a00000be 	.word	0xa00000be

000011f8 <TEE_GenerateKey>:
    11f8:	e92d 43f8 	stmdb	sp!, {r3, r4, r5, r6, r7, r8, r9, lr}
    11fc:	4615      	mov	r5, r2
    11fe:	2218      	movs	r2, #24
    1200:	461c      	mov	r4, r3
    1202:	af00      	add	r7, sp, #0
    1204:	4606      	mov	r6, r0
    1206:	435a      	muls	r2, r3
    1208:	4688      	mov	r8, r1
    120a:	4628      	mov	r0, r5
    120c:	4619      	mov	r1, r3
    120e:	3208      	adds	r2, #8
    1210:	ebad 0d02 	sub.w	sp, sp, r2
    1214:	f001 ff8d 	bl	3132 <__utee_check_attr_in_annotation>
    1218:	4622      	mov	r2, r4
    121a:	4629      	mov	r1, r5
    121c:	4668      	mov	r0, sp
    121e:	f7ff fdf5 	bl	e0c <__utee_from_attr>
    1222:	4623      	mov	r3, r4
    1224:	466a      	mov	r2, sp
    1226:	4641      	mov	r1, r8
    1228:	4630      	mov	r0, r6
    122a:	f002 ecfe 	blx	3c28 <_utee_cryp_obj_generate_key>
    122e:	4604      	mov	r4, r0
    1230:	b120      	cbz	r0, 123c <TEE_GenerateKey+0x44>
    1232:	4b04      	ldr	r3, [pc, #16]	; (1244 <TEE_GenerateKey+0x4c>)
    1234:	4298      	cmp	r0, r3
    1236:	d001      	beq.n	123c <TEE_GenerateKey+0x44>
    1238:	f001 ff32 	bl	30a0 <TEE_Panic>
    123c:	4620      	mov	r0, r4
    123e:	46bd      	mov	sp, r7
    1240:	e8bd 83f8 	ldmia.w	sp!, {r3, r4, r5, r6, r7, r8, r9, pc}
    1244:	ffff0006 	.word	0xffff0006

00001248 <TEE_OpenPersistentObject>:
    1248:	b530      	push	{r4, r5, lr}
    124a:	b085      	sub	sp, #20
    124c:	9d08      	ldr	r5, [sp, #32]
    124e:	b1d9      	cbz	r1, 1288 <TEE_OpenPersistentObject+0x40>
    1250:	ac03      	add	r4, sp, #12
    1252:	9400      	str	r4, [sp, #0]
    1254:	f002 ec62 	blx	3b1c <_utee_storage_obj_open>
    1258:	4604      	mov	r4, r0
    125a:	b920      	cbnz	r0, 1266 <TEE_OpenPersistentObject+0x1e>
    125c:	9b03      	ldr	r3, [sp, #12]
    125e:	4620      	mov	r0, r4
    1260:	602b      	str	r3, [r5, #0]
    1262:	b005      	add	sp, #20
    1264:	bd30      	pop	{r4, r5, pc}
    1266:	4b09      	ldr	r3, [pc, #36]	; (128c <TEE_OpenPersistentObject+0x44>)
    1268:	f020 0204 	bic.w	r2, r0, #4
    126c:	429a      	cmp	r2, r3
    126e:	d009      	beq.n	1284 <TEE_OpenPersistentObject+0x3c>
    1270:	4b07      	ldr	r3, [pc, #28]	; (1290 <TEE_OpenPersistentObject+0x48>)
    1272:	429c      	cmp	r4, r3
    1274:	d006      	beq.n	1284 <TEE_OpenPersistentObject+0x3c>
    1276:	4b07      	ldr	r3, [pc, #28]	; (1294 <TEE_OpenPersistentObject+0x4c>)
    1278:	f024 0202 	bic.w	r2, r4, #2
    127c:	429a      	cmp	r2, r3
    127e:	d001      	beq.n	1284 <TEE_OpenPersistentObject+0x3c>
    1280:	f001 ff0e 	bl	30a0 <TEE_Panic>
    1284:	2300      	movs	r3, #0
    1286:	e7ea      	b.n	125e <TEE_OpenPersistentObject+0x16>
    1288:	4c00      	ldr	r4, [pc, #0]	; (128c <TEE_OpenPersistentObject+0x44>)
    128a:	e7fb      	b.n	1284 <TEE_OpenPersistentObject+0x3c>
    128c:	ffff0008 	.word	0xffff0008
    1290:	ffff0003 	.word	0xffff0003
    1294:	f0100001 	.word	0xf0100001

00001298 <TEE_CreatePersistentObject>:
    1298:	e92d 41f0 	stmdb	sp!, {r4, r5, r6, r7, r8, lr}
    129c:	b086      	sub	sp, #24
    129e:	4606      	mov	r6, r0
    12a0:	4617      	mov	r7, r2
    12a2:	9d0f      	ldr	r5, [sp, #60]	; 0x3c
    12a4:	4698      	mov	r8, r3
    12a6:	460c      	mov	r4, r1
    12a8:	b369      	cbz	r1, 1306 <TEE_CreatePersistentObject+0x6e>
    12aa:	2104      	movs	r1, #4
    12ac:	4628      	mov	r0, r5
    12ae:	f001 ff37 	bl	3120 <__utee_check_out_annotation>
    12b2:	ab05      	add	r3, sp, #20
    12b4:	4621      	mov	r1, r4
    12b6:	463a      	mov	r2, r7
    12b8:	4630      	mov	r0, r6
    12ba:	9303      	str	r3, [sp, #12]
    12bc:	9b0e      	ldr	r3, [sp, #56]	; 0x38
    12be:	9302      	str	r3, [sp, #8]
    12c0:	9b0d      	ldr	r3, [sp, #52]	; 0x34
    12c2:	9301      	str	r3, [sp, #4]
    12c4:	9b0c      	ldr	r3, [sp, #48]	; 0x30
    12c6:	9300      	str	r3, [sp, #0]
    12c8:	4643      	mov	r3, r8
    12ca:	f002 ec34 	blx	3b34 <_utee_storage_obj_create>
    12ce:	4604      	mov	r4, r0
    12d0:	b928      	cbnz	r0, 12de <TEE_CreatePersistentObject+0x46>
    12d2:	9b05      	ldr	r3, [sp, #20]
    12d4:	4620      	mov	r0, r4
    12d6:	602b      	str	r3, [r5, #0]
    12d8:	b006      	add	sp, #24
    12da:	e8bd 81f0 	ldmia.w	sp!, {r4, r5, r6, r7, r8, pc}
    12de:	4b0b      	ldr	r3, [pc, #44]	; (130c <TEE_CreatePersistentObject+0x74>)
    12e0:	f020 0204 	bic.w	r2, r0, #4
    12e4:	429a      	cmp	r2, r3
    12e6:	d00c      	beq.n	1302 <TEE_CreatePersistentObject+0x6a>
    12e8:	4b09      	ldr	r3, [pc, #36]	; (1310 <TEE_CreatePersistentObject+0x78>)
    12ea:	429c      	cmp	r4, r3
    12ec:	d009      	beq.n	1302 <TEE_CreatePersistentObject+0x6a>
    12ee:	4b09      	ldr	r3, [pc, #36]	; (1314 <TEE_CreatePersistentObject+0x7c>)
    12f0:	429c      	cmp	r4, r3
    12f2:	d006      	beq.n	1302 <TEE_CreatePersistentObject+0x6a>
    12f4:	4b08      	ldr	r3, [pc, #32]	; (1318 <TEE_CreatePersistentObject+0x80>)
    12f6:	f024 0202 	bic.w	r2, r4, #2
    12fa:	429a      	cmp	r2, r3
    12fc:	d001      	beq.n	1302 <TEE_CreatePersistentObject+0x6a>
    12fe:	f001 fecf 	bl	30a0 <TEE_Panic>
    1302:	2300      	movs	r3, #0
    1304:	e7e6      	b.n	12d4 <TEE_CreatePersistentObject+0x3c>
    1306:	4c01      	ldr	r4, [pc, #4]	; (130c <TEE_CreatePersistentObject+0x74>)
    1308:	e7fb      	b.n	1302 <TEE_CreatePersistentObject+0x6a>
    130a:	bf00      	nop
    130c:	ffff0008 	.word	0xffff0008
    1310:	ffff0003 	.word	0xffff0003
    1314:	ffff3041 	.word	0xffff3041
    1318:	f0100001 	.word	0xf0100001

0000131c <TEE_CloseAndDeletePersistentObject1>:
    131c:	b510      	push	{r4, lr}
    131e:	b910      	cbnz	r0, 1326 <TEE_CloseAndDeletePersistentObject1+0xa>
    1320:	2400      	movs	r4, #0
    1322:	4620      	mov	r0, r4
    1324:	bd10      	pop	{r4, pc}
    1326:	f002 ec12 	blx	3b4c <_utee_storage_obj_del>
    132a:	4604      	mov	r4, r0
    132c:	2800      	cmp	r0, #0
    132e:	d0f7      	beq.n	1320 <TEE_CloseAndDeletePersistentObject1+0x4>
    1330:	4b02      	ldr	r3, [pc, #8]	; (133c <TEE_CloseAndDeletePersistentObject1+0x20>)
    1332:	4298      	cmp	r0, r3
    1334:	d0f5      	beq.n	1322 <TEE_CloseAndDeletePersistentObject1+0x6>
    1336:	f001 feb3 	bl	30a0 <TEE_Panic>
    133a:	e7f2      	b.n	1322 <TEE_CloseAndDeletePersistentObject1+0x6>
    133c:	f0100003 	.word	0xf0100003

00001340 <TEE_CloseAndDeletePersistentObject>:
    1340:	b508      	push	{r3, lr}
    1342:	b138      	cbz	r0, 1354 <TEE_CloseAndDeletePersistentObject+0x14>
    1344:	f7ff ffea 	bl	131c <TEE_CloseAndDeletePersistentObject1>
    1348:	b120      	cbz	r0, 1354 <TEE_CloseAndDeletePersistentObject+0x14>
    134a:	2000      	movs	r0, #0
    134c:	e8bd 4008 	ldmia.w	sp!, {r3, lr}
    1350:	f001 bea6 	b.w	30a0 <TEE_Panic>
    1354:	bd08      	pop	{r3, pc}

00001356 <TEE_RenamePersistentObject>:
    1356:	b510      	push	{r4, lr}
    1358:	b188      	cbz	r0, 137e <TEE_RenamePersistentObject+0x28>
    135a:	f002 ec02 	blx	3b60 <_utee_storage_obj_rename>
    135e:	4604      	mov	r4, r0
    1360:	b158      	cbz	r0, 137a <TEE_RenamePersistentObject+0x24>
    1362:	4b08      	ldr	r3, [pc, #32]	; (1384 <TEE_RenamePersistentObject+0x2e>)
    1364:	4298      	cmp	r0, r3
    1366:	d008      	beq.n	137a <TEE_RenamePersistentObject+0x24>
    1368:	4b07      	ldr	r3, [pc, #28]	; (1388 <TEE_RenamePersistentObject+0x32>)
    136a:	4298      	cmp	r0, r3
    136c:	d005      	beq.n	137a <TEE_RenamePersistentObject+0x24>
    136e:	3302      	adds	r3, #2
    1370:	4298      	cmp	r0, r3
    1372:	d002      	beq.n	137a <TEE_RenamePersistentObject+0x24>
    1374:	4620      	mov	r0, r4
    1376:	f001 fe93 	bl	30a0 <TEE_Panic>
    137a:	4620      	mov	r0, r4
    137c:	bd10      	pop	{r4, pc}
    137e:	4c03      	ldr	r4, [pc, #12]	; (138c <TEE_RenamePersistentObject+0x36>)
    1380:	e7f8      	b.n	1374 <TEE_RenamePersistentObject+0x1e>
    1382:	bf00      	nop
    1384:	ffff0003 	.word	0xffff0003
    1388:	f0100001 	.word	0xf0100001
    138c:	ffff0008 	.word	0xffff0008

00001390 <TEE_AllocatePersistentObjectEnumerator>:
    1390:	b537      	push	{r0, r1, r2, r4, r5, lr}
    1392:	2104      	movs	r1, #4
    1394:	4605      	mov	r5, r0
    1396:	f001 fec3 	bl	3120 <__utee_check_out_annotation>
    139a:	a801      	add	r0, sp, #4
    139c:	f002 ebea 	blx	3b74 <_utee_storage_alloc_enum>
    13a0:	4604      	mov	r4, r0
    13a2:	b108      	cbz	r0, 13a8 <TEE_AllocatePersistentObjectEnumerator+0x18>
    13a4:	2300      	movs	r3, #0
    13a6:	9301      	str	r3, [sp, #4]
    13a8:	9b01      	ldr	r3, [sp, #4]
    13aa:	602b      	str	r3, [r5, #0]
    13ac:	b12c      	cbz	r4, 13ba <TEE_AllocatePersistentObjectEnumerator+0x2a>
    13ae:	4b04      	ldr	r3, [pc, #16]	; (13c0 <TEE_AllocatePersistentObjectEnumerator+0x30>)
    13b0:	429c      	cmp	r4, r3
    13b2:	d002      	beq.n	13ba <TEE_AllocatePersistentObjectEnumerator+0x2a>
    13b4:	4620      	mov	r0, r4
    13b6:	f001 fe73 	bl	30a0 <TEE_Panic>
    13ba:	4620      	mov	r0, r4
    13bc:	b003      	add	sp, #12
    13be:	bd30      	pop	{r4, r5, pc}
    13c0:	ffff0003 	.word	0xffff0003

000013c4 <TEE_FreePersistentObjectEnumerator>:
    13c4:	b508      	push	{r3, lr}
    13c6:	b130      	cbz	r0, 13d6 <TEE_FreePersistentObjectEnumerator+0x12>
    13c8:	f002 ebde 	blx	3b88 <_utee_storage_free_enum>
    13cc:	b118      	cbz	r0, 13d6 <TEE_FreePersistentObjectEnumerator+0x12>
    13ce:	e8bd 4008 	ldmia.w	sp!, {r3, lr}
    13d2:	f001 be65 	b.w	30a0 <TEE_Panic>
    13d6:	bd08      	pop	{r3, pc}

000013d8 <TEE_ResetPersistentObjectEnumerator>:
    13d8:	b508      	push	{r3, lr}
    13da:	b130      	cbz	r0, 13ea <TEE_ResetPersistentObjectEnumerator+0x12>
    13dc:	f002 ebde 	blx	3b9c <_utee_storage_reset_enum>
    13e0:	b118      	cbz	r0, 13ea <TEE_ResetPersistentObjectEnumerator+0x12>
    13e2:	e8bd 4008 	ldmia.w	sp!, {r3, lr}
    13e6:	f001 be5b 	b.w	30a0 <TEE_Panic>
    13ea:	bd08      	pop	{r3, pc}

000013ec <TEE_StartPersistentObjectEnumerator>:
    13ec:	b510      	push	{r4, lr}
    13ee:	f002 ebe0 	blx	3bb0 <_utee_storage_start_enum>
    13f2:	4604      	mov	r4, r0
    13f4:	b148      	cbz	r0, 140a <TEE_StartPersistentObjectEnumerator+0x1e>
    13f6:	4b06      	ldr	r3, [pc, #24]	; (1410 <TEE_StartPersistentObjectEnumerator+0x24>)
    13f8:	4298      	cmp	r0, r3
    13fa:	d006      	beq.n	140a <TEE_StartPersistentObjectEnumerator+0x1e>
    13fc:	4b05      	ldr	r3, [pc, #20]	; (1414 <TEE_StartPersistentObjectEnumerator+0x28>)
    13fe:	f020 0202 	bic.w	r2, r0, #2
    1402:	429a      	cmp	r2, r3
    1404:	d001      	beq.n	140a <TEE_StartPersistentObjectEnumerator+0x1e>
    1406:	f001 fe4b 	bl	30a0 <TEE_Panic>
    140a:	4620      	mov	r0, r4
    140c:	bd10      	pop	{r4, pc}
    140e:	bf00      	nop
    1410:	ffff0008 	.word	0xffff0008
    1414:	f0100001 	.word	0xf0100001

00001418 <TEE_GetNextPersistentObject>:
    1418:	b5f0      	push	{r4, r5, r6, r7, lr}
    141a:	4607      	mov	r7, r0
    141c:	b08b      	sub	sp, #44	; 0x2c
    141e:	4616      	mov	r6, r2
    1420:	461d      	mov	r5, r3
    1422:	460c      	mov	r4, r1
    1424:	b119      	cbz	r1, 142e <TEE_GetNextPersistentObject+0x16>
    1426:	211c      	movs	r1, #28
    1428:	4620      	mov	r0, r4
    142a:	f001 fe79 	bl	3120 <__utee_check_out_annotation>
    142e:	2104      	movs	r1, #4
    1430:	4628      	mov	r0, r5
    1432:	f001 fe75 	bl	3120 <__utee_check_out_annotation>
    1436:	b1f6      	cbz	r6, 1476 <TEE_GetNextPersistentObject+0x5e>
    1438:	b904      	cbnz	r4, 143c <TEE_GetNextPersistentObject+0x24>
    143a:	ac03      	add	r4, sp, #12
    143c:	682b      	ldr	r3, [r5, #0]
    143e:	4621      	mov	r1, r4
    1440:	4632      	mov	r2, r6
    1442:	4638      	mov	r0, r7
    1444:	9300      	str	r3, [sp, #0]
    1446:	2300      	movs	r3, #0
    1448:	9301      	str	r3, [sp, #4]
    144a:	466b      	mov	r3, sp
    144c:	f002 ebba 	blx	3bc4 <_utee_storage_next_enum>
    1450:	9b00      	ldr	r3, [sp, #0]
    1452:	4604      	mov	r4, r0
    1454:	602b      	str	r3, [r5, #0]
    1456:	b158      	cbz	r0, 1470 <TEE_GetNextPersistentObject+0x58>
    1458:	4b08      	ldr	r3, [pc, #32]	; (147c <TEE_GetNextPersistentObject+0x64>)
    145a:	4298      	cmp	r0, r3
    145c:	d008      	beq.n	1470 <TEE_GetNextPersistentObject+0x58>
    145e:	4b08      	ldr	r3, [pc, #32]	; (1480 <TEE_GetNextPersistentObject+0x68>)
    1460:	4298      	cmp	r0, r3
    1462:	d005      	beq.n	1470 <TEE_GetNextPersistentObject+0x58>
    1464:	3302      	adds	r3, #2
    1466:	4298      	cmp	r0, r3
    1468:	d002      	beq.n	1470 <TEE_GetNextPersistentObject+0x58>
    146a:	4620      	mov	r0, r4
    146c:	f001 fe18 	bl	30a0 <TEE_Panic>
    1470:	4620      	mov	r0, r4
    1472:	b00b      	add	sp, #44	; 0x2c
    1474:	bdf0      	pop	{r4, r5, r6, r7, pc}
    1476:	4c03      	ldr	r4, [pc, #12]	; (1484 <TEE_GetNextPersistentObject+0x6c>)
    1478:	e7f7      	b.n	146a <TEE_GetNextPersistentObject+0x52>
    147a:	bf00      	nop
    147c:	ffff0008 	.word	0xffff0008
    1480:	f0100001 	.word	0xf0100001
    1484:	ffff0006 	.word	0xffff0006

00001488 <TEE_ReadObjectData>:
    1488:	b5f7      	push	{r0, r1, r2, r4, r5, r6, r7, lr}
    148a:	460e      	mov	r6, r1
    148c:	4617      	mov	r7, r2
    148e:	461c      	mov	r4, r3
    1490:	4605      	mov	r5, r0
    1492:	b1e8      	cbz	r0, 14d0 <TEE_ReadObjectData+0x48>
    1494:	4618      	mov	r0, r3
    1496:	2104      	movs	r1, #4
    1498:	f001 fe42 	bl	3120 <__utee_check_out_annotation>
    149c:	6823      	ldr	r3, [r4, #0]
    149e:	463a      	mov	r2, r7
    14a0:	4631      	mov	r1, r6
    14a2:	4628      	mov	r0, r5
    14a4:	9300      	str	r3, [sp, #0]
    14a6:	2300      	movs	r3, #0
    14a8:	9301      	str	r3, [sp, #4]
    14aa:	466b      	mov	r3, sp
    14ac:	f002 eb94 	blx	3bd8 <_utee_storage_obj_read>
    14b0:	9b00      	ldr	r3, [sp, #0]
    14b2:	6023      	str	r3, [r4, #0]
    14b4:	4604      	mov	r4, r0
    14b6:	b140      	cbz	r0, 14ca <TEE_ReadObjectData+0x42>
    14b8:	4b06      	ldr	r3, [pc, #24]	; (14d4 <TEE_ReadObjectData+0x4c>)
    14ba:	4298      	cmp	r0, r3
    14bc:	d005      	beq.n	14ca <TEE_ReadObjectData+0x42>
    14be:	3302      	adds	r3, #2
    14c0:	4298      	cmp	r0, r3
    14c2:	d002      	beq.n	14ca <TEE_ReadObjectData+0x42>
    14c4:	4620      	mov	r0, r4
    14c6:	f001 fdeb 	bl	30a0 <TEE_Panic>
    14ca:	4620      	mov	r0, r4
    14cc:	b003      	add	sp, #12
    14ce:	bdf0      	pop	{r4, r5, r6, r7, pc}
    14d0:	4c01      	ldr	r4, [pc, #4]	; (14d8 <TEE_ReadObjectData+0x50>)
    14d2:	e7f7      	b.n	14c4 <TEE_ReadObjectData+0x3c>
    14d4:	f0100001 	.word	0xf0100001
    14d8:	ffff0006 	.word	0xffff0006

000014dc <TEE_WriteObjectData>:
    14dc:	b510      	push	{r4, lr}
    14de:	b1a0      	cbz	r0, 150a <TEE_WriteObjectData+0x2e>
    14e0:	f002 eb84 	blx	3bec <_utee_storage_obj_write>
    14e4:	4604      	mov	r4, r0
    14e6:	b170      	cbz	r0, 1506 <TEE_WriteObjectData+0x2a>
    14e8:	4b09      	ldr	r3, [pc, #36]	; (1510 <TEE_WriteObjectData+0x34>)
    14ea:	4298      	cmp	r0, r3
    14ec:	d00b      	beq.n	1506 <TEE_WriteObjectData+0x2a>
    14ee:	3b32      	subs	r3, #50	; 0x32
    14f0:	4298      	cmp	r0, r3
    14f2:	d008      	beq.n	1506 <TEE_WriteObjectData+0x2a>
    14f4:	4b07      	ldr	r3, [pc, #28]	; (1514 <TEE_WriteObjectData+0x38>)
    14f6:	4298      	cmp	r0, r3
    14f8:	d005      	beq.n	1506 <TEE_WriteObjectData+0x2a>
    14fa:	3302      	adds	r3, #2
    14fc:	4298      	cmp	r0, r3
    14fe:	d002      	beq.n	1506 <TEE_WriteObjectData+0x2a>
    1500:	4620      	mov	r0, r4
    1502:	f001 fdcd 	bl	30a0 <TEE_Panic>
    1506:	4620      	mov	r0, r4
    1508:	bd10      	pop	{r4, pc}
    150a:	4c03      	ldr	r4, [pc, #12]	; (1518 <TEE_WriteObjectData+0x3c>)
    150c:	e7f8      	b.n	1500 <TEE_WriteObjectData+0x24>
    150e:	bf00      	nop
    1510:	ffff3041 	.word	0xffff3041
    1514:	f0100001 	.word	0xf0100001
    1518:	ffff0006 	.word	0xffff0006

0000151c <TEE_TruncateObjectData>:
    151c:	b510      	push	{r4, lr}
    151e:	b188      	cbz	r0, 1544 <TEE_TruncateObjectData+0x28>
    1520:	f002 eb6e 	blx	3c00 <_utee_storage_obj_trunc>
    1524:	4604      	mov	r4, r0
    1526:	b158      	cbz	r0, 1540 <TEE_TruncateObjectData+0x24>
    1528:	4b07      	ldr	r3, [pc, #28]	; (1548 <TEE_TruncateObjectData+0x2c>)
    152a:	4298      	cmp	r0, r3
    152c:	d008      	beq.n	1540 <TEE_TruncateObjectData+0x24>
    152e:	4b07      	ldr	r3, [pc, #28]	; (154c <TEE_TruncateObjectData+0x30>)
    1530:	4298      	cmp	r0, r3
    1532:	d005      	beq.n	1540 <TEE_TruncateObjectData+0x24>
    1534:	3302      	adds	r3, #2
    1536:	4298      	cmp	r0, r3
    1538:	d002      	beq.n	1540 <TEE_TruncateObjectData+0x24>
    153a:	4620      	mov	r0, r4
    153c:	f001 fdb0 	bl	30a0 <TEE_Panic>
    1540:	4620      	mov	r0, r4
    1542:	bd10      	pop	{r4, pc}
    1544:	4c02      	ldr	r4, [pc, #8]	; (1550 <TEE_TruncateObjectData+0x34>)
    1546:	e7f8      	b.n	153a <TEE_TruncateObjectData+0x1e>
    1548:	ffff3041 	.word	0xffff3041
    154c:	f0100001 	.word	0xf0100001
    1550:	ffff0006 	.word	0xffff0006

00001554 <TEE_SeekObjectData>:
    1554:	b5f0      	push	{r4, r5, r6, r7, lr}
    1556:	460d      	mov	r5, r1
    1558:	b089      	sub	sp, #36	; 0x24
    155a:	4616      	mov	r6, r2
    155c:	4607      	mov	r7, r0
    155e:	b368      	cbz	r0, 15bc <TEE_SeekObjectData+0x68>
    1560:	a901      	add	r1, sp, #4
    1562:	f002 ea26 	blx	39b0 <_utee_cryp_obj_get_info>
    1566:	4604      	mov	r4, r0
    1568:	b9d8      	cbnz	r0, 15a2 <TEE_SeekObjectData+0x4e>
    156a:	2e01      	cmp	r6, #1
    156c:	d004      	beq.n	1578 <TEE_SeekObjectData+0x24>
    156e:	d310      	bcc.n	1592 <TEE_SeekObjectData+0x3e>
    1570:	2e02      	cmp	r6, #2
    1572:	d00a      	beq.n	158a <TEE_SeekObjectData+0x36>
    1574:	4c12      	ldr	r4, [pc, #72]	; (15c0 <TEE_SeekObjectData+0x6c>)
    1576:	e017      	b.n	15a8 <TEE_SeekObjectData+0x54>
    1578:	2d00      	cmp	r5, #0
    157a:	dd0a      	ble.n	1592 <TEE_SeekObjectData+0x3e>
    157c:	9b06      	ldr	r3, [sp, #24]
    157e:	42dd      	cmn	r5, r3
    1580:	d307      	bcc.n	1592 <TEE_SeekObjectData+0x3e>
    1582:	4c10      	ldr	r4, [pc, #64]	; (15c4 <TEE_SeekObjectData+0x70>)
    1584:	4620      	mov	r0, r4
    1586:	b009      	add	sp, #36	; 0x24
    1588:	bdf0      	pop	{r4, r5, r6, r7, pc}
    158a:	2d00      	cmp	r5, #0
    158c:	dd01      	ble.n	1592 <TEE_SeekObjectData+0x3e>
    158e:	9b05      	ldr	r3, [sp, #20]
    1590:	e7f5      	b.n	157e <TEE_SeekObjectData+0x2a>
    1592:	4632      	mov	r2, r6
    1594:	4629      	mov	r1, r5
    1596:	4638      	mov	r0, r7
    1598:	f002 eb3c 	blx	3c14 <_utee_storage_obj_seek>
    159c:	4604      	mov	r4, r0
    159e:	2800      	cmp	r0, #0
    15a0:	d0f0      	beq.n	1584 <TEE_SeekObjectData+0x30>
    15a2:	4b08      	ldr	r3, [pc, #32]	; (15c4 <TEE_SeekObjectData+0x70>)
    15a4:	429c      	cmp	r4, r3
    15a6:	d0ec      	beq.n	1582 <TEE_SeekObjectData+0x2e>
    15a8:	4b07      	ldr	r3, [pc, #28]	; (15c8 <TEE_SeekObjectData+0x74>)
    15aa:	429c      	cmp	r4, r3
    15ac:	d0ea      	beq.n	1584 <TEE_SeekObjectData+0x30>
    15ae:	3302      	adds	r3, #2
    15b0:	429c      	cmp	r4, r3
    15b2:	d0e7      	beq.n	1584 <TEE_SeekObjectData+0x30>
    15b4:	4620      	mov	r0, r4
    15b6:	f001 fd73 	bl	30a0 <TEE_Panic>
    15ba:	e7e3      	b.n	1584 <TEE_SeekObjectData+0x30>
    15bc:	4c03      	ldr	r4, [pc, #12]	; (15cc <TEE_SeekObjectData+0x78>)
    15be:	e7f9      	b.n	15b4 <TEE_SeekObjectData+0x60>
    15c0:	ffff0008 	.word	0xffff0008
    15c4:	ffff300f 	.word	0xffff300f
    15c8:	f0100001 	.word	0xf0100001
    15cc:	ffff0006 	.word	0xffff0006

000015d0 <tee_buffer_update>:
    15d0:	e92d 4ff0 	stmdb	sp!, {r4, r5, r6, r7, r8, r9, sl, fp, lr}
    15d4:	b087      	sub	sp, #28
    15d6:	461f      	mov	r7, r3
    15d8:	4604      	mov	r4, r0
    15da:	f8dd 8040 	ldr.w	r8, [sp, #64]	; 0x40
    15de:	9b11      	ldr	r3, [sp, #68]	; 0x44
    15e0:	468b      	mov	fp, r1
    15e2:	4692      	mov	sl, r2
    15e4:	e9d3 0100 	ldrd	r0, r1, [r3]
    15e8:	e9cd 0102 	strd	r0, r1, [sp, #8]
    15ec:	b962      	cbnz	r2, 1608 <tee_buffer_update+0x38>
    15ee:	b93f      	cbnz	r7, 1600 <tee_buffer_update+0x30>
    15f0:	2500      	movs	r5, #0
    15f2:	9b11      	ldr	r3, [sp, #68]	; 0x44
    15f4:	2000      	movs	r0, #0
    15f6:	601d      	str	r5, [r3, #0]
    15f8:	6058      	str	r0, [r3, #4]
    15fa:	b007      	add	sp, #28
    15fc:	e8bd 8ff0 	ldmia.w	sp!, {r4, r5, r6, r7, r8, r9, sl, fp, pc}
    1600:	4610      	mov	r0, r2
    1602:	f001 fd4d 	bl	30a0 <TEE_Panic>
    1606:	e7f3      	b.n	15f0 <tee_buffer_update+0x20>
    1608:	f894 3030 	ldrb.w	r3, [r4, #48]	; 0x30
    160c:	6b65      	ldr	r5, [r4, #52]	; 0x34
    160e:	2b00      	cmp	r3, #0
    1610:	d05a      	beq.n	16c8 <tee_buffer_update+0xf8>
    1612:	006e      	lsls	r6, r5, #1
    1614:	f04f 0901 	mov.w	r9, #1
    1618:	6ba0      	ldr	r0, [r4, #56]	; 0x38
    161a:	b1c0      	cbz	r0, 164e <tee_buffer_update+0x7e>
    161c:	42a8      	cmp	r0, r5
    161e:	6ae3      	ldr	r3, [r4, #44]	; 0x2c
    1620:	4651      	mov	r1, sl
    1622:	bf2c      	ite	cs
    1624:	1a35      	subcs	r5, r6, r0
    1626:	1a2d      	subcc	r5, r5, r0
    1628:	42bd      	cmp	r5, r7
    162a:	bf28      	it	cs
    162c:	463d      	movcs	r5, r7
    162e:	462a      	mov	r2, r5
    1630:	4418      	add	r0, r3
    1632:	f7fe fe89 	bl	348 <memcpy>
    1636:	6b61      	ldr	r1, [r4, #52]	; 0x34
    1638:	6ba3      	ldr	r3, [r4, #56]	; 0x38
    163a:	442b      	add	r3, r5
    163c:	fbb3 f2f1 	udiv	r2, r3, r1
    1640:	63a3      	str	r3, [r4, #56]	; 0x38
    1642:	fb01 3312 	mls	r3, r1, r2, r3
    1646:	2b00      	cmp	r3, #0
    1648:	d1d2      	bne.n	15f0 <tee_buffer_update+0x20>
    164a:	44aa      	add	sl, r5
    164c:	1b7f      	subs	r7, r7, r5
    164e:	6ba5      	ldr	r5, [r4, #56]	; 0x38
    1650:	9902      	ldr	r1, [sp, #8]
    1652:	2d00      	cmp	r5, #0
    1654:	d03c      	beq.n	16d0 <tee_buffer_update+0x100>
    1656:	1978      	adds	r0, r7, r5
    1658:	eb06 0309 	add.w	r3, r6, r9
    165c:	4298      	cmp	r0, r3
    165e:	d336      	bcc.n	16ce <tee_buffer_update+0xfe>
    1660:	6b62      	ldr	r2, [r4, #52]	; 0x34
    1662:	1e53      	subs	r3, r2, #1
    1664:	4252      	negs	r2, r2
    1666:	1b9b      	subs	r3, r3, r6
    1668:	4403      	add	r3, r0
    166a:	e9dd 0102 	ldrd	r0, r1, [sp, #8]
    166e:	2100      	movs	r1, #0
    1670:	4013      	ands	r3, r2
    1672:	429d      	cmp	r5, r3
    1674:	bf28      	it	cs
    1676:	461d      	movcs	r5, r3
    1678:	ab06      	add	r3, sp, #24
    167a:	462a      	mov	r2, r5
    167c:	e963 0102 	strd	r0, r1, [r3, #-8]!
    1680:	6ae1      	ldr	r1, [r4, #44]	; 0x2c
    1682:	6be0      	ldr	r0, [r4, #60]	; 0x3c
    1684:	9300      	str	r3, [sp, #0]
    1686:	4643      	mov	r3, r8
    1688:	47d8      	blx	fp
    168a:	b108      	cbz	r0, 1690 <tee_buffer_update+0xc0>
    168c:	f001 fd08 	bl	30a0 <TEE_Panic>
    1690:	9a02      	ldr	r2, [sp, #8]
    1692:	9b04      	ldr	r3, [sp, #16]
    1694:	1ad1      	subs	r1, r2, r3
    1696:	6ba2      	ldr	r2, [r4, #56]	; 0x38
    1698:	4498      	add	r8, r3
    169a:	1b52      	subs	r2, r2, r5
    169c:	63a2      	str	r2, [r4, #56]	; 0x38
    169e:	2a00      	cmp	r2, #0
    16a0:	d041      	beq.n	1726 <tee_buffer_update+0x156>
    16a2:	6ae0      	ldr	r0, [r4, #44]	; 0x2c
    16a4:	1b72      	subs	r2, r6, r5
    16a6:	9302      	str	r3, [sp, #8]
    16a8:	1941      	adds	r1, r0, r5
    16aa:	f7fe fe4d 	bl	348 <memcpy>
    16ae:	6ae5      	ldr	r5, [r4, #44]	; 0x2c
    16b0:	463a      	mov	r2, r7
    16b2:	4651      	mov	r1, sl
    16b4:	6ba0      	ldr	r0, [r4, #56]	; 0x38
    16b6:	4428      	add	r0, r5
    16b8:	f7fe fe46 	bl	348 <memcpy>
    16bc:	6ba2      	ldr	r2, [r4, #56]	; 0x38
    16be:	9b02      	ldr	r3, [sp, #8]
    16c0:	4417      	add	r7, r2
    16c2:	461d      	mov	r5, r3
    16c4:	63a7      	str	r7, [r4, #56]	; 0x38
    16c6:	e794      	b.n	15f2 <tee_buffer_update+0x22>
    16c8:	462e      	mov	r6, r5
    16ca:	4699      	mov	r9, r3
    16cc:	e7a4      	b.n	1618 <tee_buffer_update+0x48>
    16ce:	2500      	movs	r5, #0
    16d0:	44b1      	add	r9, r6
    16d2:	454f      	cmp	r7, r9
    16d4:	d31c      	bcc.n	1710 <tee_buffer_update+0x140>
    16d6:	4b15      	ldr	r3, [pc, #84]	; (172c <tee_buffer_update+0x15c>)
    16d8:	9104      	str	r1, [sp, #16]
    16da:	4651      	mov	r1, sl
    16dc:	6822      	ldr	r2, [r4, #0]
    16de:	6be0      	ldr	r0, [r4, #60]	; 0x3c
    16e0:	429a      	cmp	r2, r3
    16e2:	6b62      	ldr	r2, [r4, #52]	; 0x34
    16e4:	bf0a      	itet	eq
    16e6:	f102 33ff 	addeq.w	r3, r2, #4294967295	; 0xffffffff
    16ea:	1b96      	subne	r6, r2, r6
    16ec:	1b9e      	subeq	r6, r3, r6
    16ee:	2300      	movs	r3, #0
    16f0:	4252      	negs	r2, r2
    16f2:	443e      	add	r6, r7
    16f4:	9305      	str	r3, [sp, #20]
    16f6:	ab04      	add	r3, sp, #16
    16f8:	4016      	ands	r6, r2
    16fa:	4632      	mov	r2, r6
    16fc:	9300      	str	r3, [sp, #0]
    16fe:	4643      	mov	r3, r8
    1700:	47d8      	blx	fp
    1702:	b108      	cbz	r0, 1708 <tee_buffer_update+0x138>
    1704:	f001 fccc 	bl	30a0 <TEE_Panic>
    1708:	9b04      	ldr	r3, [sp, #16]
    170a:	44b2      	add	sl, r6
    170c:	1bbf      	subs	r7, r7, r6
    170e:	441d      	add	r5, r3
    1710:	6ae0      	ldr	r0, [r4, #44]	; 0x2c
    1712:	463a      	mov	r2, r7
    1714:	4651      	mov	r1, sl
    1716:	6ba3      	ldr	r3, [r4, #56]	; 0x38
    1718:	4418      	add	r0, r3
    171a:	f7fe fe15 	bl	348 <memcpy>
    171e:	6ba3      	ldr	r3, [r4, #56]	; 0x38
    1720:	441f      	add	r7, r3
    1722:	63a7      	str	r7, [r4, #56]	; 0x38
    1724:	e765      	b.n	15f2 <tee_buffer_update+0x22>
    1726:	461d      	mov	r5, r3
    1728:	e7d2      	b.n	16d0 <tee_buffer_update+0x100>
    172a:	bf00      	nop
    172c:	10000310 	.word	0x10000310

00001730 <TEE_FreeOperation>:
    1730:	b510      	push	{r4, lr}
    1732:	4604      	mov	r4, r0
    1734:	b908      	cbnz	r0, 173a <TEE_FreeOperation+0xa>
    1736:	f001 fcb3 	bl	30a0 <TEE_Panic>
    173a:	6be0      	ldr	r0, [r4, #60]	; 0x3c
    173c:	f002 e8ec 	blx	3918 <_utee_cryp_state_free>
    1740:	b108      	cbz	r0, 1746 <TEE_FreeOperation+0x16>
    1742:	f001 fcad 	bl	30a0 <TEE_Panic>
    1746:	6ae0      	ldr	r0, [r4, #44]	; 0x2c
    1748:	f002 ffd6 	bl	46f8 <TEE_Free>
    174c:	4620      	mov	r0, r4
    174e:	e8bd 4010 	ldmia.w	sp!, {r4, lr}
    1752:	f002 bfd1 	b.w	46f8 <TEE_Free>

00001756 <TEE_AllocateOperation>:
    1756:	e92d 4ff0 	stmdb	sp!, {r4, r5, r6, r7, r8, r9, sl, fp, lr}
    175a:	b087      	sub	sp, #28
    175c:	460c      	mov	r4, r1
    175e:	4616      	mov	r6, r2
    1760:	4699      	mov	r9, r3
    1762:	9002      	str	r0, [sp, #8]
    1764:	b908      	cbnz	r0, 176a <TEE_AllocateOperation+0x14>
    1766:	f001 fc9b 	bl	30a0 <TEE_Panic>
    176a:	4ac4      	ldr	r2, [pc, #784]	; (1a7c <TEE_AllocateOperation+0x326>)
    176c:	4294      	cmp	r4, r2
    176e:	f000 820a 	beq.w	1b86 <TEE_AllocateOperation+0x430>
    1772:	4bc3      	ldr	r3, [pc, #780]	; (1a80 <TEE_AllocateOperation+0x32a>)
    1774:	429c      	cmp	r4, r3
    1776:	f000 8093 	beq.w	18a0 <TEE_AllocateOperation+0x14a>
    177a:	4bc2      	ldr	r3, [pc, #776]	; (1a84 <TEE_AllocateOperation+0x32e>)
    177c:	429c      	cmp	r4, r3
    177e:	f000 80a0 	beq.w	18c2 <TEE_AllocateOperation+0x16c>
    1782:	d855      	bhi.n	1830 <TEE_AllocateOperation+0xda>
    1784:	49c0      	ldr	r1, [pc, #768]	; (1a88 <TEE_AllocateOperation+0x332>)
    1786:	428c      	cmp	r4, r1
    1788:	d060      	beq.n	184c <TEE_AllocateOperation+0xf6>
    178a:	d811      	bhi.n	17b0 <TEE_AllocateOperation+0x5a>
    178c:	f5a1 5180 	sub.w	r1, r1, #4096	; 0x1000
    1790:	428c      	cmp	r4, r1
    1792:	f000 8082 	beq.w	189a <TEE_AllocateOperation+0x144>
    1796:	31f0      	adds	r1, #240	; 0xf0
    1798:	428c      	cmp	r4, r1
    179a:	d064      	beq.n	1866 <TEE_AllocateOperation+0x110>
    179c:	f5a1 5187 	sub.w	r1, r1, #4320	; 0x10e0
    17a0:	3910      	subs	r1, #16
    17a2:	428c      	cmp	r4, r1
    17a4:	d10f      	bne.n	17c6 <TEE_AllocateOperation+0x70>
    17a6:	f1b9 0fc0 	cmp.w	r9, #192	; 0xc0
    17aa:	d00c      	beq.n	17c6 <TEE_AllocateOperation+0x70>
    17ac:	4fb7      	ldr	r7, [pc, #732]	; (1a8c <TEE_AllocateOperation+0x336>)
    17ae:	e35e      	b.n	1e6e <TEE_AllocateOperation+0x718>
    17b0:	49b7      	ldr	r1, [pc, #732]	; (1a90 <TEE_AllocateOperation+0x33a>)
    17b2:	428c      	cmp	r4, r1
    17b4:	f000 8082 	beq.w	18bc <TEE_AllocateOperation+0x166>
    17b8:	31f0      	adds	r1, #240	; 0xf0
    17ba:	428c      	cmp	r4, r1
    17bc:	d068      	beq.n	1890 <TEE_AllocateOperation+0x13a>
    17be:	f5a1 5180 	sub.w	r1, r1, #4096	; 0x1000
    17c2:	428c      	cmp	r4, r1
    17c4:	d060      	beq.n	1888 <TEE_AllocateOperation+0x132>
    17c6:	49b3      	ldr	r1, [pc, #716]	; (1a94 <TEE_AllocateOperation+0x33e>)
    17c8:	428c      	cmp	r4, r1
    17ca:	d054      	beq.n	1876 <TEE_AllocateOperation+0x120>
    17cc:	f200 8104 	bhi.w	19d8 <TEE_AllocateOperation+0x282>
    17d0:	4bb1      	ldr	r3, [pc, #708]	; (1a98 <TEE_AllocateOperation+0x342>)
    17d2:	429c      	cmp	r4, r3
    17d4:	f200 80ad 	bhi.w	1932 <TEE_AllocateOperation+0x1dc>
    17d8:	3b01      	subs	r3, #1
    17da:	429c      	cmp	r4, r3
    17dc:	f080 809f 	bcs.w	191e <TEE_AllocateOperation+0x1c8>
    17e0:	4bae      	ldr	r3, [pc, #696]	; (1a9c <TEE_AllocateOperation+0x346>)
    17e2:	429c      	cmp	r4, r3
    17e4:	f000 81dd 	beq.w	1ba2 <TEE_AllocateOperation+0x44c>
    17e8:	d87c      	bhi.n	18e4 <TEE_AllocateOperation+0x18e>
    17ea:	f5a3 73fe 	sub.w	r3, r3, #508	; 0x1fc
    17ee:	429c      	cmp	r4, r3
    17f0:	d86b      	bhi.n	18ca <TEE_AllocateOperation+0x174>
    17f2:	3b01      	subs	r3, #1
    17f4:	429c      	cmp	r4, r3
    17f6:	d204      	bcs.n	1802 <TEE_AllocateOperation+0xac>
    17f8:	f104 4370 	add.w	r3, r4, #4026531840	; 0xf0000000
    17fc:	3b10      	subs	r3, #16
    17fe:	2b01      	cmp	r3, #1
    1800:	d8d4      	bhi.n	17ac <TEE_AllocateOperation+0x56>
    1802:	f04f 0a00 	mov.w	sl, #0
    1806:	4657      	mov	r7, sl
    1808:	fa5f f884 	uxtb.w	r8, r4
    180c:	f1b8 0f10 	cmp.w	r8, #16
    1810:	d006      	beq.n	1820 <TEE_AllocateOperation+0xca>
    1812:	f1b8 0f14 	cmp.w	r8, #20
    1816:	bf0c      	ite	eq
    1818:	f04f 0810 	moveq.w	r8, #16
    181c:	f04f 0808 	movne.w	r8, #8
    1820:	2e00      	cmp	r6, #0
    1822:	f000 81f6 	beq.w	1c12 <TEE_AllocateOperation+0x4bc>
    1826:	2e01      	cmp	r6, #1
    1828:	d1c0      	bne.n	17ac <TEE_AllocateOperation+0x56>
    182a:	2300      	movs	r3, #0
    182c:	2204      	movs	r2, #4
    182e:	e1d0      	b.n	1bd2 <TEE_AllocateOperation+0x47c>
    1830:	499b      	ldr	r1, [pc, #620]	; (1aa0 <TEE_AllocateOperation+0x34a>)
    1832:	428c      	cmp	r4, r1
    1834:	d031      	beq.n	189a <TEE_AllocateOperation+0x144>
    1836:	d80c      	bhi.n	1852 <TEE_AllocateOperation+0xfc>
    1838:	499a      	ldr	r1, [pc, #616]	; (1aa4 <TEE_AllocateOperation+0x34e>)
    183a:	428c      	cmp	r4, r1
    183c:	d006      	beq.n	184c <TEE_AllocateOperation+0xf6>
    183e:	f601 71fd 	addw	r1, r1, #4093	; 0xffd
    1842:	428c      	cmp	r4, r1
    1844:	d0af      	beq.n	17a6 <TEE_AllocateOperation+0x50>
    1846:	4998      	ldr	r1, [pc, #608]	; (1aa8 <TEE_AllocateOperation+0x352>)
    1848:	428c      	cmp	r4, r1
    184a:	d1bc      	bne.n	17c6 <TEE_AllocateOperation+0x70>
    184c:	f5b9 7f80 	cmp.w	r9, #256	; 0x100
    1850:	e7ab      	b.n	17aa <TEE_AllocateOperation+0x54>
    1852:	4996      	ldr	r1, [pc, #600]	; (1aac <TEE_AllocateOperation+0x356>)
    1854:	428c      	cmp	r4, r1
    1856:	d031      	beq.n	18bc <TEE_AllocateOperation+0x166>
    1858:	f501 5180 	add.w	r1, r1, #4096	; 0x1000
    185c:	428c      	cmp	r4, r1
    185e:	d030      	beq.n	18c2 <TEE_AllocateOperation+0x16c>
    1860:	f5a1 5100 	sub.w	r1, r1, #8192	; 0x2000
    1864:	e7f0      	b.n	1848 <TEE_AllocateOperation+0xf2>
    1866:	f5a9 7300 	sub.w	r3, r9, #512	; 0x200
    186a:	f5b3 7f00 	cmp.w	r3, #512	; 0x200
    186e:	d89d      	bhi.n	17ac <TEE_AllocateOperation+0x56>
    1870:	f019 0f3f 	tst.w	r9, #63	; 0x3f
    1874:	d19a      	bne.n	17ac <TEE_AllocateOperation+0x56>
    1876:	2e02      	cmp	r6, #2
    1878:	f000 81ce 	beq.w	1c18 <TEE_AllocateOperation+0x4c2>
    187c:	2e03      	cmp	r6, #3
    187e:	d195      	bne.n	17ac <TEE_AllocateOperation+0x56>
    1880:	2700      	movs	r7, #0
    1882:	2220      	movs	r2, #32
    1884:	463b      	mov	r3, r7
    1886:	e050      	b.n	192a <TEE_AllocateOperation+0x1d4>
    1888:	f5b9 6f00 	cmp.w	r9, #2048	; 0x800
    188c:	d18e      	bne.n	17ac <TEE_AllocateOperation+0x56>
    188e:	e7f2      	b.n	1876 <TEE_AllocateOperation+0x120>
    1890:	f429 6380 	bic.w	r3, r9, #1024	; 0x400
    1894:	f5b3 6f00 	cmp.w	r3, #2048	; 0x800
    1898:	e7f8      	b.n	188c <TEE_AllocateOperation+0x136>
    189a:	f1b9 0fe0 	cmp.w	r9, #224	; 0xe0
    189e:	e784      	b.n	17aa <TEE_AllocateOperation+0x54>
    18a0:	f5b9 7f00 	cmp.w	r9, #512	; 0x200
    18a4:	d182      	bne.n	17ac <TEE_AllocateOperation+0x56>
    18a6:	f44f 2a00 	mov.w	sl, #524288	; 0x80000
    18aa:	2e06      	cmp	r6, #6
    18ac:	f47f af7e 	bne.w	17ac <TEE_AllocateOperation+0x56>
    18b0:	2700      	movs	r7, #0
    18b2:	2301      	movs	r3, #1
    18b4:	2240      	movs	r2, #64	; 0x40
    18b6:	f04f 0801 	mov.w	r8, #1
    18ba:	e18a      	b.n	1bd2 <TEE_AllocateOperation+0x47c>
    18bc:	f5b9 7fc0 	cmp.w	r9, #384	; 0x180
    18c0:	e773      	b.n	17aa <TEE_AllocateOperation+0x54>
    18c2:	f240 2109 	movw	r1, #521	; 0x209
    18c6:	4589      	cmp	r9, r1
    18c8:	e76f      	b.n	17aa <TEE_AllocateOperation+0x54>
    18ca:	4b79      	ldr	r3, [pc, #484]	; (1ab0 <TEE_AllocateOperation+0x35a>)
    18cc:	429c      	cmp	r4, r3
    18ce:	f4ff af6d 	bcc.w	17ac <TEE_AllocateOperation+0x56>
    18d2:	3301      	adds	r3, #1
    18d4:	429c      	cmp	r4, r3
    18d6:	d994      	bls.n	1802 <TEE_AllocateOperation+0xac>
    18d8:	f104 4370 	add.w	r3, r4, #4026531840	; 0xf0000000
    18dc:	f46f 7089 	mvn.w	r0, #274	; 0x112
    18e0:	4403      	add	r3, r0
    18e2:	e78c      	b.n	17fe <TEE_AllocateOperation+0xa8>
    18e4:	4b73      	ldr	r3, [pc, #460]	; (1ab4 <TEE_AllocateOperation+0x35e>)
    18e6:	429c      	cmp	r4, r3
    18e8:	d80e      	bhi.n	1908 <TEE_AllocateOperation+0x1b2>
    18ea:	f1b4 5f40 	cmp.w	r4, #805306368	; 0x30000000
    18ee:	d816      	bhi.n	191e <TEE_AllocateOperation+0x1c8>
    18f0:	4b71      	ldr	r3, [pc, #452]	; (1ab8 <TEE_AllocateOperation+0x362>)
    18f2:	429c      	cmp	r4, r3
    18f4:	f000 8152 	beq.w	1b9c <TEE_AllocateOperation+0x446>
    18f8:	4294      	cmp	r4, r2
    18fa:	f000 814f 	beq.w	1b9c <TEE_AllocateOperation+0x446>
    18fe:	3bfc      	subs	r3, #252	; 0xfc
    1900:	429c      	cmp	r4, r3
    1902:	f43f af7e 	beq.w	1802 <TEE_AllocateOperation+0xac>
    1906:	e751      	b.n	17ac <TEE_AllocateOperation+0x56>
    1908:	4b6c      	ldr	r3, [pc, #432]	; (1abc <TEE_AllocateOperation+0x366>)
    190a:	429c      	cmp	r4, r3
    190c:	f4ff af4e 	bcc.w	17ac <TEE_AllocateOperation+0x56>
    1910:	3301      	adds	r3, #1
    1912:	429c      	cmp	r4, r3
    1914:	d903      	bls.n	191e <TEE_AllocateOperation+0x1c8>
    1916:	3302      	adds	r3, #2
    1918:	429c      	cmp	r4, r3
    191a:	f47f af47 	bne.w	17ac <TEE_AllocateOperation+0x56>
    191e:	2e04      	cmp	r6, #4
    1920:	f47f af44 	bne.w	17ac <TEE_AllocateOperation+0x56>
    1924:	2700      	movs	r7, #0
    1926:	2208      	movs	r2, #8
    1928:	463b      	mov	r3, r7
    192a:	f04f 0801 	mov.w	r8, #1
    192e:	46ba      	mov	sl, r7
    1930:	e14f      	b.n	1bd2 <TEE_AllocateOperation+0x47c>
    1932:	4b63      	ldr	r3, [pc, #396]	; (1ac0 <TEE_AllocateOperation+0x36a>)
    1934:	429c      	cmp	r4, r3
    1936:	d035      	beq.n	19a4 <TEE_AllocateOperation+0x24e>
    1938:	d823      	bhi.n	1982 <TEE_AllocateOperation+0x22c>
    193a:	4b62      	ldr	r3, [pc, #392]	; (1ac4 <TEE_AllocateOperation+0x36e>)
    193c:	429c      	cmp	r4, r3
    193e:	f000 8130 	beq.w	1ba2 <TEE_AllocateOperation+0x44c>
    1942:	d808      	bhi.n	1956 <TEE_AllocateOperation+0x200>
    1944:	4b60      	ldr	r3, [pc, #384]	; (1ac8 <TEE_AllocateOperation+0x372>)
    1946:	429c      	cmp	r4, r3
    1948:	d0e9      	beq.n	191e <TEE_AllocateOperation+0x1c8>
    194a:	4b60      	ldr	r3, [pc, #384]	; (1acc <TEE_AllocateOperation+0x376>)
    194c:	429c      	cmp	r4, r3
    194e:	f43f af58 	beq.w	1802 <TEE_AllocateOperation+0xac>
    1952:	4b5f      	ldr	r3, [pc, #380]	; (1ad0 <TEE_AllocateOperation+0x37a>)
    1954:	e7e0      	b.n	1918 <TEE_AllocateOperation+0x1c2>
    1956:	f1b4 4fa0 	cmp.w	r4, #1342177280	; 0x50000000
    195a:	f67f af27 	bls.w	17ac <TEE_AllocateOperation+0x56>
    195e:	4b5d      	ldr	r3, [pc, #372]	; (1ad4 <TEE_AllocateOperation+0x37e>)
    1960:	429c      	cmp	r4, r3
    1962:	f240 8128 	bls.w	1bb6 <TEE_AllocateOperation+0x460>
    1966:	4b5c      	ldr	r3, [pc, #368]	; (1ad8 <TEE_AllocateOperation+0x382>)
    1968:	429c      	cmp	r4, r3
    196a:	f47f af1f 	bne.w	17ac <TEE_AllocateOperation+0x56>
    196e:	2e00      	cmp	r6, #0
    1970:	f000 815b 	beq.w	1c2a <TEE_AllocateOperation+0x4d4>
    1974:	2e01      	cmp	r6, #1
    1976:	f47f af19 	bne.w	17ac <TEE_AllocateOperation+0x56>
    197a:	2700      	movs	r7, #0
    197c:	4633      	mov	r3, r6
    197e:	2214      	movs	r2, #20
    1980:	e019      	b.n	19b6 <TEE_AllocateOperation+0x260>
    1982:	4b56      	ldr	r3, [pc, #344]	; (1adc <TEE_AllocateOperation+0x386>)
    1984:	429c      	cmp	r4, r3
    1986:	d00d      	beq.n	19a4 <TEE_AllocateOperation+0x24e>
    1988:	d817      	bhi.n	19ba <TEE_AllocateOperation+0x264>
    198a:	f5a3 1300 	sub.w	r3, r3, #2097152	; 0x200000
    198e:	429c      	cmp	r4, r3
    1990:	d008      	beq.n	19a4 <TEE_AllocateOperation+0x24e>
    1992:	f503 1380 	add.w	r3, r3, #1048576	; 0x100000
    1996:	429c      	cmp	r4, r3
    1998:	d004      	beq.n	19a4 <TEE_AllocateOperation+0x24e>
    199a:	f5a3 1300 	sub.w	r3, r3, #2097152	; 0x200000
    199e:	429c      	cmp	r4, r3
    19a0:	f47f af04 	bne.w	17ac <TEE_AllocateOperation+0x56>
    19a4:	2e00      	cmp	r6, #0
    19a6:	f000 813b 	beq.w	1c20 <TEE_AllocateOperation+0x4ca>
    19aa:	2e01      	cmp	r6, #1
    19ac:	f47f aefe 	bne.w	17ac <TEE_AllocateOperation+0x56>
    19b0:	2700      	movs	r7, #0
    19b2:	4633      	mov	r3, r6
    19b4:	2204      	movs	r2, #4
    19b6:	46b0      	mov	r8, r6
    19b8:	e7b9      	b.n	192e <TEE_AllocateOperation+0x1d8>
    19ba:	4b49      	ldr	r3, [pc, #292]	; (1ae0 <TEE_AllocateOperation+0x38a>)
    19bc:	429c      	cmp	r4, r3
    19be:	f43f af5a 	beq.w	1876 <TEE_AllocateOperation+0x120>
    19c2:	d801      	bhi.n	19c8 <TEE_AllocateOperation+0x272>
    19c4:	4b47      	ldr	r3, [pc, #284]	; (1ae4 <TEE_AllocateOperation+0x38e>)
    19c6:	e7ea      	b.n	199e <TEE_AllocateOperation+0x248>
    19c8:	4b47      	ldr	r3, [pc, #284]	; (1ae8 <TEE_AllocateOperation+0x392>)
    19ca:	429c      	cmp	r4, r3
    19cc:	f43f af53 	beq.w	1876 <TEE_AllocateOperation+0x120>
    19d0:	f603 0311 	addw	r3, r3, #2065	; 0x811
    19d4:	429c      	cmp	r4, r3
    19d6:	e759      	b.n	188c <TEE_AllocateOperation+0x136>
    19d8:	4a32      	ldr	r2, [pc, #200]	; (1aa4 <TEE_AllocateOperation+0x34e>)
    19da:	4294      	cmp	r4, r2
    19dc:	d0e2      	beq.n	19a4 <TEE_AllocateOperation+0x24e>
    19de:	f200 8093 	bhi.w	1b08 <TEE_AllocateOperation+0x3b2>
    19e2:	4a42      	ldr	r2, [pc, #264]	; (1aec <TEE_AllocateOperation+0x396>)
    19e4:	4294      	cmp	r4, r2
    19e6:	f43f af46 	beq.w	1876 <TEE_AllocateOperation+0x120>
    19ea:	d81c      	bhi.n	1a26 <TEE_AllocateOperation+0x2d0>
    19ec:	f5a2 5200 	sub.w	r2, r2, #8192	; 0x2000
    19f0:	4294      	cmp	r4, r2
    19f2:	f43f af40 	beq.w	1876 <TEE_AllocateOperation+0x120>
    19f6:	d80b      	bhi.n	1a10 <TEE_AllocateOperation+0x2ba>
    19f8:	4b23      	ldr	r3, [pc, #140]	; (1a88 <TEE_AllocateOperation+0x332>)
    19fa:	429c      	cmp	r4, r3
    19fc:	f43f af3b 	beq.w	1876 <TEE_AllocateOperation+0x120>
    1a00:	33f0      	adds	r3, #240	; 0xf0
    1a02:	429c      	cmp	r4, r3
    1a04:	f43f af37 	beq.w	1876 <TEE_AllocateOperation+0x120>
    1a08:	f46f 6110 	mvn.w	r1, #2304	; 0x900
    1a0c:	440b      	add	r3, r1
    1a0e:	e7e1      	b.n	19d4 <TEE_AllocateOperation+0x27e>
    1a10:	4a37      	ldr	r2, [pc, #220]	; (1af0 <TEE_AllocateOperation+0x39a>)
    1a12:	4294      	cmp	r4, r2
    1a14:	f43f af2f 	beq.w	1876 <TEE_AllocateOperation+0x120>
    1a18:	d801      	bhi.n	1a1e <TEE_AllocateOperation+0x2c8>
    1a1a:	4b1d      	ldr	r3, [pc, #116]	; (1a90 <TEE_AllocateOperation+0x33a>)
    1a1c:	e7da      	b.n	19d4 <TEE_AllocateOperation+0x27e>
    1a1e:	4a35      	ldr	r2, [pc, #212]	; (1af4 <TEE_AllocateOperation+0x39e>)
    1a20:	4294      	cmp	r4, r2
    1a22:	d1d7      	bne.n	19d4 <TEE_AllocateOperation+0x27e>
    1a24:	e727      	b.n	1876 <TEE_AllocateOperation+0x120>
    1a26:	4b34      	ldr	r3, [pc, #208]	; (1af8 <TEE_AllocateOperation+0x3a2>)
    1a28:	429c      	cmp	r4, r3
    1a2a:	f43f af24 	beq.w	1876 <TEE_AllocateOperation+0x120>
    1a2e:	d812      	bhi.n	1a56 <TEE_AllocateOperation+0x300>
    1a30:	f5a3 1343 	sub.w	r3, r3, #3194880	; 0x30c000
    1a34:	f5a3 5388 	sub.w	r3, r3, #4352	; 0x1100
    1a38:	429c      	cmp	r4, r3
    1a3a:	f43f af1c 	beq.w	1876 <TEE_AllocateOperation+0x120>
    1a3e:	f503 1303 	add.w	r3, r3, #2146304	; 0x20c000
    1a42:	f503 7380 	add.w	r3, r3, #256	; 0x100
    1a46:	429c      	cmp	r4, r3
    1a48:	f43f af15 	beq.w	1876 <TEE_AllocateOperation+0x120>
    1a4c:	f5a3 1303 	sub.w	r3, r3, #2146304	; 0x20c000
    1a50:	f6a3 03eb 	subw	r3, r3, #2283	; 0x8eb
    1a54:	e7be      	b.n	19d4 <TEE_AllocateOperation+0x27e>
    1a56:	4b29      	ldr	r3, [pc, #164]	; (1afc <TEE_AllocateOperation+0x3a6>)
    1a58:	429c      	cmp	r4, r3
    1a5a:	f43f af0c 	beq.w	1876 <TEE_AllocateOperation+0x120>
    1a5e:	d804      	bhi.n	1a6a <TEE_AllocateOperation+0x314>
    1a60:	f5a3 1380 	sub.w	r3, r3, #1048576	; 0x100000
    1a64:	f5a3 5380 	sub.w	r3, r3, #4096	; 0x1000
    1a68:	e7b4      	b.n	19d4 <TEE_AllocateOperation+0x27e>
    1a6a:	4b25      	ldr	r3, [pc, #148]	; (1b00 <TEE_AllocateOperation+0x3aa>)
    1a6c:	429c      	cmp	r4, r3
    1a6e:	f43f af02 	beq.w	1876 <TEE_AllocateOperation+0x120>
    1a72:	4b24      	ldr	r3, [pc, #144]	; (1b04 <TEE_AllocateOperation+0x3ae>)
    1a74:	429c      	cmp	r4, r3
    1a76:	f47f ae99 	bne.w	17ac <TEE_AllocateOperation+0x56>
    1a7a:	e067      	b.n	1b4c <TEE_AllocateOperation+0x3f6>
    1a7c:	10000410 	.word	0x10000410
    1a80:	60000045 	.word	0x60000045
    1a84:	70005041 	.word	0x70005041
    1a88:	70003041 	.word	0x70003041
    1a8c:	ffff000a 	.word	0xffff000a
    1a90:	70004041 	.word	0x70004041
    1a94:	70002131 	.word	0x70002131
    1a98:	30000511 	.word	0x30000511
    1a9c:	10000210 	.word	0x10000210
    1aa0:	80002042 	.word	0x80002042
    1aa4:	80000045 	.word	0x80000045
    1aa8:	70006045 	.word	0x70006045
    1aac:	80004042 	.word	0x80004042
    1ab0:	10000110 	.word	0x10000110
    1ab4:	30000007 	.word	0x30000007
    1ab8:	10000310 	.word	0x10000310
    1abc:	30000110 	.word	0x30000110
    1ac0:	60000130 	.word	0x60000130
    1ac4:	40000810 	.word	0x40000810
    1ac8:	30000610 	.word	0x30000610
    1acc:	40000710 	.word	0x40000710
    1ad0:	30000513 	.word	0x30000513
    1ad4:	50000007 	.word	0x50000007
    1ad8:	60000030 	.word	0x60000030
    1adc:	60510230 	.word	0x60510230
    1ae0:	70001041 	.word	0x70001041
    1ae4:	60610230 	.word	0x60610230
    1ae8:	70001830 	.word	0x70001830
    1aec:	70005830 	.word	0x70005830
    1af0:	70004131 	.word	0x70004131
    1af4:	70004830 	.word	0x70004830
    1af8:	70313930 	.word	0x70313930
    1afc:	70515930 	.word	0x70515930
    1b00:	70616930 	.word	0x70616930
    1b04:	80000032 	.word	0x80000032
    1b08:	4b9f      	ldr	r3, [pc, #636]	; (1d88 <TEE_AllocateOperation+0x632>)
    1b0a:	429c      	cmp	r4, r3
    1b0c:	d01e      	beq.n	1b4c <TEE_AllocateOperation+0x3f6>
    1b0e:	d820      	bhi.n	1b52 <TEE_AllocateOperation+0x3fc>
    1b10:	f5a3 53fc 	sub.w	r3, r3, #8064	; 0x1f80
    1b14:	429c      	cmp	r4, r3
    1b16:	d80d      	bhi.n	1b34 <TEE_AllocateOperation+0x3de>
    1b18:	3b02      	subs	r3, #2
    1b1a:	429c      	cmp	r4, r3
    1b1c:	d216      	bcs.n	1b4c <TEE_AllocateOperation+0x3f6>
    1b1e:	f5a3 5380 	sub.w	r3, r3, #4096	; 0x1000
    1b22:	429c      	cmp	r4, r3
    1b24:	d012      	beq.n	1b4c <TEE_AllocateOperation+0x3f6>
    1b26:	f603 7382 	addw	r3, r3, #3970	; 0xf82
    1b2a:	429c      	cmp	r4, r3
    1b2c:	d00e      	beq.n	1b4c <TEE_AllocateOperation+0x3f6>
    1b2e:	f5a3 5380 	sub.w	r3, r3, #4096	; 0x1000
    1b32:	e79f      	b.n	1a74 <TEE_AllocateOperation+0x31e>
    1b34:	4b95      	ldr	r3, [pc, #596]	; (1d8c <TEE_AllocateOperation+0x636>)
    1b36:	429c      	cmp	r4, r3
    1b38:	d008      	beq.n	1b4c <TEE_AllocateOperation+0x3f6>
    1b3a:	f4ff ae37 	bcc.w	17ac <TEE_AllocateOperation+0x56>
    1b3e:	f104 4300 	add.w	r3, r4, #2147483648	; 0x80000000
    1b42:	f5a3 5343 	sub.w	r3, r3, #12480	; 0x30c0
    1b46:	2b01      	cmp	r3, #1
    1b48:	f63f ae30 	bhi.w	17ac <TEE_AllocateOperation+0x56>
    1b4c:	f04f 0a00 	mov.w	sl, #0
    1b50:	e6ab      	b.n	18aa <TEE_AllocateOperation+0x154>
    1b52:	4b8f      	ldr	r3, [pc, #572]	; (1d90 <TEE_AllocateOperation+0x63a>)
    1b54:	429c      	cmp	r4, r3
    1b56:	d80d      	bhi.n	1b74 <TEE_AllocateOperation+0x41e>
    1b58:	3b01      	subs	r3, #1
    1b5a:	429c      	cmp	r4, r3
    1b5c:	d2f6      	bcs.n	1b4c <TEE_AllocateOperation+0x3f6>
    1b5e:	f5a3 5380 	sub.w	r3, r3, #4096	; 0x1000
    1b62:	429c      	cmp	r4, r3
    1b64:	f4ff ae22 	bcc.w	17ac <TEE_AllocateOperation+0x56>
    1b68:	3301      	adds	r3, #1
    1b6a:	429c      	cmp	r4, r3
    1b6c:	d9ee      	bls.n	1b4c <TEE_AllocateOperation+0x3f6>
    1b6e:	f603 7381 	addw	r3, r3, #3969	; 0xf81
    1b72:	e77f      	b.n	1a74 <TEE_AllocateOperation+0x31e>
    1b74:	4b87      	ldr	r3, [pc, #540]	; (1d94 <TEE_AllocateOperation+0x63e>)
    1b76:	429c      	cmp	r4, r3
    1b78:	f4ff ae18 	bcc.w	17ac <TEE_AllocateOperation+0x56>
    1b7c:	3301      	adds	r3, #1
    1b7e:	429c      	cmp	r4, r3
    1b80:	d9e4      	bls.n	1b4c <TEE_AllocateOperation+0x3f6>
    1b82:	4b85      	ldr	r3, [pc, #532]	; (1d98 <TEE_AllocateOperation+0x642>)
    1b84:	e726      	b.n	19d4 <TEE_AllocateOperation+0x27e>
    1b86:	f44f 2a00 	mov.w	sl, #524288	; 0x80000
    1b8a:	4b84      	ldr	r3, [pc, #528]	; (1d9c <TEE_AllocateOperation+0x646>)
    1b8c:	429c      	cmp	r4, r3
    1b8e:	d00e      	beq.n	1bae <TEE_AllocateOperation+0x458>
    1b90:	f103 5300 	add.w	r3, r3, #536870912	; 0x20000000
    1b94:	429c      	cmp	r4, r3
    1b96:	d00a      	beq.n	1bae <TEE_AllocateOperation+0x458>
    1b98:	2701      	movs	r7, #1
    1b9a:	e635      	b.n	1808 <TEE_AllocateOperation+0xb2>
    1b9c:	f04f 0a00 	mov.w	sl, #0
    1ba0:	e7f3      	b.n	1b8a <TEE_AllocateOperation+0x434>
    1ba2:	f04f 0a00 	mov.w	sl, #0
    1ba6:	f04f 0801 	mov.w	r8, #1
    1baa:	4657      	mov	r7, sl
    1bac:	e638      	b.n	1820 <TEE_AllocateOperation+0xca>
    1bae:	2701      	movs	r7, #1
    1bb0:	f04f 0808 	mov.w	r8, #8
    1bb4:	e634      	b.n	1820 <TEE_AllocateOperation+0xca>
    1bb6:	2e05      	cmp	r6, #5
    1bb8:	f47f adf8 	bne.w	17ac <TEE_AllocateOperation+0x56>
    1bbc:	f1b9 0f00 	cmp.w	r9, #0
    1bc0:	f47f adf4 	bne.w	17ac <TEE_AllocateOperation+0x56>
    1bc4:	464a      	mov	r2, r9
    1bc6:	464f      	mov	r7, r9
    1bc8:	464b      	mov	r3, r9
    1bca:	f04f 0801 	mov.w	r8, #1
    1bce:	f44f 2a80 	mov.w	sl, #262144	; 0x40000
    1bd2:	2100      	movs	r1, #0
    1bd4:	2040      	movs	r0, #64	; 0x40
    1bd6:	9204      	str	r2, [sp, #16]
    1bd8:	9305      	str	r3, [sp, #20]
    1bda:	f002 fd66 	bl	46aa <TEE_Malloc>
    1bde:	4605      	mov	r5, r0
    1be0:	2800      	cmp	r0, #0
    1be2:	f000 80cd 	beq.w	1d80 <TEE_AllocateOperation+0x62a>
    1be6:	496e      	ldr	r1, [pc, #440]	; (1da0 <TEE_AllocateOperation+0x64a>)
    1be8:	6004      	str	r4, [r0, #0]
    1bea:	9a04      	ldr	r2, [sp, #16]
    1bec:	9b05      	ldr	r3, [sp, #20]
    1bee:	428c      	cmp	r4, r1
    1bf0:	9103      	str	r1, [sp, #12]
    1bf2:	f000 8140 	beq.w	1e76 <TEE_AllocateOperation+0x720>
    1bf6:	f101 4160 	add.w	r1, r1, #3758096384	; 0xe0000000
    1bfa:	428c      	cmp	r4, r1
    1bfc:	f000 813e 	beq.w	1e7c <TEE_AllocateOperation+0x726>
    1c00:	4965      	ldr	r1, [pc, #404]	; (1d98 <TEE_AllocateOperation+0x642>)
    1c02:	428c      	cmp	r4, r1
    1c04:	f000 80e2 	beq.w	1dcc <TEE_AllocateOperation+0x676>
    1c08:	ea4f 7b14 	mov.w	fp, r4, lsr #28
    1c0c:	f8c5 b004 	str.w	fp, [r5, #4]
    1c10:	e0df      	b.n	1dd2 <TEE_AllocateOperation+0x67c>
    1c12:	4633      	mov	r3, r6
    1c14:	2202      	movs	r2, #2
    1c16:	e7dc      	b.n	1bd2 <TEE_AllocateOperation+0x47c>
    1c18:	2700      	movs	r7, #0
    1c1a:	2301      	movs	r3, #1
    1c1c:	2210      	movs	r2, #16
    1c1e:	e684      	b.n	192a <TEE_AllocateOperation+0x1d4>
    1c20:	46b2      	mov	sl, r6
    1c22:	4637      	mov	r7, r6
    1c24:	4633      	mov	r3, r6
    1c26:	2202      	movs	r2, #2
    1c28:	e645      	b.n	18b6 <TEE_AllocateOperation+0x160>
    1c2a:	46b2      	mov	sl, r6
    1c2c:	4637      	mov	r7, r6
    1c2e:	4633      	mov	r3, r6
    1c30:	2222      	movs	r2, #34	; 0x22
    1c32:	e640      	b.n	18b6 <TEE_AllocateOperation+0x160>
    1c34:	495b      	ldr	r1, [pc, #364]	; (1da4 <TEE_AllocateOperation+0x64e>)
    1c36:	428c      	cmp	r4, r1
    1c38:	d046      	beq.n	1cc8 <TEE_AllocateOperation+0x572>
    1c3a:	3101      	adds	r1, #1
    1c3c:	428c      	cmp	r4, r1
    1c3e:	d041      	beq.n	1cc4 <TEE_AllocateOperation+0x56e>
    1c40:	2100      	movs	r1, #0
    1c42:	e0e3      	b.n	1e0c <TEE_AllocateOperation+0x6b6>
    1c44:	4958      	ldr	r1, [pc, #352]	; (1da8 <TEE_AllocateOperation+0x652>)
    1c46:	428c      	cmp	r4, r1
    1c48:	d040      	beq.n	1ccc <TEE_AllocateOperation+0x576>
    1c4a:	d809      	bhi.n	1c60 <TEE_AllocateOperation+0x50a>
    1c4c:	f5a1 7185 	sub.w	r1, r1, #266	; 0x10a
    1c50:	428c      	cmp	r4, r1
    1c52:	d039      	beq.n	1cc8 <TEE_AllocateOperation+0x572>
    1c54:	f201 1109 	addw	r1, r1, #265	; 0x109
    1c58:	428c      	cmp	r4, r1
    1c5a:	d1f1      	bne.n	1c40 <TEE_AllocateOperation+0x4ea>
    1c5c:	2110      	movs	r1, #16
    1c5e:	e0d5      	b.n	1e0c <TEE_AllocateOperation+0x6b6>
    1c60:	4952      	ldr	r1, [pc, #328]	; (1dac <TEE_AllocateOperation+0x656>)
    1c62:	428c      	cmp	r4, r1
    1c64:	d032      	beq.n	1ccc <TEE_AllocateOperation+0x576>
    1c66:	f201 31fd 	addw	r1, r1, #1021	; 0x3fd
    1c6a:	e7f5      	b.n	1c58 <TEE_AllocateOperation+0x502>
    1c6c:	4950      	ldr	r1, [pc, #320]	; (1db0 <TEE_AllocateOperation+0x65a>)
    1c6e:	428c      	cmp	r4, r1
    1c70:	d02a      	beq.n	1cc8 <TEE_AllocateOperation+0x572>
    1c72:	d811      	bhi.n	1c98 <TEE_AllocateOperation+0x542>
    1c74:	3903      	subs	r1, #3
    1c76:	428c      	cmp	r4, r1
    1c78:	d0f0      	beq.n	1c5c <TEE_AllocateOperation+0x506>
    1c7a:	d804      	bhi.n	1c86 <TEE_AllocateOperation+0x530>
    1c7c:	494d      	ldr	r1, [pc, #308]	; (1db4 <TEE_AllocateOperation+0x65e>)
    1c7e:	428c      	cmp	r4, r1
    1c80:	d024      	beq.n	1ccc <TEE_AllocateOperation+0x576>
    1c82:	31fd      	adds	r1, #253	; 0xfd
    1c84:	e7e8      	b.n	1c58 <TEE_AllocateOperation+0x502>
    1c86:	494c      	ldr	r1, [pc, #304]	; (1db8 <TEE_AllocateOperation+0x662>)
    1c88:	428c      	cmp	r4, r1
    1c8a:	f000 80be 	beq.w	1e0a <TEE_AllocateOperation+0x6b4>
    1c8e:	3101      	adds	r1, #1
    1c90:	428c      	cmp	r4, r1
    1c92:	d1d5      	bne.n	1c40 <TEE_AllocateOperation+0x4ea>
    1c94:	211c      	movs	r1, #28
    1c96:	e0b9      	b.n	1e0c <TEE_AllocateOperation+0x6b6>
    1c98:	4948      	ldr	r1, [pc, #288]	; (1dbc <TEE_AllocateOperation+0x666>)
    1c9a:	428c      	cmp	r4, r1
    1c9c:	d014      	beq.n	1cc8 <TEE_AllocateOperation+0x572>
    1c9e:	d807      	bhi.n	1cb0 <TEE_AllocateOperation+0x55a>
    1ca0:	3902      	subs	r1, #2
    1ca2:	428c      	cmp	r4, r1
    1ca4:	d00e      	beq.n	1cc4 <TEE_AllocateOperation+0x56e>
    1ca6:	3101      	adds	r1, #1
    1ca8:	428c      	cmp	r4, r1
    1caa:	d1c9      	bne.n	1c40 <TEE_AllocateOperation+0x4ea>
    1cac:	2140      	movs	r1, #64	; 0x40
    1cae:	e0ad      	b.n	1e0c <TEE_AllocateOperation+0x6b6>
    1cb0:	4943      	ldr	r1, [pc, #268]	; (1dc0 <TEE_AllocateOperation+0x66a>)
    1cb2:	428c      	cmp	r4, r1
    1cb4:	d0ee      	beq.n	1c94 <TEE_AllocateOperation+0x53e>
    1cb6:	f501 5180 	add.w	r1, r1, #4096	; 0x1000
    1cba:	428c      	cmp	r4, r1
    1cbc:	d004      	beq.n	1cc8 <TEE_AllocateOperation+0x572>
    1cbe:	f5a1 5100 	sub.w	r1, r1, #8192	; 0x2000
    1cc2:	e09f      	b.n	1e04 <TEE_AllocateOperation+0x6ae>
    1cc4:	2130      	movs	r1, #48	; 0x30
    1cc6:	e0a1      	b.n	1e0c <TEE_AllocateOperation+0x6b6>
    1cc8:	2120      	movs	r1, #32
    1cca:	e09f      	b.n	1e0c <TEE_AllocateOperation+0x6b6>
    1ccc:	2108      	movs	r1, #8
    1cce:	e09d      	b.n	1e0c <TEE_AllocateOperation+0x6b6>
    1cd0:	b16f      	cbz	r7, 1cee <TEE_AllocateOperation+0x598>
    1cd2:	ea4f 0048 	mov.w	r0, r8, lsl #1
    1cd6:	f04f 4100 	mov.w	r1, #2147483648	; 0x80000000
    1cda:	9304      	str	r3, [sp, #16]
    1cdc:	f002 fce5 	bl	46aa <TEE_Malloc>
    1ce0:	62e8      	str	r0, [r5, #44]	; 0x2c
    1ce2:	9b04      	ldr	r3, [sp, #16]
    1ce4:	2800      	cmp	r0, #0
    1ce6:	f040 809b 	bne.w	1e20 <TEE_AllocateOperation+0x6ca>
    1cea:	4f36      	ldr	r7, [pc, #216]	; (1dc4 <TEE_AllocateOperation+0x66e>)
    1cec:	e030      	b.n	1d50 <TEE_AllocateOperation+0x5fa>
    1cee:	4640      	mov	r0, r8
    1cf0:	e7f1      	b.n	1cd6 <TEE_AllocateOperation+0x580>
    1cf2:	4a2a      	ldr	r2, [pc, #168]	; (1d9c <TEE_AllocateOperation+0x646>)
    1cf4:	4294      	cmp	r4, r2
    1cf6:	d004      	beq.n	1d02 <TEE_AllocateOperation+0x5ac>
    1cf8:	9a03      	ldr	r2, [sp, #12]
    1cfa:	4294      	cmp	r4, r2
    1cfc:	d02e      	beq.n	1d5c <TEE_AllocateOperation+0x606>
    1cfe:	b2e0      	uxtb	r0, r4
    1d00:	e000      	b.n	1d04 <TEE_AllocateOperation+0x5ae>
    1d02:	2046      	movs	r0, #70	; 0x46
    1d04:	bb63      	cbnz	r3, 1d60 <TEE_AllocateOperation+0x60a>
    1d06:	f040 4820 	orr.w	r8, r0, #2684354560	; 0xa0000000
    1d0a:	69eb      	ldr	r3, [r5, #28]
    1d0c:	4640      	mov	r0, r8
    1d0e:	031a      	lsls	r2, r3, #12
    1d10:	f105 0220 	add.w	r2, r5, #32
    1d14:	bf48      	it	mi
    1d16:	ea4f 0959 	movmi.w	r9, r9, lsr #1
    1d1a:	4649      	mov	r1, r9
    1d1c:	f7ff f972 	bl	1004 <TEE_AllocateTransientObject>
    1d20:	4607      	mov	r7, r0
    1d22:	b960      	cbnz	r0, 1d3e <TEE_AllocateOperation+0x5e8>
    1d24:	69eb      	ldr	r3, [r5, #28]
    1d26:	031b      	lsls	r3, r3, #12
    1d28:	f140 8082 	bpl.w	1e30 <TEE_AllocateOperation+0x6da>
    1d2c:	f105 0224 	add.w	r2, r5, #36	; 0x24
    1d30:	4649      	mov	r1, r9
    1d32:	4640      	mov	r0, r8
    1d34:	f7ff f966 	bl	1004 <TEE_AllocateTransientObject>
    1d38:	4607      	mov	r7, r0
    1d3a:	2800      	cmp	r0, #0
    1d3c:	d078      	beq.n	1e30 <TEE_AllocateOperation+0x6da>
    1d3e:	4b21      	ldr	r3, [pc, #132]	; (1dc4 <TEE_AllocateOperation+0x66e>)
    1d40:	429f      	cmp	r7, r3
    1d42:	d005      	beq.n	1d50 <TEE_AllocateOperation+0x5fa>
    1d44:	4b20      	ldr	r3, [pc, #128]	; (1dc8 <TEE_AllocateOperation+0x672>)
    1d46:	429f      	cmp	r7, r3
    1d48:	d002      	beq.n	1d50 <TEE_AllocateOperation+0x5fa>
    1d4a:	4638      	mov	r0, r7
    1d4c:	f001 f9a8 	bl	30a0 <TEE_Panic>
    1d50:	6beb      	ldr	r3, [r5, #60]	; 0x3c
    1d52:	b143      	cbz	r3, 1d66 <TEE_AllocateOperation+0x610>
    1d54:	4628      	mov	r0, r5
    1d56:	f7ff fceb 	bl	1730 <TEE_FreeOperation>
    1d5a:	e088      	b.n	1e6e <TEE_AllocateOperation+0x718>
    1d5c:	2047      	movs	r0, #71	; 0x47
    1d5e:	e7d1      	b.n	1d04 <TEE_AllocateOperation+0x5ae>
    1d60:	f040 4821 	orr.w	r8, r0, #2701131776	; 0xa1000000
    1d64:	e7d1      	b.n	1d0a <TEE_AllocateOperation+0x5b4>
    1d66:	6ae8      	ldr	r0, [r5, #44]	; 0x2c
    1d68:	f002 fcc6 	bl	46f8 <TEE_Free>
    1d6c:	6a28      	ldr	r0, [r5, #32]
    1d6e:	f7ff f969 	bl	1044 <TEE_FreeTransientObject>
    1d72:	6a68      	ldr	r0, [r5, #36]	; 0x24
    1d74:	f7ff f966 	bl	1044 <TEE_FreeTransientObject>
    1d78:	4628      	mov	r0, r5
    1d7a:	f002 fcbd 	bl	46f8 <TEE_Free>
    1d7e:	e076      	b.n	1e6e <TEE_AllocateOperation+0x718>
    1d80:	4f10      	ldr	r7, [pc, #64]	; (1dc4 <TEE_AllocateOperation+0x66e>)
    1d82:	e074      	b.n	1e6e <TEE_AllocateOperation+0x718>
    1d84:	4607      	mov	r7, r0
    1d86:	e7da      	b.n	1d3e <TEE_AllocateOperation+0x5e8>
    1d88:	80004042 	.word	0x80004042
    1d8c:	80003042 	.word	0x80003042
    1d90:	800050c1 	.word	0x800050c1
    1d94:	800060c0 	.word	0x800060c0
    1d98:	f0000830 	.word	0xf0000830
    1d9c:	60000045 	.word	0x60000045
    1da0:	80000045 	.word	0x80000045
    1da4:	30000004 	.word	0x30000004
    1da8:	30000111 	.word	0x30000111
    1dac:	30000113 	.word	0x30000113
    1db0:	50000004 	.word	0x50000004
    1db4:	30000513 	.word	0x30000513
    1db8:	50000002 	.word	0x50000002
    1dbc:	50000007 	.word	0x50000007
    1dc0:	70003131 	.word	0x70003131
    1dc4:	ffff000c 	.word	0xffff000c
    1dc8:	ffff000a 	.word	0xffff000a
    1dcc:	2107      	movs	r1, #7
    1dce:	468b      	mov	fp, r1
    1dd0:	6041      	str	r1, [r0, #4]
    1dd2:	492c      	ldr	r1, [pc, #176]	; (1e84 <TEE_AllocateOperation+0x72e>)
    1dd4:	60ae      	str	r6, [r5, #8]
    1dd6:	428c      	cmp	r4, r1
    1dd8:	f43f af78 	beq.w	1ccc <TEE_AllocateOperation+0x576>
    1ddc:	f63f af46 	bhi.w	1c6c <TEE_AllocateOperation+0x516>
    1de0:	f2a1 510b 	subw	r1, r1, #1291	; 0x50b
    1de4:	428c      	cmp	r4, r1
    1de6:	f43f af61 	beq.w	1cac <TEE_AllocateOperation+0x556>
    1dea:	f63f af2b 	bhi.w	1c44 <TEE_AllocateOperation+0x4ee>
    1dee:	3903      	subs	r1, #3
    1df0:	428c      	cmp	r4, r1
    1df2:	f43f af4f 	beq.w	1c94 <TEE_AllocateOperation+0x53e>
    1df6:	f63f af1d 	bhi.w	1c34 <TEE_AllocateOperation+0x4de>
    1dfa:	3902      	subs	r1, #2
    1dfc:	428c      	cmp	r4, r1
    1dfe:	f43f af2d 	beq.w	1c5c <TEE_AllocateOperation+0x506>
    1e02:	3101      	adds	r1, #1
    1e04:	428c      	cmp	r4, r1
    1e06:	f47f af1b 	bne.w	1c40 <TEE_AllocateOperation+0x4ea>
    1e0a:	2114      	movs	r1, #20
    1e0c:	f1b8 0f01 	cmp.w	r8, #1
    1e10:	60e9      	str	r1, [r5, #12]
    1e12:	f8c5 9010 	str.w	r9, [r5, #16]
    1e16:	61aa      	str	r2, [r5, #24]
    1e18:	f8c5 a01c 	str.w	sl, [r5, #28]
    1e1c:	f47f af58 	bne.w	1cd0 <TEE_AllocateOperation+0x57a>
    1e20:	f1bb 0f05 	cmp.w	fp, #5
    1e24:	f885 7030 	strb.w	r7, [r5, #48]	; 0x30
    1e28:	f8c5 8034 	str.w	r8, [r5, #52]	; 0x34
    1e2c:	f47f af61 	bne.w	1cf2 <TEE_AllocateOperation+0x59c>
    1e30:	f105 033c 	add.w	r3, r5, #60	; 0x3c
    1e34:	4631      	mov	r1, r6
    1e36:	4620      	mov	r0, r4
    1e38:	9300      	str	r3, [sp, #0]
    1e3a:	6a2a      	ldr	r2, [r5, #32]
    1e3c:	6a6b      	ldr	r3, [r5, #36]	; 0x24
    1e3e:	f001 ed56 	blx	38ec <_utee_cryp_state_alloc>
    1e42:	4602      	mov	r2, r0
    1e44:	2800      	cmp	r0, #0
    1e46:	d19d      	bne.n	1d84 <TEE_AllocateOperation+0x62e>
    1e48:	f1bb 0f05 	cmp.w	fp, #5
    1e4c:	d10b      	bne.n	1e66 <TEE_AllocateOperation+0x710>
    1e4e:	4601      	mov	r1, r0
    1e50:	6be8      	ldr	r0, [r5, #60]	; 0x3c
    1e52:	f001 ed6c 	blx	392c <_utee_hash_init>
    1e56:	4607      	mov	r7, r0
    1e58:	2800      	cmp	r0, #0
    1e5a:	f47f af70 	bne.w	1d3e <TEE_AllocateOperation+0x5e8>
    1e5e:	69eb      	ldr	r3, [r5, #28]
    1e60:	f443 3300 	orr.w	r3, r3, #131072	; 0x20000
    1e64:	61eb      	str	r3, [r5, #28]
    1e66:	9b02      	ldr	r3, [sp, #8]
    1e68:	2700      	movs	r7, #0
    1e6a:	62af      	str	r7, [r5, #40]	; 0x28
    1e6c:	601d      	str	r5, [r3, #0]
    1e6e:	4638      	mov	r0, r7
    1e70:	b007      	add	sp, #28
    1e72:	e8bd 8ff0 	ldmia.w	sp!, {r4, r5, r6, r7, r8, r9, sl, fp, pc}
    1e76:	f04f 0b06 	mov.w	fp, #6
    1e7a:	e6c7      	b.n	1c0c <TEE_AllocateOperation+0x4b6>
    1e7c:	f04f 0b08 	mov.w	fp, #8
    1e80:	e6c4      	b.n	1c0c <TEE_AllocateOperation+0x4b6>
    1e82:	bf00      	nop
    1e84:	30000511 	.word	0x30000511

00001e88 <TEE_GetOperationInfo>:
    1e88:	b570      	push	{r4, r5, r6, lr}
    1e8a:	460e      	mov	r6, r1
    1e8c:	4604      	mov	r4, r0
    1e8e:	b908      	cbnz	r0, 1e94 <TEE_GetOperationInfo+0xc>
    1e90:	f001 f906 	bl	30a0 <TEE_Panic>
    1e94:	2120      	movs	r1, #32
    1e96:	4630      	mov	r0, r6
    1e98:	f001 f942 	bl	3120 <__utee_check_out_annotation>
    1e9c:	cc0f      	ldmia	r4!, {r0, r1, r2, r3}
    1e9e:	4635      	mov	r5, r6
    1ea0:	c50f      	stmia	r5!, {r0, r1, r2, r3}
    1ea2:	e894 000f 	ldmia.w	r4, {r0, r1, r2, r3}
    1ea6:	e885 000f 	stmia.w	r5, {r0, r1, r2, r3}
    1eaa:	69f3      	ldr	r3, [r6, #28]
    1eac:	031b      	lsls	r3, r3, #12
    1eae:	bf42      	ittt	mi
    1eb0:	2300      	movmi	r3, #0
    1eb2:	6173      	strmi	r3, [r6, #20]
    1eb4:	61b3      	strmi	r3, [r6, #24]
    1eb6:	bd70      	pop	{r4, r5, r6, pc}

00001eb8 <TEE_GetOperationInfoMultiple>:
    1eb8:	b5f0      	push	{r4, r5, r6, r7, lr}
    1eba:	b089      	sub	sp, #36	; 0x24
    1ebc:	4605      	mov	r5, r0
    1ebe:	af01      	add	r7, sp, #4
    1ec0:	460c      	mov	r4, r1
    1ec2:	4616      	mov	r6, r2
    1ec4:	2100      	movs	r1, #0
    1ec6:	221c      	movs	r2, #28
    1ec8:	4638      	mov	r0, r7
    1eca:	f007 f944 	bl	9156 <memset>
    1ece:	2d00      	cmp	r5, #0
    1ed0:	d055      	beq.n	1f7e <TEE_GetOperationInfoMultiple+0xc6>
    1ed2:	4631      	mov	r1, r6
    1ed4:	4620      	mov	r0, r4
    1ed6:	f001 f8ea 	bl	30ae <__utee_check_outbuf_annotation>
    1eda:	6836      	ldr	r6, [r6, #0]
    1edc:	2e1f      	cmp	r6, #31
    1ede:	d94e      	bls.n	1f7e <TEE_GetOperationInfoMultiple+0xc6>
    1ee0:	4632      	mov	r2, r6
    1ee2:	2100      	movs	r1, #0
    1ee4:	4620      	mov	r0, r4
    1ee6:	f002 fb87 	bl	45f8 <TEE_MemFill>
    1eea:	68ab      	ldr	r3, [r5, #8]
    1eec:	2b05      	cmp	r3, #5
    1eee:	d111      	bne.n	1f14 <TEE_GetOperationInfoMultiple+0x5c>
    1ef0:	2300      	movs	r3, #0
    1ef2:	61e3      	str	r3, [r4, #28]
    1ef4:	682b      	ldr	r3, [r5, #0]
    1ef6:	2600      	movs	r6, #0
    1ef8:	6023      	str	r3, [r4, #0]
    1efa:	686b      	ldr	r3, [r5, #4]
    1efc:	6063      	str	r3, [r4, #4]
    1efe:	68ab      	ldr	r3, [r5, #8]
    1f00:	60a3      	str	r3, [r4, #8]
    1f02:	68eb      	ldr	r3, [r5, #12]
    1f04:	60e3      	str	r3, [r4, #12]
    1f06:	692b      	ldr	r3, [r5, #16]
    1f08:	6123      	str	r3, [r4, #16]
    1f0a:	69eb      	ldr	r3, [r5, #28]
    1f0c:	6163      	str	r3, [r4, #20]
    1f0e:	6aab      	ldr	r3, [r5, #40]	; 0x28
    1f10:	61a3      	str	r3, [r4, #24]
    1f12:	e006      	b.n	1f22 <TEE_GetOperationInfoMultiple+0x6a>
    1f14:	69eb      	ldr	r3, [r5, #28]
    1f16:	3e20      	subs	r6, #32
    1f18:	08f6      	lsrs	r6, r6, #3
    1f1a:	031b      	lsls	r3, r3, #12
    1f1c:	d410      	bmi.n	1f40 <TEE_GetOperationInfoMultiple+0x88>
    1f1e:	b91e      	cbnz	r6, 1f28 <TEE_GetOperationInfoMultiple+0x70>
    1f20:	4e18      	ldr	r6, [pc, #96]	; (1f84 <TEE_GetOperationInfoMultiple+0xcc>)
    1f22:	4630      	mov	r0, r6
    1f24:	b009      	add	sp, #36	; 0x24
    1f26:	bdf0      	pop	{r4, r5, r6, r7, pc}
    1f28:	4639      	mov	r1, r7
    1f2a:	6a28      	ldr	r0, [r5, #32]
    1f2c:	f7fe ffa0 	bl	e70 <TEE_GetObjectInfo1>
    1f30:	4606      	mov	r6, r0
    1f32:	b9e8      	cbnz	r0, 1f70 <TEE_GetOperationInfoMultiple+0xb8>
    1f34:	9b02      	ldr	r3, [sp, #8]
    1f36:	6223      	str	r3, [r4, #32]
    1f38:	69ab      	ldr	r3, [r5, #24]
    1f3a:	6263      	str	r3, [r4, #36]	; 0x24
    1f3c:	2301      	movs	r3, #1
    1f3e:	e7d8      	b.n	1ef2 <TEE_GetOperationInfoMultiple+0x3a>
    1f40:	2e01      	cmp	r6, #1
    1f42:	d9ed      	bls.n	1f20 <TEE_GetOperationInfoMultiple+0x68>
    1f44:	4639      	mov	r1, r7
    1f46:	6a28      	ldr	r0, [r5, #32]
    1f48:	f7fe ff92 	bl	e70 <TEE_GetObjectInfo1>
    1f4c:	4606      	mov	r6, r0
    1f4e:	b978      	cbnz	r0, 1f70 <TEE_GetOperationInfoMultiple+0xb8>
    1f50:	9b02      	ldr	r3, [sp, #8]
    1f52:	4639      	mov	r1, r7
    1f54:	6a68      	ldr	r0, [r5, #36]	; 0x24
    1f56:	6223      	str	r3, [r4, #32]
    1f58:	69ab      	ldr	r3, [r5, #24]
    1f5a:	6263      	str	r3, [r4, #36]	; 0x24
    1f5c:	f7fe ff88 	bl	e70 <TEE_GetObjectInfo1>
    1f60:	4606      	mov	r6, r0
    1f62:	b928      	cbnz	r0, 1f70 <TEE_GetOperationInfoMultiple+0xb8>
    1f64:	9b02      	ldr	r3, [sp, #8]
    1f66:	62a3      	str	r3, [r4, #40]	; 0x28
    1f68:	69ab      	ldr	r3, [r5, #24]
    1f6a:	62e3      	str	r3, [r4, #44]	; 0x2c
    1f6c:	2302      	movs	r3, #2
    1f6e:	e7c0      	b.n	1ef2 <TEE_GetOperationInfoMultiple+0x3a>
    1f70:	4b04      	ldr	r3, [pc, #16]	; (1f84 <TEE_GetOperationInfoMultiple+0xcc>)
    1f72:	429e      	cmp	r6, r3
    1f74:	d0d4      	beq.n	1f20 <TEE_GetOperationInfoMultiple+0x68>
    1f76:	4630      	mov	r0, r6
    1f78:	f001 f892 	bl	30a0 <TEE_Panic>
    1f7c:	e7d1      	b.n	1f22 <TEE_GetOperationInfoMultiple+0x6a>
    1f7e:	4e02      	ldr	r6, [pc, #8]	; (1f88 <TEE_GetOperationInfoMultiple+0xd0>)
    1f80:	e7f9      	b.n	1f76 <TEE_GetOperationInfoMultiple+0xbe>
    1f82:	bf00      	nop
    1f84:	ffff0010 	.word	0xffff0010
    1f88:	ffff0006 	.word	0xffff0006

00001f8c <TEE_ResetOperation>:
    1f8c:	b510      	push	{r4, lr}
    1f8e:	4604      	mov	r4, r0
    1f90:	b908      	cbnz	r0, 1f96 <TEE_ResetOperation+0xa>
    1f92:	f001 f885 	bl	30a0 <TEE_Panic>
    1f96:	69e0      	ldr	r0, [r4, #28]
    1f98:	f410 2080 	ands.w	r0, r0, #262144	; 0x40000
    1f9c:	d101      	bne.n	1fa2 <TEE_ResetOperation+0x16>
    1f9e:	f001 f87f 	bl	30a0 <TEE_Panic>
    1fa2:	6863      	ldr	r3, [r4, #4]
    1fa4:	2200      	movs	r2, #0
    1fa6:	62a2      	str	r2, [r4, #40]	; 0x28
    1fa8:	2b05      	cmp	r3, #5
    1faa:	d10b      	bne.n	1fc4 <TEE_ResetOperation+0x38>
    1fac:	4611      	mov	r1, r2
    1fae:	6be0      	ldr	r0, [r4, #60]	; 0x3c
    1fb0:	f001 ecbc 	blx	392c <_utee_hash_init>
    1fb4:	b108      	cbz	r0, 1fba <TEE_ResetOperation+0x2e>
    1fb6:	f001 f873 	bl	30a0 <TEE_Panic>
    1fba:	69e3      	ldr	r3, [r4, #28]
    1fbc:	f443 3300 	orr.w	r3, r3, #131072	; 0x20000
    1fc0:	61e3      	str	r3, [r4, #28]
    1fc2:	bd10      	pop	{r4, pc}
    1fc4:	69e3      	ldr	r3, [r4, #28]
    1fc6:	f423 3300 	bic.w	r3, r3, #131072	; 0x20000
    1fca:	e7f9      	b.n	1fc0 <TEE_ResetOperation+0x34>

00001fcc <TEE_SetOperationKey>:
    1fcc:	b5f0      	push	{r4, r5, r6, r7, lr}
    1fce:	460e      	mov	r6, r1
    1fd0:	b089      	sub	sp, #36	; 0x24
    1fd2:	4604      	mov	r4, r0
    1fd4:	2800      	cmp	r0, #0
    1fd6:	d03f      	beq.n	2058 <TEE_SetOperationKey+0x8c>
    1fd8:	6a83      	ldr	r3, [r0, #40]	; 0x28
    1fda:	2b00      	cmp	r3, #0
    1fdc:	d13c      	bne.n	2058 <TEE_SetOperationKey+0x8c>
    1fde:	b951      	cbnz	r1, 1ff6 <TEE_SetOperationKey+0x2a>
    1fe0:	6a00      	ldr	r0, [r0, #32]
    1fe2:	460d      	mov	r5, r1
    1fe4:	f7ff f846 	bl	1074 <TEE_ResetTransientObject>
    1fe8:	69e3      	ldr	r3, [r4, #28]
    1fea:	f423 2380 	bic.w	r3, r3, #262144	; 0x40000
    1fee:	61e3      	str	r3, [r4, #28]
    1ff0:	4628      	mov	r0, r5
    1ff2:	b009      	add	sp, #36	; 0x24
    1ff4:	bdf0      	pop	{r4, r5, r6, r7, pc}
    1ff6:	6843      	ldr	r3, [r0, #4]
    1ff8:	2b05      	cmp	r3, #5
    1ffa:	d02d      	beq.n	2058 <TEE_SetOperationKey+0x8c>
    1ffc:	69c3      	ldr	r3, [r0, #28]
    1ffe:	031b      	lsls	r3, r3, #12
    2000:	d42a      	bmi.n	2058 <TEE_SetOperationKey+0x8c>
    2002:	a901      	add	r1, sp, #4
    2004:	4630      	mov	r0, r6
    2006:	f7fe ff33 	bl	e70 <TEE_GetObjectInfo1>
    200a:	4605      	mov	r5, r0
    200c:	b9d0      	cbnz	r0, 2044 <TEE_SetOperationKey+0x78>
    200e:	69a3      	ldr	r3, [r4, #24]
    2010:	9a04      	ldr	r2, [sp, #16]
    2012:	4393      	bics	r3, r2
    2014:	d120      	bne.n	2058 <TEE_SetOperationKey+0x8c>
    2016:	6923      	ldr	r3, [r4, #16]
    2018:	9f02      	ldr	r7, [sp, #8]
    201a:	42bb      	cmp	r3, r7
    201c:	d31c      	bcc.n	2058 <TEE_SetOperationKey+0x8c>
    201e:	6a20      	ldr	r0, [r4, #32]
    2020:	f7ff f828 	bl	1074 <TEE_ResetTransientObject>
    2024:	69e3      	ldr	r3, [r4, #28]
    2026:	4631      	mov	r1, r6
    2028:	6a20      	ldr	r0, [r4, #32]
    202a:	f423 2380 	bic.w	r3, r3, #262144	; 0x40000
    202e:	61e3      	str	r3, [r4, #28]
    2030:	f7ff f896 	bl	1160 <TEE_CopyObjectAttributes1>
    2034:	4605      	mov	r5, r0
    2036:	b928      	cbnz	r0, 2044 <TEE_SetOperationKey+0x78>
    2038:	69e3      	ldr	r3, [r4, #28]
    203a:	6167      	str	r7, [r4, #20]
    203c:	f443 2380 	orr.w	r3, r3, #262144	; 0x40000
    2040:	61e3      	str	r3, [r4, #28]
    2042:	e7d5      	b.n	1ff0 <TEE_SetOperationKey+0x24>
    2044:	4b05      	ldr	r3, [pc, #20]	; (205c <TEE_SetOperationKey+0x90>)
    2046:	429d      	cmp	r5, r3
    2048:	d0d2      	beq.n	1ff0 <TEE_SetOperationKey+0x24>
    204a:	4b05      	ldr	r3, [pc, #20]	; (2060 <TEE_SetOperationKey+0x94>)
    204c:	429d      	cmp	r5, r3
    204e:	d0cf      	beq.n	1ff0 <TEE_SetOperationKey+0x24>
    2050:	4628      	mov	r0, r5
    2052:	f001 f825 	bl	30a0 <TEE_Panic>
    2056:	e7cb      	b.n	1ff0 <TEE_SetOperationKey+0x24>
    2058:	4d02      	ldr	r5, [pc, #8]	; (2064 <TEE_SetOperationKey+0x98>)
    205a:	e7f9      	b.n	2050 <TEE_SetOperationKey+0x84>
    205c:	f0100001 	.word	0xf0100001
    2060:	f0100003 	.word	0xf0100003
    2064:	ffff0006 	.word	0xffff0006

00002068 <TEE_SetOperationKey2>:
    2068:	e92d 41f0 	stmdb	sp!, {r4, r5, r6, r7, r8, lr}
    206c:	4688      	mov	r8, r1
    206e:	b08e      	sub	sp, #56	; 0x38
    2070:	4616      	mov	r6, r2
    2072:	4604      	mov	r4, r0
    2074:	2800      	cmp	r0, #0
    2076:	d06a      	beq.n	214e <TEE_SetOperationKey2+0xe6>
    2078:	6a83      	ldr	r3, [r0, #40]	; 0x28
    207a:	2b00      	cmp	r3, #0
    207c:	d167      	bne.n	214e <TEE_SetOperationKey2+0xe6>
    207e:	b981      	cbnz	r1, 20a2 <TEE_SetOperationKey2+0x3a>
    2080:	2a00      	cmp	r2, #0
    2082:	d164      	bne.n	214e <TEE_SetOperationKey2+0xe6>
    2084:	6a00      	ldr	r0, [r0, #32]
    2086:	4615      	mov	r5, r2
    2088:	f7fe fff4 	bl	1074 <TEE_ResetTransientObject>
    208c:	6a60      	ldr	r0, [r4, #36]	; 0x24
    208e:	f7fe fff1 	bl	1074 <TEE_ResetTransientObject>
    2092:	69e3      	ldr	r3, [r4, #28]
    2094:	f423 2380 	bic.w	r3, r3, #262144	; 0x40000
    2098:	61e3      	str	r3, [r4, #28]
    209a:	4628      	mov	r0, r5
    209c:	b00e      	add	sp, #56	; 0x38
    209e:	e8bd 81f0 	ldmia.w	sp!, {r4, r5, r6, r7, r8, pc}
    20a2:	2a00      	cmp	r2, #0
    20a4:	d053      	beq.n	214e <TEE_SetOperationKey2+0xe6>
    20a6:	6843      	ldr	r3, [r0, #4]
    20a8:	2b05      	cmp	r3, #5
    20aa:	d050      	beq.n	214e <TEE_SetOperationKey2+0xe6>
    20ac:	69c3      	ldr	r3, [r0, #28]
    20ae:	031b      	lsls	r3, r3, #12
    20b0:	d54d      	bpl.n	214e <TEE_SetOperationKey2+0xe6>
    20b2:	4669      	mov	r1, sp
    20b4:	4640      	mov	r0, r8
    20b6:	f7fe fedb 	bl	e70 <TEE_GetObjectInfo1>
    20ba:	4605      	mov	r5, r0
    20bc:	2800      	cmp	r0, #0
    20be:	d136      	bne.n	212e <TEE_SetOperationKey2+0xc6>
    20c0:	69a3      	ldr	r3, [r4, #24]
    20c2:	9a03      	ldr	r2, [sp, #12]
    20c4:	4393      	bics	r3, r2
    20c6:	d142      	bne.n	214e <TEE_SetOperationKey2+0xe6>
    20c8:	a907      	add	r1, sp, #28
    20ca:	4630      	mov	r0, r6
    20cc:	f7fe fed0 	bl	e70 <TEE_GetObjectInfo1>
    20d0:	4605      	mov	r5, r0
    20d2:	b120      	cbz	r0, 20de <TEE_SetOperationKey2+0x76>
    20d4:	4b1f      	ldr	r3, [pc, #124]	; (2154 <TEE_SetOperationKey2+0xec>)
    20d6:	429d      	cmp	r5, r3
    20d8:	d12c      	bne.n	2134 <TEE_SetOperationKey2+0xcc>
    20da:	4d1f      	ldr	r5, [pc, #124]	; (2158 <TEE_SetOperationKey2+0xf0>)
    20dc:	e7dd      	b.n	209a <TEE_SetOperationKey2+0x32>
    20de:	69a3      	ldr	r3, [r4, #24]
    20e0:	9a0a      	ldr	r2, [sp, #40]	; 0x28
    20e2:	4393      	bics	r3, r2
    20e4:	d133      	bne.n	214e <TEE_SetOperationKey2+0xe6>
    20e6:	9f01      	ldr	r7, [sp, #4]
    20e8:	9b08      	ldr	r3, [sp, #32]
    20ea:	429f      	cmp	r7, r3
    20ec:	d12f      	bne.n	214e <TEE_SetOperationKey2+0xe6>
    20ee:	6923      	ldr	r3, [r4, #16]
    20f0:	429f      	cmp	r7, r3
    20f2:	d82c      	bhi.n	214e <TEE_SetOperationKey2+0xe6>
    20f4:	6a20      	ldr	r0, [r4, #32]
    20f6:	f7fe ffbd 	bl	1074 <TEE_ResetTransientObject>
    20fa:	6a60      	ldr	r0, [r4, #36]	; 0x24
    20fc:	f7fe ffba 	bl	1074 <TEE_ResetTransientObject>
    2100:	69e3      	ldr	r3, [r4, #28]
    2102:	4641      	mov	r1, r8
    2104:	6a20      	ldr	r0, [r4, #32]
    2106:	f423 2380 	bic.w	r3, r3, #262144	; 0x40000
    210a:	61e3      	str	r3, [r4, #28]
    210c:	f7ff f828 	bl	1160 <TEE_CopyObjectAttributes1>
    2110:	4605      	mov	r5, r0
    2112:	b960      	cbnz	r0, 212e <TEE_SetOperationKey2+0xc6>
    2114:	4631      	mov	r1, r6
    2116:	6a60      	ldr	r0, [r4, #36]	; 0x24
    2118:	f7ff f822 	bl	1160 <TEE_CopyObjectAttributes1>
    211c:	4605      	mov	r5, r0
    211e:	2800      	cmp	r0, #0
    2120:	d1d8      	bne.n	20d4 <TEE_SetOperationKey2+0x6c>
    2122:	69e3      	ldr	r3, [r4, #28]
    2124:	6167      	str	r7, [r4, #20]
    2126:	f443 2380 	orr.w	r3, r3, #262144	; 0x40000
    212a:	61e3      	str	r3, [r4, #28]
    212c:	e7b5      	b.n	209a <TEE_SetOperationKey2+0x32>
    212e:	4b09      	ldr	r3, [pc, #36]	; (2154 <TEE_SetOperationKey2+0xec>)
    2130:	429d      	cmp	r5, r3
    2132:	d0b2      	beq.n	209a <TEE_SetOperationKey2+0x32>
    2134:	4b08      	ldr	r3, [pc, #32]	; (2158 <TEE_SetOperationKey2+0xf0>)
    2136:	429d      	cmp	r5, r3
    2138:	d0cf      	beq.n	20da <TEE_SetOperationKey2+0x72>
    213a:	3301      	adds	r3, #1
    213c:	429d      	cmp	r5, r3
    213e:	d0ac      	beq.n	209a <TEE_SetOperationKey2+0x32>
    2140:	3301      	adds	r3, #1
    2142:	429d      	cmp	r5, r3
    2144:	d0a9      	beq.n	209a <TEE_SetOperationKey2+0x32>
    2146:	4628      	mov	r0, r5
    2148:	f000 ffaa 	bl	30a0 <TEE_Panic>
    214c:	e7a5      	b.n	209a <TEE_SetOperationKey2+0x32>
    214e:	4d03      	ldr	r5, [pc, #12]	; (215c <TEE_SetOperationKey2+0xf4>)
    2150:	e7f9      	b.n	2146 <TEE_SetOperationKey2+0xde>
    2152:	bf00      	nop
    2154:	f0100001 	.word	0xf0100001
    2158:	f0100002 	.word	0xf0100002
    215c:	ffff0006 	.word	0xffff0006

00002160 <TEE_CopyOperation>:
    2160:	b538      	push	{r3, r4, r5, lr}
    2162:	460c      	mov	r4, r1
    2164:	4605      	mov	r5, r0
    2166:	b100      	cbz	r0, 216a <TEE_CopyOperation+0xa>
    2168:	b911      	cbnz	r1, 2170 <TEE_CopyOperation+0x10>
    216a:	2000      	movs	r0, #0
    216c:	f000 ff98 	bl	30a0 <TEE_Panic>
    2170:	6823      	ldr	r3, [r4, #0]
    2172:	682a      	ldr	r2, [r5, #0]
    2174:	429a      	cmp	r2, r3
    2176:	d002      	beq.n	217e <TEE_CopyOperation+0x1e>
    2178:	2000      	movs	r0, #0
    217a:	f000 ff91 	bl	30a0 <TEE_Panic>
    217e:	68a3      	ldr	r3, [r4, #8]
    2180:	68aa      	ldr	r2, [r5, #8]
    2182:	429a      	cmp	r2, r3
    2184:	d002      	beq.n	218c <TEE_CopyOperation+0x2c>
    2186:	2000      	movs	r0, #0
    2188:	f000 ff8a 	bl	30a0 <TEE_Panic>
    218c:	6863      	ldr	r3, [r4, #4]
    218e:	2b05      	cmp	r3, #5
    2190:	d00b      	beq.n	21aa <TEE_CopyOperation+0x4a>
    2192:	69e3      	ldr	r3, [r4, #28]
    2194:	4628      	mov	r0, r5
    2196:	f413 2280 	ands.w	r2, r3, #262144	; 0x40000
    219a:	bf16      	itet	ne
    219c:	6a21      	ldrne	r1, [r4, #32]
    219e:	4611      	moveq	r1, r2
    21a0:	6a62      	ldrne	r2, [r4, #36]	; 0x24
    21a2:	031b      	lsls	r3, r3, #12
    21a4:	d42d      	bmi.n	2202 <TEE_CopyOperation+0xa2>
    21a6:	f7ff ff11 	bl	1fcc <TEE_SetOperationKey>
    21aa:	69e3      	ldr	r3, [r4, #28]
    21ac:	f895 2030 	ldrb.w	r2, [r5, #48]	; 0x30
    21b0:	61eb      	str	r3, [r5, #28]
    21b2:	6963      	ldr	r3, [r4, #20]
    21b4:	616b      	str	r3, [r5, #20]
    21b6:	68e3      	ldr	r3, [r4, #12]
    21b8:	60eb      	str	r3, [r5, #12]
    21ba:	6aa3      	ldr	r3, [r4, #40]	; 0x28
    21bc:	62ab      	str	r3, [r5, #40]	; 0x28
    21be:	f894 3030 	ldrb.w	r3, [r4, #48]	; 0x30
    21c2:	429a      	cmp	r2, r3
    21c4:	d103      	bne.n	21ce <TEE_CopyOperation+0x6e>
    21c6:	6b63      	ldr	r3, [r4, #52]	; 0x34
    21c8:	6b6a      	ldr	r2, [r5, #52]	; 0x34
    21ca:	429a      	cmp	r2, r3
    21cc:	d002      	beq.n	21d4 <TEE_CopyOperation+0x74>
    21ce:	2000      	movs	r0, #0
    21d0:	f000 ff66 	bl	30a0 <TEE_Panic>
    21d4:	6ae8      	ldr	r0, [r5, #44]	; 0x2c
    21d6:	6ae3      	ldr	r3, [r4, #44]	; 0x2c
    21d8:	b1b0      	cbz	r0, 2208 <TEE_CopyOperation+0xa8>
    21da:	b913      	cbnz	r3, 21e2 <TEE_CopyOperation+0x82>
    21dc:	4618      	mov	r0, r3
    21de:	f000 ff5f 	bl	30a0 <TEE_Panic>
    21e2:	6ae1      	ldr	r1, [r4, #44]	; 0x2c
    21e4:	6ba2      	ldr	r2, [r4, #56]	; 0x38
    21e6:	6ae8      	ldr	r0, [r5, #44]	; 0x2c
    21e8:	f7fe f8ae 	bl	348 <memcpy>
    21ec:	6ba3      	ldr	r3, [r4, #56]	; 0x38
    21ee:	63ab      	str	r3, [r5, #56]	; 0x38
    21f0:	6be1      	ldr	r1, [r4, #60]	; 0x3c
    21f2:	6be8      	ldr	r0, [r5, #60]	; 0x3c
    21f4:	f001 eb86 	blx	3904 <_utee_cryp_state_copy>
    21f8:	b158      	cbz	r0, 2212 <TEE_CopyOperation+0xb2>
    21fa:	e8bd 4038 	ldmia.w	sp!, {r3, r4, r5, lr}
    21fe:	f000 bf4f 	b.w	30a0 <TEE_Panic>
    2202:	f7ff ff31 	bl	2068 <TEE_SetOperationKey2>
    2206:	e7d0      	b.n	21aa <TEE_CopyOperation+0x4a>
    2208:	2b00      	cmp	r3, #0
    220a:	d0f1      	beq.n	21f0 <TEE_CopyOperation+0x90>
    220c:	f000 ff48 	bl	30a0 <TEE_Panic>
    2210:	e7ee      	b.n	21f0 <TEE_CopyOperation+0x90>
    2212:	bd38      	pop	{r3, r4, r5, pc}

00002214 <TEE_DigestUpdate>:
    2214:	b570      	push	{r4, r5, r6, lr}
    2216:	460d      	mov	r5, r1
    2218:	4616      	mov	r6, r2
    221a:	4604      	mov	r4, r0
    221c:	b110      	cbz	r0, 2224 <TEE_DigestUpdate+0x10>
    221e:	6843      	ldr	r3, [r0, #4]
    2220:	2b05      	cmp	r3, #5
    2222:	d002      	beq.n	222a <TEE_DigestUpdate+0x16>
    2224:	2000      	movs	r0, #0
    2226:	f000 ff3b 	bl	30a0 <TEE_Panic>
    222a:	2301      	movs	r3, #1
    222c:	4632      	mov	r2, r6
    222e:	6be0      	ldr	r0, [r4, #60]	; 0x3c
    2230:	4629      	mov	r1, r5
    2232:	62a3      	str	r3, [r4, #40]	; 0x28
    2234:	f001 eb84 	blx	3940 <_utee_hash_update>
    2238:	b118      	cbz	r0, 2242 <TEE_DigestUpdate+0x2e>
    223a:	e8bd 4070 	ldmia.w	sp!, {r4, r5, r6, lr}
    223e:	f000 bf2f 	b.w	30a0 <TEE_Panic>
    2242:	bd70      	pop	{r4, r5, r6, pc}

00002244 <TEE_DigestDoFinal>:
    2244:	e92d 41ff 	stmdb	sp!, {r0, r1, r2, r3, r4, r5, r6, r7, r8, lr}
    2248:	460e      	mov	r6, r1
    224a:	4617      	mov	r7, r2
    224c:	4698      	mov	r8, r3
    224e:	9c0a      	ldr	r4, [sp, #40]	; 0x28
    2250:	4605      	mov	r5, r0
    2252:	b358      	cbz	r0, 22ac <TEE_DigestDoFinal+0x68>
    2254:	b901      	cbnz	r1, 2258 <TEE_DigestDoFinal+0x14>
    2256:	bb4a      	cbnz	r2, 22ac <TEE_DigestDoFinal+0x68>
    2258:	686b      	ldr	r3, [r5, #4]
    225a:	2b05      	cmp	r3, #5
    225c:	d126      	bne.n	22ac <TEE_DigestDoFinal+0x68>
    225e:	4620      	mov	r0, r4
    2260:	2104      	movs	r1, #4
    2262:	f000 ff70 	bl	3146 <__utee_check_inout_annotation>
    2266:	6823      	ldr	r3, [r4, #0]
    2268:	463a      	mov	r2, r7
    226a:	4631      	mov	r1, r6
    226c:	9302      	str	r3, [sp, #8]
    226e:	2300      	movs	r3, #0
    2270:	9303      	str	r3, [sp, #12]
    2272:	ab02      	add	r3, sp, #8
    2274:	9300      	str	r3, [sp, #0]
    2276:	4643      	mov	r3, r8
    2278:	6be8      	ldr	r0, [r5, #60]	; 0x3c
    227a:	f001 eb6c 	blx	3954 <_utee_hash_final>
    227e:	9b02      	ldr	r3, [sp, #8]
    2280:	6023      	str	r3, [r4, #0]
    2282:	4604      	mov	r4, r0
    2284:	b9b8      	cbnz	r0, 22b6 <TEE_DigestDoFinal+0x72>
    2286:	4602      	mov	r2, r0
    2288:	4601      	mov	r1, r0
    228a:	6be8      	ldr	r0, [r5, #60]	; 0x3c
    228c:	f001 eb4e 	blx	392c <_utee_hash_init>
    2290:	b108      	cbz	r0, 2296 <TEE_DigestDoFinal+0x52>
    2292:	f000 ff05 	bl	30a0 <TEE_Panic>
    2296:	69eb      	ldr	r3, [r5, #28]
    2298:	2200      	movs	r2, #0
    229a:	62aa      	str	r2, [r5, #40]	; 0x28
    229c:	63aa      	str	r2, [r5, #56]	; 0x38
    229e:	f443 3300 	orr.w	r3, r3, #131072	; 0x20000
    22a2:	61eb      	str	r3, [r5, #28]
    22a4:	4620      	mov	r0, r4
    22a6:	b004      	add	sp, #16
    22a8:	e8bd 81f0 	ldmia.w	sp!, {r4, r5, r6, r7, r8, pc}
    22ac:	4c04      	ldr	r4, [pc, #16]	; (22c0 <TEE_DigestDoFinal+0x7c>)
    22ae:	4620      	mov	r0, r4
    22b0:	f000 fef6 	bl	30a0 <TEE_Panic>
    22b4:	e7f6      	b.n	22a4 <TEE_DigestDoFinal+0x60>
    22b6:	4b03      	ldr	r3, [pc, #12]	; (22c4 <TEE_DigestDoFinal+0x80>)
    22b8:	4298      	cmp	r0, r3
    22ba:	d0f3      	beq.n	22a4 <TEE_DigestDoFinal+0x60>
    22bc:	e7f7      	b.n	22ae <TEE_DigestDoFinal+0x6a>
    22be:	bf00      	nop
    22c0:	ffff0006 	.word	0xffff0006
    22c4:	ffff0010 	.word	0xffff0010

000022c8 <TEE_CipherInit>:
    22c8:	b570      	push	{r4, r5, r6, lr}
    22ca:	460d      	mov	r5, r1
    22cc:	4616      	mov	r6, r2
    22ce:	4604      	mov	r4, r0
    22d0:	b908      	cbnz	r0, 22d6 <TEE_CipherInit+0xe>
    22d2:	f000 fee5 	bl	30a0 <TEE_Panic>
    22d6:	6863      	ldr	r3, [r4, #4]
    22d8:	2b01      	cmp	r3, #1
    22da:	d002      	beq.n	22e2 <TEE_CipherInit+0x1a>
    22dc:	2000      	movs	r0, #0
    22de:	f000 fedf 	bl	30a0 <TEE_Panic>
    22e2:	69e3      	ldr	r3, [r4, #28]
    22e4:	035b      	lsls	r3, r3, #13
    22e6:	d501      	bpl.n	22ec <TEE_CipherInit+0x24>
    22e8:	6a23      	ldr	r3, [r4, #32]
    22ea:	b913      	cbnz	r3, 22f2 <TEE_CipherInit+0x2a>
    22ec:	2000      	movs	r0, #0
    22ee:	f000 fed7 	bl	30a0 <TEE_Panic>
    22f2:	6aa3      	ldr	r3, [r4, #40]	; 0x28
    22f4:	b113      	cbz	r3, 22fc <TEE_CipherInit+0x34>
    22f6:	4620      	mov	r0, r4
    22f8:	f7ff fe48 	bl	1f8c <TEE_ResetOperation>
    22fc:	2301      	movs	r3, #1
    22fe:	4632      	mov	r2, r6
    2300:	6be0      	ldr	r0, [r4, #60]	; 0x3c
    2302:	4629      	mov	r1, r5
    2304:	62a3      	str	r3, [r4, #40]	; 0x28
    2306:	f001 eb32 	blx	396c <_utee_cipher_init>
    230a:	b108      	cbz	r0, 2310 <TEE_CipherInit+0x48>
    230c:	f000 fec8 	bl	30a0 <TEE_Panic>
    2310:	2300      	movs	r3, #0
    2312:	63a3      	str	r3, [r4, #56]	; 0x38
    2314:	69e3      	ldr	r3, [r4, #28]
    2316:	f443 3300 	orr.w	r3, r3, #131072	; 0x20000
    231a:	61e3      	str	r3, [r4, #28]
    231c:	bd70      	pop	{r4, r5, r6, pc}

0000231e <TEE_CipherUpdate>:
    231e:	e92d 43f0 	stmdb	sp!, {r4, r5, r6, r7, r8, r9, lr}
    2322:	b087      	sub	sp, #28
    2324:	f8df 90d8 	ldr.w	r9, [pc, #216]	; 2400 <TEE_CipherUpdate+0xe2>
    2328:	460f      	mov	r7, r1
    232a:	4614      	mov	r4, r2
    232c:	4698      	mov	r8, r3
    232e:	4605      	mov	r5, r0
    2330:	9e0e      	ldr	r6, [sp, #56]	; 0x38
    2332:	44f9      	add	r9, pc
    2334:	2800      	cmp	r0, #0
    2336:	d05c      	beq.n	23f2 <TEE_CipherUpdate+0xd4>
    2338:	b909      	cbnz	r1, 233e <TEE_CipherUpdate+0x20>
    233a:	2a00      	cmp	r2, #0
    233c:	d159      	bne.n	23f2 <TEE_CipherUpdate+0xd4>
    233e:	2104      	movs	r1, #4
    2340:	4630      	mov	r0, r6
    2342:	f000 ff00 	bl	3146 <__utee_check_inout_annotation>
    2346:	686b      	ldr	r3, [r5, #4]
    2348:	2b01      	cmp	r3, #1
    234a:	d152      	bne.n	23f2 <TEE_CipherUpdate+0xd4>
    234c:	69eb      	ldr	r3, [r5, #28]
    234e:	039b      	lsls	r3, r3, #14
    2350:	d54f      	bpl.n	23f2 <TEE_CipherUpdate+0xd4>
    2352:	6aab      	ldr	r3, [r5, #40]	; 0x28
    2354:	2b01      	cmp	r3, #1
    2356:	d14c      	bne.n	23f2 <TEE_CipherUpdate+0xd4>
    2358:	b92f      	cbnz	r7, 2366 <TEE_CipherUpdate+0x48>
    235a:	b924      	cbnz	r4, 2366 <TEE_CipherUpdate+0x48>
    235c:	6034      	str	r4, [r6, #0]
    235e:	4620      	mov	r0, r4
    2360:	b007      	add	sp, #28
    2362:	e8bd 83f0 	ldmia.w	sp!, {r4, r5, r6, r7, r8, r9, pc}
    2366:	6b6b      	ldr	r3, [r5, #52]	; 0x34
    2368:	f895 1030 	ldrb.w	r1, [r5, #48]	; 0x30
    236c:	2b01      	cmp	r3, #1
    236e:	bf89      	itett	hi
    2370:	6baa      	ldrhi	r2, [r5, #56]	; 0x38
    2372:	4622      	movls	r2, r4
    2374:	1912      	addhi	r2, r2, r4
    2376:	fbb2 f2f3 	udivhi	r2, r2, r3
    237a:	bf88      	it	hi
    237c:	435a      	mulhi	r2, r3
    237e:	b121      	cbz	r1, 238a <TEE_CipherUpdate+0x6c>
    2380:	0059      	lsls	r1, r3, #1
    2382:	428a      	cmp	r2, r1
    2384:	bf8c      	ite	hi
    2386:	1a52      	subhi	r2, r2, r1
    2388:	2200      	movls	r2, #0
    238a:	6831      	ldr	r1, [r6, #0]
    238c:	428a      	cmp	r2, r1
    238e:	d902      	bls.n	2396 <TEE_CipherUpdate+0x78>
    2390:	4c19      	ldr	r4, [pc, #100]	; (23f8 <TEE_CipherUpdate+0xda>)
    2392:	6032      	str	r2, [r6, #0]
    2394:	e7e3      	b.n	235e <TEE_CipherUpdate+0x40>
    2396:	2200      	movs	r2, #0
    2398:	2b01      	cmp	r3, #1
    239a:	9104      	str	r1, [sp, #16]
    239c:	9205      	str	r2, [sp, #20]
    239e:	d919      	bls.n	23d4 <TEE_CipherUpdate+0xb6>
    23a0:	4b18      	ldr	r3, [pc, #96]	; (2404 <TEE_CipherUpdate+0xe6>)
    23a2:	463a      	mov	r2, r7
    23a4:	4628      	mov	r0, r5
    23a6:	f859 3003 	ldr.w	r3, [r9, r3]
    23aa:	f8cd 8000 	str.w	r8, [sp]
    23ae:	9303      	str	r3, [sp, #12]
    23b0:	ab04      	add	r3, sp, #16
    23b2:	9903      	ldr	r1, [sp, #12]
    23b4:	9301      	str	r3, [sp, #4]
    23b6:	4623      	mov	r3, r4
    23b8:	f7ff f90a 	bl	15d0 <tee_buffer_update>
    23bc:	4604      	mov	r4, r0
    23be:	9b04      	ldr	r3, [sp, #16]
    23c0:	6033      	str	r3, [r6, #0]
    23c2:	2c00      	cmp	r4, #0
    23c4:	d0cb      	beq.n	235e <TEE_CipherUpdate+0x40>
    23c6:	4b0c      	ldr	r3, [pc, #48]	; (23f8 <TEE_CipherUpdate+0xda>)
    23c8:	429c      	cmp	r4, r3
    23ca:	d0c8      	beq.n	235e <TEE_CipherUpdate+0x40>
    23cc:	4620      	mov	r0, r4
    23ce:	f000 fe67 	bl	30a0 <TEE_Panic>
    23d2:	e7c4      	b.n	235e <TEE_CipherUpdate+0x40>
    23d4:	b144      	cbz	r4, 23e8 <TEE_CipherUpdate+0xca>
    23d6:	ab04      	add	r3, sp, #16
    23d8:	4622      	mov	r2, r4
    23da:	4639      	mov	r1, r7
    23dc:	9300      	str	r3, [sp, #0]
    23de:	4643      	mov	r3, r8
    23e0:	6be8      	ldr	r0, [r5, #60]	; 0x3c
    23e2:	f001 eace 	blx	3980 <_utee_cipher_update>
    23e6:	e7e9      	b.n	23bc <TEE_CipherUpdate+0x9e>
    23e8:	2200      	movs	r2, #0
    23ea:	2300      	movs	r3, #0
    23ec:	e9cd 2304 	strd	r2, r3, [sp, #16]
    23f0:	e7e5      	b.n	23be <TEE_CipherUpdate+0xa0>
    23f2:	4c02      	ldr	r4, [pc, #8]	; (23fc <TEE_CipherUpdate+0xde>)
    23f4:	e7ea      	b.n	23cc <TEE_CipherUpdate+0xae>
    23f6:	bf00      	nop
    23f8:	ffff0010 	.word	0xffff0010
    23fc:	ffff0006 	.word	0xffff0006
    2400:	00009d4a 	.word	0x00009d4a
    2404:	00000044 	.word	0x00000044

00002408 <TEE_CipherDoFinal>:
    2408:	e92d 4ff0 	stmdb	sp!, {r4, r5, r6, r7, r8, r9, sl, fp, lr}
    240c:	461f      	mov	r7, r3
    240e:	4b4c      	ldr	r3, [pc, #304]	; (2540 <TEE_CipherDoFinal+0x138>)
    2410:	b087      	sub	sp, #28
    2412:	4692      	mov	sl, r2
    2414:	2200      	movs	r2, #0
    2416:	460d      	mov	r5, r1
    2418:	9e10      	ldr	r6, [sp, #64]	; 0x40
    241a:	4604      	mov	r4, r0
    241c:	447b      	add	r3, pc
    241e:	9303      	str	r3, [sp, #12]
    2420:	2300      	movs	r3, #0
    2422:	e9cd 2304 	strd	r2, r3, [sp, #16]
    2426:	2800      	cmp	r0, #0
    2428:	f000 8083 	beq.w	2532 <TEE_CipherDoFinal+0x12a>
    242c:	b911      	cbnz	r1, 2434 <TEE_CipherDoFinal+0x2c>
    242e:	f1ba 0f00 	cmp.w	sl, #0
    2432:	d17e      	bne.n	2532 <TEE_CipherDoFinal+0x12a>
    2434:	b11e      	cbz	r6, 243e <TEE_CipherDoFinal+0x36>
    2436:	2104      	movs	r1, #4
    2438:	4630      	mov	r0, r6
    243a:	f000 fe84 	bl	3146 <__utee_check_inout_annotation>
    243e:	6863      	ldr	r3, [r4, #4]
    2440:	2b01      	cmp	r3, #1
    2442:	d176      	bne.n	2532 <TEE_CipherDoFinal+0x12a>
    2444:	69e3      	ldr	r3, [r4, #28]
    2446:	039b      	lsls	r3, r3, #14
    2448:	d573      	bpl.n	2532 <TEE_CipherDoFinal+0x12a>
    244a:	6aa3      	ldr	r3, [r4, #40]	; 0x28
    244c:	2b01      	cmp	r3, #1
    244e:	d170      	bne.n	2532 <TEE_CipherDoFinal+0x12a>
    2450:	6823      	ldr	r3, [r4, #0]
    2452:	f423 7380 	bic.w	r3, r3, #256	; 0x100
    2456:	f103 4370 	add.w	r3, r3, #4026531840	; 0xf0000000
    245a:	f1a3 0210 	sub.w	r2, r3, #16
    245e:	2a01      	cmp	r2, #1
    2460:	6b62      	ldr	r2, [r4, #52]	; 0x34
    2462:	d902      	bls.n	246a <TEE_CipherDoFinal+0x62>
    2464:	3b13      	subs	r3, #19
    2466:	2b01      	cmp	r3, #1
    2468:	d807      	bhi.n	247a <TEE_CipherDoFinal+0x72>
    246a:	6ba3      	ldr	r3, [r4, #56]	; 0x38
    246c:	4453      	add	r3, sl
    246e:	fbb3 f1f2 	udiv	r1, r3, r2
    2472:	fb02 3311 	mls	r3, r2, r1, r3
    2476:	2b00      	cmp	r3, #0
    2478:	d15b      	bne.n	2532 <TEE_CipherDoFinal+0x12a>
    247a:	2a01      	cmp	r2, #1
    247c:	bf8a      	itet	hi
    247e:	6ba3      	ldrhi	r3, [r4, #56]	; 0x38
    2480:	4651      	movls	r1, sl
    2482:	eb0a 0103 	addhi.w	r1, sl, r3
    2486:	b11e      	cbz	r6, 2490 <TEE_CipherDoFinal+0x88>
    2488:	6833      	ldr	r3, [r6, #0]
    248a:	9304      	str	r3, [sp, #16]
    248c:	2300      	movs	r3, #0
    248e:	9305      	str	r3, [sp, #20]
    2490:	e9dd bc04 	ldrd	fp, ip, [sp, #16]
    2494:	f04f 0900 	mov.w	r9, #0
    2498:	45cc      	cmp	ip, r9
    249a:	bf08      	it	eq
    249c:	458b      	cmpeq	fp, r1
    249e:	d203      	bcs.n	24a8 <TEE_CipherDoFinal+0xa0>
    24a0:	b106      	cbz	r6, 24a4 <TEE_CipherDoFinal+0x9c>
    24a2:	6031      	str	r1, [r6, #0]
    24a4:	4d24      	ldr	r5, [pc, #144]	; (2538 <TEE_CipherDoFinal+0x130>)
    24a6:	e02d      	b.n	2504 <TEE_CipherDoFinal+0xfc>
    24a8:	2a01      	cmp	r2, #1
    24aa:	f10d 0810 	add.w	r8, sp, #16
    24ae:	d92d      	bls.n	250c <TEE_CipherDoFinal+0x104>
    24b0:	9a03      	ldr	r2, [sp, #12]
    24b2:	4620      	mov	r0, r4
    24b4:	4b23      	ldr	r3, [pc, #140]	; (2544 <TEE_CipherDoFinal+0x13c>)
    24b6:	58d3      	ldr	r3, [r2, r3]
    24b8:	462a      	mov	r2, r5
    24ba:	e9cd 7800 	strd	r7, r8, [sp]
    24be:	9303      	str	r3, [sp, #12]
    24c0:	4653      	mov	r3, sl
    24c2:	9903      	ldr	r1, [sp, #12]
    24c4:	f7ff f884 	bl	15d0 <tee_buffer_update>
    24c8:	4605      	mov	r5, r0
    24ca:	bb58      	cbnz	r0, 2524 <TEE_CipherDoFinal+0x11c>
    24cc:	f8dd 9010 	ldr.w	r9, [sp, #16]
    24d0:	9005      	str	r0, [sp, #20]
    24d2:	6833      	ldr	r3, [r6, #0]
    24d4:	f8cd 8000 	str.w	r8, [sp]
    24d8:	6ae1      	ldr	r1, [r4, #44]	; 0x2c
    24da:	6ba2      	ldr	r2, [r4, #56]	; 0x38
    24dc:	6be0      	ldr	r0, [r4, #60]	; 0x3c
    24de:	eba3 0309 	sub.w	r3, r3, r9
    24e2:	9304      	str	r3, [sp, #16]
    24e4:	eb07 0309 	add.w	r3, r7, r9
    24e8:	f001 ea56 	blx	3998 <_utee_cipher_final>
    24ec:	4605      	mov	r5, r0
    24ee:	b9cd      	cbnz	r5, 2524 <TEE_CipherDoFinal+0x11c>
    24f0:	b116      	cbz	r6, 24f8 <TEE_CipherDoFinal+0xf0>
    24f2:	9b04      	ldr	r3, [sp, #16]
    24f4:	444b      	add	r3, r9
    24f6:	6033      	str	r3, [r6, #0]
    24f8:	69e3      	ldr	r3, [r4, #28]
    24fa:	f423 3300 	bic.w	r3, r3, #131072	; 0x20000
    24fe:	61e3      	str	r3, [r4, #28]
    2500:	2300      	movs	r3, #0
    2502:	62a3      	str	r3, [r4, #40]	; 0x28
    2504:	4628      	mov	r0, r5
    2506:	b007      	add	sp, #28
    2508:	e8bd 8ff0 	ldmia.w	sp!, {r4, r5, r6, r7, r8, r9, sl, fp, pc}
    250c:	4629      	mov	r1, r5
    250e:	f8cd 8000 	str.w	r8, [sp]
    2512:	463b      	mov	r3, r7
    2514:	4652      	mov	r2, sl
    2516:	6be0      	ldr	r0, [r4, #60]	; 0x3c
    2518:	f04f 0900 	mov.w	r9, #0
    251c:	f001 ea3c 	blx	3998 <_utee_cipher_final>
    2520:	4605      	mov	r5, r0
    2522:	e7e4      	b.n	24ee <TEE_CipherDoFinal+0xe6>
    2524:	4b04      	ldr	r3, [pc, #16]	; (2538 <TEE_CipherDoFinal+0x130>)
    2526:	429d      	cmp	r5, r3
    2528:	d0bc      	beq.n	24a4 <TEE_CipherDoFinal+0x9c>
    252a:	4628      	mov	r0, r5
    252c:	f000 fdb8 	bl	30a0 <TEE_Panic>
    2530:	e7e8      	b.n	2504 <TEE_CipherDoFinal+0xfc>
    2532:	4d02      	ldr	r5, [pc, #8]	; (253c <TEE_CipherDoFinal+0x134>)
    2534:	e7f9      	b.n	252a <TEE_CipherDoFinal+0x122>
    2536:	bf00      	nop
    2538:	ffff0010 	.word	0xffff0010
    253c:	ffff0006 	.word	0xffff0006
    2540:	00009c60 	.word	0x00009c60
    2544:	00000044 	.word	0x00000044

00002548 <TEE_MACInit>:
    2548:	b570      	push	{r4, r5, r6, lr}
    254a:	460d      	mov	r5, r1
    254c:	4616      	mov	r6, r2
    254e:	4604      	mov	r4, r0
    2550:	b908      	cbnz	r0, 2556 <TEE_MACInit+0xe>
    2552:	f000 fda5 	bl	30a0 <TEE_Panic>
    2556:	6863      	ldr	r3, [r4, #4]
    2558:	2b03      	cmp	r3, #3
    255a:	d002      	beq.n	2562 <TEE_MACInit+0x1a>
    255c:	2000      	movs	r0, #0
    255e:	f000 fd9f 	bl	30a0 <TEE_Panic>
    2562:	69e3      	ldr	r3, [r4, #28]
    2564:	035b      	lsls	r3, r3, #13
    2566:	d501      	bpl.n	256c <TEE_MACInit+0x24>
    2568:	6a23      	ldr	r3, [r4, #32]
    256a:	b913      	cbnz	r3, 2572 <TEE_MACInit+0x2a>
    256c:	2000      	movs	r0, #0
    256e:	f000 fd97 	bl	30a0 <TEE_Panic>
    2572:	6aa3      	ldr	r3, [r4, #40]	; 0x28
    2574:	b113      	cbz	r3, 257c <TEE_MACInit+0x34>
    2576:	4620      	mov	r0, r4
    2578:	f7ff fd08 	bl	1f8c <TEE_ResetOperation>
    257c:	2301      	movs	r3, #1
    257e:	4632      	mov	r2, r6
    2580:	6be0      	ldr	r0, [r4, #60]	; 0x3c
    2582:	4629      	mov	r1, r5
    2584:	62a3      	str	r3, [r4, #40]	; 0x28
    2586:	f001 e9d2 	blx	392c <_utee_hash_init>
    258a:	b108      	cbz	r0, 2590 <TEE_MACInit+0x48>
    258c:	f000 fd88 	bl	30a0 <TEE_Panic>
    2590:	2300      	movs	r3, #0
    2592:	63a3      	str	r3, [r4, #56]	; 0x38
    2594:	69e3      	ldr	r3, [r4, #28]
    2596:	f443 3300 	orr.w	r3, r3, #131072	; 0x20000
    259a:	61e3      	str	r3, [r4, #28]
    259c:	bd70      	pop	{r4, r5, r6, pc}

0000259e <TEE_MACUpdate>:
    259e:	b570      	push	{r4, r5, r6, lr}
    25a0:	460d      	mov	r5, r1
    25a2:	4616      	mov	r6, r2
    25a4:	4604      	mov	r4, r0
    25a6:	b108      	cbz	r0, 25ac <TEE_MACUpdate+0xe>
    25a8:	b919      	cbnz	r1, 25b2 <TEE_MACUpdate+0x14>
    25aa:	b112      	cbz	r2, 25b2 <TEE_MACUpdate+0x14>
    25ac:	2000      	movs	r0, #0
    25ae:	f000 fd77 	bl	30a0 <TEE_Panic>
    25b2:	6863      	ldr	r3, [r4, #4]
    25b4:	2b03      	cmp	r3, #3
    25b6:	d002      	beq.n	25be <TEE_MACUpdate+0x20>
    25b8:	2000      	movs	r0, #0
    25ba:	f000 fd71 	bl	30a0 <TEE_Panic>
    25be:	69e0      	ldr	r0, [r4, #28]
    25c0:	f410 3000 	ands.w	r0, r0, #131072	; 0x20000
    25c4:	d101      	bne.n	25ca <TEE_MACUpdate+0x2c>
    25c6:	f000 fd6b 	bl	30a0 <TEE_Panic>
    25ca:	6aa3      	ldr	r3, [r4, #40]	; 0x28
    25cc:	2b01      	cmp	r3, #1
    25ce:	d002      	beq.n	25d6 <TEE_MACUpdate+0x38>
    25d0:	2000      	movs	r0, #0
    25d2:	f000 fd65 	bl	30a0 <TEE_Panic>
    25d6:	4632      	mov	r2, r6
    25d8:	4629      	mov	r1, r5
    25da:	6be0      	ldr	r0, [r4, #60]	; 0x3c
    25dc:	f001 e9b0 	blx	3940 <_utee_hash_update>
    25e0:	b118      	cbz	r0, 25ea <TEE_MACUpdate+0x4c>
    25e2:	e8bd 4070 	ldmia.w	sp!, {r4, r5, r6, lr}
    25e6:	f000 bd5b 	b.w	30a0 <TEE_Panic>
    25ea:	bd70      	pop	{r4, r5, r6, pc}

000025ec <TEE_MACComputeFinal>:
    25ec:	e92d 41ff 	stmdb	sp!, {r0, r1, r2, r3, r4, r5, r6, r7, r8, lr}
    25f0:	460e      	mov	r6, r1
    25f2:	4617      	mov	r7, r2
    25f4:	4698      	mov	r8, r3
    25f6:	9d0a      	ldr	r5, [sp, #40]	; 0x28
    25f8:	4604      	mov	r4, r0
    25fa:	b370      	cbz	r0, 265a <TEE_MACComputeFinal+0x6e>
    25fc:	b901      	cbnz	r1, 2600 <TEE_MACComputeFinal+0x14>
    25fe:	bb62      	cbnz	r2, 265a <TEE_MACComputeFinal+0x6e>
    2600:	2104      	movs	r1, #4
    2602:	4628      	mov	r0, r5
    2604:	f000 fd9f 	bl	3146 <__utee_check_inout_annotation>
    2608:	6863      	ldr	r3, [r4, #4]
    260a:	2b03      	cmp	r3, #3
    260c:	d125      	bne.n	265a <TEE_MACComputeFinal+0x6e>
    260e:	69e3      	ldr	r3, [r4, #28]
    2610:	039b      	lsls	r3, r3, #14
    2612:	d522      	bpl.n	265a <TEE_MACComputeFinal+0x6e>
    2614:	6aa3      	ldr	r3, [r4, #40]	; 0x28
    2616:	2b01      	cmp	r3, #1
    2618:	d11f      	bne.n	265a <TEE_MACComputeFinal+0x6e>
    261a:	682b      	ldr	r3, [r5, #0]
    261c:	463a      	mov	r2, r7
    261e:	4631      	mov	r1, r6
    2620:	9302      	str	r3, [sp, #8]
    2622:	2300      	movs	r3, #0
    2624:	9303      	str	r3, [sp, #12]
    2626:	ab02      	add	r3, sp, #8
    2628:	9300      	str	r3, [sp, #0]
    262a:	4643      	mov	r3, r8
    262c:	6be0      	ldr	r0, [r4, #60]	; 0x3c
    262e:	f001 e992 	blx	3954 <_utee_hash_final>
    2632:	9b02      	ldr	r3, [sp, #8]
    2634:	602b      	str	r3, [r5, #0]
    2636:	4605      	mov	r5, r0
    2638:	b940      	cbnz	r0, 264c <TEE_MACComputeFinal+0x60>
    263a:	69e3      	ldr	r3, [r4, #28]
    263c:	62a0      	str	r0, [r4, #40]	; 0x28
    263e:	f423 3300 	bic.w	r3, r3, #131072	; 0x20000
    2642:	61e3      	str	r3, [r4, #28]
    2644:	4628      	mov	r0, r5
    2646:	b004      	add	sp, #16
    2648:	e8bd 81f0 	ldmia.w	sp!, {r4, r5, r6, r7, r8, pc}
    264c:	4b04      	ldr	r3, [pc, #16]	; (2660 <TEE_MACComputeFinal+0x74>)
    264e:	4298      	cmp	r0, r3
    2650:	d0f8      	beq.n	2644 <TEE_MACComputeFinal+0x58>
    2652:	4628      	mov	r0, r5
    2654:	f000 fd24 	bl	30a0 <TEE_Panic>
    2658:	e7f4      	b.n	2644 <TEE_MACComputeFinal+0x58>
    265a:	4d02      	ldr	r5, [pc, #8]	; (2664 <TEE_MACComputeFinal+0x78>)
    265c:	e7f9      	b.n	2652 <TEE_MACComputeFinal+0x66>
    265e:	bf00      	nop
    2660:	ffff0010 	.word	0xffff0010
    2664:	ffff0006 	.word	0xffff0006

00002668 <TEE_MACCompareFinal>:
    2668:	b5f0      	push	{r4, r5, r6, r7, lr}
    266a:	461f      	mov	r7, r3
    266c:	b095      	sub	sp, #84	; 0x54
    266e:	2340      	movs	r3, #64	; 0x40
    2670:	4605      	mov	r5, r0
    2672:	9303      	str	r3, [sp, #12]
    2674:	6843      	ldr	r3, [r0, #4]
    2676:	2b03      	cmp	r3, #3
    2678:	d11a      	bne.n	26b0 <TEE_MACCompareFinal+0x48>
    267a:	69c3      	ldr	r3, [r0, #28]
    267c:	039b      	lsls	r3, r3, #14
    267e:	d517      	bpl.n	26b0 <TEE_MACCompareFinal+0x48>
    2680:	6a83      	ldr	r3, [r0, #40]	; 0x28
    2682:	2b01      	cmp	r3, #1
    2684:	d114      	bne.n	26b0 <TEE_MACCompareFinal+0x48>
    2686:	ab03      	add	r3, sp, #12
    2688:	ae04      	add	r6, sp, #16
    268a:	9300      	str	r3, [sp, #0]
    268c:	4633      	mov	r3, r6
    268e:	f7ff ffad 	bl	25ec <TEE_MACComputeFinal>
    2692:	4604      	mov	r4, r0
    2694:	b988      	cbnz	r0, 26ba <TEE_MACCompareFinal+0x52>
    2696:	9a03      	ldr	r2, [sp, #12]
    2698:	9b1a      	ldr	r3, [sp, #104]	; 0x68
    269a:	429a      	cmp	r2, r3
    269c:	d110      	bne.n	26c0 <TEE_MACCompareFinal+0x58>
    269e:	4631      	mov	r1, r6
    26a0:	4638      	mov	r0, r7
    26a2:	f006 fe7b 	bl	939c <consttime_memcmp>
    26a6:	b958      	cbnz	r0, 26c0 <TEE_MACCompareFinal+0x58>
    26a8:	62ac      	str	r4, [r5, #40]	; 0x28
    26aa:	4620      	mov	r0, r4
    26ac:	b015      	add	sp, #84	; 0x54
    26ae:	bdf0      	pop	{r4, r5, r6, r7, pc}
    26b0:	4c04      	ldr	r4, [pc, #16]	; (26c4 <TEE_MACCompareFinal+0x5c>)
    26b2:	4620      	mov	r0, r4
    26b4:	f000 fcf4 	bl	30a0 <TEE_Panic>
    26b8:	e7f7      	b.n	26aa <TEE_MACCompareFinal+0x42>
    26ba:	4b03      	ldr	r3, [pc, #12]	; (26c8 <TEE_MACCompareFinal+0x60>)
    26bc:	4298      	cmp	r0, r3
    26be:	d1f8      	bne.n	26b2 <TEE_MACCompareFinal+0x4a>
    26c0:	4c01      	ldr	r4, [pc, #4]	; (26c8 <TEE_MACCompareFinal+0x60>)
    26c2:	e7f2      	b.n	26aa <TEE_MACCompareFinal+0x42>
    26c4:	ffff0006 	.word	0xffff0006
    26c8:	ffff3071 	.word	0xffff3071

000026cc <TEE_AEInit>:
    26cc:	b573      	push	{r0, r1, r4, r5, r6, lr}
    26ce:	4605      	mov	r5, r0
    26d0:	b328      	cbz	r0, 271e <TEE_AEInit+0x52>
    26d2:	b321      	cbz	r1, 271e <TEE_AEInit+0x52>
    26d4:	6840      	ldr	r0, [r0, #4]
    26d6:	2804      	cmp	r0, #4
    26d8:	d121      	bne.n	271e <TEE_AEInit+0x52>
    26da:	6aa8      	ldr	r0, [r5, #40]	; 0x28
    26dc:	b9f8      	cbnz	r0, 271e <TEE_AEInit+0x52>
    26de:	4814      	ldr	r0, [pc, #80]	; (2730 <TEE_AEInit+0x64>)
    26e0:	682c      	ldr	r4, [r5, #0]
    26e2:	4284      	cmp	r4, r0
    26e4:	d109      	bne.n	26fa <TEE_AEInit+0x2e>
    26e6:	f1a3 0060 	sub.w	r0, r3, #96	; 0x60
    26ea:	2820      	cmp	r0, #32
    26ec:	d903      	bls.n	26f6 <TEE_AEInit+0x2a>
    26ee:	4c11      	ldr	r4, [pc, #68]	; (2734 <TEE_AEInit+0x68>)
    26f0:	4620      	mov	r0, r4
    26f2:	b002      	add	sp, #8
    26f4:	bd70      	pop	{r4, r5, r6, pc}
    26f6:	0758      	lsls	r0, r3, #29
    26f8:	d1f9      	bne.n	26ee <TEE_AEInit+0x22>
    26fa:	08de      	lsrs	r6, r3, #3
    26fc:	9b07      	ldr	r3, [sp, #28]
    26fe:	9301      	str	r3, [sp, #4]
    2700:	9b06      	ldr	r3, [sp, #24]
    2702:	9300      	str	r3, [sp, #0]
    2704:	4633      	mov	r3, r6
    2706:	6be8      	ldr	r0, [r5, #60]	; 0x3c
    2708:	f001 e9b6 	blx	3a78 <_utee_authenc_init>
    270c:	4604      	mov	r4, r0
    270e:	b958      	cbnz	r0, 2728 <TEE_AEInit+0x5c>
    2710:	69eb      	ldr	r3, [r5, #28]
    2712:	60ee      	str	r6, [r5, #12]
    2714:	63a8      	str	r0, [r5, #56]	; 0x38
    2716:	f443 3300 	orr.w	r3, r3, #131072	; 0x20000
    271a:	61eb      	str	r3, [r5, #28]
    271c:	e7e8      	b.n	26f0 <TEE_AEInit+0x24>
    271e:	4c06      	ldr	r4, [pc, #24]	; (2738 <TEE_AEInit+0x6c>)
    2720:	4620      	mov	r0, r4
    2722:	f000 fcbd 	bl	30a0 <TEE_Panic>
    2726:	e7e3      	b.n	26f0 <TEE_AEInit+0x24>
    2728:	4b02      	ldr	r3, [pc, #8]	; (2734 <TEE_AEInit+0x68>)
    272a:	4298      	cmp	r0, r3
    272c:	d0df      	beq.n	26ee <TEE_AEInit+0x22>
    272e:	e7f7      	b.n	2720 <TEE_AEInit+0x54>
    2730:	40000810 	.word	0x40000810
    2734:	ffff000a 	.word	0xffff000a
    2738:	ffff0006 	.word	0xffff0006

0000273c <TEE_AEUpdateAAD>:
    273c:	b570      	push	{r4, r5, r6, lr}
    273e:	460d      	mov	r5, r1
    2740:	4616      	mov	r6, r2
    2742:	4604      	mov	r4, r0
    2744:	b108      	cbz	r0, 274a <TEE_AEUpdateAAD+0xe>
    2746:	b919      	cbnz	r1, 2750 <TEE_AEUpdateAAD+0x14>
    2748:	b112      	cbz	r2, 2750 <TEE_AEUpdateAAD+0x14>
    274a:	2000      	movs	r0, #0
    274c:	f000 fca8 	bl	30a0 <TEE_Panic>
    2750:	6863      	ldr	r3, [r4, #4]
    2752:	2b04      	cmp	r3, #4
    2754:	d002      	beq.n	275c <TEE_AEUpdateAAD+0x20>
    2756:	2000      	movs	r0, #0
    2758:	f000 fca2 	bl	30a0 <TEE_Panic>
    275c:	69e0      	ldr	r0, [r4, #28]
    275e:	f410 3000 	ands.w	r0, r0, #131072	; 0x20000
    2762:	d101      	bne.n	2768 <TEE_AEUpdateAAD+0x2c>
    2764:	f000 fc9c 	bl	30a0 <TEE_Panic>
    2768:	4632      	mov	r2, r6
    276a:	4629      	mov	r1, r5
    276c:	6be0      	ldr	r0, [r4, #60]	; 0x3c
    276e:	f001 e990 	blx	3a90 <_utee_authenc_update_aad>
    2772:	2301      	movs	r3, #1
    2774:	62a3      	str	r3, [r4, #40]	; 0x28
    2776:	b118      	cbz	r0, 2780 <TEE_AEUpdateAAD+0x44>
    2778:	e8bd 4070 	ldmia.w	sp!, {r4, r5, r6, lr}
    277c:	f000 bc90 	b.w	30a0 <TEE_Panic>
    2780:	bd70      	pop	{r4, r5, r6, pc}

00002782 <TEE_AEUpdate>:
    2782:	e92d 43f0 	stmdb	sp!, {r4, r5, r6, r7, r8, r9, lr}
    2786:	4614      	mov	r4, r2
    2788:	f8df 90e0 	ldr.w	r9, [pc, #224]	; 286c <TEE_AEUpdate+0xea>
    278c:	b087      	sub	sp, #28
    278e:	4698      	mov	r8, r3
    2790:	2200      	movs	r2, #0
    2792:	2300      	movs	r3, #0
    2794:	9e0e      	ldr	r6, [sp, #56]	; 0x38
    2796:	460f      	mov	r7, r1
    2798:	4605      	mov	r5, r0
    279a:	e9cd 2304 	strd	r2, r3, [sp, #16]
    279e:	44f9      	add	r9, pc
    27a0:	2800      	cmp	r0, #0
    27a2:	d05c      	beq.n	285e <TEE_AEUpdate+0xdc>
    27a4:	b909      	cbnz	r1, 27aa <TEE_AEUpdate+0x28>
    27a6:	2c00      	cmp	r4, #0
    27a8:	d159      	bne.n	285e <TEE_AEUpdate+0xdc>
    27aa:	2104      	movs	r1, #4
    27ac:	4630      	mov	r0, r6
    27ae:	f000 fcca 	bl	3146 <__utee_check_inout_annotation>
    27b2:	686b      	ldr	r3, [r5, #4]
    27b4:	2b04      	cmp	r3, #4
    27b6:	d152      	bne.n	285e <TEE_AEUpdate+0xdc>
    27b8:	69eb      	ldr	r3, [r5, #28]
    27ba:	039b      	lsls	r3, r3, #14
    27bc:	d54f      	bpl.n	285e <TEE_AEUpdate+0xdc>
    27be:	b92f      	cbnz	r7, 27cc <TEE_AEUpdate+0x4a>
    27c0:	b924      	cbnz	r4, 27cc <TEE_AEUpdate+0x4a>
    27c2:	6034      	str	r4, [r6, #0]
    27c4:	4620      	mov	r0, r4
    27c6:	b007      	add	sp, #28
    27c8:	e8bd 83f0 	ldmia.w	sp!, {r4, r5, r6, r7, r8, r9, pc}
    27cc:	f8d5 e034 	ldr.w	lr, [r5, #52]	; 0x34
    27d0:	2100      	movs	r1, #0
    27d2:	6832      	ldr	r2, [r6, #0]
    27d4:	f1be 0f01 	cmp.w	lr, #1
    27d8:	bf85      	ittet	hi
    27da:	6bab      	ldrhi	r3, [r5, #56]	; 0x38
    27dc:	f1ce 0c00 	rsbhi	ip, lr, #0
    27e0:	46a4      	movls	ip, r4
    27e2:	191b      	addhi	r3, r3, r4
    27e4:	bf88      	it	hi
    27e6:	ea03 0c0c 	andhi.w	ip, r3, ip
    27ea:	2300      	movs	r3, #0
    27ec:	428b      	cmp	r3, r1
    27ee:	bf08      	it	eq
    27f0:	4562      	cmpeq	r2, ip
    27f2:	e9cd 2304 	strd	r2, r3, [sp, #16]
    27f6:	d203      	bcs.n	2800 <TEE_AEUpdate+0x7e>
    27f8:	4c1a      	ldr	r4, [pc, #104]	; (2864 <TEE_AEUpdate+0xe2>)
    27fa:	f8c6 c000 	str.w	ip, [r6]
    27fe:	e7e1      	b.n	27c4 <TEE_AEUpdate+0x42>
    2800:	f1be 0f01 	cmp.w	lr, #1
    2804:	d915      	bls.n	2832 <TEE_AEUpdate+0xb0>
    2806:	4b1a      	ldr	r3, [pc, #104]	; (2870 <TEE_AEUpdate+0xee>)
    2808:	463a      	mov	r2, r7
    280a:	4628      	mov	r0, r5
    280c:	f859 3003 	ldr.w	r3, [r9, r3]
    2810:	f8cd 8000 	str.w	r8, [sp]
    2814:	9303      	str	r3, [sp, #12]
    2816:	ab04      	add	r3, sp, #16
    2818:	9903      	ldr	r1, [sp, #12]
    281a:	9301      	str	r3, [sp, #4]
    281c:	4623      	mov	r3, r4
    281e:	f7fe fed7 	bl	15d0 <tee_buffer_update>
    2822:	4604      	mov	r4, r0
    2824:	b9a0      	cbnz	r0, 2850 <TEE_AEUpdate+0xce>
    2826:	9b04      	ldr	r3, [sp, #16]
    2828:	2400      	movs	r4, #0
    282a:	6033      	str	r3, [r6, #0]
    282c:	2301      	movs	r3, #1
    282e:	62ab      	str	r3, [r5, #40]	; 0x28
    2830:	e7c8      	b.n	27c4 <TEE_AEUpdate+0x42>
    2832:	b144      	cbz	r4, 2846 <TEE_AEUpdate+0xc4>
    2834:	ab04      	add	r3, sp, #16
    2836:	4622      	mov	r2, r4
    2838:	4639      	mov	r1, r7
    283a:	9300      	str	r3, [sp, #0]
    283c:	4643      	mov	r3, r8
    283e:	6be8      	ldr	r0, [r5, #60]	; 0x3c
    2840:	f001 e930 	blx	3aa4 <_utee_authenc_update_payload>
    2844:	e7ed      	b.n	2822 <TEE_AEUpdate+0xa0>
    2846:	2200      	movs	r2, #0
    2848:	2300      	movs	r3, #0
    284a:	e9cd 2304 	strd	r2, r3, [sp, #16]
    284e:	e7ea      	b.n	2826 <TEE_AEUpdate+0xa4>
    2850:	4b04      	ldr	r3, [pc, #16]	; (2864 <TEE_AEUpdate+0xe2>)
    2852:	4298      	cmp	r0, r3
    2854:	d0b6      	beq.n	27c4 <TEE_AEUpdate+0x42>
    2856:	4620      	mov	r0, r4
    2858:	f000 fc22 	bl	30a0 <TEE_Panic>
    285c:	e7b2      	b.n	27c4 <TEE_AEUpdate+0x42>
    285e:	4c02      	ldr	r4, [pc, #8]	; (2868 <TEE_AEUpdate+0xe6>)
    2860:	e7f9      	b.n	2856 <TEE_AEUpdate+0xd4>
    2862:	bf00      	nop
    2864:	ffff0010 	.word	0xffff0010
    2868:	ffff0006 	.word	0xffff0006
    286c:	000098de 	.word	0x000098de
    2870:	00000038 	.word	0x00000038

00002874 <TEE_AEEncryptFinal>:
    2874:	e92d 4ff0 	stmdb	sp!, {r4, r5, r6, r7, r8, r9, sl, fp, lr}
    2878:	469a      	mov	sl, r3
    287a:	4b40      	ldr	r3, [pc, #256]	; (297c <TEE_AEEncryptFinal+0x108>)
    287c:	b08b      	sub	sp, #44	; 0x2c
    287e:	4689      	mov	r9, r1
    2880:	4604      	mov	r4, r0
    2882:	9e14      	ldr	r6, [sp, #80]	; 0x50
    2884:	9f16      	ldr	r7, [sp, #88]	; 0x58
    2886:	447b      	add	r3, pc
    2888:	2800      	cmp	r0, #0
    288a:	d072      	beq.n	2972 <TEE_AEEncryptFinal+0xfe>
    288c:	b909      	cbnz	r1, 2892 <TEE_AEEncryptFinal+0x1e>
    288e:	2a00      	cmp	r2, #0
    2890:	d16f      	bne.n	2972 <TEE_AEEncryptFinal+0xfe>
    2892:	2104      	movs	r1, #4
    2894:	4630      	mov	r0, r6
    2896:	9204      	str	r2, [sp, #16]
    2898:	9305      	str	r3, [sp, #20]
    289a:	f000 fc54 	bl	3146 <__utee_check_inout_annotation>
    289e:	2104      	movs	r1, #4
    28a0:	4638      	mov	r0, r7
    28a2:	f000 fc50 	bl	3146 <__utee_check_inout_annotation>
    28a6:	6861      	ldr	r1, [r4, #4]
    28a8:	9a04      	ldr	r2, [sp, #16]
    28aa:	9b05      	ldr	r3, [sp, #20]
    28ac:	2904      	cmp	r1, #4
    28ae:	d160      	bne.n	2972 <TEE_AEEncryptFinal+0xfe>
    28b0:	69e1      	ldr	r1, [r4, #28]
    28b2:	0389      	lsls	r1, r1, #14
    28b4:	d55d      	bpl.n	2972 <TEE_AEEncryptFinal+0xfe>
    28b6:	6ba1      	ldr	r1, [r4, #56]	; 0x38
    28b8:	6830      	ldr	r0, [r6, #0]
    28ba:	f8df 80c4 	ldr.w	r8, [pc, #196]	; 2980 <TEE_AEEncryptFinal+0x10c>
    28be:	4411      	add	r1, r2
    28c0:	4281      	cmp	r1, r0
    28c2:	bf8a      	itet	hi
    28c4:	4640      	movhi	r0, r8
    28c6:	482c      	ldrls	r0, [pc, #176]	; (2978 <TEE_AEEncryptFinal+0x104>)
    28c8:	6031      	strhi	r1, [r6, #0]
    28ca:	68e5      	ldr	r5, [r4, #12]
    28cc:	6839      	ldr	r1, [r7, #0]
    28ce:	42a9      	cmp	r1, r5
    28d0:	d203      	bcs.n	28da <TEE_AEEncryptFinal+0x66>
    28d2:	603d      	str	r5, [r7, #0]
    28d4:	f8df 90a8 	ldr.w	r9, [pc, #168]	; 2980 <TEE_AEEncryptFinal+0x10c>
    28d8:	e038      	b.n	294c <TEE_AEEncryptFinal+0xd8>
    28da:	4540      	cmp	r0, r8
    28dc:	d0fa      	beq.n	28d4 <TEE_AEEncryptFinal+0x60>
    28de:	9108      	str	r1, [sp, #32]
    28e0:	6831      	ldr	r1, [r6, #0]
    28e2:	2500      	movs	r5, #0
    28e4:	f10d 0b18 	add.w	fp, sp, #24
    28e8:	9106      	str	r1, [sp, #24]
    28ea:	6b61      	ldr	r1, [r4, #52]	; 0x34
    28ec:	9507      	str	r5, [sp, #28]
    28ee:	9509      	str	r5, [sp, #36]	; 0x24
    28f0:	2901      	cmp	r1, #1
    28f2:	d92f      	bls.n	2954 <TEE_AEEncryptFinal+0xe0>
    28f4:	4923      	ldr	r1, [pc, #140]	; (2984 <TEE_AEEncryptFinal+0x110>)
    28f6:	4620      	mov	r0, r4
    28f8:	585b      	ldr	r3, [r3, r1]
    28fa:	e9cd ab00 	strd	sl, fp, [sp]
    28fe:	9304      	str	r3, [sp, #16]
    2900:	4613      	mov	r3, r2
    2902:	464a      	mov	r2, r9
    2904:	9904      	ldr	r1, [sp, #16]
    2906:	f7fe fe63 	bl	15d0 <tee_buffer_update>
    290a:	4681      	mov	r9, r0
    290c:	2800      	cmp	r0, #0
    290e:	d12a      	bne.n	2966 <TEE_AEEncryptFinal+0xf2>
    2910:	6833      	ldr	r3, [r6, #0]
    2912:	f8cd b000 	str.w	fp, [sp]
    2916:	9d06      	ldr	r5, [sp, #24]
    2918:	9007      	str	r0, [sp, #28]
    291a:	1b5b      	subs	r3, r3, r5
    291c:	9306      	str	r3, [sp, #24]
    291e:	ab08      	add	r3, sp, #32
    2920:	9302      	str	r3, [sp, #8]
    2922:	9b15      	ldr	r3, [sp, #84]	; 0x54
    2924:	9301      	str	r3, [sp, #4]
    2926:	6ae1      	ldr	r1, [r4, #44]	; 0x2c
    2928:	eb0a 0305 	add.w	r3, sl, r5
    292c:	6ba2      	ldr	r2, [r4, #56]	; 0x38
    292e:	6be0      	ldr	r0, [r4, #60]	; 0x3c
    2930:	f001 e8c4 	blx	3abc <_utee_authenc_enc_final>
    2934:	9b08      	ldr	r3, [sp, #32]
    2936:	4681      	mov	r9, r0
    2938:	603b      	str	r3, [r7, #0]
    293a:	b9a0      	cbnz	r0, 2966 <TEE_AEEncryptFinal+0xf2>
    293c:	9b06      	ldr	r3, [sp, #24]
    293e:	441d      	add	r5, r3
    2940:	6035      	str	r5, [r6, #0]
    2942:	69e3      	ldr	r3, [r4, #28]
    2944:	62a0      	str	r0, [r4, #40]	; 0x28
    2946:	f423 3300 	bic.w	r3, r3, #131072	; 0x20000
    294a:	61e3      	str	r3, [r4, #28]
    294c:	4648      	mov	r0, r9
    294e:	b00b      	add	sp, #44	; 0x2c
    2950:	e8bd 8ff0 	ldmia.w	sp!, {r4, r5, r6, r7, r8, r9, sl, fp, pc}
    2954:	ab08      	add	r3, sp, #32
    2956:	4649      	mov	r1, r9
    2958:	f8cd b000 	str.w	fp, [sp]
    295c:	9302      	str	r3, [sp, #8]
    295e:	9b15      	ldr	r3, [sp, #84]	; 0x54
    2960:	9301      	str	r3, [sp, #4]
    2962:	4653      	mov	r3, sl
    2964:	e7e3      	b.n	292e <TEE_AEEncryptFinal+0xba>
    2966:	45c1      	cmp	r9, r8
    2968:	d0b4      	beq.n	28d4 <TEE_AEEncryptFinal+0x60>
    296a:	4648      	mov	r0, r9
    296c:	f000 fb98 	bl	30a0 <TEE_Panic>
    2970:	e7ec      	b.n	294c <TEE_AEEncryptFinal+0xd8>
    2972:	f8df 9014 	ldr.w	r9, [pc, #20]	; 2988 <TEE_AEEncryptFinal+0x114>
    2976:	e7f8      	b.n	296a <TEE_AEEncryptFinal+0xf6>
    2978:	ffff0000 	.word	0xffff0000
    297c:	000097f6 	.word	0x000097f6
    2980:	ffff0010 	.word	0xffff0010
    2984:	00000038 	.word	0x00000038
    2988:	ffff0006 	.word	0xffff0006

0000298c <TEE_AEDecryptFinal>:
    298c:	e92d 4ff0 	stmdb	sp!, {r4, r5, r6, r7, r8, r9, sl, fp, lr}
    2990:	b089      	sub	sp, #36	; 0x24
    2992:	f8df 80f0 	ldr.w	r8, [pc, #240]	; 2a84 <TEE_AEDecryptFinal+0xf8>
    2996:	460c      	mov	r4, r1
    2998:	4693      	mov	fp, r2
    299a:	4699      	mov	r9, r3
    299c:	4605      	mov	r5, r0
    299e:	9f12      	ldr	r7, [sp, #72]	; 0x48
    29a0:	44f8      	add	r8, pc
    29a2:	2800      	cmp	r0, #0
    29a4:	d066      	beq.n	2a74 <TEE_AEDecryptFinal+0xe8>
    29a6:	b909      	cbnz	r1, 29ac <TEE_AEDecryptFinal+0x20>
    29a8:	2a00      	cmp	r2, #0
    29aa:	d163      	bne.n	2a74 <TEE_AEDecryptFinal+0xe8>
    29ac:	2104      	movs	r1, #4
    29ae:	4638      	mov	r0, r7
    29b0:	f000 fbc9 	bl	3146 <__utee_check_inout_annotation>
    29b4:	6869      	ldr	r1, [r5, #4]
    29b6:	2904      	cmp	r1, #4
    29b8:	d15c      	bne.n	2a74 <TEE_AEDecryptFinal+0xe8>
    29ba:	69e9      	ldr	r1, [r5, #28]
    29bc:	038b      	lsls	r3, r1, #14
    29be:	d559      	bpl.n	2a74 <TEE_AEDecryptFinal+0xe8>
    29c0:	6ba9      	ldr	r1, [r5, #56]	; 0x38
    29c2:	6838      	ldr	r0, [r7, #0]
    29c4:	4459      	add	r1, fp
    29c6:	4281      	cmp	r1, r0
    29c8:	d905      	bls.n	29d6 <TEE_AEDecryptFinal+0x4a>
    29ca:	4c2b      	ldr	r4, [pc, #172]	; (2a78 <TEE_AEDecryptFinal+0xec>)
    29cc:	6039      	str	r1, [r7, #0]
    29ce:	4620      	mov	r0, r4
    29d0:	b009      	add	sp, #36	; 0x24
    29d2:	e8bd 8ff0 	ldmia.w	sp!, {r4, r5, r6, r7, r8, r9, sl, fp, pc}
    29d6:	6b69      	ldr	r1, [r5, #52]	; 0x34
    29d8:	2600      	movs	r6, #0
    29da:	f10d 0a18 	add.w	sl, sp, #24
    29de:	9006      	str	r0, [sp, #24]
    29e0:	9607      	str	r6, [sp, #28]
    29e2:	2901      	cmp	r1, #1
    29e4:	d93c      	bls.n	2a60 <TEE_AEDecryptFinal+0xd4>
    29e6:	4928      	ldr	r1, [pc, #160]	; (2a88 <TEE_AEDecryptFinal+0xfc>)
    29e8:	4622      	mov	r2, r4
    29ea:	4628      	mov	r0, r5
    29ec:	f858 3001 	ldr.w	r3, [r8, r1]
    29f0:	e9cd 9a00 	strd	r9, sl, [sp]
    29f4:	9305      	str	r3, [sp, #20]
    29f6:	465b      	mov	r3, fp
    29f8:	9905      	ldr	r1, [sp, #20]
    29fa:	f7fe fde9 	bl	15d0 <tee_buffer_update>
    29fe:	4604      	mov	r4, r0
    2a00:	bb20      	cbnz	r0, 2a4c <TEE_AEDecryptFinal+0xc0>
    2a02:	683b      	ldr	r3, [r7, #0]
    2a04:	f8cd a000 	str.w	sl, [sp]
    2a08:	9e06      	ldr	r6, [sp, #24]
    2a0a:	9007      	str	r0, [sp, #28]
    2a0c:	1b9b      	subs	r3, r3, r6
    2a0e:	9306      	str	r3, [sp, #24]
    2a10:	9b14      	ldr	r3, [sp, #80]	; 0x50
    2a12:	9302      	str	r3, [sp, #8]
    2a14:	9b13      	ldr	r3, [sp, #76]	; 0x4c
    2a16:	9301      	str	r3, [sp, #4]
    2a18:	6ae9      	ldr	r1, [r5, #44]	; 0x2c
    2a1a:	eb09 0306 	add.w	r3, r9, r6
    2a1e:	6baa      	ldr	r2, [r5, #56]	; 0x38
    2a20:	6be8      	ldr	r0, [r5, #60]	; 0x3c
    2a22:	f001 e858 	blx	3ad4 <_utee_authenc_dec_final>
    2a26:	4604      	mov	r4, r0
    2a28:	b980      	cbnz	r0, 2a4c <TEE_AEDecryptFinal+0xc0>
    2a2a:	4b14      	ldr	r3, [pc, #80]	; (2a7c <TEE_AEDecryptFinal+0xf0>)
    2a2c:	68ea      	ldr	r2, [r5, #12]
    2a2e:	9914      	ldr	r1, [sp, #80]	; 0x50
    2a30:	4291      	cmp	r1, r2
    2a32:	bf18      	it	ne
    2a34:	461c      	movne	r4, r3
    2a36:	9b06      	ldr	r3, [sp, #24]
    2a38:	441e      	add	r6, r3
    2a3a:	603e      	str	r6, [r7, #0]
    2a3c:	69eb      	ldr	r3, [r5, #28]
    2a3e:	f423 3300 	bic.w	r3, r3, #131072	; 0x20000
    2a42:	61eb      	str	r3, [r5, #28]
    2a44:	2300      	movs	r3, #0
    2a46:	62ab      	str	r3, [r5, #40]	; 0x28
    2a48:	2c00      	cmp	r4, #0
    2a4a:	d0c0      	beq.n	29ce <TEE_AEDecryptFinal+0x42>
    2a4c:	4b0a      	ldr	r3, [pc, #40]	; (2a78 <TEE_AEDecryptFinal+0xec>)
    2a4e:	429c      	cmp	r4, r3
    2a50:	d0bd      	beq.n	29ce <TEE_AEDecryptFinal+0x42>
    2a52:	4b0a      	ldr	r3, [pc, #40]	; (2a7c <TEE_AEDecryptFinal+0xf0>)
    2a54:	429c      	cmp	r4, r3
    2a56:	d0ba      	beq.n	29ce <TEE_AEDecryptFinal+0x42>
    2a58:	4620      	mov	r0, r4
    2a5a:	f000 fb21 	bl	30a0 <TEE_Panic>
    2a5e:	e7b6      	b.n	29ce <TEE_AEDecryptFinal+0x42>
    2a60:	9b14      	ldr	r3, [sp, #80]	; 0x50
    2a62:	465a      	mov	r2, fp
    2a64:	4621      	mov	r1, r4
    2a66:	f8cd a000 	str.w	sl, [sp]
    2a6a:	9302      	str	r3, [sp, #8]
    2a6c:	9b13      	ldr	r3, [sp, #76]	; 0x4c
    2a6e:	9301      	str	r3, [sp, #4]
    2a70:	464b      	mov	r3, r9
    2a72:	e7d5      	b.n	2a20 <TEE_AEDecryptFinal+0x94>
    2a74:	4c02      	ldr	r4, [pc, #8]	; (2a80 <TEE_AEDecryptFinal+0xf4>)
    2a76:	e7ef      	b.n	2a58 <TEE_AEDecryptFinal+0xcc>
    2a78:	ffff0010 	.word	0xffff0010
    2a7c:	ffff3071 	.word	0xffff3071
    2a80:	ffff0006 	.word	0xffff0006
    2a84:	000096dc 	.word	0x000096dc
    2a88:	00000038 	.word	0x00000038

00002a8c <TEE_AsymmetricEncrypt>:
    2a8c:	e92d 4ff0 	stmdb	sp!, {r4, r5, r6, r7, r8, r9, sl, fp, lr}
    2a90:	4698      	mov	r8, r3
    2a92:	2318      	movs	r3, #24
    2a94:	b087      	sub	sp, #28
    2a96:	4615      	mov	r5, r2
    2a98:	468a      	mov	sl, r1
    2a9a:	4353      	muls	r3, r2
    2a9c:	2200      	movs	r2, #0
    2a9e:	4604      	mov	r4, r0
    2aa0:	af04      	add	r7, sp, #16
    2aa2:	3308      	adds	r3, #8
    2aa4:	f8d7 9030 	ldr.w	r9, [r7, #48]	; 0x30
    2aa8:	ebad 0d03 	sub.w	sp, sp, r3
    2aac:	2300      	movs	r3, #0
    2aae:	6bbe      	ldr	r6, [r7, #56]	; 0x38
    2ab0:	f10d 0b10 	add.w	fp, sp, #16
    2ab4:	e9c7 2300 	strd	r2, r3, [r7]
    2ab8:	b128      	cbz	r0, 2ac6 <TEE_AsymmetricEncrypt+0x3a>
    2aba:	f1b8 0f00 	cmp.w	r8, #0
    2abe:	d105      	bne.n	2acc <TEE_AsymmetricEncrypt+0x40>
    2ac0:	f1b9 0f00 	cmp.w	r9, #0
    2ac4:	d002      	beq.n	2acc <TEE_AsymmetricEncrypt+0x40>
    2ac6:	2000      	movs	r0, #0
    2ac8:	f000 faea 	bl	30a0 <TEE_Panic>
    2acc:	4629      	mov	r1, r5
    2ace:	4650      	mov	r0, sl
    2ad0:	f000 fb2f 	bl	3132 <__utee_check_attr_in_annotation>
    2ad4:	4630      	mov	r0, r6
    2ad6:	2104      	movs	r1, #4
    2ad8:	f000 fb35 	bl	3146 <__utee_check_inout_annotation>
    2adc:	6a20      	ldr	r0, [r4, #32]
    2ade:	b908      	cbnz	r0, 2ae4 <TEE_AsymmetricEncrypt+0x58>
    2ae0:	f000 fade 	bl	30a0 <TEE_Panic>
    2ae4:	6863      	ldr	r3, [r4, #4]
    2ae6:	2b06      	cmp	r3, #6
    2ae8:	d002      	beq.n	2af0 <TEE_AsymmetricEncrypt+0x64>
    2aea:	2000      	movs	r0, #0
    2aec:	f000 fad8 	bl	30a0 <TEE_Panic>
    2af0:	68a3      	ldr	r3, [r4, #8]
    2af2:	b113      	cbz	r3, 2afa <TEE_AsymmetricEncrypt+0x6e>
    2af4:	2000      	movs	r0, #0
    2af6:	f000 fad3 	bl	30a0 <TEE_Panic>
    2afa:	462a      	mov	r2, r5
    2afc:	4651      	mov	r1, sl
    2afe:	4658      	mov	r0, fp
    2b00:	f7fe f984 	bl	e0c <__utee_from_attr>
    2b04:	6833      	ldr	r3, [r6, #0]
    2b06:	462a      	mov	r2, r5
    2b08:	f8cd 9000 	str.w	r9, [sp]
    2b0c:	9702      	str	r7, [sp, #8]
    2b0e:	4659      	mov	r1, fp
    2b10:	603b      	str	r3, [r7, #0]
    2b12:	2300      	movs	r3, #0
    2b14:	607b      	str	r3, [r7, #4]
    2b16:	6b7b      	ldr	r3, [r7, #52]	; 0x34
    2b18:	9301      	str	r3, [sp, #4]
    2b1a:	4643      	mov	r3, r8
    2b1c:	6be0      	ldr	r0, [r4, #60]	; 0x3c
    2b1e:	f000 efe6 	blx	3aec <_utee_asymm_operate>
    2b22:	683b      	ldr	r3, [r7, #0]
    2b24:	4604      	mov	r4, r0
    2b26:	6033      	str	r3, [r6, #0]
    2b28:	b138      	cbz	r0, 2b3a <TEE_AsymmetricEncrypt+0xae>
    2b2a:	4b06      	ldr	r3, [pc, #24]	; (2b44 <TEE_AsymmetricEncrypt+0xb8>)
    2b2c:	4298      	cmp	r0, r3
    2b2e:	d004      	beq.n	2b3a <TEE_AsymmetricEncrypt+0xae>
    2b30:	3b0a      	subs	r3, #10
    2b32:	4298      	cmp	r0, r3
    2b34:	d001      	beq.n	2b3a <TEE_AsymmetricEncrypt+0xae>
    2b36:	f000 fab3 	bl	30a0 <TEE_Panic>
    2b3a:	4620      	mov	r0, r4
    2b3c:	370c      	adds	r7, #12
    2b3e:	46bd      	mov	sp, r7
    2b40:	e8bd 8ff0 	ldmia.w	sp!, {r4, r5, r6, r7, r8, r9, sl, fp, pc}
    2b44:	ffff0010 	.word	0xffff0010

00002b48 <TEE_AsymmetricDecrypt>:
    2b48:	e92d 4ff0 	stmdb	sp!, {r4, r5, r6, r7, r8, r9, sl, fp, lr}
    2b4c:	4698      	mov	r8, r3
    2b4e:	2318      	movs	r3, #24
    2b50:	b087      	sub	sp, #28
    2b52:	4615      	mov	r5, r2
    2b54:	468a      	mov	sl, r1
    2b56:	4353      	muls	r3, r2
    2b58:	2200      	movs	r2, #0
    2b5a:	4604      	mov	r4, r0
    2b5c:	af04      	add	r7, sp, #16
    2b5e:	3308      	adds	r3, #8
    2b60:	f8d7 9030 	ldr.w	r9, [r7, #48]	; 0x30
    2b64:	ebad 0d03 	sub.w	sp, sp, r3
    2b68:	2300      	movs	r3, #0
    2b6a:	6bbe      	ldr	r6, [r7, #56]	; 0x38
    2b6c:	f10d 0b10 	add.w	fp, sp, #16
    2b70:	e9c7 2300 	strd	r2, r3, [r7]
    2b74:	b128      	cbz	r0, 2b82 <TEE_AsymmetricDecrypt+0x3a>
    2b76:	f1b8 0f00 	cmp.w	r8, #0
    2b7a:	d105      	bne.n	2b88 <TEE_AsymmetricDecrypt+0x40>
    2b7c:	f1b9 0f00 	cmp.w	r9, #0
    2b80:	d002      	beq.n	2b88 <TEE_AsymmetricDecrypt+0x40>
    2b82:	2000      	movs	r0, #0
    2b84:	f000 fa8c 	bl	30a0 <TEE_Panic>
    2b88:	4629      	mov	r1, r5
    2b8a:	4650      	mov	r0, sl
    2b8c:	f000 fad1 	bl	3132 <__utee_check_attr_in_annotation>
    2b90:	4630      	mov	r0, r6
    2b92:	2104      	movs	r1, #4
    2b94:	f000 fad7 	bl	3146 <__utee_check_inout_annotation>
    2b98:	6a20      	ldr	r0, [r4, #32]
    2b9a:	b908      	cbnz	r0, 2ba0 <TEE_AsymmetricDecrypt+0x58>
    2b9c:	f000 fa80 	bl	30a0 <TEE_Panic>
    2ba0:	6863      	ldr	r3, [r4, #4]
    2ba2:	2b06      	cmp	r3, #6
    2ba4:	d002      	beq.n	2bac <TEE_AsymmetricDecrypt+0x64>
    2ba6:	2000      	movs	r0, #0
    2ba8:	f000 fa7a 	bl	30a0 <TEE_Panic>
    2bac:	68a3      	ldr	r3, [r4, #8]
    2bae:	2b01      	cmp	r3, #1
    2bb0:	d002      	beq.n	2bb8 <TEE_AsymmetricDecrypt+0x70>
    2bb2:	2000      	movs	r0, #0
    2bb4:	f000 fa74 	bl	30a0 <TEE_Panic>
    2bb8:	462a      	mov	r2, r5
    2bba:	4651      	mov	r1, sl
    2bbc:	4658      	mov	r0, fp
    2bbe:	f7fe f925 	bl	e0c <__utee_from_attr>
    2bc2:	6833      	ldr	r3, [r6, #0]
    2bc4:	462a      	mov	r2, r5
    2bc6:	f8cd 9000 	str.w	r9, [sp]
    2bca:	9702      	str	r7, [sp, #8]
    2bcc:	4659      	mov	r1, fp
    2bce:	603b      	str	r3, [r7, #0]
    2bd0:	2300      	movs	r3, #0
    2bd2:	607b      	str	r3, [r7, #4]
    2bd4:	6b7b      	ldr	r3, [r7, #52]	; 0x34
    2bd6:	9301      	str	r3, [sp, #4]
    2bd8:	4643      	mov	r3, r8
    2bda:	6be0      	ldr	r0, [r4, #60]	; 0x3c
    2bdc:	f000 ef86 	blx	3aec <_utee_asymm_operate>
    2be0:	683b      	ldr	r3, [r7, #0]
    2be2:	4604      	mov	r4, r0
    2be4:	6033      	str	r3, [r6, #0]
    2be6:	b138      	cbz	r0, 2bf8 <TEE_AsymmetricDecrypt+0xb0>
    2be8:	4b06      	ldr	r3, [pc, #24]	; (2c04 <TEE_AsymmetricDecrypt+0xbc>)
    2bea:	4298      	cmp	r0, r3
    2bec:	d004      	beq.n	2bf8 <TEE_AsymmetricDecrypt+0xb0>
    2bee:	3b0a      	subs	r3, #10
    2bf0:	4298      	cmp	r0, r3
    2bf2:	d001      	beq.n	2bf8 <TEE_AsymmetricDecrypt+0xb0>
    2bf4:	f000 fa54 	bl	30a0 <TEE_Panic>
    2bf8:	4620      	mov	r0, r4
    2bfa:	370c      	adds	r7, #12
    2bfc:	46bd      	mov	sp, r7
    2bfe:	e8bd 8ff0 	ldmia.w	sp!, {r4, r5, r6, r7, r8, r9, sl, fp, pc}
    2c02:	bf00      	nop
    2c04:	ffff0010 	.word	0xffff0010

00002c08 <TEE_AsymmetricSignDigest>:
    2c08:	e92d 4ff0 	stmdb	sp!, {r4, r5, r6, r7, r8, r9, sl, fp, lr}
    2c0c:	4698      	mov	r8, r3
    2c0e:	2318      	movs	r3, #24
    2c10:	b087      	sub	sp, #28
    2c12:	4615      	mov	r5, r2
    2c14:	468a      	mov	sl, r1
    2c16:	4353      	muls	r3, r2
    2c18:	2200      	movs	r2, #0
    2c1a:	4604      	mov	r4, r0
    2c1c:	af04      	add	r7, sp, #16
    2c1e:	3308      	adds	r3, #8
    2c20:	f8d7 9030 	ldr.w	r9, [r7, #48]	; 0x30
    2c24:	ebad 0d03 	sub.w	sp, sp, r3
    2c28:	2300      	movs	r3, #0
    2c2a:	6bbe      	ldr	r6, [r7, #56]	; 0x38
    2c2c:	f10d 0b10 	add.w	fp, sp, #16
    2c30:	e9c7 2300 	strd	r2, r3, [r7]
    2c34:	b128      	cbz	r0, 2c42 <TEE_AsymmetricSignDigest+0x3a>
    2c36:	f1b8 0f00 	cmp.w	r8, #0
    2c3a:	d105      	bne.n	2c48 <TEE_AsymmetricSignDigest+0x40>
    2c3c:	f1b9 0f00 	cmp.w	r9, #0
    2c40:	d002      	beq.n	2c48 <TEE_AsymmetricSignDigest+0x40>
    2c42:	2000      	movs	r0, #0
    2c44:	f000 fa2c 	bl	30a0 <TEE_Panic>
    2c48:	4629      	mov	r1, r5
    2c4a:	4650      	mov	r0, sl
    2c4c:	f000 fa71 	bl	3132 <__utee_check_attr_in_annotation>
    2c50:	4630      	mov	r0, r6
    2c52:	2104      	movs	r1, #4
    2c54:	f000 fa77 	bl	3146 <__utee_check_inout_annotation>
    2c58:	6a20      	ldr	r0, [r4, #32]
    2c5a:	b908      	cbnz	r0, 2c60 <TEE_AsymmetricSignDigest+0x58>
    2c5c:	f000 fa20 	bl	30a0 <TEE_Panic>
    2c60:	6863      	ldr	r3, [r4, #4]
    2c62:	2b07      	cmp	r3, #7
    2c64:	d002      	beq.n	2c6c <TEE_AsymmetricSignDigest+0x64>
    2c66:	2000      	movs	r0, #0
    2c68:	f000 fa1a 	bl	30a0 <TEE_Panic>
    2c6c:	68a3      	ldr	r3, [r4, #8]
    2c6e:	2b02      	cmp	r3, #2
    2c70:	d002      	beq.n	2c78 <TEE_AsymmetricSignDigest+0x70>
    2c72:	2000      	movs	r0, #0
    2c74:	f000 fa14 	bl	30a0 <TEE_Panic>
    2c78:	462a      	mov	r2, r5
    2c7a:	4651      	mov	r1, sl
    2c7c:	4658      	mov	r0, fp
    2c7e:	f7fe f8c5 	bl	e0c <__utee_from_attr>
    2c82:	6833      	ldr	r3, [r6, #0]
    2c84:	462a      	mov	r2, r5
    2c86:	f8cd 9000 	str.w	r9, [sp]
    2c8a:	9702      	str	r7, [sp, #8]
    2c8c:	4659      	mov	r1, fp
    2c8e:	603b      	str	r3, [r7, #0]
    2c90:	2300      	movs	r3, #0
    2c92:	607b      	str	r3, [r7, #4]
    2c94:	6b7b      	ldr	r3, [r7, #52]	; 0x34
    2c96:	9301      	str	r3, [sp, #4]
    2c98:	4643      	mov	r3, r8
    2c9a:	6be0      	ldr	r0, [r4, #60]	; 0x3c
    2c9c:	f000 ef26 	blx	3aec <_utee_asymm_operate>
    2ca0:	683b      	ldr	r3, [r7, #0]
    2ca2:	4604      	mov	r4, r0
    2ca4:	6033      	str	r3, [r6, #0]
    2ca6:	b120      	cbz	r0, 2cb2 <TEE_AsymmetricSignDigest+0xaa>
    2ca8:	4b04      	ldr	r3, [pc, #16]	; (2cbc <TEE_AsymmetricSignDigest+0xb4>)
    2caa:	4298      	cmp	r0, r3
    2cac:	d001      	beq.n	2cb2 <TEE_AsymmetricSignDigest+0xaa>
    2cae:	f000 f9f7 	bl	30a0 <TEE_Panic>
    2cb2:	4620      	mov	r0, r4
    2cb4:	370c      	adds	r7, #12
    2cb6:	46bd      	mov	sp, r7
    2cb8:	e8bd 8ff0 	ldmia.w	sp!, {r4, r5, r6, r7, r8, r9, sl, fp, pc}
    2cbc:	ffff0010 	.word	0xffff0010

00002cc0 <TEE_AsymmetricVerifyDigest>:
    2cc0:	e92d 4ff0 	stmdb	sp!, {r4, r5, r6, r7, r8, r9, sl, fp, lr}
    2cc4:	4698      	mov	r8, r3
    2cc6:	2318      	movs	r3, #24
    2cc8:	b085      	sub	sp, #20
    2cca:	468b      	mov	fp, r1
    2ccc:	4615      	mov	r5, r2
    2cce:	4353      	muls	r3, r2
    2cd0:	4604      	mov	r4, r0
    2cd2:	af04      	add	r7, sp, #16
    2cd4:	3308      	adds	r3, #8
    2cd6:	f8d7 902c 	ldr.w	r9, [r7, #44]	; 0x2c
    2cda:	ebad 0d03 	sub.w	sp, sp, r3
    2cde:	f8d7 a030 	ldr.w	sl, [r7, #48]	; 0x30
    2ce2:	ae04      	add	r6, sp, #16
    2ce4:	b150      	cbz	r0, 2cfc <TEE_AsymmetricVerifyDigest+0x3c>
    2ce6:	f1b8 0f00 	cmp.w	r8, #0
    2cea:	d101      	bne.n	2cf0 <TEE_AsymmetricVerifyDigest+0x30>
    2cec:	6abb      	ldr	r3, [r7, #40]	; 0x28
    2cee:	b92b      	cbnz	r3, 2cfc <TEE_AsymmetricVerifyDigest+0x3c>
    2cf0:	f1b9 0f00 	cmp.w	r9, #0
    2cf4:	d105      	bne.n	2d02 <TEE_AsymmetricVerifyDigest+0x42>
    2cf6:	f1ba 0f00 	cmp.w	sl, #0
    2cfa:	d002      	beq.n	2d02 <TEE_AsymmetricVerifyDigest+0x42>
    2cfc:	2000      	movs	r0, #0
    2cfe:	f000 f9cf 	bl	30a0 <TEE_Panic>
    2d02:	4658      	mov	r0, fp
    2d04:	4629      	mov	r1, r5
    2d06:	f000 fa14 	bl	3132 <__utee_check_attr_in_annotation>
    2d0a:	6a20      	ldr	r0, [r4, #32]
    2d0c:	b908      	cbnz	r0, 2d12 <TEE_AsymmetricVerifyDigest+0x52>
    2d0e:	f000 f9c7 	bl	30a0 <TEE_Panic>
    2d12:	6863      	ldr	r3, [r4, #4]
    2d14:	2b07      	cmp	r3, #7
    2d16:	d002      	beq.n	2d1e <TEE_AsymmetricVerifyDigest+0x5e>
    2d18:	2000      	movs	r0, #0
    2d1a:	f000 f9c1 	bl	30a0 <TEE_Panic>
    2d1e:	68a3      	ldr	r3, [r4, #8]
    2d20:	2b03      	cmp	r3, #3
    2d22:	d002      	beq.n	2d2a <TEE_AsymmetricVerifyDigest+0x6a>
    2d24:	2000      	movs	r0, #0
    2d26:	f000 f9bb 	bl	30a0 <TEE_Panic>
    2d2a:	462a      	mov	r2, r5
    2d2c:	4659      	mov	r1, fp
    2d2e:	4630      	mov	r0, r6
    2d30:	f7fe f86c 	bl	e0c <__utee_from_attr>
    2d34:	6abb      	ldr	r3, [r7, #40]	; 0x28
    2d36:	462a      	mov	r2, r5
    2d38:	4631      	mov	r1, r6
    2d3a:	e88d 0608 	stmia.w	sp, {r3, r9, sl}
    2d3e:	4643      	mov	r3, r8
    2d40:	6be0      	ldr	r0, [r4, #60]	; 0x3c
    2d42:	f000 eee0 	blx	3b04 <_utee_asymm_verify>
    2d46:	4604      	mov	r4, r0
    2d48:	b120      	cbz	r0, 2d54 <TEE_AsymmetricVerifyDigest+0x94>
    2d4a:	4b05      	ldr	r3, [pc, #20]	; (2d60 <TEE_AsymmetricVerifyDigest+0xa0>)
    2d4c:	4298      	cmp	r0, r3
    2d4e:	d001      	beq.n	2d54 <TEE_AsymmetricVerifyDigest+0x94>
    2d50:	f000 f9a6 	bl	30a0 <TEE_Panic>
    2d54:	4620      	mov	r0, r4
    2d56:	3704      	adds	r7, #4
    2d58:	46bd      	mov	sp, r7
    2d5a:	e8bd 8ff0 	ldmia.w	sp!, {r4, r5, r6, r7, r8, r9, sl, fp, pc}
    2d5e:	bf00      	nop
    2d60:	ffff3072 	.word	0xffff3072

00002d64 <TEE_DeriveKey>:
    2d64:	e92d 43f0 	stmdb	sp!, {r4, r5, r6, r7, r8, r9, lr}
    2d68:	461e      	mov	r6, r3
    2d6a:	2318      	movs	r3, #24
    2d6c:	b089      	sub	sp, #36	; 0x24
    2d6e:	4688      	mov	r8, r1
    2d70:	4615      	mov	r5, r2
    2d72:	4353      	muls	r3, r2
    2d74:	4604      	mov	r4, r0
    2d76:	af00      	add	r7, sp, #0
    2d78:	3308      	adds	r3, #8
    2d7a:	ebad 0d03 	sub.w	sp, sp, r3
    2d7e:	46e9      	mov	r9, sp
    2d80:	b100      	cbz	r0, 2d84 <TEE_DeriveKey+0x20>
    2d82:	b916      	cbnz	r6, 2d8a <TEE_DeriveKey+0x26>
    2d84:	2000      	movs	r0, #0
    2d86:	f000 f98b 	bl	30a0 <TEE_Panic>
    2d8a:	4629      	mov	r1, r5
    2d8c:	4640      	mov	r0, r8
    2d8e:	f000 f9d0 	bl	3132 <__utee_check_attr_in_annotation>
    2d92:	4a26      	ldr	r2, [pc, #152]	; (2e2c <TEE_DeriveKey+0xc8>)
    2d94:	6823      	ldr	r3, [r4, #0]
    2d96:	4293      	cmp	r3, r2
    2d98:	d009      	beq.n	2dae <TEE_DeriveKey+0x4a>
    2d9a:	f102 4260 	add.w	r2, r2, #3758096384	; 0xe0000000
    2d9e:	4293      	cmp	r3, r2
    2da0:	d008      	beq.n	2db4 <TEE_DeriveKey+0x50>
    2da2:	4a23      	ldr	r2, [pc, #140]	; (2e30 <TEE_DeriveKey+0xcc>)
    2da4:	4293      	cmp	r3, r2
    2da6:	d002      	beq.n	2dae <TEE_DeriveKey+0x4a>
    2da8:	0f1b      	lsrs	r3, r3, #28
    2daa:	2b08      	cmp	r3, #8
    2dac:	d002      	beq.n	2db4 <TEE_DeriveKey+0x50>
    2dae:	2000      	movs	r0, #0
    2db0:	f000 f976 	bl	30a0 <TEE_Panic>
    2db4:	6863      	ldr	r3, [r4, #4]
    2db6:	2b08      	cmp	r3, #8
    2db8:	d002      	beq.n	2dc0 <TEE_DeriveKey+0x5c>
    2dba:	2000      	movs	r0, #0
    2dbc:	f000 f970 	bl	30a0 <TEE_Panic>
    2dc0:	6a20      	ldr	r0, [r4, #32]
    2dc2:	b908      	cbnz	r0, 2dc8 <TEE_DeriveKey+0x64>
    2dc4:	f000 f96c 	bl	30a0 <TEE_Panic>
    2dc8:	68a3      	ldr	r3, [r4, #8]
    2dca:	2b06      	cmp	r3, #6
    2dcc:	d002      	beq.n	2dd4 <TEE_DeriveKey+0x70>
    2dce:	2000      	movs	r0, #0
    2dd0:	f000 f966 	bl	30a0 <TEE_Panic>
    2dd4:	69e0      	ldr	r0, [r4, #28]
    2dd6:	f410 2080 	ands.w	r0, r0, #262144	; 0x40000
    2dda:	d101      	bne.n	2de0 <TEE_DeriveKey+0x7c>
    2ddc:	f000 f960 	bl	30a0 <TEE_Panic>
    2de0:	1d39      	adds	r1, r7, #4
    2de2:	4630      	mov	r0, r6
    2de4:	f000 ede4 	blx	39b0 <_utee_cryp_obj_get_info>
    2de8:	b108      	cbz	r0, 2dee <TEE_DeriveKey+0x8a>
    2dea:	f000 f959 	bl	30a0 <TEE_Panic>
    2dee:	687b      	ldr	r3, [r7, #4]
    2df0:	f1b3 4f20 	cmp.w	r3, #2684354560	; 0xa0000000
    2df4:	d002      	beq.n	2dfc <TEE_DeriveKey+0x98>
    2df6:	2000      	movs	r0, #0
    2df8:	f000 f952 	bl	30a0 <TEE_Panic>
    2dfc:	69fb      	ldr	r3, [r7, #28]
    2dfe:	039b      	lsls	r3, r3, #14
    2e00:	d502      	bpl.n	2e08 <TEE_DeriveKey+0xa4>
    2e02:	2000      	movs	r0, #0
    2e04:	f000 f94c 	bl	30a0 <TEE_Panic>
    2e08:	462a      	mov	r2, r5
    2e0a:	4641      	mov	r1, r8
    2e0c:	4648      	mov	r0, r9
    2e0e:	f7fd fffd 	bl	e0c <__utee_from_attr>
    2e12:	4633      	mov	r3, r6
    2e14:	462a      	mov	r2, r5
    2e16:	6be0      	ldr	r0, [r4, #60]	; 0x3c
    2e18:	4649      	mov	r1, r9
    2e1a:	f000 ee1a 	blx	3a50 <_utee_cryp_derive_key>
    2e1e:	b108      	cbz	r0, 2e24 <TEE_DeriveKey+0xc0>
    2e20:	f000 f93e 	bl	30a0 <TEE_Panic>
    2e24:	3724      	adds	r7, #36	; 0x24
    2e26:	46bd      	mov	sp, r7
    2e28:	e8bd 83f0 	ldmia.w	sp!, {r4, r5, r6, r7, r8, r9, pc}
    2e2c:	80000045 	.word	0x80000045
    2e30:	f0000830 	.word	0xf0000830

00002e34 <TEE_GenerateRandom>:
    2e34:	b508      	push	{r3, lr}
    2e36:	f000 ee16 	blx	3a64 <_utee_cryp_random_number_generate>
    2e3a:	b118      	cbz	r0, 2e44 <TEE_GenerateRandom+0x10>
    2e3c:	e8bd 4008 	ldmia.w	sp!, {r3, lr}
    2e40:	f000 b92e 	b.w	30a0 <TEE_Panic>
    2e44:	bd08      	pop	{r3, pc}

00002e46 <rand>:
    2e46:	b507      	push	{r0, r1, r2, lr}
    2e48:	2104      	movs	r1, #4
    2e4a:	eb0d 0001 	add.w	r0, sp, r1
    2e4e:	f7ff fff1 	bl	2e34 <TEE_GenerateRandom>
    2e52:	9801      	ldr	r0, [sp, #4]
    2e54:	f020 4000 	bic.w	r0, r0, #2147483648	; 0x80000000
    2e58:	b003      	add	sp, #12
    2e5a:	f85d fb04 	ldr.w	pc, [sp], #4

00002e5e <TEE_IsAlgorithmSupported>:
    2e5e:	f420 7380 	bic.w	r3, r0, #256	; 0x100
    2e62:	b510      	push	{r4, lr}
    2e64:	f103 4370 	add.w	r3, r3, #4026531840	; 0xf0000000
    2e68:	f1a3 0210 	sub.w	r2, r3, #16
    2e6c:	2a01      	cmp	r2, #1
    2e6e:	f240 80d8 	bls.w	3022 <TEE_IsAlgorithmSupported+0x1c4>
    2e72:	4a6e      	ldr	r2, [pc, #440]	; (302c <TEE_IsAlgorithmSupported+0x1ce>)
    2e74:	f020 0404 	bic.w	r4, r0, #4
    2e78:	4294      	cmp	r4, r2
    2e7a:	f000 80d2 	beq.w	3022 <TEE_IsAlgorithmSupported+0x1c4>
    2e7e:	f502 7280 	add.w	r2, r2, #256	; 0x100
    2e82:	4290      	cmp	r0, r2
    2e84:	f000 80cd 	beq.w	3022 <TEE_IsAlgorithmSupported+0x1c4>
    2e88:	f502 7280 	add.w	r2, r2, #256	; 0x100
    2e8c:	4290      	cmp	r0, r2
    2e8e:	f000 80c8 	beq.w	3022 <TEE_IsAlgorithmSupported+0x1c4>
    2e92:	f420 6480 	bic.w	r4, r0, #1024	; 0x400
    2e96:	f104 4250 	add.w	r2, r4, #3489660928	; 0xd0000000
    2e9a:	f5a2 7288 	sub.w	r2, r2, #272	; 0x110
    2e9e:	2a01      	cmp	r2, #1
    2ea0:	f240 80bf 	bls.w	3022 <TEE_IsAlgorithmSupported+0x1c4>
    2ea4:	4a62      	ldr	r2, [pc, #392]	; (3030 <TEE_IsAlgorithmSupported+0x1d2>)
    2ea6:	4290      	cmp	r0, r2
    2ea8:	f000 80bb 	beq.w	3022 <TEE_IsAlgorithmSupported+0x1c4>
    2eac:	4a61      	ldr	r2, [pc, #388]	; (3034 <TEE_IsAlgorithmSupported+0x1d6>)
    2eae:	4290      	cmp	r0, r2
    2eb0:	f000 80b7 	beq.w	3022 <TEE_IsAlgorithmSupported+0x1c4>
    2eb4:	f502 7280 	add.w	r2, r2, #256	; 0x100
    2eb8:	4290      	cmp	r0, r2
    2eba:	f000 80b2 	beq.w	3022 <TEE_IsAlgorithmSupported+0x1c4>
    2ebe:	3b13      	subs	r3, #19
    2ec0:	2b01      	cmp	r3, #1
    2ec2:	f240 80ae 	bls.w	3022 <TEE_IsAlgorithmSupported+0x1c4>
    2ec6:	4b5c      	ldr	r3, [pc, #368]	; (3038 <TEE_IsAlgorithmSupported+0x1da>)
    2ec8:	429c      	cmp	r4, r3
    2eca:	f000 80aa 	beq.w	3022 <TEE_IsAlgorithmSupported+0x1c4>
    2ece:	f100 4330 	add.w	r3, r0, #2952790016	; 0xb0000000
    2ed2:	3b01      	subs	r3, #1
    2ed4:	2b06      	cmp	r3, #6
    2ed6:	f240 80a4 	bls.w	3022 <TEE_IsAlgorithmSupported+0x1c4>
    2eda:	4b58      	ldr	r3, [pc, #352]	; (303c <TEE_IsAlgorithmSupported+0x1de>)
    2edc:	4298      	cmp	r0, r3
    2ede:	f000 80a0 	beq.w	3022 <TEE_IsAlgorithmSupported+0x1c4>
    2ee2:	f100 4350 	add.w	r3, r0, #3489660928	; 0xd0000000
    2ee6:	3b01      	subs	r3, #1
    2ee8:	2b06      	cmp	r3, #6
    2eea:	f240 809a 	bls.w	3022 <TEE_IsAlgorithmSupported+0x1c4>
    2eee:	4b54      	ldr	r3, [pc, #336]	; (3040 <TEE_IsAlgorithmSupported+0x1e2>)
    2ef0:	f420 5200 	bic.w	r2, r0, #8192	; 0x2000
    2ef4:	429a      	cmp	r2, r3
    2ef6:	f000 8094 	beq.w	3022 <TEE_IsAlgorithmSupported+0x1c4>
    2efa:	f420 4280 	bic.w	r2, r0, #16384	; 0x4000
    2efe:	f503 5380 	add.w	r3, r3, #4096	; 0x1000
    2f02:	429a      	cmp	r2, r3
    2f04:	f000 808d 	beq.w	3022 <TEE_IsAlgorithmSupported+0x1c4>
    2f08:	f503 1304 	add.w	r3, r3, #2162688	; 0x210000
    2f0c:	f503 7380 	add.w	r3, r3, #256	; 0x100
    2f10:	4298      	cmp	r0, r3
    2f12:	f000 8086 	beq.w	3022 <TEE_IsAlgorithmSupported+0x1c4>
    2f16:	f103 4370 	add.w	r3, r3, #4026531840	; 0xf0000000
    2f1a:	f420 1280 	bic.w	r2, r0, #1048576	; 0x100000
    2f1e:	f5a3 531c 	sub.w	r3, r3, #9984	; 0x2700
    2f22:	429a      	cmp	r2, r3
    2f24:	d07d      	beq.n	3022 <TEE_IsAlgorithmSupported+0x1c4>
    2f26:	4b47      	ldr	r3, [pc, #284]	; (3044 <TEE_IsAlgorithmSupported+0x1e6>)
    2f28:	4298      	cmp	r0, r3
    2f2a:	d07a      	beq.n	3022 <TEE_IsAlgorithmSupported+0x1c4>
    2f2c:	f503 1341 	add.w	r3, r3, #3162112	; 0x304000
    2f30:	f503 7380 	add.w	r3, r3, #256	; 0x100
    2f34:	4298      	cmp	r0, r3
    2f36:	d074      	beq.n	3022 <TEE_IsAlgorithmSupported+0x1c4>
    2f38:	4c43      	ldr	r4, [pc, #268]	; (3048 <TEE_IsAlgorithmSupported+0x1ea>)
    2f3a:	f420 5380 	bic.w	r3, r0, #4096	; 0x1000
    2f3e:	42a3      	cmp	r3, r4
    2f40:	d06f      	beq.n	3022 <TEE_IsAlgorithmSupported+0x1c4>
    2f42:	f504 0482 	add.w	r4, r4, #4259840	; 0x410000
    2f46:	f504 7480 	add.w	r4, r4, #256	; 0x100
    2f4a:	42a0      	cmp	r0, r4
    2f4c:	d069      	beq.n	3022 <TEE_IsAlgorithmSupported+0x1c4>
    2f4e:	f104 4470 	add.w	r4, r4, #4026531840	; 0xf0000000
    2f52:	f5a4 448e 	sub.w	r4, r4, #18176	; 0x4700
    2f56:	42a2      	cmp	r2, r4
    2f58:	d063      	beq.n	3022 <TEE_IsAlgorithmSupported+0x1c4>
    2f5a:	4a3c      	ldr	r2, [pc, #240]	; (304c <TEE_IsAlgorithmSupported+0x1ee>)
    2f5c:	4290      	cmp	r0, r2
    2f5e:	d060      	beq.n	3022 <TEE_IsAlgorithmSupported+0x1c4>
    2f60:	f502 1280 	add.w	r2, r2, #1048576	; 0x100000
    2f64:	f502 5280 	add.w	r2, r2, #4096	; 0x1000
    2f68:	4290      	cmp	r0, r2
    2f6a:	d05a      	beq.n	3022 <TEE_IsAlgorithmSupported+0x1c4>
    2f6c:	f102 4270 	add.w	r2, r2, #4026531840	; 0xf0000000
    2f70:	f5a2 42ce 	sub.w	r2, r2, #26368	; 0x6700
    2f74:	4290      	cmp	r0, r2
    2f76:	d054      	beq.n	3022 <TEE_IsAlgorithmSupported+0x1c4>
    2f78:	4a35      	ldr	r2, [pc, #212]	; (3050 <TEE_IsAlgorithmSupported+0x1f2>)
    2f7a:	4290      	cmp	r0, r2
    2f7c:	d051      	beq.n	3022 <TEE_IsAlgorithmSupported+0x1c4>
    2f7e:	4a35      	ldr	r2, [pc, #212]	; (3054 <TEE_IsAlgorithmSupported+0x1f6>)
    2f80:	4290      	cmp	r0, r2
    2f82:	d04e      	beq.n	3022 <TEE_IsAlgorithmSupported+0x1c4>
    2f84:	4a34      	ldr	r2, [pc, #208]	; (3058 <TEE_IsAlgorithmSupported+0x1fa>)
    2f86:	4293      	cmp	r3, r2
    2f88:	d04b      	beq.n	3022 <TEE_IsAlgorithmSupported+0x1c4>
    2f8a:	4b34      	ldr	r3, [pc, #208]	; (305c <TEE_IsAlgorithmSupported+0x1fe>)
    2f8c:	4298      	cmp	r0, r3
    2f8e:	d048      	beq.n	3022 <TEE_IsAlgorithmSupported+0x1c4>
    2f90:	4b33      	ldr	r3, [pc, #204]	; (3060 <TEE_IsAlgorithmSupported+0x202>)
    2f92:	4298      	cmp	r0, r3
    2f94:	d045      	beq.n	3022 <TEE_IsAlgorithmSupported+0x1c4>
    2f96:	f503 5380 	add.w	r3, r3, #4096	; 0x1000
    2f9a:	3310      	adds	r3, #16
    2f9c:	4298      	cmp	r0, r3
    2f9e:	d004      	beq.n	2faa <TEE_IsAlgorithmSupported+0x14c>
    2fa0:	f103 4370 	add.w	r3, r3, #4026531840	; 0xf0000000
    2fa4:	3b01      	subs	r3, #1
    2fa6:	4298      	cmp	r0, r3
    2fa8:	d101      	bne.n	2fae <TEE_IsAlgorithmSupported+0x150>
    2faa:	2901      	cmp	r1, #1
    2fac:	d03b      	beq.n	3026 <TEE_IsAlgorithmSupported+0x1c8>
    2fae:	4b2d      	ldr	r3, [pc, #180]	; (3064 <TEE_IsAlgorithmSupported+0x206>)
    2fb0:	4298      	cmp	r0, r3
    2fb2:	d004      	beq.n	2fbe <TEE_IsAlgorithmSupported+0x160>
    2fb4:	f103 4370 	add.w	r3, r3, #4026531840	; 0xf0000000
    2fb8:	3b01      	subs	r3, #1
    2fba:	4298      	cmp	r0, r3
    2fbc:	d101      	bne.n	2fc2 <TEE_IsAlgorithmSupported+0x164>
    2fbe:	2902      	cmp	r1, #2
    2fc0:	d031      	beq.n	3026 <TEE_IsAlgorithmSupported+0x1c8>
    2fc2:	4b29      	ldr	r3, [pc, #164]	; (3068 <TEE_IsAlgorithmSupported+0x20a>)
    2fc4:	4298      	cmp	r0, r3
    2fc6:	d004      	beq.n	2fd2 <TEE_IsAlgorithmSupported+0x174>
    2fc8:	f103 4370 	add.w	r3, r3, #4026531840	; 0xf0000000
    2fcc:	3b01      	subs	r3, #1
    2fce:	4298      	cmp	r0, r3
    2fd0:	d101      	bne.n	2fd6 <TEE_IsAlgorithmSupported+0x178>
    2fd2:	2903      	cmp	r1, #3
    2fd4:	d027      	beq.n	3026 <TEE_IsAlgorithmSupported+0x1c8>
    2fd6:	4b25      	ldr	r3, [pc, #148]	; (306c <TEE_IsAlgorithmSupported+0x20e>)
    2fd8:	4298      	cmp	r0, r3
    2fda:	d004      	beq.n	2fe6 <TEE_IsAlgorithmSupported+0x188>
    2fdc:	f103 4370 	add.w	r3, r3, #4026531840	; 0xf0000000
    2fe0:	3b01      	subs	r3, #1
    2fe2:	4298      	cmp	r0, r3
    2fe4:	d101      	bne.n	2fea <TEE_IsAlgorithmSupported+0x18c>
    2fe6:	2904      	cmp	r1, #4
    2fe8:	d01d      	beq.n	3026 <TEE_IsAlgorithmSupported+0x1c8>
    2fea:	4b21      	ldr	r3, [pc, #132]	; (3070 <TEE_IsAlgorithmSupported+0x212>)
    2fec:	4298      	cmp	r0, r3
    2fee:	d004      	beq.n	2ffa <TEE_IsAlgorithmSupported+0x19c>
    2ff0:	f103 4370 	add.w	r3, r3, #4026531840	; 0xf0000000
    2ff4:	3b01      	subs	r3, #1
    2ff6:	4298      	cmp	r0, r3
    2ff8:	d101      	bne.n	2ffe <TEE_IsAlgorithmSupported+0x1a0>
    2ffa:	2905      	cmp	r1, #5
    2ffc:	d013      	beq.n	3026 <TEE_IsAlgorithmSupported+0x1c8>
    2ffe:	4b1d      	ldr	r3, [pc, #116]	; (3074 <TEE_IsAlgorithmSupported+0x216>)
    3000:	4298      	cmp	r0, r3
    3002:	d105      	bne.n	3010 <TEE_IsAlgorithmSupported+0x1b2>
    3004:	f5b1 7f40 	cmp.w	r1, #768	; 0x300
    3008:	481b      	ldr	r0, [pc, #108]	; (3078 <TEE_IsAlgorithmSupported+0x21a>)
    300a:	bf08      	it	eq
    300c:	2000      	moveq	r0, #0
    300e:	bd10      	pop	{r4, pc}
    3010:	4b1a      	ldr	r3, [pc, #104]	; (307c <TEE_IsAlgorithmSupported+0x21e>)
    3012:	4298      	cmp	r0, r3
    3014:	d0f6      	beq.n	3004 <TEE_IsAlgorithmSupported+0x1a6>
    3016:	f103 5300 	add.w	r3, r3, #536870912	; 0x20000000
    301a:	4298      	cmp	r0, r3
    301c:	d0f2      	beq.n	3004 <TEE_IsAlgorithmSupported+0x1a6>
    301e:	4816      	ldr	r0, [pc, #88]	; (3078 <TEE_IsAlgorithmSupported+0x21a>)
    3020:	bd10      	pop	{r4, pc}
    3022:	2900      	cmp	r1, #0
    3024:	e7f0      	b.n	3008 <TEE_IsAlgorithmSupported+0x1aa>
    3026:	2000      	movs	r0, #0
    3028:	bd10      	pop	{r4, pc}
    302a:	bf00      	nop
    302c:	10000210 	.word	0x10000210
    3030:	30000610 	.word	0x30000610
    3034:	40000710 	.word	0x40000710
    3038:	30000113 	.word	0x30000113
    303c:	5000000f 	.word	0x5000000f
    3040:	70001830 	.word	0x70001830
    3044:	7000f830 	.word	0x7000f830
    3048:	70004830 	.word	0x70004830
    304c:	70515930 	.word	0x70515930
    3050:	f0000830 	.word	0xf0000830
    3054:	60000030 	.word	0x60000030
    3058:	70002131 	.word	0x70002131
    305c:	70004131 	.word	0x70004131
    3060:	80000032 	.word	0x80000032
    3064:	80002042 	.word	0x80002042
    3068:	80003042 	.word	0x80003042
    306c:	80004042 	.word	0x80004042
    3070:	80005042 	.word	0x80005042
    3074:	70006045 	.word	0x70006045
    3078:	ffff000a 	.word	0xffff000a
    307c:	60000045 	.word	0x60000045

00003080 <check_access>:
    3080:	b410      	push	{r4}
    3082:	b122      	cbz	r2, 308e <check_access+0xe>
    3084:	b139      	cbz	r1, 3096 <check_access+0x16>
    3086:	f85d 4b04 	ldr.w	r4, [sp], #4
    308a:	f001 b95f 	b.w	434c <TEE_CheckMemoryAccessRights>
    308e:	4610      	mov	r0, r2
    3090:	f85d 4b04 	ldr.w	r4, [sp], #4
    3094:	4770      	bx	lr
    3096:	4801      	ldr	r0, [pc, #4]	; (309c <check_access+0x1c>)
    3098:	e7fa      	b.n	3090 <check_access+0x10>
    309a:	bf00      	nop
    309c:	ffff000f 	.word	0xffff000f

000030a0 <TEE_Panic>:
    30a0:	f006 b9ba 	b.w	9418 <___utee_panic_from_thumb>

000030a4 <check_res.isra.1>:
    30a4:	b110      	cbz	r0, 30ac <check_res.isra.1+0x8>
    30a6:	2000      	movs	r0, #0
    30a8:	f7ff bffa 	b.w	30a0 <TEE_Panic>
    30ac:	4770      	bx	lr

000030ae <__utee_check_outbuf_annotation>:
    30ae:	b538      	push	{r3, r4, r5, lr}
    30b0:	4604      	mov	r4, r0
    30b2:	460d      	mov	r5, r1
    30b4:	b169      	cbz	r1, 30d2 <__utee_check_outbuf_annotation+0x24>
    30b6:	2204      	movs	r2, #4
    30b8:	2003      	movs	r0, #3
    30ba:	f001 f947 	bl	434c <TEE_CheckMemoryAccessRights>
    30be:	f7ff fff1 	bl	30a4 <check_res.isra.1>
    30c2:	4621      	mov	r1, r4
    30c4:	682a      	ldr	r2, [r5, #0]
    30c6:	2006      	movs	r0, #6
    30c8:	f7ff ffda 	bl	3080 <check_access>
    30cc:	e8bd 4038 	ldmia.w	sp!, {r3, r4, r5, lr}
    30d0:	e7e8      	b.n	30a4 <check_res.isra.1>
    30d2:	4801      	ldr	r0, [pc, #4]	; (30d8 <__utee_check_outbuf_annotation+0x2a>)
    30d4:	e7f3      	b.n	30be <__utee_check_outbuf_annotation+0x10>
    30d6:	bf00      	nop
    30d8:	ffff000f 	.word	0xffff000f

000030dc <__utee_check_instring_annotation>:
    30dc:	b510      	push	{r4, lr}
    30de:	4604      	mov	r4, r0
    30e0:	f006 f852 	bl	9188 <strlen>
    30e4:	1c42      	adds	r2, r0, #1
    30e6:	4621      	mov	r1, r4
    30e8:	2001      	movs	r0, #1
    30ea:	f7ff ffc9 	bl	3080 <check_access>
    30ee:	e8bd 4010 	ldmia.w	sp!, {r4, lr}
    30f2:	e7d7      	b.n	30a4 <check_res.isra.1>

000030f4 <__utee_check_outstring_annotation>:
    30f4:	b538      	push	{r3, r4, r5, lr}
    30f6:	4604      	mov	r4, r0
    30f8:	460d      	mov	r5, r1
    30fa:	b169      	cbz	r1, 3118 <__utee_check_outstring_annotation+0x24>
    30fc:	2204      	movs	r2, #4
    30fe:	2003      	movs	r0, #3
    3100:	f001 f924 	bl	434c <TEE_CheckMemoryAccessRights>
    3104:	f7ff ffce 	bl	30a4 <check_res.isra.1>
    3108:	4621      	mov	r1, r4
    310a:	682a      	ldr	r2, [r5, #0]
    310c:	2006      	movs	r0, #6
    310e:	f7ff ffb7 	bl	3080 <check_access>
    3112:	e8bd 4038 	ldmia.w	sp!, {r3, r4, r5, lr}
    3116:	e7c5      	b.n	30a4 <check_res.isra.1>
    3118:	4800      	ldr	r0, [pc, #0]	; (311c <__utee_check_outstring_annotation+0x28>)
    311a:	e7f3      	b.n	3104 <__utee_check_outstring_annotation+0x10>
    311c:	ffff000f 	.word	0xffff000f

00003120 <__utee_check_out_annotation>:
    3120:	b508      	push	{r3, lr}
    3122:	460a      	mov	r2, r1
    3124:	4601      	mov	r1, r0
    3126:	2002      	movs	r0, #2
    3128:	f7ff ffaa 	bl	3080 <check_access>
    312c:	e8bd 4008 	ldmia.w	sp!, {r3, lr}
    3130:	e7b8      	b.n	30a4 <check_res.isra.1>

00003132 <__utee_check_attr_in_annotation>:
    3132:	220c      	movs	r2, #12
    3134:	b508      	push	{r3, lr}
    3136:	434a      	muls	r2, r1
    3138:	4601      	mov	r1, r0
    313a:	2001      	movs	r0, #1
    313c:	f7ff ffa0 	bl	3080 <check_access>
    3140:	e8bd 4008 	ldmia.w	sp!, {r3, lr}
    3144:	e7ae      	b.n	30a4 <check_res.isra.1>

00003146 <__utee_check_inout_annotation>:
    3146:	b508      	push	{r3, lr}
    3148:	460a      	mov	r2, r1
    314a:	4601      	mov	r1, r0
    314c:	2003      	movs	r0, #3
    314e:	f7ff ff97 	bl	3080 <check_access>
    3152:	e8bd 4008 	ldmia.w	sp!, {r3, lr}
    3156:	e7a5      	b.n	30a4 <check_res.isra.1>

00003158 <propset_get>:
    3158:	4b0f      	ldr	r3, [pc, #60]	; (3198 <propset_get+0x40>)
    315a:	f1b0 3fff 	cmp.w	r0, #4294967295	; 0xffffffff
    315e:	447b      	add	r3, pc
    3160:	d108      	bne.n	3174 <propset_get+0x1c>
    3162:	480e      	ldr	r0, [pc, #56]	; (319c <propset_get+0x44>)
    3164:	5818      	ldr	r0, [r3, r0]
    3166:	6008      	str	r0, [r1, #0]
    3168:	490d      	ldr	r1, [pc, #52]	; (31a0 <propset_get+0x48>)
    316a:	585b      	ldr	r3, [r3, r1]
    316c:	681b      	ldr	r3, [r3, #0]
    316e:	2000      	movs	r0, #0
    3170:	6013      	str	r3, [r2, #0]
    3172:	4770      	bx	lr
    3174:	f110 0f02 	cmn.w	r0, #2
    3178:	d103      	bne.n	3182 <propset_get+0x2a>
    317a:	2000      	movs	r0, #0
    317c:	6008      	str	r0, [r1, #0]
    317e:	6010      	str	r0, [r2, #0]
    3180:	4770      	bx	lr
    3182:	3003      	adds	r0, #3
    3184:	d104      	bne.n	3190 <propset_get+0x38>
    3186:	4807      	ldr	r0, [pc, #28]	; (31a4 <propset_get+0x4c>)
    3188:	581b      	ldr	r3, [r3, r0]
    318a:	600b      	str	r3, [r1, #0]
    318c:	2303      	movs	r3, #3
    318e:	e7ee      	b.n	316e <propset_get+0x16>
    3190:	4800      	ldr	r0, [pc, #0]	; (3194 <propset_get+0x3c>)
    3192:	4770      	bx	lr
    3194:	ffff0008 	.word	0xffff0008
    3198:	00008f1e 	.word	0x00008f1e
    319c:	00000010 	.word	0x00000010
    31a0:	00000018 	.word	0x00000018
    31a4:	00000030 	.word	0x00000030

000031a8 <is_propset_pseudo_handle>:
    31a8:	1c83      	adds	r3, r0, #2
    31aa:	2b01      	cmp	r3, #1
    31ac:	d904      	bls.n	31b8 <is_propset_pseudo_handle+0x10>
    31ae:	1cc3      	adds	r3, r0, #3
    31b0:	bf14      	ite	ne
    31b2:	2000      	movne	r0, #0
    31b4:	2001      	moveq	r0, #1
    31b6:	4770      	bx	lr
    31b8:	2001      	movs	r0, #1
    31ba:	4770      	bx	lr

000031bc <propget_get_ext_prop>:
    31bc:	b5f7      	push	{r0, r1, r2, r4, r5, r6, r7, lr}
    31be:	461c      	mov	r4, r3
    31c0:	6843      	ldr	r3, [r0, #4]
    31c2:	4605      	mov	r5, r0
    31c4:	4617      	mov	r7, r2
    31c6:	600b      	str	r3, [r1, #0]
    31c8:	2b05      	cmp	r3, #5
    31ca:	d836      	bhi.n	323a <propget_get_ext_prop+0x7e>
    31cc:	e8df f003 	tbb	[pc, r3]
    31d0:	14121003 	.word	0x14121003
    31d4:	1c16      	.short	0x1c16
    31d6:	2301      	movs	r3, #1
    31d8:	9301      	str	r3, [sp, #4]
    31da:	6823      	ldr	r3, [r4, #0]
    31dc:	9a01      	ldr	r2, [sp, #4]
    31de:	4293      	cmp	r3, r2
    31e0:	6022      	str	r2, [r4, #0]
    31e2:	d327      	bcc.n	3234 <propget_get_ext_prop+0x78>
    31e4:	4638      	mov	r0, r7
    31e6:	68a9      	ldr	r1, [r5, #8]
    31e8:	f7fd f8ae 	bl	348 <memcpy>
    31ec:	2000      	movs	r0, #0
    31ee:	e022      	b.n	3236 <propget_get_ext_prop+0x7a>
    31f0:	2304      	movs	r3, #4
    31f2:	e7f1      	b.n	31d8 <propget_get_ext_prop+0x1c>
    31f4:	2310      	movs	r3, #16
    31f6:	e7ef      	b.n	31d8 <propget_get_ext_prop+0x1c>
    31f8:	2314      	movs	r3, #20
    31fa:	e7ed      	b.n	31d8 <propget_get_ext_prop+0x1c>
    31fc:	6880      	ldr	r0, [r0, #8]
    31fe:	f005 ffc3 	bl	9188 <strlen>
    3202:	3001      	adds	r0, #1
    3204:	9001      	str	r0, [sp, #4]
    3206:	e7e8      	b.n	31da <propget_get_ext_prop+0x1e>
    3208:	6885      	ldr	r5, [r0, #8]
    320a:	ae02      	add	r6, sp, #8
    320c:	6823      	ldr	r3, [r4, #0]
    320e:	4628      	mov	r0, r5
    3210:	f846 3d04 	str.w	r3, [r6, #-4]!
    3214:	f005 ffb8 	bl	9188 <strlen>
    3218:	4601      	mov	r1, r0
    321a:	4633      	mov	r3, r6
    321c:	463a      	mov	r2, r7
    321e:	4628      	mov	r0, r5
    3220:	f000 ffce 	bl	41c0 <_base64_dec>
    3224:	6822      	ldr	r2, [r4, #0]
    3226:	9b01      	ldr	r3, [sp, #4]
    3228:	b908      	cbnz	r0, 322e <propget_get_ext_prop+0x72>
    322a:	429a      	cmp	r2, r3
    322c:	d205      	bcs.n	323a <propget_get_ext_prop+0x7e>
    322e:	429a      	cmp	r2, r3
    3230:	6023      	str	r3, [r4, #0]
    3232:	d2db      	bcs.n	31ec <propget_get_ext_prop+0x30>
    3234:	4802      	ldr	r0, [pc, #8]	; (3240 <propget_get_ext_prop+0x84>)
    3236:	b003      	add	sp, #12
    3238:	bdf0      	pop	{r4, r5, r6, r7, pc}
    323a:	4802      	ldr	r0, [pc, #8]	; (3244 <propget_get_ext_prop+0x88>)
    323c:	e7fb      	b.n	3236 <propget_get_ext_prop+0x7a>
    323e:	bf00      	nop
    3240:	ffff0010 	.word	0xffff0010
    3244:	ffff0000 	.word	0xffff0000

00003248 <propget_get_property>:
    3248:	e92d 4ff0 	stmdb	sp!, {r4, r5, r6, r7, r8, r9, sl, fp, lr}
    324c:	b08b      	sub	sp, #44	; 0x2c
    324e:	4605      	mov	r5, r0
    3250:	4689      	mov	r9, r1
    3252:	9f14      	ldr	r7, [sp, #80]	; 0x50
    3254:	4690      	mov	r8, r2
    3256:	461e      	mov	r6, r3
    3258:	f7ff ffa6 	bl	31a8 <is_propset_pseudo_handle>
    325c:	2800      	cmp	r0, #0
    325e:	d037      	beq.n	32d0 <propget_get_property+0x88>
    3260:	aa07      	add	r2, sp, #28
    3262:	a906      	add	r1, sp, #24
    3264:	4628      	mov	r0, r5
    3266:	f7ff ff77 	bl	3158 <propset_get>
    326a:	bb60      	cbnz	r0, 32c6 <propget_get_property+0x7e>
    326c:	f8dd a018 	ldr.w	sl, [sp, #24]
    3270:	4604      	mov	r4, r0
    3272:	9b07      	ldr	r3, [sp, #28]
    3274:	429c      	cmp	r4, r3
    3276:	d117      	bne.n	32a8 <propget_get_property+0x60>
    3278:	4648      	mov	r0, r9
    327a:	f005 ff85 	bl	9188 <strlen>
    327e:	1c42      	adds	r2, r0, #1
    3280:	ab09      	add	r3, sp, #36	; 0x24
    3282:	4649      	mov	r1, r9
    3284:	4628      	mov	r0, r5
    3286:	f000 eac0 	blx	3808 <_utee_get_property_name_to_index>
    328a:	b9e0      	cbnz	r0, 32c6 <propget_get_property+0x7e>
    328c:	ab08      	add	r3, sp, #32
    328e:	4602      	mov	r2, r0
    3290:	9909      	ldr	r1, [sp, #36]	; 0x24
    3292:	e9cd 6700 	strd	r6, r7, [sp]
    3296:	9302      	str	r3, [sp, #8]
    3298:	4603      	mov	r3, r0
    329a:	4628      	mov	r0, r5
    329c:	f000 eaa8 	blx	37f0 <_utee_get_property>
    32a0:	9b08      	ldr	r3, [sp, #32]
    32a2:	f8c8 3000 	str.w	r3, [r8]
    32a6:	e00e      	b.n	32c6 <propget_get_property+0x7e>
    32a8:	46d3      	mov	fp, sl
    32aa:	4648      	mov	r0, r9
    32ac:	f85a 1b0c 	ldr.w	r1, [sl], #12
    32b0:	9305      	str	r3, [sp, #20]
    32b2:	f006 f851 	bl	9358 <strcmp>
    32b6:	9b05      	ldr	r3, [sp, #20]
    32b8:	b940      	cbnz	r0, 32cc <propget_get_property+0x84>
    32ba:	463b      	mov	r3, r7
    32bc:	4632      	mov	r2, r6
    32be:	4641      	mov	r1, r8
    32c0:	4658      	mov	r0, fp
    32c2:	f7ff ff7b 	bl	31bc <propget_get_ext_prop>
    32c6:	b00b      	add	sp, #44	; 0x2c
    32c8:	e8bd 8ff0 	ldmia.w	sp!, {r4, r5, r6, r7, r8, r9, sl, fp, pc}
    32cc:	3401      	adds	r4, #1
    32ce:	e7d1      	b.n	3274 <propget_get_property+0x2c>
    32d0:	682c      	ldr	r4, [r5, #0]
    32d2:	1c63      	adds	r3, r4, #1
    32d4:	d021      	beq.n	331a <propget_get_property+0xd2>
    32d6:	aa07      	add	r2, sp, #28
    32d8:	a906      	add	r1, sp, #24
    32da:	6868      	ldr	r0, [r5, #4]
    32dc:	f7ff ff3c 	bl	3158 <propset_get>
    32e0:	2800      	cmp	r0, #0
    32e2:	d1f0      	bne.n	32c6 <propget_get_property+0x7e>
    32e4:	9907      	ldr	r1, [sp, #28]
    32e6:	428c      	cmp	r4, r1
    32e8:	d207      	bcs.n	32fa <propget_get_property+0xb2>
    32ea:	9806      	ldr	r0, [sp, #24]
    32ec:	250c      	movs	r5, #12
    32ee:	463b      	mov	r3, r7
    32f0:	4632      	mov	r2, r6
    32f2:	4641      	mov	r1, r8
    32f4:	fb05 0004 	mla	r0, r5, r4, r0
    32f8:	e7e3      	b.n	32c2 <propget_get_property+0x7a>
    32fa:	ab08      	add	r3, sp, #32
    32fc:	4602      	mov	r2, r0
    32fe:	e9cd 6700 	strd	r6, r7, [sp]
    3302:	1a61      	subs	r1, r4, r1
    3304:	9302      	str	r3, [sp, #8]
    3306:	4603      	mov	r3, r0
    3308:	6868      	ldr	r0, [r5, #4]
    330a:	f000 ea72 	blx	37f0 <_utee_get_property>
    330e:	4b04      	ldr	r3, [pc, #16]	; (3320 <propget_get_property+0xd8>)
    3310:	4a04      	ldr	r2, [pc, #16]	; (3324 <propget_get_property+0xdc>)
    3312:	4290      	cmp	r0, r2
    3314:	bf08      	it	eq
    3316:	4618      	moveq	r0, r3
    3318:	e7c2      	b.n	32a0 <propget_get_property+0x58>
    331a:	4802      	ldr	r0, [pc, #8]	; (3324 <propget_get_property+0xdc>)
    331c:	e7d3      	b.n	32c6 <propget_get_property+0x7e>
    331e:	bf00      	nop
    3320:	ffff0006 	.word	0xffff0006
    3324:	ffff0008 	.word	0xffff0008

00003328 <TEE_GetPropertyAsString>:
    3328:	e92d 41f0 	stmdb	sp!, {r4, r5, r6, r7, r8, lr}
    332c:	b086      	sub	sp, #24
    332e:	4680      	mov	r8, r0
    3330:	460d      	mov	r5, r1
    3332:	4617      	mov	r7, r2
    3334:	461c      	mov	r4, r3
    3336:	f7ff ff37 	bl	31a8 <is_propset_pseudo_handle>
    333a:	b110      	cbz	r0, 3342 <TEE_GetPropertyAsString+0x1a>
    333c:	4608      	mov	r0, r1
    333e:	f7ff fecd 	bl	30dc <__utee_check_instring_annotation>
    3342:	4621      	mov	r1, r4
    3344:	4638      	mov	r0, r7
    3346:	f7ff fed5 	bl	30f4 <__utee_check_outstring_annotation>
    334a:	6823      	ldr	r3, [r4, #0]
    334c:	f04f 4100 	mov.w	r1, #2147483648	; 0x80000000
    3350:	2b13      	cmp	r3, #19
    3352:	bf98      	it	ls
    3354:	2314      	movls	r3, #20
    3356:	9305      	str	r3, [sp, #20]
    3358:	9805      	ldr	r0, [sp, #20]
    335a:	f001 f9a6 	bl	46aa <TEE_Malloc>
    335e:	4606      	mov	r6, r0
    3360:	2800      	cmp	r0, #0
    3362:	d071      	beq.n	3448 <TEE_GetPropertyAsString+0x120>
    3364:	ab05      	add	r3, sp, #20
    3366:	4629      	mov	r1, r5
    3368:	aa04      	add	r2, sp, #16
    336a:	4640      	mov	r0, r8
    336c:	9300      	str	r3, [sp, #0]
    336e:	4633      	mov	r3, r6
    3370:	f7ff ff6a 	bl	3248 <propget_get_property>
    3374:	4605      	mov	r5, r0
    3376:	b1e0      	cbz	r0, 33b2 <TEE_GetPropertyAsString+0x8a>
    3378:	4b36      	ldr	r3, [pc, #216]	; (3454 <TEE_GetPropertyAsString+0x12c>)
    337a:	4298      	cmp	r0, r3
    337c:	d108      	bne.n	3390 <TEE_GetPropertyAsString+0x68>
    337e:	9b04      	ldr	r3, [sp, #16]
    3380:	2b05      	cmp	r3, #5
    3382:	d103      	bne.n	338c <TEE_GetPropertyAsString+0x64>
    3384:	9805      	ldr	r0, [sp, #20]
    3386:	f000 fead 	bl	40e4 <_base64_enc_len>
    338a:	9005      	str	r0, [sp, #20]
    338c:	9b05      	ldr	r3, [sp, #20]
    338e:	6023      	str	r3, [r4, #0]
    3390:	4630      	mov	r0, r6
    3392:	f001 f9b1 	bl	46f8 <TEE_Free>
    3396:	b145      	cbz	r5, 33aa <TEE_GetPropertyAsString+0x82>
    3398:	4b2f      	ldr	r3, [pc, #188]	; (3458 <TEE_GetPropertyAsString+0x130>)
    339a:	429d      	cmp	r5, r3
    339c:	d005      	beq.n	33aa <TEE_GetPropertyAsString+0x82>
    339e:	3308      	adds	r3, #8
    33a0:	429d      	cmp	r5, r3
    33a2:	d002      	beq.n	33aa <TEE_GetPropertyAsString+0x82>
    33a4:	2000      	movs	r0, #0
    33a6:	f7ff fe7b 	bl	30a0 <TEE_Panic>
    33aa:	4628      	mov	r0, r5
    33ac:	b006      	add	sp, #24
    33ae:	e8bd 81f0 	ldmia.w	sp!, {r4, r5, r6, r7, r8, pc}
    33b2:	9b04      	ldr	r3, [sp, #16]
    33b4:	2b05      	cmp	r3, #5
    33b6:	d849      	bhi.n	344c <TEE_GetPropertyAsString+0x124>
    33b8:	e8df f003 	tbb	[pc, r3]
    33bc:	28200f03 	.word	0x28200f03
    33c0:	3532      	.short	0x3532
    33c2:	7833      	ldrb	r3, [r6, #0]
    33c4:	b933      	cbnz	r3, 33d4 <TEE_GetPropertyAsString+0xac>
    33c6:	4928      	ldr	r1, [pc, #160]	; (3468 <TEE_GetPropertyAsString+0x140>)
    33c8:	4479      	add	r1, pc
    33ca:	6822      	ldr	r2, [r4, #0]
    33cc:	4638      	mov	r0, r7
    33ce:	f005 ffd0 	bl	9372 <strlcpy>
    33d2:	e009      	b.n	33e8 <TEE_GetPropertyAsString+0xc0>
    33d4:	4925      	ldr	r1, [pc, #148]	; (346c <TEE_GetPropertyAsString+0x144>)
    33d6:	4479      	add	r1, pc
    33d8:	e7f7      	b.n	33ca <TEE_GetPropertyAsString+0xa2>
    33da:	4a25      	ldr	r2, [pc, #148]	; (3470 <TEE_GetPropertyAsString+0x148>)
    33dc:	4638      	mov	r0, r7
    33de:	6821      	ldr	r1, [r4, #0]
    33e0:	6833      	ldr	r3, [r6, #0]
    33e2:	447a      	add	r2, pc
    33e4:	f005 ff88 	bl	92f8 <snprintf>
    33e8:	9003      	str	r0, [sp, #12]
    33ea:	9b03      	ldr	r3, [sp, #12]
    33ec:	4a19      	ldr	r2, [pc, #100]	; (3454 <TEE_GetPropertyAsString+0x12c>)
    33ee:	6821      	ldr	r1, [r4, #0]
    33f0:	3301      	adds	r3, #1
    33f2:	428b      	cmp	r3, r1
    33f4:	bf88      	it	hi
    33f6:	4615      	movhi	r5, r2
    33f8:	9303      	str	r3, [sp, #12]
    33fa:	e7c8      	b.n	338e <TEE_GetPropertyAsString+0x66>
    33fc:	4a1d      	ldr	r2, [pc, #116]	; (3474 <TEE_GetPropertyAsString+0x14c>)
    33fe:	4633      	mov	r3, r6
    3400:	4638      	mov	r0, r7
    3402:	6821      	ldr	r1, [r4, #0]
    3404:	447a      	add	r2, pc
    3406:	f7fd f8e7 	bl	5d8 <snprintk>
    340a:	e7ed      	b.n	33e8 <TEE_GetPropertyAsString+0xc0>
    340c:	4a1a      	ldr	r2, [pc, #104]	; (3478 <TEE_GetPropertyAsString+0x150>)
    340e:	1d33      	adds	r3, r6, #4
    3410:	4638      	mov	r0, r7
    3412:	6821      	ldr	r1, [r4, #0]
    3414:	9300      	str	r3, [sp, #0]
    3416:	6833      	ldr	r3, [r6, #0]
    3418:	447a      	add	r2, pc
    341a:	f7fd f8dd 	bl	5d8 <snprintk>
    341e:	e7e3      	b.n	33e8 <TEE_GetPropertyAsString+0xc0>
    3420:	4631      	mov	r1, r6
    3422:	6822      	ldr	r2, [r4, #0]
    3424:	e7d2      	b.n	33cc <TEE_GetPropertyAsString+0xa4>
    3426:	6822      	ldr	r2, [r4, #0]
    3428:	ab06      	add	r3, sp, #24
    342a:	4630      	mov	r0, r6
    342c:	9905      	ldr	r1, [sp, #20]
    342e:	f843 2d0c 	str.w	r2, [r3, #-12]!
    3432:	463a      	mov	r2, r7
    3434:	f000 fe5d 	bl	40f2 <_base64_enc>
    3438:	9b03      	ldr	r3, [sp, #12]
    343a:	b910      	cbnz	r0, 3442 <TEE_GetPropertyAsString+0x11a>
    343c:	6822      	ldr	r2, [r4, #0]
    343e:	429a      	cmp	r2, r3
    3440:	d206      	bcs.n	3450 <TEE_GetPropertyAsString+0x128>
    3442:	3b01      	subs	r3, #1
    3444:	9303      	str	r3, [sp, #12]
    3446:	e7d0      	b.n	33ea <TEE_GetPropertyAsString+0xc2>
    3448:	4d04      	ldr	r5, [pc, #16]	; (345c <TEE_GetPropertyAsString+0x134>)
    344a:	e7ab      	b.n	33a4 <TEE_GetPropertyAsString+0x7c>
    344c:	4d04      	ldr	r5, [pc, #16]	; (3460 <TEE_GetPropertyAsString+0x138>)
    344e:	e79f      	b.n	3390 <TEE_GetPropertyAsString+0x68>
    3450:	4d04      	ldr	r5, [pc, #16]	; (3464 <TEE_GetPropertyAsString+0x13c>)
    3452:	e79d      	b.n	3390 <TEE_GetPropertyAsString+0x68>
    3454:	ffff0010 	.word	0xffff0010
    3458:	ffff0008 	.word	0xffff0008
    345c:	ffff000c 	.word	0xffff000c
    3460:	ffff0005 	.word	0xffff0005
    3464:	ffff0000 	.word	0xffff0000
    3468:	00006722 	.word	0x00006722
    346c:	0000670f 	.word	0x0000670f
    3470:	0000670e 	.word	0x0000670e
    3474:	000066f2 	.word	0x000066f2
    3478:	000066db 	.word	0x000066db

0000347c <TEE_GetPropertyAsBool>:
    347c:	b57f      	push	{r0, r1, r2, r3, r4, r5, r6, lr}
    347e:	2301      	movs	r3, #1
    3480:	4606      	mov	r6, r0
    3482:	460c      	mov	r4, r1
    3484:	4615      	mov	r5, r2
    3486:	9303      	str	r3, [sp, #12]
    3488:	f7ff fe8e 	bl	31a8 <is_propset_pseudo_handle>
    348c:	b110      	cbz	r0, 3494 <TEE_GetPropertyAsBool+0x18>
    348e:	4608      	mov	r0, r1
    3490:	f7ff fe24 	bl	30dc <__utee_check_instring_annotation>
    3494:	2101      	movs	r1, #1
    3496:	4628      	mov	r0, r5
    3498:	f7ff fe42 	bl	3120 <__utee_check_out_annotation>
    349c:	aa04      	add	r2, sp, #16
    349e:	2300      	movs	r3, #0
    34a0:	4621      	mov	r1, r4
    34a2:	4630      	mov	r0, r6
    34a4:	f842 3d08 	str.w	r3, [r2, #-8]!
    34a8:	ab03      	add	r3, sp, #12
    34aa:	9300      	str	r3, [sp, #0]
    34ac:	462b      	mov	r3, r5
    34ae:	f7ff fecb 	bl	3248 <propget_get_property>
    34b2:	4604      	mov	r4, r0
    34b4:	9802      	ldr	r0, [sp, #8]
    34b6:	b958      	cbnz	r0, 34d0 <TEE_GetPropertyAsBool+0x54>
    34b8:	b13c      	cbz	r4, 34ca <TEE_GetPropertyAsBool+0x4e>
    34ba:	4b06      	ldr	r3, [pc, #24]	; (34d4 <TEE_GetPropertyAsBool+0x58>)
    34bc:	429c      	cmp	r4, r3
    34be:	d004      	beq.n	34ca <TEE_GetPropertyAsBool+0x4e>
    34c0:	3b03      	subs	r3, #3
    34c2:	429c      	cmp	r4, r3
    34c4:	d001      	beq.n	34ca <TEE_GetPropertyAsBool+0x4e>
    34c6:	f7ff fdeb 	bl	30a0 <TEE_Panic>
    34ca:	4620      	mov	r0, r4
    34cc:	b004      	add	sp, #16
    34ce:	bd70      	pop	{r4, r5, r6, pc}
    34d0:	4c01      	ldr	r4, [pc, #4]	; (34d8 <TEE_GetPropertyAsBool+0x5c>)
    34d2:	e7fa      	b.n	34ca <TEE_GetPropertyAsBool+0x4e>
    34d4:	ffff0008 	.word	0xffff0008
    34d8:	ffff0005 	.word	0xffff0005

000034dc <TEE_GetPropertyAsU32>:
    34dc:	b57f      	push	{r0, r1, r2, r3, r4, r5, r6, lr}
    34de:	2304      	movs	r3, #4
    34e0:	4606      	mov	r6, r0
    34e2:	460c      	mov	r4, r1
    34e4:	4615      	mov	r5, r2
    34e6:	9303      	str	r3, [sp, #12]
    34e8:	f7ff fe5e 	bl	31a8 <is_propset_pseudo_handle>
    34ec:	b110      	cbz	r0, 34f4 <TEE_GetPropertyAsU32+0x18>
    34ee:	4608      	mov	r0, r1
    34f0:	f7ff fdf4 	bl	30dc <__utee_check_instring_annotation>
    34f4:	2104      	movs	r1, #4
    34f6:	4628      	mov	r0, r5
    34f8:	f7ff fe12 	bl	3120 <__utee_check_out_annotation>
    34fc:	aa04      	add	r2, sp, #16
    34fe:	2301      	movs	r3, #1
    3500:	4621      	mov	r1, r4
    3502:	4630      	mov	r0, r6
    3504:	f842 3d08 	str.w	r3, [r2, #-8]!
    3508:	ab03      	add	r3, sp, #12
    350a:	9300      	str	r3, [sp, #0]
    350c:	462b      	mov	r3, r5
    350e:	f7ff fe9b 	bl	3248 <propget_get_property>
    3512:	9b02      	ldr	r3, [sp, #8]
    3514:	4604      	mov	r4, r0
    3516:	2b01      	cmp	r3, #1
    3518:	d10c      	bne.n	3534 <TEE_GetPropertyAsU32+0x58>
    351a:	b140      	cbz	r0, 352e <TEE_GetPropertyAsU32+0x52>
    351c:	4b06      	ldr	r3, [pc, #24]	; (3538 <TEE_GetPropertyAsU32+0x5c>)
    351e:	4298      	cmp	r0, r3
    3520:	d005      	beq.n	352e <TEE_GetPropertyAsU32+0x52>
    3522:	3b03      	subs	r3, #3
    3524:	4298      	cmp	r0, r3
    3526:	d002      	beq.n	352e <TEE_GetPropertyAsU32+0x52>
    3528:	2000      	movs	r0, #0
    352a:	f7ff fdb9 	bl	30a0 <TEE_Panic>
    352e:	4620      	mov	r0, r4
    3530:	b004      	add	sp, #16
    3532:	bd70      	pop	{r4, r5, r6, pc}
    3534:	4c01      	ldr	r4, [pc, #4]	; (353c <TEE_GetPropertyAsU32+0x60>)
    3536:	e7fa      	b.n	352e <TEE_GetPropertyAsU32+0x52>
    3538:	ffff0008 	.word	0xffff0008
    353c:	ffff0005 	.word	0xffff0005

00003540 <TEE_GetPropertyAsBinaryBlock>:
    3540:	b5f0      	push	{r4, r5, r6, r7, lr}
    3542:	b085      	sub	sp, #20
    3544:	4607      	mov	r7, r0
    3546:	460c      	mov	r4, r1
    3548:	4615      	mov	r5, r2
    354a:	461e      	mov	r6, r3
    354c:	f7ff fe2c 	bl	31a8 <is_propset_pseudo_handle>
    3550:	b110      	cbz	r0, 3558 <TEE_GetPropertyAsBinaryBlock+0x18>
    3552:	4608      	mov	r0, r1
    3554:	f7ff fdc2 	bl	30dc <__utee_check_instring_annotation>
    3558:	4631      	mov	r1, r6
    355a:	4628      	mov	r0, r5
    355c:	f7ff fda7 	bl	30ae <__utee_check_outbuf_annotation>
    3560:	aa04      	add	r2, sp, #16
    3562:	2305      	movs	r3, #5
    3564:	4621      	mov	r1, r4
    3566:	4638      	mov	r0, r7
    3568:	f842 3d04 	str.w	r3, [r2, #-4]!
    356c:	462b      	mov	r3, r5
    356e:	9600      	str	r6, [sp, #0]
    3570:	f7ff fe6a 	bl	3248 <propget_get_property>
    3574:	9b03      	ldr	r3, [sp, #12]
    3576:	4604      	mov	r4, r0
    3578:	2b05      	cmp	r3, #5
    357a:	d10f      	bne.n	359c <TEE_GetPropertyAsBinaryBlock+0x5c>
    357c:	b158      	cbz	r0, 3596 <TEE_GetPropertyAsBinaryBlock+0x56>
    357e:	4b08      	ldr	r3, [pc, #32]	; (35a0 <TEE_GetPropertyAsBinaryBlock+0x60>)
    3580:	4298      	cmp	r0, r3
    3582:	d008      	beq.n	3596 <TEE_GetPropertyAsBinaryBlock+0x56>
    3584:	3b03      	subs	r3, #3
    3586:	4298      	cmp	r0, r3
    3588:	d005      	beq.n	3596 <TEE_GetPropertyAsBinaryBlock+0x56>
    358a:	330b      	adds	r3, #11
    358c:	4298      	cmp	r0, r3
    358e:	d002      	beq.n	3596 <TEE_GetPropertyAsBinaryBlock+0x56>
    3590:	2000      	movs	r0, #0
    3592:	f7ff fd85 	bl	30a0 <TEE_Panic>
    3596:	4620      	mov	r0, r4
    3598:	b005      	add	sp, #20
    359a:	bdf0      	pop	{r4, r5, r6, r7, pc}
    359c:	4c01      	ldr	r4, [pc, #4]	; (35a4 <TEE_GetPropertyAsBinaryBlock+0x64>)
    359e:	e7fa      	b.n	3596 <TEE_GetPropertyAsBinaryBlock+0x56>
    35a0:	ffff0008 	.word	0xffff0008
    35a4:	ffff0005 	.word	0xffff0005

000035a8 <TEE_GetPropertyAsUUID>:
    35a8:	b57f      	push	{r0, r1, r2, r3, r4, r5, r6, lr}
    35aa:	2310      	movs	r3, #16
    35ac:	4606      	mov	r6, r0
    35ae:	460c      	mov	r4, r1
    35b0:	4615      	mov	r5, r2
    35b2:	9303      	str	r3, [sp, #12]
    35b4:	f7ff fdf8 	bl	31a8 <is_propset_pseudo_handle>
    35b8:	b110      	cbz	r0, 35c0 <TEE_GetPropertyAsUUID+0x18>
    35ba:	4608      	mov	r0, r1
    35bc:	f7ff fd8e 	bl	30dc <__utee_check_instring_annotation>
    35c0:	2110      	movs	r1, #16
    35c2:	4628      	mov	r0, r5
    35c4:	f7ff fdac 	bl	3120 <__utee_check_out_annotation>
    35c8:	aa04      	add	r2, sp, #16
    35ca:	2302      	movs	r3, #2
    35cc:	4621      	mov	r1, r4
    35ce:	4630      	mov	r0, r6
    35d0:	f842 3d08 	str.w	r3, [r2, #-8]!
    35d4:	ab03      	add	r3, sp, #12
    35d6:	9300      	str	r3, [sp, #0]
    35d8:	462b      	mov	r3, r5
    35da:	f7ff fe35 	bl	3248 <propget_get_property>
    35de:	9b02      	ldr	r3, [sp, #8]
    35e0:	4604      	mov	r4, r0
    35e2:	2b02      	cmp	r3, #2
    35e4:	d10c      	bne.n	3600 <TEE_GetPropertyAsUUID+0x58>
    35e6:	b140      	cbz	r0, 35fa <TEE_GetPropertyAsUUID+0x52>
    35e8:	4b06      	ldr	r3, [pc, #24]	; (3604 <TEE_GetPropertyAsUUID+0x5c>)
    35ea:	4298      	cmp	r0, r3
    35ec:	d005      	beq.n	35fa <TEE_GetPropertyAsUUID+0x52>
    35ee:	3b03      	subs	r3, #3
    35f0:	4298      	cmp	r0, r3
    35f2:	d002      	beq.n	35fa <TEE_GetPropertyAsUUID+0x52>
    35f4:	2000      	movs	r0, #0
    35f6:	f7ff fd53 	bl	30a0 <TEE_Panic>
    35fa:	4620      	mov	r0, r4
    35fc:	b004      	add	sp, #16
    35fe:	bd70      	pop	{r4, r5, r6, pc}
    3600:	4c01      	ldr	r4, [pc, #4]	; (3608 <TEE_GetPropertyAsUUID+0x60>)
    3602:	e7fa      	b.n	35fa <TEE_GetPropertyAsUUID+0x52>
    3604:	ffff0008 	.word	0xffff0008
    3608:	ffff0005 	.word	0xffff0005

0000360c <TEE_GetPropertyAsIdentity>:
    360c:	b57f      	push	{r0, r1, r2, r3, r4, r5, r6, lr}
    360e:	2314      	movs	r3, #20
    3610:	4606      	mov	r6, r0
    3612:	460c      	mov	r4, r1
    3614:	4615      	mov	r5, r2
    3616:	9303      	str	r3, [sp, #12]
    3618:	f7ff fdc6 	bl	31a8 <is_propset_pseudo_handle>
    361c:	b110      	cbz	r0, 3624 <TEE_GetPropertyAsIdentity+0x18>
    361e:	4608      	mov	r0, r1
    3620:	f7ff fd5c 	bl	30dc <__utee_check_instring_annotation>
    3624:	2114      	movs	r1, #20
    3626:	4628      	mov	r0, r5
    3628:	f7ff fd7a 	bl	3120 <__utee_check_out_annotation>
    362c:	aa04      	add	r2, sp, #16
    362e:	2303      	movs	r3, #3
    3630:	4621      	mov	r1, r4
    3632:	4630      	mov	r0, r6
    3634:	f842 3d08 	str.w	r3, [r2, #-8]!
    3638:	ab03      	add	r3, sp, #12
    363a:	9300      	str	r3, [sp, #0]
    363c:	462b      	mov	r3, r5
    363e:	f7ff fe03 	bl	3248 <propget_get_property>
    3642:	9b02      	ldr	r3, [sp, #8]
    3644:	4604      	mov	r4, r0
    3646:	2b03      	cmp	r3, #3
    3648:	d10c      	bne.n	3664 <TEE_GetPropertyAsIdentity+0x58>
    364a:	b140      	cbz	r0, 365e <TEE_GetPropertyAsIdentity+0x52>
    364c:	4b06      	ldr	r3, [pc, #24]	; (3668 <TEE_GetPropertyAsIdentity+0x5c>)
    364e:	4298      	cmp	r0, r3
    3650:	d005      	beq.n	365e <TEE_GetPropertyAsIdentity+0x52>
    3652:	3b03      	subs	r3, #3
    3654:	4298      	cmp	r0, r3
    3656:	d002      	beq.n	365e <TEE_GetPropertyAsIdentity+0x52>
    3658:	2000      	movs	r0, #0
    365a:	f7ff fd21 	bl	30a0 <TEE_Panic>
    365e:	4620      	mov	r0, r4
    3660:	b004      	add	sp, #16
    3662:	bd70      	pop	{r4, r5, r6, pc}
    3664:	4c01      	ldr	r4, [pc, #4]	; (366c <TEE_GetPropertyAsIdentity+0x60>)
    3666:	e7fa      	b.n	365e <TEE_GetPropertyAsIdentity+0x52>
    3668:	ffff0008 	.word	0xffff0008
    366c:	ffff0005 	.word	0xffff0005

00003670 <TEE_ResetPropertyEnumerator>:
    3670:	f04f 33ff 	mov.w	r3, #4294967295	; 0xffffffff
    3674:	6003      	str	r3, [r0, #0]
    3676:	4770      	bx	lr

00003678 <TEE_AllocatePropertyEnumerator>:
    3678:	b510      	push	{r4, lr}
    367a:	2104      	movs	r1, #4
    367c:	4604      	mov	r4, r0
    367e:	f7ff fd4f 	bl	3120 <__utee_check_out_annotation>
    3682:	f04f 4100 	mov.w	r1, #2147483648	; 0x80000000
    3686:	2008      	movs	r0, #8
    3688:	f001 f80f 	bl	46aa <TEE_Malloc>
    368c:	b120      	cbz	r0, 3698 <TEE_AllocatePropertyEnumerator+0x20>
    368e:	6020      	str	r0, [r4, #0]
    3690:	f7ff ffee 	bl	3670 <TEE_ResetPropertyEnumerator>
    3694:	2000      	movs	r0, #0
    3696:	bd10      	pop	{r4, pc}
    3698:	4800      	ldr	r0, [pc, #0]	; (369c <TEE_AllocatePropertyEnumerator+0x24>)
    369a:	bd10      	pop	{r4, pc}
    369c:	ffff000c 	.word	0xffff000c

000036a0 <TEE_FreePropertyEnumerator>:
    36a0:	f001 b82a 	b.w	46f8 <TEE_Free>

000036a4 <TEE_StartPropertyEnumerator>:
    36a4:	b110      	cbz	r0, 36ac <TEE_StartPropertyEnumerator+0x8>
    36a6:	2300      	movs	r3, #0
    36a8:	6003      	str	r3, [r0, #0]
    36aa:	6041      	str	r1, [r0, #4]
    36ac:	4770      	bx	lr

000036ae <TEE_GetPropertyName>:
    36ae:	b5f0      	push	{r4, r5, r6, r7, lr}
    36b0:	460f      	mov	r7, r1
    36b2:	b087      	sub	sp, #28
    36b4:	4615      	mov	r5, r2
    36b6:	4606      	mov	r6, r0
    36b8:	2800      	cmp	r0, #0
    36ba:	d035      	beq.n	3728 <TEE_GetPropertyName+0x7a>
    36bc:	4611      	mov	r1, r2
    36be:	4638      	mov	r0, r7
    36c0:	f7ff fd18 	bl	30f4 <__utee_check_outstring_annotation>
    36c4:	aa05      	add	r2, sp, #20
    36c6:	a904      	add	r1, sp, #16
    36c8:	6870      	ldr	r0, [r6, #4]
    36ca:	f7ff fd45 	bl	3158 <propset_get>
    36ce:	4604      	mov	r4, r0
    36d0:	b998      	cbnz	r0, 36fa <TEE_GetPropertyName+0x4c>
    36d2:	6830      	ldr	r0, [r6, #0]
    36d4:	9905      	ldr	r1, [sp, #20]
    36d6:	4288      	cmp	r0, r1
    36d8:	d21b      	bcs.n	3712 <TEE_GetPropertyName+0x64>
    36da:	210c      	movs	r1, #12
    36dc:	9b04      	ldr	r3, [sp, #16]
    36de:	682a      	ldr	r2, [r5, #0]
    36e0:	4348      	muls	r0, r1
    36e2:	5819      	ldr	r1, [r3, r0]
    36e4:	4638      	mov	r0, r7
    36e6:	f005 fe44 	bl	9372 <strlcpy>
    36ea:	682a      	ldr	r2, [r5, #0]
    36ec:	3001      	adds	r0, #1
    36ee:	4b0f      	ldr	r3, [pc, #60]	; (372c <TEE_GetPropertyName+0x7e>)
    36f0:	6028      	str	r0, [r5, #0]
    36f2:	4290      	cmp	r0, r2
    36f4:	bf88      	it	hi
    36f6:	461c      	movhi	r4, r3
    36f8:	b144      	cbz	r4, 370c <TEE_GetPropertyName+0x5e>
    36fa:	4b0d      	ldr	r3, [pc, #52]	; (3730 <TEE_GetPropertyName+0x82>)
    36fc:	429c      	cmp	r4, r3
    36fe:	d005      	beq.n	370c <TEE_GetPropertyName+0x5e>
    3700:	3308      	adds	r3, #8
    3702:	429c      	cmp	r4, r3
    3704:	d002      	beq.n	370c <TEE_GetPropertyName+0x5e>
    3706:	2000      	movs	r0, #0
    3708:	f7ff fcca 	bl	30a0 <TEE_Panic>
    370c:	4620      	mov	r0, r4
    370e:	b007      	add	sp, #28
    3710:	bdf0      	pop	{r4, r5, r6, r7, pc}
    3712:	9400      	str	r4, [sp, #0]
    3714:	1a41      	subs	r1, r0, r1
    3716:	462b      	mov	r3, r5
    3718:	9401      	str	r4, [sp, #4]
    371a:	463a      	mov	r2, r7
    371c:	9402      	str	r4, [sp, #8]
    371e:	6870      	ldr	r0, [r6, #4]
    3720:	f000 e866 	blx	37f0 <_utee_get_property>
    3724:	4604      	mov	r4, r0
    3726:	e7e7      	b.n	36f8 <TEE_GetPropertyName+0x4a>
    3728:	4c02      	ldr	r4, [pc, #8]	; (3734 <TEE_GetPropertyName+0x86>)
    372a:	e7ec      	b.n	3706 <TEE_GetPropertyName+0x58>
    372c:	ffff0010 	.word	0xffff0010
    3730:	ffff0008 	.word	0xffff0008
    3734:	ffff0006 	.word	0xffff0006

00003738 <TEE_GetNextProperty>:
    3738:	b530      	push	{r4, r5, lr}
    373a:	4605      	mov	r5, r0
    373c:	b087      	sub	sp, #28
    373e:	b348      	cbz	r0, 3794 <TEE_GetNextProperty+0x5c>
    3740:	6803      	ldr	r3, [r0, #0]
    3742:	3301      	adds	r3, #1
    3744:	d103      	bne.n	374e <TEE_GetNextProperty+0x16>
    3746:	4c14      	ldr	r4, [pc, #80]	; (3798 <TEE_GetNextProperty+0x60>)
    3748:	4620      	mov	r0, r4
    374a:	b007      	add	sp, #28
    374c:	bd30      	pop	{r4, r5, pc}
    374e:	aa05      	add	r2, sp, #20
    3750:	a904      	add	r1, sp, #16
    3752:	6840      	ldr	r0, [r0, #4]
    3754:	f7ff fd00 	bl	3158 <propset_get>
    3758:	4604      	mov	r4, r0
    375a:	b9c8      	cbnz	r0, 3790 <TEE_GetNextProperty+0x58>
    375c:	6829      	ldr	r1, [r5, #0]
    375e:	9805      	ldr	r0, [sp, #20]
    3760:	3101      	adds	r1, #1
    3762:	4281      	cmp	r1, r0
    3764:	6029      	str	r1, [r5, #0]
    3766:	d3ef      	bcc.n	3748 <TEE_GetNextProperty+0x10>
    3768:	1a09      	subs	r1, r1, r0
    376a:	9400      	str	r4, [sp, #0]
    376c:	4623      	mov	r3, r4
    376e:	9401      	str	r4, [sp, #4]
    3770:	4622      	mov	r2, r4
    3772:	9402      	str	r4, [sp, #8]
    3774:	6868      	ldr	r0, [r5, #4]
    3776:	f000 e83c 	blx	37f0 <_utee_get_property>
    377a:	4605      	mov	r5, r0
    377c:	2800      	cmp	r0, #0
    377e:	d0e3      	beq.n	3748 <TEE_GetNextProperty+0x10>
    3780:	4b05      	ldr	r3, [pc, #20]	; (3798 <TEE_GetNextProperty+0x60>)
    3782:	429d      	cmp	r5, r3
    3784:	d0df      	beq.n	3746 <TEE_GetNextProperty+0xe>
    3786:	2000      	movs	r0, #0
    3788:	462c      	mov	r4, r5
    378a:	f7ff fc89 	bl	30a0 <TEE_Panic>
    378e:	e7db      	b.n	3748 <TEE_GetNextProperty+0x10>
    3790:	4605      	mov	r5, r0
    3792:	e7f5      	b.n	3780 <TEE_GetNextProperty+0x48>
    3794:	4d01      	ldr	r5, [pc, #4]	; (379c <TEE_GetNextProperty+0x64>)
    3796:	e7f6      	b.n	3786 <TEE_GetNextProperty+0x4e>
    3798:	ffff0008 	.word	0xffff0008
    379c:	ffff0006 	.word	0xffff0006

000037a0 <_utee_panic>:
    37a0:	e92d4fff 	push	{r0, r1, r2, r3, r4, r5, r6, r7, r8, r9, sl, fp, lr}
    37a4:	e1a0e00f 	mov	lr, pc
    37a8:	e52de004 	push	{lr}		; (str lr, [sp, #-4]!)
    37ac:	e1a0100d 	mov	r1, sp
    37b0:	eb000009 	bl	37dc <__utee_panic>

000037b4 <_utee_return>:
    37b4:	e92d40e0 	push	{r5, r6, r7, lr}
    37b8:	e3a07000 	mov	r7, #0
    37bc:	e3a06000 	mov	r6, #0
    37c0:	ef000000 	svc	0x00000000
    37c4:	e8bd80e0 	pop	{r5, r6, r7, pc}

000037c8 <_utee_log>:
    37c8:	e92d40e0 	push	{r5, r6, r7, lr}
    37cc:	e3a07001 	mov	r7, #1
    37d0:	e3a06000 	mov	r6, #0
    37d4:	ef000000 	svc	0x00000000
    37d8:	e8bd80e0 	pop	{r5, r6, r7, pc}

000037dc <__utee_panic>:
    37dc:	e92d40e0 	push	{r5, r6, r7, lr}
    37e0:	e3a07002 	mov	r7, #2
    37e4:	e3a06000 	mov	r6, #0
    37e8:	ef000000 	svc	0x00000000
    37ec:	e8bd80e0 	pop	{r5, r6, r7, pc}

000037f0 <_utee_get_property>:
    37f0:	e92d40e0 	push	{r5, r6, r7, lr}
    37f4:	e3a07003 	mov	r7, #3
    37f8:	e3a06003 	mov	r6, #3
    37fc:	e28d5010 	add	r5, sp, #16
    3800:	ef000000 	svc	0x00000000
    3804:	e8bd80e0 	pop	{r5, r6, r7, pc}

00003808 <_utee_get_property_name_to_index>:
    3808:	e92d40e0 	push	{r5, r6, r7, lr}
    380c:	e3a07004 	mov	r7, #4
    3810:	e3a06000 	mov	r6, #0
    3814:	ef000000 	svc	0x00000000
    3818:	e8bd80e0 	pop	{r5, r6, r7, pc}

0000381c <_utee_open_ta_session>:
    381c:	e92d40e0 	push	{r5, r6, r7, lr}
    3820:	e3a07005 	mov	r7, #5
    3824:	e3a06001 	mov	r6, #1
    3828:	e28d5010 	add	r5, sp, #16
    382c:	ef000000 	svc	0x00000000
    3830:	e8bd80e0 	pop	{r5, r6, r7, pc}

00003834 <_utee_close_ta_session>:
    3834:	e92d40e0 	push	{r5, r6, r7, lr}
    3838:	e3a07006 	mov	r7, #6
    383c:	e3a06000 	mov	r6, #0
    3840:	ef000000 	svc	0x00000000
    3844:	e8bd80e0 	pop	{r5, r6, r7, pc}

00003848 <_utee_invoke_ta_command>:
    3848:	e92d40e0 	push	{r5, r6, r7, lr}
    384c:	e3a07007 	mov	r7, #7
    3850:	e3a06001 	mov	r6, #1
    3854:	e28d5010 	add	r5, sp, #16
    3858:	ef000000 	svc	0x00000000
    385c:	e8bd80e0 	pop	{r5, r6, r7, pc}

00003860 <_utee_get_cancellation_flag>:
    3860:	e92d40e0 	push	{r5, r6, r7, lr}
    3864:	e3a07009 	mov	r7, #9
    3868:	e3a06000 	mov	r6, #0
    386c:	ef000000 	svc	0x00000000
    3870:	e8bd80e0 	pop	{r5, r6, r7, pc}

00003874 <_utee_check_access_rights>:
    3874:	e92d40e0 	push	{r5, r6, r7, lr}
    3878:	e3a07008 	mov	r7, #8
    387c:	e3a06000 	mov	r6, #0
    3880:	ef000000 	svc	0x00000000
    3884:	e8bd80e0 	pop	{r5, r6, r7, pc}

00003888 <_utee_unmask_cancellation>:
    3888:	e92d40e0 	push	{r5, r6, r7, lr}
    388c:	e3a0700a 	mov	r7, #10
    3890:	e3a06000 	mov	r6, #0
    3894:	ef000000 	svc	0x00000000
    3898:	e8bd80e0 	pop	{r5, r6, r7, pc}

0000389c <_utee_mask_cancellation>:
    389c:	e92d40e0 	push	{r5, r6, r7, lr}
    38a0:	e3a0700b 	mov	r7, #11
    38a4:	e3a06000 	mov	r6, #0
    38a8:	ef000000 	svc	0x00000000
    38ac:	e8bd80e0 	pop	{r5, r6, r7, pc}

000038b0 <_utee_wait>:
    38b0:	e92d40e0 	push	{r5, r6, r7, lr}
    38b4:	e3a0700c 	mov	r7, #12
    38b8:	e3a06000 	mov	r6, #0
    38bc:	ef000000 	svc	0x00000000
    38c0:	e8bd80e0 	pop	{r5, r6, r7, pc}

000038c4 <_utee_get_time>:
    38c4:	e92d40e0 	push	{r5, r6, r7, lr}
    38c8:	e3a0700d 	mov	r7, #13
    38cc:	e3a06000 	mov	r6, #0
    38d0:	ef000000 	svc	0x00000000
    38d4:	e8bd80e0 	pop	{r5, r6, r7, pc}

000038d8 <_utee_set_ta_time>:
    38d8:	e92d40e0 	push	{r5, r6, r7, lr}
    38dc:	e3a0700e 	mov	r7, #14
    38e0:	e3a06000 	mov	r6, #0
    38e4:	ef000000 	svc	0x00000000
    38e8:	e8bd80e0 	pop	{r5, r6, r7, pc}

000038ec <_utee_cryp_state_alloc>:
    38ec:	e92d40e0 	push	{r5, r6, r7, lr}
    38f0:	e3a0700f 	mov	r7, #15
    38f4:	e3a06001 	mov	r6, #1
    38f8:	e28d5010 	add	r5, sp, #16
    38fc:	ef000000 	svc	0x00000000
    3900:	e8bd80e0 	pop	{r5, r6, r7, pc}

00003904 <_utee_cryp_state_copy>:
    3904:	e92d40e0 	push	{r5, r6, r7, lr}
    3908:	e3a07010 	mov	r7, #16
    390c:	e3a06000 	mov	r6, #0
    3910:	ef000000 	svc	0x00000000
    3914:	e8bd80e0 	pop	{r5, r6, r7, pc}

00003918 <_utee_cryp_state_free>:
    3918:	e92d40e0 	push	{r5, r6, r7, lr}
    391c:	e3a07011 	mov	r7, #17
    3920:	e3a06000 	mov	r6, #0
    3924:	ef000000 	svc	0x00000000
    3928:	e8bd80e0 	pop	{r5, r6, r7, pc}

0000392c <_utee_hash_init>:
    392c:	e92d40e0 	push	{r5, r6, r7, lr}
    3930:	e3a07012 	mov	r7, #18
    3934:	e3a06000 	mov	r6, #0
    3938:	ef000000 	svc	0x00000000
    393c:	e8bd80e0 	pop	{r5, r6, r7, pc}

00003940 <_utee_hash_update>:
    3940:	e92d40e0 	push	{r5, r6, r7, lr}
    3944:	e3a07013 	mov	r7, #19
    3948:	e3a06000 	mov	r6, #0
    394c:	ef000000 	svc	0x00000000
    3950:	e8bd80e0 	pop	{r5, r6, r7, pc}

00003954 <_utee_hash_final>:
    3954:	e92d40e0 	push	{r5, r6, r7, lr}
    3958:	e3a07014 	mov	r7, #20
    395c:	e3a06001 	mov	r6, #1
    3960:	e28d5010 	add	r5, sp, #16
    3964:	ef000000 	svc	0x00000000
    3968:	e8bd80e0 	pop	{r5, r6, r7, pc}

0000396c <_utee_cipher_init>:
    396c:	e92d40e0 	push	{r5, r6, r7, lr}
    3970:	e3a07015 	mov	r7, #21
    3974:	e3a06000 	mov	r6, #0
    3978:	ef000000 	svc	0x00000000
    397c:	e8bd80e0 	pop	{r5, r6, r7, pc}

00003980 <_utee_cipher_update>:
    3980:	e92d40e0 	push	{r5, r6, r7, lr}
    3984:	e3a07016 	mov	r7, #22
    3988:	e3a06001 	mov	r6, #1
    398c:	e28d5010 	add	r5, sp, #16
    3990:	ef000000 	svc	0x00000000
    3994:	e8bd80e0 	pop	{r5, r6, r7, pc}

00003998 <_utee_cipher_final>:
    3998:	e92d40e0 	push	{r5, r6, r7, lr}
    399c:	e3a07017 	mov	r7, #23
    39a0:	e3a06001 	mov	r6, #1
    39a4:	e28d5010 	add	r5, sp, #16
    39a8:	ef000000 	svc	0x00000000
    39ac:	e8bd80e0 	pop	{r5, r6, r7, pc}

000039b0 <_utee_cryp_obj_get_info>:
    39b0:	e92d40e0 	push	{r5, r6, r7, lr}
    39b4:	e3a07018 	mov	r7, #24
    39b8:	e3a06000 	mov	r6, #0
    39bc:	ef000000 	svc	0x00000000
    39c0:	e8bd80e0 	pop	{r5, r6, r7, pc}

000039c4 <_utee_cryp_obj_restrict_usage>:
    39c4:	e92d40e0 	push	{r5, r6, r7, lr}
    39c8:	e3a07019 	mov	r7, #25
    39cc:	e3a06000 	mov	r6, #0
    39d0:	ef000000 	svc	0x00000000
    39d4:	e8bd80e0 	pop	{r5, r6, r7, pc}

000039d8 <_utee_cryp_obj_get_attr>:
    39d8:	e92d40e0 	push	{r5, r6, r7, lr}
    39dc:	e3a0701a 	mov	r7, #26
    39e0:	e3a06000 	mov	r6, #0
    39e4:	ef000000 	svc	0x00000000
    39e8:	e8bd80e0 	pop	{r5, r6, r7, pc}

000039ec <_utee_cryp_obj_alloc>:
    39ec:	e92d40e0 	push	{r5, r6, r7, lr}
    39f0:	e3a0701b 	mov	r7, #27
    39f4:	e3a06000 	mov	r6, #0
    39f8:	ef000000 	svc	0x00000000
    39fc:	e8bd80e0 	pop	{r5, r6, r7, pc}

00003a00 <_utee_cryp_obj_close>:
    3a00:	e92d40e0 	push	{r5, r6, r7, lr}
    3a04:	e3a0701c 	mov	r7, #28
    3a08:	e3a06000 	mov	r6, #0
    3a0c:	ef000000 	svc	0x00000000
    3a10:	e8bd80e0 	pop	{r5, r6, r7, pc}

00003a14 <_utee_cryp_obj_reset>:
    3a14:	e92d40e0 	push	{r5, r6, r7, lr}
    3a18:	e3a0701d 	mov	r7, #29
    3a1c:	e3a06000 	mov	r6, #0
    3a20:	ef000000 	svc	0x00000000
    3a24:	e8bd80e0 	pop	{r5, r6, r7, pc}

00003a28 <_utee_cryp_obj_populate>:
    3a28:	e92d40e0 	push	{r5, r6, r7, lr}
    3a2c:	e3a0701e 	mov	r7, #30
    3a30:	e3a06000 	mov	r6, #0
    3a34:	ef000000 	svc	0x00000000
    3a38:	e8bd80e0 	pop	{r5, r6, r7, pc}

00003a3c <_utee_cryp_obj_copy>:
    3a3c:	e92d40e0 	push	{r5, r6, r7, lr}
    3a40:	e3a0701f 	mov	r7, #31
    3a44:	e3a06000 	mov	r6, #0
    3a48:	ef000000 	svc	0x00000000
    3a4c:	e8bd80e0 	pop	{r5, r6, r7, pc}

00003a50 <_utee_cryp_derive_key>:
    3a50:	e92d40e0 	push	{r5, r6, r7, lr}
    3a54:	e3a07020 	mov	r7, #32
    3a58:	e3a06000 	mov	r6, #0
    3a5c:	ef000000 	svc	0x00000000
    3a60:	e8bd80e0 	pop	{r5, r6, r7, pc}

00003a64 <_utee_cryp_random_number_generate>:
    3a64:	e92d40e0 	push	{r5, r6, r7, lr}
    3a68:	e3a07021 	mov	r7, #33	; 0x21
    3a6c:	e3a06000 	mov	r6, #0
    3a70:	ef000000 	svc	0x00000000
    3a74:	e8bd80e0 	pop	{r5, r6, r7, pc}

00003a78 <_utee_authenc_init>:
    3a78:	e92d40e0 	push	{r5, r6, r7, lr}
    3a7c:	e3a07022 	mov	r7, #34	; 0x22
    3a80:	e3a06002 	mov	r6, #2
    3a84:	e28d5010 	add	r5, sp, #16
    3a88:	ef000000 	svc	0x00000000
    3a8c:	e8bd80e0 	pop	{r5, r6, r7, pc}

00003a90 <_utee_authenc_update_aad>:
    3a90:	e92d40e0 	push	{r5, r6, r7, lr}
    3a94:	e3a07023 	mov	r7, #35	; 0x23
    3a98:	e3a06000 	mov	r6, #0
    3a9c:	ef000000 	svc	0x00000000
    3aa0:	e8bd80e0 	pop	{r5, r6, r7, pc}

00003aa4 <_utee_authenc_update_payload>:
    3aa4:	e92d40e0 	push	{r5, r6, r7, lr}
    3aa8:	e3a07024 	mov	r7, #36	; 0x24
    3aac:	e3a06001 	mov	r6, #1
    3ab0:	e28d5010 	add	r5, sp, #16
    3ab4:	ef000000 	svc	0x00000000
    3ab8:	e8bd80e0 	pop	{r5, r6, r7, pc}

00003abc <_utee_authenc_enc_final>:
    3abc:	e92d40e0 	push	{r5, r6, r7, lr}
    3ac0:	e3a07025 	mov	r7, #37	; 0x25
    3ac4:	e3a06003 	mov	r6, #3
    3ac8:	e28d5010 	add	r5, sp, #16
    3acc:	ef000000 	svc	0x00000000
    3ad0:	e8bd80e0 	pop	{r5, r6, r7, pc}

00003ad4 <_utee_authenc_dec_final>:
    3ad4:	e92d40e0 	push	{r5, r6, r7, lr}
    3ad8:	e3a07026 	mov	r7, #38	; 0x26
    3adc:	e3a06003 	mov	r6, #3
    3ae0:	e28d5010 	add	r5, sp, #16
    3ae4:	ef000000 	svc	0x00000000
    3ae8:	e8bd80e0 	pop	{r5, r6, r7, pc}

00003aec <_utee_asymm_operate>:
    3aec:	e92d40e0 	push	{r5, r6, r7, lr}
    3af0:	e3a07027 	mov	r7, #39	; 0x27
    3af4:	e3a06003 	mov	r6, #3
    3af8:	e28d5010 	add	r5, sp, #16
    3afc:	ef000000 	svc	0x00000000
    3b00:	e8bd80e0 	pop	{r5, r6, r7, pc}

00003b04 <_utee_asymm_verify>:
    3b04:	e92d40e0 	push	{r5, r6, r7, lr}
    3b08:	e3a07028 	mov	r7, #40	; 0x28
    3b0c:	e3a06003 	mov	r6, #3
    3b10:	e28d5010 	add	r5, sp, #16
    3b14:	ef000000 	svc	0x00000000
    3b18:	e8bd80e0 	pop	{r5, r6, r7, pc}

00003b1c <_utee_storage_obj_open>:
    3b1c:	e92d40e0 	push	{r5, r6, r7, lr}
    3b20:	e3a07029 	mov	r7, #41	; 0x29
    3b24:	e3a06001 	mov	r6, #1
    3b28:	e28d5010 	add	r5, sp, #16
    3b2c:	ef000000 	svc	0x00000000
    3b30:	e8bd80e0 	pop	{r5, r6, r7, pc}

00003b34 <_utee_storage_obj_create>:
    3b34:	e92d40e0 	push	{r5, r6, r7, lr}
    3b38:	e3a0702a 	mov	r7, #42	; 0x2a
    3b3c:	e3a06004 	mov	r6, #4
    3b40:	e28d5010 	add	r5, sp, #16
    3b44:	ef000000 	svc	0x00000000
    3b48:	e8bd80e0 	pop	{r5, r6, r7, pc}

00003b4c <_utee_storage_obj_del>:
    3b4c:	e92d40e0 	push	{r5, r6, r7, lr}
    3b50:	e3a0702b 	mov	r7, #43	; 0x2b
    3b54:	e3a06000 	mov	r6, #0
    3b58:	ef000000 	svc	0x00000000
    3b5c:	e8bd80e0 	pop	{r5, r6, r7, pc}

00003b60 <_utee_storage_obj_rename>:
    3b60:	e92d40e0 	push	{r5, r6, r7, lr}
    3b64:	e3a0702c 	mov	r7, #44	; 0x2c
    3b68:	e3a06000 	mov	r6, #0
    3b6c:	ef000000 	svc	0x00000000
    3b70:	e8bd80e0 	pop	{r5, r6, r7, pc}

00003b74 <_utee_storage_alloc_enum>:
    3b74:	e92d40e0 	push	{r5, r6, r7, lr}
    3b78:	e3a0702d 	mov	r7, #45	; 0x2d
    3b7c:	e3a06000 	mov	r6, #0
    3b80:	ef000000 	svc	0x00000000
    3b84:	e8bd80e0 	pop	{r5, r6, r7, pc}

00003b88 <_utee_storage_free_enum>:
    3b88:	e92d40e0 	push	{r5, r6, r7, lr}
    3b8c:	e3a0702e 	mov	r7, #46	; 0x2e
    3b90:	e3a06000 	mov	r6, #0
    3b94:	ef000000 	svc	0x00000000
    3b98:	e8bd80e0 	pop	{r5, r6, r7, pc}

00003b9c <_utee_storage_reset_enum>:
    3b9c:	e92d40e0 	push	{r5, r6, r7, lr}
    3ba0:	e3a0702f 	mov	r7, #47	; 0x2f
    3ba4:	e3a06000 	mov	r6, #0
    3ba8:	ef000000 	svc	0x00000000
    3bac:	e8bd80e0 	pop	{r5, r6, r7, pc}

00003bb0 <_utee_storage_start_enum>:
    3bb0:	e92d40e0 	push	{r5, r6, r7, lr}
    3bb4:	e3a07030 	mov	r7, #48	; 0x30
    3bb8:	e3a06000 	mov	r6, #0
    3bbc:	ef000000 	svc	0x00000000
    3bc0:	e8bd80e0 	pop	{r5, r6, r7, pc}

00003bc4 <_utee_storage_next_enum>:
    3bc4:	e92d40e0 	push	{r5, r6, r7, lr}
    3bc8:	e3a07031 	mov	r7, #49	; 0x31
    3bcc:	e3a06000 	mov	r6, #0
    3bd0:	ef000000 	svc	0x00000000
    3bd4:	e8bd80e0 	pop	{r5, r6, r7, pc}

00003bd8 <_utee_storage_obj_read>:
    3bd8:	e92d40e0 	push	{r5, r6, r7, lr}
    3bdc:	e3a07032 	mov	r7, #50	; 0x32
    3be0:	e3a06000 	mov	r6, #0
    3be4:	ef000000 	svc	0x00000000
    3be8:	e8bd80e0 	pop	{r5, r6, r7, pc}

00003bec <_utee_storage_obj_write>:
    3bec:	e92d40e0 	push	{r5, r6, r7, lr}
    3bf0:	e3a07033 	mov	r7, #51	; 0x33
    3bf4:	e3a06000 	mov	r6, #0
    3bf8:	ef000000 	svc	0x00000000
    3bfc:	e8bd80e0 	pop	{r5, r6, r7, pc}

00003c00 <_utee_storage_obj_trunc>:
    3c00:	e92d40e0 	push	{r5, r6, r7, lr}
    3c04:	e3a07034 	mov	r7, #52	; 0x34
    3c08:	e3a06000 	mov	r6, #0
    3c0c:	ef000000 	svc	0x00000000
    3c10:	e8bd80e0 	pop	{r5, r6, r7, pc}

00003c14 <_utee_storage_obj_seek>:
    3c14:	e92d40e0 	push	{r5, r6, r7, lr}
    3c18:	e3a07035 	mov	r7, #53	; 0x35
    3c1c:	e3a06000 	mov	r6, #0
    3c20:	ef000000 	svc	0x00000000
    3c24:	e8bd80e0 	pop	{r5, r6, r7, pc}

00003c28 <_utee_cryp_obj_generate_key>:
    3c28:	e92d40e0 	push	{r5, r6, r7, lr}
    3c2c:	e3a07036 	mov	r7, #54	; 0x36
    3c30:	e3a06000 	mov	r6, #0
    3c34:	ef000000 	svc	0x00000000
    3c38:	e8bd80e0 	pop	{r5, r6, r7, pc}

00003c3c <_utee_cache_operation>:
    3c3c:	e92d40e0 	push	{r5, r6, r7, lr}
    3c40:	e3a07046 	mov	r7, #70	; 0x46
    3c44:	e3a06000 	mov	r6, #0
    3c48:	ef000000 	svc	0x00000000
    3c4c:	e8bd80e0 	pop	{r5, r6, r7, pc}

00003c50 <_get_fn_array>:
    3c50:	e92d 41f0 	stmdb	sp!, {r4, r5, r6, r7, r8, lr}
    3c54:	4690      	mov	r8, r2
    3c56:	f8b0 c00c 	ldrh.w	ip, [r0, #12]
    3c5a:	2500      	movs	r5, #0
    3c5c:	9f06      	ldr	r7, [sp, #24]
    3c5e:	4565      	cmp	r5, ip
    3c60:	d301      	bcc.n	3c66 <_get_fn_array+0x16>
    3c62:	e8bd 81f0 	ldmia.w	sp!, {r4, r5, r6, r7, r8, pc}
    3c66:	6886      	ldr	r6, [r0, #8]
    3c68:	016c      	lsls	r4, r5, #5
    3c6a:	eb06 0e04 	add.w	lr, r6, r4
    3c6e:	5934      	ldr	r4, [r6, r4]
    3c70:	2c02      	cmp	r4, #2
    3c72:	d001      	beq.n	3c78 <_get_fn_array+0x28>
    3c74:	3501      	adds	r5, #1
    3c76:	e7f2      	b.n	3c5e <_get_fn_array+0xe>
    3c78:	f8de 6008 	ldr.w	r6, [lr, #8]
    3c7c:	6804      	ldr	r4, [r0, #0]
    3c7e:	4434      	add	r4, r6
    3c80:	f8de 6014 	ldr.w	r6, [lr, #20]
    3c84:	f026 0e07 	bic.w	lr, r6, #7
    3c88:	44a6      	add	lr, r4
    3c8a:	4574      	cmp	r4, lr
    3c8c:	d0f2      	beq.n	3c74 <_get_fn_array+0x24>
    3c8e:	681e      	ldr	r6, [r3, #0]
    3c90:	b116      	cbz	r6, 3c98 <_get_fn_array+0x48>
    3c92:	683e      	ldr	r6, [r7, #0]
    3c94:	2e00      	cmp	r6, #0
    3c96:	d1ed      	bne.n	3c74 <_get_fn_array+0x24>
    3c98:	6826      	ldr	r6, [r4, #0]
    3c9a:	2e00      	cmp	r6, #0
    3c9c:	d0ea      	beq.n	3c74 <_get_fn_array+0x24>
    3c9e:	428e      	cmp	r6, r1
    3ca0:	d105      	bne.n	3cae <_get_fn_array+0x5e>
    3ca2:	6806      	ldr	r6, [r0, #0]
    3ca4:	6862      	ldr	r2, [r4, #4]
    3ca6:	4432      	add	r2, r6
    3ca8:	601a      	str	r2, [r3, #0]
    3caa:	3408      	adds	r4, #8
    3cac:	e7ed      	b.n	3c8a <_get_fn_array+0x3a>
    3cae:	4546      	cmp	r6, r8
    3cb0:	bf02      	ittt	eq
    3cb2:	6866      	ldreq	r6, [r4, #4]
    3cb4:	08b6      	lsreq	r6, r6, #2
    3cb6:	603e      	streq	r6, [r7, #0]
    3cb8:	e7f7      	b.n	3caa <_get_fn_array+0x5a>

00003cba <_fini_iterate_phdr_cb>:
    3cba:	b51f      	push	{r0, r1, r2, r3, r4, lr}
    3cbc:	2300      	movs	r3, #0
    3cbe:	221c      	movs	r2, #28
    3cc0:	211a      	movs	r1, #26
    3cc2:	9302      	str	r3, [sp, #8]
    3cc4:	2401      	movs	r4, #1
    3cc6:	9303      	str	r3, [sp, #12]
    3cc8:	ab03      	add	r3, sp, #12
    3cca:	9300      	str	r3, [sp, #0]
    3ccc:	ab02      	add	r3, sp, #8
    3cce:	f7ff ffbf 	bl	3c50 <_get_fn_array>
    3cd2:	9b03      	ldr	r3, [sp, #12]
    3cd4:	429c      	cmp	r4, r3
    3cd6:	d902      	bls.n	3cde <_fini_iterate_phdr_cb+0x24>
    3cd8:	2000      	movs	r0, #0
    3cda:	b004      	add	sp, #16
    3cdc:	bd10      	pop	{r4, pc}
    3cde:	9a02      	ldr	r2, [sp, #8]
    3ce0:	1b1b      	subs	r3, r3, r4
    3ce2:	3401      	adds	r4, #1
    3ce4:	f852 3023 	ldr.w	r3, [r2, r3, lsl #2]
    3ce8:	4798      	blx	r3
    3cea:	e7f2      	b.n	3cd2 <_fini_iterate_phdr_cb+0x18>

00003cec <ta_header_get_session>:
    3cec:	4b05      	ldr	r3, [pc, #20]	; (3d04 <ta_header_get_session+0x18>)
    3cee:	447b      	add	r3, pc
    3cf0:	681b      	ldr	r3, [r3, #0]
    3cf2:	b90b      	cbnz	r3, 3cf8 <ta_header_get_session+0xc>
    3cf4:	4618      	mov	r0, r3
    3cf6:	4770      	bx	lr
    3cf8:	681a      	ldr	r2, [r3, #0]
    3cfa:	4282      	cmp	r2, r0
    3cfc:	d0fa      	beq.n	3cf4 <ta_header_get_session+0x8>
    3cfe:	689b      	ldr	r3, [r3, #8]
    3d00:	e7f7      	b.n	3cf2 <ta_header_get_session+0x6>
    3d02:	bf00      	nop
    3d04:	000085ee 	.word	0x000085ee

00003d08 <to_utee_params>:
    3d08:	2300      	movs	r3, #0
    3d0a:	b5f0      	push	{r4, r5, r6, r7, lr}
    3d0c:	4694      	mov	ip, r2
    3d0e:	4615      	mov	r5, r2
    3d10:	2600      	movs	r6, #0
    3d12:	2700      	movs	r7, #0
    3d14:	e9c0 1300 	strd	r1, r3, [r0]
    3d18:	461a      	mov	r2, r3
    3d1a:	fa21 f403 	lsr.w	r4, r1, r3
    3d1e:	f004 040f 	and.w	r4, r4, #15
    3d22:	3c01      	subs	r4, #1
    3d24:	2c06      	cmp	r4, #6
    3d26:	d813      	bhi.n	3d50 <to_utee_params+0x48>
    3d28:	e8df f004 	tbb	[pc, r4]
    3d2c:	12040404 	.word	0x12040404
    3d30:	0404      	.short	0x0404
    3d32:	04          	.byte	0x04
    3d33:	00          	.byte	0x00
    3d34:	f85c 4013 	ldr.w	r4, [ip, r3, lsl #1]
    3d38:	6084      	str	r4, [r0, #8]
    3d3a:	60c2      	str	r2, [r0, #12]
    3d3c:	686c      	ldr	r4, [r5, #4]
    3d3e:	6104      	str	r4, [r0, #16]
    3d40:	6142      	str	r2, [r0, #20]
    3d42:	3304      	adds	r3, #4
    3d44:	3508      	adds	r5, #8
    3d46:	2b10      	cmp	r3, #16
    3d48:	f100 0010 	add.w	r0, r0, #16
    3d4c:	d1e5      	bne.n	3d1a <to_utee_params+0x12>
    3d4e:	bdf0      	pop	{r4, r5, r6, r7, pc}
    3d50:	e9c0 6702 	strd	r6, r7, [r0, #8]
    3d54:	e9c0 6704 	strd	r6, r7, [r0, #16]
    3d58:	e7f3      	b.n	3d42 <to_utee_params+0x3a>

00003d5a <from_utee_params>:
    3d5a:	b5f0      	push	{r4, r5, r6, r7, lr}
    3d5c:	2300      	movs	r3, #0
    3d5e:	6816      	ldr	r6, [r2, #0]
    3d60:	4605      	mov	r5, r0
    3d62:	fa26 f403 	lsr.w	r4, r6, r3
    3d66:	f8d2 c008 	ldr.w	ip, [r2, #8]
    3d6a:	6917      	ldr	r7, [r2, #16]
    3d6c:	f004 040f 	and.w	r4, r4, #15
    3d70:	3c01      	subs	r4, #1
    3d72:	2c06      	cmp	r4, #6
    3d74:	d808      	bhi.n	3d88 <from_utee_params+0x2e>
    3d76:	e8df f004 	tbb	[pc, r4]
    3d7a:	0404      	.short	0x0404
    3d7c:	04040704 	.word	0x04040704
    3d80:	04          	.byte	0x04
    3d81:	00          	.byte	0x00
    3d82:	f840 c013 	str.w	ip, [r0, r3, lsl #1]
    3d86:	606f      	str	r7, [r5, #4]
    3d88:	3304      	adds	r3, #4
    3d8a:	3210      	adds	r2, #16
    3d8c:	2b10      	cmp	r3, #16
    3d8e:	f105 0508 	add.w	r5, r5, #8
    3d92:	d1e6      	bne.n	3d62 <from_utee_params+0x8>
    3d94:	b101      	cbz	r1, 3d98 <from_utee_params+0x3e>
    3d96:	600e      	str	r6, [r1, #0]
    3d98:	bdf0      	pop	{r4, r5, r6, r7, pc}

00003d9a <_init_iterate_phdr_cb>:
    3d9a:	b5f7      	push	{r0, r1, r2, r4, r5, r6, r7, lr}
    3d9c:	4604      	mov	r4, r0
    3d9e:	2030      	movs	r0, #48	; 0x30
    3da0:	4617      	mov	r7, r2
    3da2:	f004 fffd 	bl	8da0 <malloc>
    3da6:	4606      	mov	r6, r0
    3da8:	b958      	cbnz	r0, 3dc2 <_init_iterate_phdr_cb+0x28>
    3daa:	4b11      	ldr	r3, [pc, #68]	; (3df0 <_init_iterate_phdr_cb+0x56>)
    3dac:	213d      	movs	r1, #61	; 0x3d
    3dae:	4811      	ldr	r0, [pc, #68]	; (3df4 <_init_iterate_phdr_cb+0x5a>)
    3db0:	447b      	add	r3, pc
    3db2:	4478      	add	r0, pc
    3db4:	9300      	str	r3, [sp, #0]
    3db6:	2301      	movs	r3, #1
    3db8:	461a      	mov	r2, r3
    3dba:	f7fc fbdf 	bl	57c <trace_printf>
    3dbe:	f000 f985 	bl	40cc <abort>
    3dc2:	4605      	mov	r5, r0
    3dc4:	cc0f      	ldmia	r4!, {r0, r1, r2, r3}
    3dc6:	c50f      	stmia	r5!, {r0, r1, r2, r3}
    3dc8:	cc0f      	ldmia	r4!, {r0, r1, r2, r3}
    3dca:	c50f      	stmia	r5!, {r0, r1, r2, r3}
    3dcc:	4b0a      	ldr	r3, [pc, #40]	; (3df8 <_init_iterate_phdr_cb+0x5e>)
    3dce:	e894 0003 	ldmia.w	r4, {r0, r1}
    3dd2:	447b      	add	r3, pc
    3dd4:	68da      	ldr	r2, [r3, #12]
    3dd6:	e885 0003 	stmia.w	r5, {r0, r1}
    3dda:	2000      	movs	r0, #0
    3ddc:	62b0      	str	r0, [r6, #40]	; 0x28
    3dde:	62f2      	str	r2, [r6, #44]	; 0x2c
    3de0:	6016      	str	r6, [r2, #0]
    3de2:	3628      	adds	r6, #40	; 0x28
    3de4:	60de      	str	r6, [r3, #12]
    3de6:	683b      	ldr	r3, [r7, #0]
    3de8:	3301      	adds	r3, #1
    3dea:	603b      	str	r3, [r7, #0]
    3dec:	b003      	add	sp, #12
    3dee:	bdf0      	pop	{r4, r5, r6, r7, pc}
    3df0:	00005db1 	.word	0x00005db1
    3df4:	00005d99 	.word	0x00005d99
    3df8:	0000850a 	.word	0x0000850a

00003dfc <__utee_call_elf_init_fn>:
    3dfc:	4828      	ldr	r0, [pc, #160]	; (3ea0 <__utee_call_elf_init_fn+0xa4>)
    3dfe:	e92d 43f0 	stmdb	sp!, {r4, r5, r6, r7, r8, r9, lr}
    3e02:	2400      	movs	r4, #0
    3e04:	b087      	sub	sp, #28
    3e06:	4f27      	ldr	r7, [pc, #156]	; (3ea4 <__utee_call_elf_init_fn+0xa8>)
    3e08:	a904      	add	r1, sp, #16
    3e0a:	f10d 080c 	add.w	r8, sp, #12
    3e0e:	4478      	add	r0, pc
    3e10:	9403      	str	r4, [sp, #12]
    3e12:	f10d 0914 	add.w	r9, sp, #20
    3e16:	9404      	str	r4, [sp, #16]
    3e18:	9405      	str	r4, [sp, #20]
    3e1a:	447f      	add	r7, pc
    3e1c:	f001 fece 	bl	5bbc <dl_iterate_phdr>
    3e20:	4b21      	ldr	r3, [pc, #132]	; (3ea8 <__utee_call_elf_init_fn+0xac>)
    3e22:	447b      	add	r3, pc
    3e24:	68db      	ldr	r3, [r3, #12]
    3e26:	685b      	ldr	r3, [r3, #4]
    3e28:	681e      	ldr	r6, [r3, #0]
    3e2a:	b126      	cbz	r6, 3e36 <__utee_call_elf_init_fn+0x3a>
    3e2c:	683a      	ldr	r2, [r7, #0]
    3e2e:	9b04      	ldr	r3, [sp, #16]
    3e30:	1a9b      	subs	r3, r3, r2
    3e32:	429c      	cmp	r4, r3
    3e34:	d10f      	bne.n	3e56 <__utee_call_elf_init_fn+0x5a>
    3e36:	4a1d      	ldr	r2, [pc, #116]	; (3eac <__utee_call_elf_init_fn+0xb0>)
    3e38:	4d1d      	ldr	r5, [pc, #116]	; (3eb0 <__utee_call_elf_init_fn+0xb4>)
    3e3a:	447a      	add	r2, pc
    3e3c:	6813      	ldr	r3, [r2, #0]
    3e3e:	447d      	add	r5, pc
    3e40:	441c      	add	r4, r3
    3e42:	4b1c      	ldr	r3, [pc, #112]	; (3eb4 <__utee_call_elf_init_fn+0xb8>)
    3e44:	6014      	str	r4, [r2, #0]
    3e46:	447b      	add	r3, pc
    3e48:	6898      	ldr	r0, [r3, #8]
    3e4a:	b328      	cbz	r0, 3e98 <__utee_call_elf_init_fn+0x9c>
    3e4c:	6a84      	ldr	r4, [r0, #40]	; 0x28
    3e4e:	6ac3      	ldr	r3, [r0, #44]	; 0x2c
    3e50:	b9dc      	cbnz	r4, 3e8a <__utee_call_elf_init_fn+0x8e>
    3e52:	60eb      	str	r3, [r5, #12]
    3e54:	e01a      	b.n	3e8c <__utee_call_elf_init_fn+0x90>
    3e56:	4643      	mov	r3, r8
    3e58:	221b      	movs	r2, #27
    3e5a:	f8cd 9000 	str.w	r9, [sp]
    3e5e:	2119      	movs	r1, #25
    3e60:	4630      	mov	r0, r6
    3e62:	2500      	movs	r5, #0
    3e64:	f7ff fef4 	bl	3c50 <_get_fn_array>
    3e68:	9b05      	ldr	r3, [sp, #20]
    3e6a:	429d      	cmp	r5, r3
    3e6c:	d307      	bcc.n	3e7e <__utee_call_elf_init_fn+0x82>
    3e6e:	2300      	movs	r3, #0
    3e70:	3401      	adds	r4, #1
    3e72:	9303      	str	r3, [sp, #12]
    3e74:	9305      	str	r3, [sp, #20]
    3e76:	6af3      	ldr	r3, [r6, #44]	; 0x2c
    3e78:	685b      	ldr	r3, [r3, #4]
    3e7a:	681e      	ldr	r6, [r3, #0]
    3e7c:	e7d5      	b.n	3e2a <__utee_call_elf_init_fn+0x2e>
    3e7e:	9b03      	ldr	r3, [sp, #12]
    3e80:	f853 3025 	ldr.w	r3, [r3, r5, lsl #2]
    3e84:	3501      	adds	r5, #1
    3e86:	4798      	blx	r3
    3e88:	e7ee      	b.n	3e68 <__utee_call_elf_init_fn+0x6c>
    3e8a:	62e3      	str	r3, [r4, #44]	; 0x2c
    3e8c:	6ac3      	ldr	r3, [r0, #44]	; 0x2c
    3e8e:	601c      	str	r4, [r3, #0]
    3e90:	f004 ffe0 	bl	8e54 <free>
    3e94:	4620      	mov	r0, r4
    3e96:	e7d8      	b.n	3e4a <__utee_call_elf_init_fn+0x4e>
    3e98:	b007      	add	sp, #28
    3e9a:	e8bd 83f0 	ldmia.w	sp!, {r4, r5, r6, r7, r8, r9, pc}
    3e9e:	bf00      	nop
    3ea0:	ffffff89 	.word	0xffffff89
    3ea4:	0000853e 	.word	0x0000853e
    3ea8:	000084ba 	.word	0x000084ba
    3eac:	0000851e 	.word	0x0000851e
    3eb0:	0000849e 	.word	0x0000849e
    3eb4:	00008496 	.word	0x00008496

00003eb8 <__utee_call_elf_fini_fn>:
    3eb8:	4802      	ldr	r0, [pc, #8]	; (3ec4 <__utee_call_elf_fini_fn+0xc>)
    3eba:	2100      	movs	r1, #0
    3ebc:	4478      	add	r0, pc
    3ebe:	f001 be7d 	b.w	5bbc <dl_iterate_phdr>
    3ec2:	bf00      	nop
    3ec4:	fffffdfb 	.word	0xfffffdfb

00003ec8 <ta_header_remove_session>:
    3ec8:	4b15      	ldr	r3, [pc, #84]	; (3f20 <ta_header_remove_session+0x58>)
    3eca:	b510      	push	{r4, lr}
    3ecc:	4c15      	ldr	r4, [pc, #84]	; (3f24 <ta_header_remove_session+0x5c>)
    3ece:	447b      	add	r3, pc
    3ed0:	681b      	ldr	r3, [r3, #0]
    3ed2:	447c      	add	r4, pc
    3ed4:	b903      	cbnz	r3, 3ed8 <ta_header_remove_session+0x10>
    3ed6:	bd10      	pop	{r4, pc}
    3ed8:	681a      	ldr	r2, [r3, #0]
    3eda:	4282      	cmp	r2, r0
    3edc:	689a      	ldr	r2, [r3, #8]
    3ede:	d11d      	bne.n	3f1c <ta_header_remove_session+0x54>
    3ee0:	68d9      	ldr	r1, [r3, #12]
    3ee2:	b1ba      	cbz	r2, 3f14 <ta_header_remove_session+0x4c>
    3ee4:	60d1      	str	r1, [r2, #12]
    3ee6:	68d9      	ldr	r1, [r3, #12]
    3ee8:	4618      	mov	r0, r3
    3eea:	600a      	str	r2, [r1, #0]
    3eec:	f000 fc04 	bl	46f8 <TEE_Free>
    3ef0:	4b0d      	ldr	r3, [pc, #52]	; (3f28 <ta_header_remove_session+0x60>)
    3ef2:	447b      	add	r3, pc
    3ef4:	681b      	ldr	r3, [r3, #0]
    3ef6:	2b00      	cmp	r3, #0
    3ef8:	d1ed      	bne.n	3ed6 <ta_header_remove_session+0xe>
    3efa:	4b0c      	ldr	r3, [pc, #48]	; (3f2c <ta_header_remove_session+0x64>)
    3efc:	58e3      	ldr	r3, [r4, r3]
    3efe:	695b      	ldr	r3, [r3, #20]
    3f00:	f003 0314 	and.w	r3, r3, #20
    3f04:	2b14      	cmp	r3, #20
    3f06:	d0e6      	beq.n	3ed6 <ta_header_remove_session+0xe>
    3f08:	f7fc f9b0 	bl	26c <TA_DestroyEntryPoint>
    3f0c:	e8bd 4010 	ldmia.w	sp!, {r4, lr}
    3f10:	f7ff bfd2 	b.w	3eb8 <__utee_call_elf_fini_fn>
    3f14:	4806      	ldr	r0, [pc, #24]	; (3f30 <ta_header_remove_session+0x68>)
    3f16:	4478      	add	r0, pc
    3f18:	6041      	str	r1, [r0, #4]
    3f1a:	e7e4      	b.n	3ee6 <ta_header_remove_session+0x1e>
    3f1c:	4613      	mov	r3, r2
    3f1e:	e7d9      	b.n	3ed4 <ta_header_remove_session+0xc>
    3f20:	0000840e 	.word	0x0000840e
    3f24:	000081aa 	.word	0x000081aa
    3f28:	000083ea 	.word	0x000083ea
    3f2c:	0000004c 	.word	0x0000004c
    3f30:	000083c6 	.word	0x000083c6

00003f34 <__utee_entry>:
    3f34:	e92d 4ff0 	stmdb	sp!, {r4, r5, r6, r7, r8, r9, sl, fp, lr}
    3f38:	469a      	mov	sl, r3
    3f3a:	4c5d      	ldr	r4, [pc, #372]	; (40b0 <__utee_entry+0x17c>)
    3f3c:	2801      	cmp	r0, #1
    3f3e:	b08d      	sub	sp, #52	; 0x34
    3f40:	4b5c      	ldr	r3, [pc, #368]	; (40b4 <__utee_entry+0x180>)
    3f42:	4689      	mov	r9, r1
    3f44:	4616      	mov	r6, r2
    3f46:	447c      	add	r4, pc
    3f48:	58e7      	ldr	r7, [r4, r3]
    3f4a:	4b5b      	ldr	r3, [pc, #364]	; (40b8 <__utee_entry+0x184>)
    3f4c:	f854 8003 	ldr.w	r8, [r4, r3]
    3f50:	d075      	beq.n	403e <__utee_entry+0x10a>
    3f52:	d307      	bcc.n	3f64 <__utee_entry+0x30>
    3f54:	2802      	cmp	r0, #2
    3f56:	d07f      	beq.n	4058 <__utee_entry+0x124>
    3f58:	2000      	movs	r0, #0
    3f5a:	f04f 34ff 	mov.w	r4, #4294967295	; 0xffffffff
    3f5e:	f7ff f89f 	bl	30a0 <TEE_Panic>
    3f62:	e02a      	b.n	3fba <__utee_entry+0x86>
    3f64:	4608      	mov	r0, r1
    3f66:	f7ff fec1 	bl	3cec <ta_header_get_session>
    3f6a:	2800      	cmp	r0, #0
    3f6c:	d13b      	bne.n	3fe6 <__utee_entry+0xb2>
    3f6e:	4b53      	ldr	r3, [pc, #332]	; (40bc <__utee_entry+0x188>)
    3f70:	447b      	add	r3, pc
    3f72:	791a      	ldrb	r2, [r3, #4]
    3f74:	b13a      	cbz	r2, 3f86 <__utee_entry+0x52>
    3f76:	f04f 4100 	mov.w	r1, #2147483648	; 0x80000000
    3f7a:	2010      	movs	r0, #16
    3f7c:	f000 fb95 	bl	46aa <TEE_Malloc>
    3f80:	bb28      	cbnz	r0, 3fce <__utee_entry+0x9a>
    3f82:	4c49      	ldr	r4, [pc, #292]	; (40a8 <__utee_entry+0x174>)
    3f84:	e019      	b.n	3fba <__utee_entry+0x86>
    3f86:	2201      	movs	r2, #1
    3f88:	711a      	strb	r2, [r3, #4]
    3f8a:	f005 f8e2 	bl	9152 <tahead_get_trace_level>
    3f8e:	f7fc fa3d 	bl	40c <trace_set_level>
    3f92:	4b4b      	ldr	r3, [pc, #300]	; (40c0 <__utee_entry+0x18c>)
    3f94:	4a4b      	ldr	r2, [pc, #300]	; (40c4 <__utee_entry+0x190>)
    3f96:	58e3      	ldr	r3, [r4, r3]
    3f98:	58a2      	ldr	r2, [r4, r2]
    3f9a:	6819      	ldr	r1, [r3, #0]
    3f9c:	4610      	mov	r0, r2
    3f9e:	9201      	str	r2, [sp, #4]
    3fa0:	f004 ff6c 	bl	8e7c <malloc_add_pool>
    3fa4:	f000 fe9e 	bl	4ce4 <_TEE_MathAPI_Init>
    3fa8:	f001 fd42 	bl	5a30 <__utee_tcb_init>
    3fac:	f7ff ff26 	bl	3dfc <__utee_call_elf_init_fn>
    3fb0:	f7fc f95a 	bl	268 <TA_CreateEntryPoint>
    3fb4:	4604      	mov	r4, r0
    3fb6:	2800      	cmp	r0, #0
    3fb8:	d0dd      	beq.n	3f76 <__utee_entry+0x42>
    3fba:	2100      	movs	r1, #0
    3fbc:	2220      	movs	r2, #32
    3fbe:	4640      	mov	r0, r8
    3fc0:	6039      	str	r1, [r7, #0]
    3fc2:	f005 f8c8 	bl	9156 <memset>
    3fc6:	4620      	mov	r0, r4
    3fc8:	b00d      	add	sp, #52	; 0x34
    3fca:	e8bd 8ff0 	ldmia.w	sp!, {r4, r5, r6, r7, r8, r9, sl, fp, pc}
    3fce:	2300      	movs	r3, #0
    3fd0:	f8c0 9000 	str.w	r9, [r0]
    3fd4:	6043      	str	r3, [r0, #4]
    3fd6:	6083      	str	r3, [r0, #8]
    3fd8:	4b3b      	ldr	r3, [pc, #236]	; (40c8 <__utee_entry+0x194>)
    3fda:	447b      	add	r3, pc
    3fdc:	685a      	ldr	r2, [r3, #4]
    3fde:	60c2      	str	r2, [r0, #12]
    3fe0:	6010      	str	r0, [r2, #0]
    3fe2:	3008      	adds	r0, #8
    3fe4:	6058      	str	r0, [r3, #4]
    3fe6:	4648      	mov	r0, r9
    3fe8:	f7ff fe80 	bl	3cec <ta_header_get_session>
    3fec:	4683      	mov	fp, r0
    3fee:	b908      	cbnz	r0, 3ff4 <__utee_entry+0xc0>
    3ff0:	4c2e      	ldr	r4, [pc, #184]	; (40ac <__utee_entry+0x178>)
    3ff2:	e7e2      	b.n	3fba <__utee_entry+0x86>
    3ff4:	f10d 0a10 	add.w	sl, sp, #16
    3ff8:	4632      	mov	r2, r6
    3ffa:	a903      	add	r1, sp, #12
    3ffc:	4650      	mov	r0, sl
    3ffe:	4655      	mov	r5, sl
    4000:	4644      	mov	r4, r8
    4002:	f7ff feaa 	bl	3d5a <from_utee_params>
    4006:	cd0f      	ldmia	r5!, {r0, r1, r2, r3}
    4008:	f8dd c00c 	ldr.w	ip, [sp, #12]
    400c:	c40f      	stmia	r4!, {r0, r1, r2, r3}
    400e:	e895 000f 	ldmia.w	r5, {r0, r1, r2, r3}
    4012:	f8c7 c000 	str.w	ip, [r7]
    4016:	e884 000f 	stmia.w	r4, {r0, r1, r2, r3}
    401a:	f10b 0204 	add.w	r2, fp, #4
    401e:	4651      	mov	r1, sl
    4020:	4660      	mov	r0, ip
    4022:	f7fc f924 	bl	26e <TA_OpenSessionEntryPoint>
    4026:	4604      	mov	r4, r0
    4028:	4652      	mov	r2, sl
    402a:	9903      	ldr	r1, [sp, #12]
    402c:	4630      	mov	r0, r6
    402e:	f7ff fe6b 	bl	3d08 <to_utee_params>
    4032:	2c00      	cmp	r4, #0
    4034:	d0c1      	beq.n	3fba <__utee_entry+0x86>
    4036:	4648      	mov	r0, r9
    4038:	f7ff ff46 	bl	3ec8 <ta_header_remove_session>
    403c:	e7bd      	b.n	3fba <__utee_entry+0x86>
    403e:	4608      	mov	r0, r1
    4040:	f7ff fe54 	bl	3cec <ta_header_get_session>
    4044:	2800      	cmp	r0, #0
    4046:	d0d3      	beq.n	3ff0 <__utee_entry+0xbc>
    4048:	6840      	ldr	r0, [r0, #4]
    404a:	2400      	movs	r4, #0
    404c:	f7fc f958 	bl	300 <TA_CloseSessionEntryPoint>
    4050:	4648      	mov	r0, r9
    4052:	f7ff ff39 	bl	3ec8 <ta_header_remove_session>
    4056:	e7b0      	b.n	3fba <__utee_entry+0x86>
    4058:	4608      	mov	r0, r1
    405a:	f7ff fe47 	bl	3cec <ta_header_get_session>
    405e:	4683      	mov	fp, r0
    4060:	2800      	cmp	r0, #0
    4062:	d0c5      	beq.n	3ff0 <__utee_entry+0xbc>
    4064:	f10d 0910 	add.w	r9, sp, #16
    4068:	4632      	mov	r2, r6
    406a:	a903      	add	r1, sp, #12
    406c:	4648      	mov	r0, r9
    406e:	464d      	mov	r5, r9
    4070:	4644      	mov	r4, r8
    4072:	f7ff fe72 	bl	3d5a <from_utee_params>
    4076:	cd0f      	ldmia	r5!, {r0, r1, r2, r3}
    4078:	f8dd c00c 	ldr.w	ip, [sp, #12]
    407c:	c40f      	stmia	r4!, {r0, r1, r2, r3}
    407e:	e895 000f 	ldmia.w	r5, {r0, r1, r2, r3}
    4082:	f8c7 c000 	str.w	ip, [r7]
    4086:	e884 000f 	stmia.w	r4, {r0, r1, r2, r3}
    408a:	4651      	mov	r1, sl
    408c:	4662      	mov	r2, ip
    408e:	464b      	mov	r3, r9
    4090:	f8db 0004 	ldr.w	r0, [fp, #4]
    4094:	f7fc f935 	bl	302 <TA_InvokeCommandEntryPoint>
    4098:	4604      	mov	r4, r0
    409a:	464a      	mov	r2, r9
    409c:	9903      	ldr	r1, [sp, #12]
    409e:	4630      	mov	r0, r6
    40a0:	f7ff fe32 	bl	3d08 <to_utee_params>
    40a4:	e789      	b.n	3fba <__utee_entry+0x86>
    40a6:	bf00      	nop
    40a8:	ffff000c 	.word	0xffff000c
    40ac:	ffff0007 	.word	0xffff0007
    40b0:	00008136 	.word	0x00008136
    40b4:	00000034 	.word	0x00000034
    40b8:	00000040 	.word	0x00000040
    40bc:	000083e8 	.word	0x000083e8
    40c0:	0000000c 	.word	0x0000000c
    40c4:	00000028 	.word	0x00000028
    40c8:	00008302 	.word	0x00008302

000040cc <abort>:
    40cc:	4804      	ldr	r0, [pc, #16]	; (40e0 <abort+0x14>)
    40ce:	b508      	push	{r3, lr}
    40d0:	4478      	add	r0, pc
    40d2:	f7fc fe77 	bl	dc4 <puts>
    40d6:	2000      	movs	r0, #0
    40d8:	f7ff eb62 	blx	37a0 <_utee_panic>
    40dc:	e7fe      	b.n	40dc <abort+0x10>
    40de:	bf00      	nop
    40e0:	00005aaa 	.word	0x00005aaa

000040e4 <_base64_enc_len>:
    40e4:	2303      	movs	r3, #3
    40e6:	3002      	adds	r0, #2
    40e8:	fbb0 f0f3 	udiv	r0, r0, r3
    40ec:	0080      	lsls	r0, r0, #2
    40ee:	3001      	adds	r0, #1
    40f0:	4770      	bx	lr

000040f2 <_base64_enc>:
    40f2:	e92d 43f8 	stmdb	sp!, {r3, r4, r5, r6, r7, r8, r9, lr}
    40f6:	4699      	mov	r9, r3
    40f8:	4607      	mov	r7, r0
    40fa:	4608      	mov	r0, r1
    40fc:	460e      	mov	r6, r1
    40fe:	4690      	mov	r8, r2
    4100:	f7ff fff0 	bl	40e4 <_base64_enc_len>
    4104:	f8d9 3000 	ldr.w	r3, [r9]
    4108:	4298      	cmp	r0, r3
    410a:	d815      	bhi.n	4138 <_base64_enc+0x46>
    410c:	4b2a      	ldr	r3, [pc, #168]	; (41b8 <_base64_enc+0xc6>)
    410e:	4644      	mov	r4, r8
    4110:	2501      	movs	r5, #1
    4112:	f8df c0a8 	ldr.w	ip, [pc, #168]	; 41bc <_base64_enc+0xca>
    4116:	223d      	movs	r2, #61	; 0x3d
    4118:	447b      	add	r3, pc
    411a:	44fc      	add	ip, pc
    411c:	1e68      	subs	r0, r5, #1
    411e:	eba4 0108 	sub.w	r1, r4, r8
    4122:	4286      	cmp	r6, r0
    4124:	d80d      	bhi.n	4142 <_base64_enc+0x50>
    4126:	2300      	movs	r3, #0
    4128:	2001      	movs	r0, #1
    412a:	f808 3001 	strb.w	r3, [r8, r1]
    412e:	3101      	adds	r1, #1
    4130:	f8c9 1000 	str.w	r1, [r9]
    4134:	e8bd 83f8 	ldmia.w	sp!, {r3, r4, r5, r6, r7, r8, r9, pc}
    4138:	f8c9 0000 	str.w	r0, [r9]
    413c:	2000      	movs	r0, #0
    413e:	e8bd 83f8 	ldmia.w	sp!, {r3, r4, r5, r6, r7, r8, r9, pc}
    4142:	eb07 0e05 	add.w	lr, r7, r5
    4146:	42ae      	cmp	r6, r5
    4148:	f81e 0c01 	ldrb.w	r0, [lr, #-1]
    414c:	f104 0404 	add.w	r4, r4, #4
    4150:	bf88      	it	hi
    4152:	5d79      	ldrbhi	r1, [r7, r5]
    4154:	ea4f 2000 	mov.w	r0, r0, lsl #8
    4158:	bf88      	it	hi
    415a:	4308      	orrhi	r0, r1
    415c:	1c69      	adds	r1, r5, #1
    415e:	428e      	cmp	r6, r1
    4160:	ea4f 2000 	mov.w	r0, r0, lsl #8
    4164:	bf84      	itt	hi
    4166:	f89e e001 	ldrbhi.w	lr, [lr, #1]
    416a:	ea40 000e 	orrhi.w	r0, r0, lr
    416e:	42ae      	cmp	r6, r5
    4170:	ea4f 4e90 	mov.w	lr, r0, lsr #18
    4174:	f105 0503 	add.w	r5, r5, #3
    4178:	bf98      	it	ls
    417a:	f804 2c02 	strbls.w	r2, [r4, #-2]
    417e:	f813 e00e 	ldrb.w	lr, [r3, lr]
    4182:	f804 ec04 	strb.w	lr, [r4, #-4]
    4186:	f3c0 3e05 	ubfx	lr, r0, #12, #6
    418a:	f813 e00e 	ldrb.w	lr, [r3, lr]
    418e:	f804 ec03 	strb.w	lr, [r4, #-3]
    4192:	bf82      	ittt	hi
    4194:	f3c0 1e85 	ubfxhi	lr, r0, #6, #6
    4198:	f813 e00e 	ldrbhi.w	lr, [r3, lr]
    419c:	f804 ec02 	strbhi.w	lr, [r4, #-2]
    41a0:	428e      	cmp	r6, r1
    41a2:	bf85      	ittet	hi
    41a4:	f000 003f 	andhi.w	r0, r0, #63	; 0x3f
    41a8:	f81c 1000 	ldrbhi.w	r1, [ip, r0]
    41ac:	f804 2c01 	strbls.w	r2, [r4, #-1]
    41b0:	f804 1c01 	strbhi.w	r1, [r4, #-1]
    41b4:	e7b2      	b.n	411c <_base64_enc+0x2a>
    41b6:	bf00      	nop
    41b8:	00005a69 	.word	0x00005a69
    41bc:	00005a67 	.word	0x00005a67

000041c0 <_base64_dec>:
    41c0:	e92d 41f0 	stmdb	sp!, {r4, r5, r6, r7, r8, lr}
    41c4:	f04f 0c00 	mov.w	ip, #0
    41c8:	4e2f      	ldr	r6, [pc, #188]	; (4288 <_base64_dec+0xc8>)
    41ca:	4401      	add	r1, r0
    41cc:	4667      	mov	r7, ip
    41ce:	4664      	mov	r4, ip
    41d0:	447e      	add	r6, pc
    41d2:	4281      	cmp	r1, r0
    41d4:	d002      	beq.n	41dc <_base64_dec+0x1c>
    41d6:	f810 5b01 	ldrb.w	r5, [r0], #1
    41da:	b95d      	cbnz	r5, 41f4 <_base64_dec+0x34>
    41dc:	2c00      	cmp	r4, #0
    41de:	d04a      	beq.n	4276 <_base64_dec+0xb6>
    41e0:	b122      	cbz	r2, 41ec <_base64_dec+0x2c>
    41e2:	681a      	ldr	r2, [r3, #0]
    41e4:	4294      	cmp	r4, r2
    41e6:	bf8c      	ite	hi
    41e8:	2200      	movhi	r2, #0
    41ea:	2201      	movls	r2, #1
    41ec:	4610      	mov	r0, r2
    41ee:	601c      	str	r4, [r3, #0]
    41f0:	e8bd 81f0 	ldmia.w	sp!, {r4, r5, r6, r7, r8, pc}
    41f4:	2d3d      	cmp	r5, #61	; 0x3d
    41f6:	d0f1      	beq.n	41dc <_base64_dec+0x1c>
    41f8:	f04f 0e00 	mov.w	lr, #0
    41fc:	f81e 8006 	ldrb.w	r8, [lr, r6]
    4200:	f1b8 0f00 	cmp.w	r8, #0
    4204:	d0e5      	beq.n	41d2 <_base64_dec+0x12>
    4206:	4545      	cmp	r5, r8
    4208:	d107      	bne.n	421a <_base64_dec+0x5a>
    420a:	fa5f f58e 	uxtb.w	r5, lr
    420e:	2f03      	cmp	r7, #3
    4210:	d836      	bhi.n	4280 <_base64_dec+0xc0>
    4212:	e8df f007 	tbb	[pc, r7]
    4216:	0a05      	.short	0x0a05
    4218:	2618      	.short	0x2618
    421a:	f10e 0e01 	add.w	lr, lr, #1
    421e:	e7ed      	b.n	41fc <_base64_dec+0x3c>
    4220:	00ad      	lsls	r5, r5, #2
    4222:	2701      	movs	r7, #1
    4224:	fa5f fc85 	uxtb.w	ip, r5
    4228:	e7d3      	b.n	41d2 <_base64_dec+0x12>
    422a:	b12a      	cbz	r2, 4238 <_base64_dec+0x78>
    422c:	681f      	ldr	r7, [r3, #0]
    422e:	42bc      	cmp	r4, r7
    4230:	bf3c      	itt	cc
    4232:	ea4c 1515 	orrcc.w	r5, ip, r5, lsr #4
    4236:	5515      	strbcc	r5, [r2, r4]
    4238:	ea4f 150e 	mov.w	r5, lr, lsl #4
    423c:	3401      	adds	r4, #1
    423e:	2702      	movs	r7, #2
    4240:	f005 0cf0 	and.w	ip, r5, #240	; 0xf0
    4244:	e7c5      	b.n	41d2 <_base64_dec+0x12>
    4246:	b12a      	cbz	r2, 4254 <_base64_dec+0x94>
    4248:	681f      	ldr	r7, [r3, #0]
    424a:	42bc      	cmp	r4, r7
    424c:	bf3c      	itt	cc
    424e:	ea4c 0595 	orrcc.w	r5, ip, r5, lsr #2
    4252:	5515      	strbcc	r5, [r2, r4]
    4254:	ea4f 158e 	mov.w	r5, lr, lsl #6
    4258:	3401      	adds	r4, #1
    425a:	2703      	movs	r7, #3
    425c:	f005 0cc0 	and.w	ip, r5, #192	; 0xc0
    4260:	e7b7      	b.n	41d2 <_base64_dec+0x12>
    4262:	b12a      	cbz	r2, 4270 <_base64_dec+0xb0>
    4264:	681f      	ldr	r7, [r3, #0]
    4266:	42bc      	cmp	r4, r7
    4268:	bf3c      	itt	cc
    426a:	ea4c 0505 	orrcc.w	r5, ip, r5
    426e:	5515      	strbcc	r5, [r2, r4]
    4270:	3401      	adds	r4, #1
    4272:	2700      	movs	r7, #0
    4274:	e7ad      	b.n	41d2 <_base64_dec+0x12>
    4276:	6819      	ldr	r1, [r3, #0]
    4278:	2900      	cmp	r1, #0
    427a:	d1b1      	bne.n	41e0 <_base64_dec+0x20>
    427c:	2201      	movs	r2, #1
    427e:	e7b5      	b.n	41ec <_base64_dec+0x2c>
    4280:	2000      	movs	r0, #0
    4282:	e8bd 81f0 	ldmia.w	sp!, {r4, r5, r6, r7, r8, pc}
    4286:	bf00      	nop
    4288:	000059b1 	.word	0x000059b1

0000428c <update_out_param>:
    428c:	e92d 43f8 	stmdb	sp!, {r3, r4, r5, r6, r7, r8, r9, lr}
    4290:	4689      	mov	r9, r1
    4292:	f8d2 8000 	ldr.w	r8, [r2]
    4296:	4615      	mov	r5, r2
    4298:	4604      	mov	r4, r0
    429a:	2600      	movs	r6, #0
    429c:	fa28 f306 	lsr.w	r3, r8, r6
    42a0:	692f      	ldr	r7, [r5, #16]
    42a2:	f003 030f 	and.w	r3, r3, #15
    42a6:	3b02      	subs	r3, #2
    42a8:	2b05      	cmp	r3, #5
    42aa:	d807      	bhi.n	42bc <update_out_param+0x30>
    42ac:	e8df f003 	tbb	[pc, r3]
    42b0:	06060303 	.word	0x06060303
    42b4:	0e0e      	.short	0x0e0e
    42b6:	68ab      	ldr	r3, [r5, #8]
    42b8:	6023      	str	r3, [r4, #0]
    42ba:	6067      	str	r7, [r4, #4]
    42bc:	3604      	adds	r6, #4
    42be:	3510      	adds	r5, #16
    42c0:	2e10      	cmp	r6, #16
    42c2:	f104 0408 	add.w	r4, r4, #8
    42c6:	d1e9      	bne.n	429c <update_out_param+0x10>
    42c8:	e8bd 83f8 	ldmia.w	sp!, {r3, r4, r5, r6, r7, r8, r9, pc}
    42cc:	f859 1006 	ldr.w	r1, [r9, r6]
    42d0:	2900      	cmp	r1, #0
    42d2:	d0f2      	beq.n	42ba <update_out_param+0x2e>
    42d4:	e9d4 0200 	ldrd	r0, r2, [r4]
    42d8:	42ba      	cmp	r2, r7
    42da:	bf28      	it	cs
    42dc:	463a      	movcs	r2, r7
    42de:	f7fc f833 	bl	348 <memcpy>
    42e2:	e7ea      	b.n	42ba <update_out_param+0x2e>

000042e4 <TEE_CloseTASession>:
    42e4:	b508      	push	{r3, lr}
    42e6:	b130      	cbz	r0, 42f6 <TEE_CloseTASession+0x12>
    42e8:	f7ff eaa4 	blx	3834 <_utee_close_ta_session>
    42ec:	b118      	cbz	r0, 42f6 <TEE_CloseTASession+0x12>
    42ee:	e8bd 4008 	ldmia.w	sp!, {r3, lr}
    42f2:	f7fe bed5 	b.w	30a0 <TEE_Panic>
    42f6:	bd08      	pop	{r3, pc}

000042f8 <TEE_GetCancellationFlag>:
    42f8:	b507      	push	{r0, r1, r2, lr}
    42fa:	a801      	add	r0, sp, #4
    42fc:	f7ff eab0 	blx	3860 <_utee_get_cancellation_flag>
    4300:	b108      	cbz	r0, 4306 <TEE_GetCancellationFlag+0xe>
    4302:	2300      	movs	r3, #0
    4304:	9301      	str	r3, [sp, #4]
    4306:	9801      	ldr	r0, [sp, #4]
    4308:	3000      	adds	r0, #0
    430a:	bf18      	it	ne
    430c:	2001      	movne	r0, #1
    430e:	b003      	add	sp, #12
    4310:	f85d fb04 	ldr.w	pc, [sp], #4

00004314 <TEE_UnmaskCancellation>:
    4314:	b507      	push	{r0, r1, r2, lr}
    4316:	a801      	add	r0, sp, #4
    4318:	f7ff eab6 	blx	3888 <_utee_unmask_cancellation>
    431c:	b108      	cbz	r0, 4322 <TEE_UnmaskCancellation+0xe>
    431e:	f7fe febf 	bl	30a0 <TEE_Panic>
    4322:	9801      	ldr	r0, [sp, #4]
    4324:	3000      	adds	r0, #0
    4326:	bf18      	it	ne
    4328:	2001      	movne	r0, #1
    432a:	b003      	add	sp, #12
    432c:	f85d fb04 	ldr.w	pc, [sp], #4

00004330 <TEE_MaskCancellation>:
    4330:	b507      	push	{r0, r1, r2, lr}
    4332:	a801      	add	r0, sp, #4
    4334:	f7ff eab2 	blx	389c <_utee_mask_cancellation>
    4338:	b108      	cbz	r0, 433e <TEE_MaskCancellation+0xe>
    433a:	f7fe feb1 	bl	30a0 <TEE_Panic>
    433e:	9801      	ldr	r0, [sp, #4]
    4340:	3000      	adds	r0, #0
    4342:	bf18      	it	ne
    4344:	2001      	movne	r0, #1
    4346:	b003      	add	sp, #12
    4348:	f85d fb04 	ldr.w	pc, [sp], #4

0000434c <TEE_CheckMemoryAccessRights>:
    434c:	b10a      	cbz	r2, 4352 <TEE_CheckMemoryAccessRights+0x6>
    434e:	f005 b84b 	b.w	93e8 <___utee_check_access_rights_from_thumb>
    4352:	4610      	mov	r0, r2
    4354:	4770      	bx	lr

00004356 <copy_param>:
    4356:	e92d 4ff0 	stmdb	sp!, {r4, r5, r6, r7, r8, r9, sl, fp, lr}
    435a:	b085      	sub	sp, #20
    435c:	469b      	mov	fp, r3
    435e:	9b0e      	ldr	r3, [sp, #56]	; 0x38
    4360:	2500      	movs	r5, #0
    4362:	f10d 0a10 	add.w	sl, sp, #16
    4366:	4604      	mov	r4, r0
    4368:	f8cb 5000 	str.w	r5, [fp]
    436c:	4689      	mov	r9, r1
    436e:	4616      	mov	r6, r2
    4370:	462f      	mov	r7, r5
    4372:	f84a 5d04 	str.w	r5, [sl, #-4]!
    4376:	601d      	str	r5, [r3, #0]
    4378:	2301      	movs	r3, #1
    437a:	9a0f      	ldr	r2, [sp, #60]	; 0x3c
    437c:	4611      	mov	r1, r2
    437e:	2200      	movs	r2, #0
    4380:	f841 2027 	str.w	r2, [r1, r7, lsl #2]
    4384:	00ba      	lsls	r2, r7, #2
    4386:	fa29 f202 	lsr.w	r2, r9, r2
    438a:	f002 020f 	and.w	r2, r2, #15
    438e:	3a05      	subs	r2, #5
    4390:	2a02      	cmp	r2, #2
    4392:	d817      	bhi.n	43c4 <copy_param+0x6e>
    4394:	f856 1037 	ldr.w	r1, [r6, r7, lsl #3]
    4398:	eb06 02c7 	add.w	r2, r6, r7, lsl #3
    439c:	f8d2 8004 	ldr.w	r8, [r2, #4]
    43a0:	b181      	cbz	r1, 43c4 <copy_param+0x6e>
    43a2:	f1b8 0f00 	cmp.w	r8, #0
    43a6:	d00d      	beq.n	43c4 <copy_param+0x6e>
    43a8:	4642      	mov	r2, r8
    43aa:	2001      	movs	r0, #1
    43ac:	9301      	str	r3, [sp, #4]
    43ae:	f7ff ffcd 	bl	434c <TEE_CheckMemoryAccessRights>
    43b2:	9b01      	ldr	r3, [sp, #4]
    43b4:	b930      	cbnz	r0, 43c4 <copy_param+0x6e>
    43b6:	f108 0807 	add.w	r8, r8, #7
    43ba:	f807 300a 	strb.w	r3, [r7, sl]
    43be:	f028 0807 	bic.w	r8, r8, #7
    43c2:	4445      	add	r5, r8
    43c4:	3701      	adds	r7, #1
    43c6:	2f04      	cmp	r7, #4
    43c8:	d1d7      	bne.n	437a <copy_param+0x24>
    43ca:	b305      	cbz	r5, 440e <copy_param+0xb8>
    43cc:	4639      	mov	r1, r7
    43ce:	4628      	mov	r0, r5
    43d0:	f001 faa6 	bl	5920 <tee_map_zi>
    43d4:	4603      	mov	r3, r0
    43d6:	2800      	cmp	r0, #0
    43d8:	d059      	beq.n	448e <copy_param+0x138>
    43da:	9a0e      	ldr	r2, [sp, #56]	; 0x38
    43dc:	f8cb 0000 	str.w	r0, [fp]
    43e0:	6015      	str	r5, [r2, #0]
    43e2:	2500      	movs	r5, #0
    43e4:	3604      	adds	r6, #4
    43e6:	f8c4 9000 	str.w	r9, [r4]
    43ea:	f10d 0b0c 	add.w	fp, sp, #12
    43ee:	46a8      	mov	r8, r5
    43f0:	6065      	str	r5, [r4, #4]
    43f2:	00aa      	lsls	r2, r5, #2
    43f4:	fa29 f202 	lsr.w	r2, r9, r2
    43f8:	f002 020f 	and.w	r2, r2, #15
    43fc:	1e51      	subs	r1, r2, #1
    43fe:	2906      	cmp	r1, #6
    4400:	d83e      	bhi.n	4480 <copy_param+0x12a>
    4402:	e8df f001 	tbb	[pc, r1]
    4406:	3d06      	.short	0x3d06
    4408:	19193d06 	.word	0x19193d06
    440c:	19          	.byte	0x19
    440d:	00          	.byte	0x00
    440e:	462b      	mov	r3, r5
    4410:	e7e7      	b.n	43e2 <copy_param+0x8c>
    4412:	f856 2c04 	ldr.w	r2, [r6, #-4]
    4416:	60a2      	str	r2, [r4, #8]
    4418:	f8c4 800c 	str.w	r8, [r4, #12]
    441c:	6832      	ldr	r2, [r6, #0]
    441e:	6122      	str	r2, [r4, #16]
    4420:	f8c4 8014 	str.w	r8, [r4, #20]
    4424:	3501      	adds	r5, #1
    4426:	3410      	adds	r4, #16
    4428:	2d04      	cmp	r5, #4
    442a:	f106 0608 	add.w	r6, r6, #8
    442e:	d1e0      	bne.n	43f2 <copy_param+0x9c>
    4430:	2000      	movs	r0, #0
    4432:	b005      	add	sp, #20
    4434:	e8bd 8ff0 	ldmia.w	sp!, {r4, r5, r6, r7, r8, r9, sl, fp, pc}
    4438:	f815 100b 	ldrb.w	r1, [r5, fp]
    443c:	f8d6 a000 	ldr.w	sl, [r6]
    4440:	b191      	cbz	r1, 4468 <copy_param+0x112>
    4442:	990f      	ldr	r1, [sp, #60]	; 0x3c
    4444:	f10a 0707 	add.w	r7, sl, #7
    4448:	2a06      	cmp	r2, #6
    444a:	f027 0707 	bic.w	r7, r7, #7
    444e:	441f      	add	r7, r3
    4450:	f841 3025 	str.w	r3, [r1, r5, lsl #2]
    4454:	d006      	beq.n	4464 <copy_param+0x10e>
    4456:	4618      	mov	r0, r3
    4458:	4652      	mov	r2, sl
    445a:	f856 1c04 	ldr.w	r1, [r6, #-4]
    445e:	f7fb ff73 	bl	348 <memcpy>
    4462:	4603      	mov	r3, r0
    4464:	461a      	mov	r2, r3
    4466:	e002      	b.n	446e <copy_param+0x118>
    4468:	f856 2c04 	ldr.w	r2, [r6, #-4]
    446c:	461f      	mov	r7, r3
    446e:	463b      	mov	r3, r7
    4470:	60a2      	str	r2, [r4, #8]
    4472:	f8c4 800c 	str.w	r8, [r4, #12]
    4476:	f8c4 a010 	str.w	sl, [r4, #16]
    447a:	f8c4 8014 	str.w	r8, [r4, #20]
    447e:	e7d1      	b.n	4424 <copy_param+0xce>
    4480:	2100      	movs	r1, #0
    4482:	2200      	movs	r2, #0
    4484:	e9c4 1202 	strd	r1, r2, [r4, #8]
    4488:	e9c4 1204 	strd	r1, r2, [r4, #16]
    448c:	e7ca      	b.n	4424 <copy_param+0xce>
    448e:	4801      	ldr	r0, [pc, #4]	; (4494 <copy_param+0x13e>)
    4490:	e7cf      	b.n	4432 <copy_param+0xdc>
    4492:	bf00      	nop
    4494:	ffff000c 	.word	0xffff000c

00004498 <TEE_OpenTASession>:
    4498:	e92d 47f0 	stmdb	sp!, {r4, r5, r6, r7, r8, r9, sl, lr}
    449c:	b09c      	sub	sp, #112	; 0x70
    449e:	4681      	mov	r9, r0
    44a0:	468a      	mov	sl, r1
    44a2:	f8dd 8090 	ldr.w	r8, [sp, #144]	; 0x90
    44a6:	2000      	movs	r0, #0
    44a8:	2100      	movs	r1, #0
    44aa:	461d      	mov	r5, r3
    44ac:	ae06      	add	r6, sp, #24
    44ae:	2300      	movs	r3, #0
    44b0:	4614      	mov	r4, r2
    44b2:	e9c6 0102 	strd	r0, r1, [r6, #8]
    44b6:	9303      	str	r3, [sp, #12]
    44b8:	9304      	str	r3, [sp, #16]
    44ba:	9305      	str	r3, [sp, #20]
    44bc:	e9cd 0106 	strd	r0, r1, [sp, #24]
    44c0:	b11a      	cbz	r2, 44ca <TEE_OpenTASession+0x32>
    44c2:	2120      	movs	r1, #32
    44c4:	4628      	mov	r0, r5
    44c6:	f7fe fe3e 	bl	3146 <__utee_check_inout_annotation>
    44ca:	2104      	movs	r1, #4
    44cc:	4640      	mov	r0, r8
    44ce:	f7fe fe27 	bl	3120 <__utee_check_out_annotation>
    44d2:	ab05      	add	r3, sp, #20
    44d4:	af0a      	add	r7, sp, #40	; 0x28
    44d6:	4621      	mov	r1, r4
    44d8:	462a      	mov	r2, r5
    44da:	e9cd 3600 	strd	r3, r6, [sp]
    44de:	4638      	mov	r0, r7
    44e0:	ab04      	add	r3, sp, #16
    44e2:	f7ff ff38 	bl	4356 <copy_param>
    44e6:	4604      	mov	r4, r0
    44e8:	b9b0      	cbnz	r0, 4518 <TEE_OpenTASession+0x80>
    44ea:	9b25      	ldr	r3, [sp, #148]	; 0x94
    44ec:	463a      	mov	r2, r7
    44ee:	4651      	mov	r1, sl
    44f0:	4648      	mov	r0, r9
    44f2:	9300      	str	r3, [sp, #0]
    44f4:	ab03      	add	r3, sp, #12
    44f6:	f7ff e992 	blx	381c <_utee_open_ta_session>
    44fa:	4604      	mov	r4, r0
    44fc:	463a      	mov	r2, r7
    44fe:	4628      	mov	r0, r5
    4500:	4631      	mov	r1, r6
    4502:	f7ff fec3 	bl	428c <update_out_param>
    4506:	9804      	ldr	r0, [sp, #16]
    4508:	b128      	cbz	r0, 4516 <TEE_OpenTASession+0x7e>
    450a:	9905      	ldr	r1, [sp, #20]
    450c:	f001 fa26 	bl	595c <tee_unmap>
    4510:	b108      	cbz	r0, 4516 <TEE_OpenTASession+0x7e>
    4512:	f7fe fdc5 	bl	30a0 <TEE_Panic>
    4516:	b10c      	cbz	r4, 451c <TEE_OpenTASession+0x84>
    4518:	2300      	movs	r3, #0
    451a:	9303      	str	r3, [sp, #12]
    451c:	9b03      	ldr	r3, [sp, #12]
    451e:	4620      	mov	r0, r4
    4520:	f8c8 3000 	str.w	r3, [r8]
    4524:	b01c      	add	sp, #112	; 0x70
    4526:	e8bd 87f0 	ldmia.w	sp!, {r4, r5, r6, r7, r8, r9, sl, pc}

0000452a <TEE_InvokeTACommand>:
    452a:	e92d 47f0 	stmdb	sp!, {r4, r5, r6, r7, r8, r9, sl, lr}
    452e:	4692      	mov	sl, r2
    4530:	b09c      	sub	sp, #112	; 0x70
    4532:	2203      	movs	r2, #3
    4534:	4680      	mov	r8, r0
    4536:	4689      	mov	r9, r1
    4538:	9d25      	ldr	r5, [sp, #148]	; 0x94
    453a:	2000      	movs	r0, #0
    453c:	2100      	movs	r1, #0
    453e:	9203      	str	r2, [sp, #12]
    4540:	ae06      	add	r6, sp, #24
    4542:	2200      	movs	r2, #0
    4544:	461c      	mov	r4, r3
    4546:	e9c6 0102 	strd	r0, r1, [r6, #8]
    454a:	9204      	str	r2, [sp, #16]
    454c:	9205      	str	r2, [sp, #20]
    454e:	e9cd 0106 	strd	r0, r1, [sp, #24]
    4552:	b11b      	cbz	r3, 455c <TEE_InvokeTACommand+0x32>
    4554:	2120      	movs	r1, #32
    4556:	9824      	ldr	r0, [sp, #144]	; 0x90
    4558:	f7fe fdf5 	bl	3146 <__utee_check_inout_annotation>
    455c:	b11d      	cbz	r5, 4566 <TEE_InvokeTACommand+0x3c>
    455e:	2104      	movs	r1, #4
    4560:	4628      	mov	r0, r5
    4562:	f7fe fddd 	bl	3120 <__utee_check_out_annotation>
    4566:	ab05      	add	r3, sp, #20
    4568:	af0a      	add	r7, sp, #40	; 0x28
    456a:	9a24      	ldr	r2, [sp, #144]	; 0x90
    456c:	4621      	mov	r1, r4
    456e:	4638      	mov	r0, r7
    4570:	e9cd 3600 	strd	r3, r6, [sp]
    4574:	ab04      	add	r3, sp, #16
    4576:	f7ff feee 	bl	4356 <copy_param>
    457a:	4604      	mov	r4, r0
    457c:	b9a8      	cbnz	r0, 45aa <TEE_InvokeTACommand+0x80>
    457e:	ab03      	add	r3, sp, #12
    4580:	4652      	mov	r2, sl
    4582:	4649      	mov	r1, r9
    4584:	4640      	mov	r0, r8
    4586:	9300      	str	r3, [sp, #0]
    4588:	463b      	mov	r3, r7
    458a:	f7ff e95e 	blx	3848 <_utee_invoke_ta_command>
    458e:	4604      	mov	r4, r0
    4590:	463a      	mov	r2, r7
    4592:	9824      	ldr	r0, [sp, #144]	; 0x90
    4594:	4631      	mov	r1, r6
    4596:	f7ff fe79 	bl	428c <update_out_param>
    459a:	9804      	ldr	r0, [sp, #16]
    459c:	b128      	cbz	r0, 45aa <TEE_InvokeTACommand+0x80>
    459e:	9905      	ldr	r1, [sp, #20]
    45a0:	f001 f9dc 	bl	595c <tee_unmap>
    45a4:	b108      	cbz	r0, 45aa <TEE_InvokeTACommand+0x80>
    45a6:	f7fe fd7b 	bl	30a0 <TEE_Panic>
    45aa:	9b03      	ldr	r3, [sp, #12]
    45ac:	b105      	cbz	r5, 45b0 <TEE_InvokeTACommand+0x86>
    45ae:	602b      	str	r3, [r5, #0]
    45b0:	2b04      	cmp	r3, #4
    45b2:	d009      	beq.n	45c8 <TEE_InvokeTACommand+0x9e>
    45b4:	b144      	cbz	r4, 45c8 <TEE_InvokeTACommand+0x9e>
    45b6:	4b06      	ldr	r3, [pc, #24]	; (45d0 <TEE_InvokeTACommand+0xa6>)
    45b8:	429c      	cmp	r4, r3
    45ba:	d005      	beq.n	45c8 <TEE_InvokeTACommand+0x9e>
    45bc:	4b05      	ldr	r3, [pc, #20]	; (45d4 <TEE_InvokeTACommand+0xaa>)
    45be:	429c      	cmp	r4, r3
    45c0:	d002      	beq.n	45c8 <TEE_InvokeTACommand+0x9e>
    45c2:	4620      	mov	r0, r4
    45c4:	f7fe fd6c 	bl	30a0 <TEE_Panic>
    45c8:	4620      	mov	r0, r4
    45ca:	b01c      	add	sp, #112	; 0x70
    45cc:	e8bd 87f0 	ldmia.w	sp!, {r4, r5, r6, r7, r8, r9, sl, pc}
    45d0:	ffff000c 	.word	0xffff000c
    45d4:	ffff3024 	.word	0xffff3024

000045d8 <TEE_SetInstanceData>:
    45d8:	4b01      	ldr	r3, [pc, #4]	; (45e0 <TEE_SetInstanceData+0x8>)
    45da:	447b      	add	r3, pc
    45dc:	6018      	str	r0, [r3, #0]
    45de:	4770      	bx	lr
    45e0:	00007db6 	.word	0x00007db6

000045e4 <TEE_GetInstanceData>:
    45e4:	4b01      	ldr	r3, [pc, #4]	; (45ec <TEE_GetInstanceData+0x8>)
    45e6:	447b      	add	r3, pc
    45e8:	6818      	ldr	r0, [r3, #0]
    45ea:	4770      	bx	lr
    45ec:	00007daa 	.word	0x00007daa

000045f0 <TEE_MemMove>:
    45f0:	f004 be98 	b.w	9324 <memmove>

000045f4 <TEE_MemCompare>:
    45f4:	f004 bed2 	b.w	939c <consttime_memcmp>

000045f8 <TEE_MemFill>:
    45f8:	f004 bdad 	b.w	9156 <memset>

000045fc <TEE_GetSystemTime>:
    45fc:	b508      	push	{r3, lr}
    45fe:	4601      	mov	r1, r0
    4600:	2000      	movs	r0, #0
    4602:	f7ff e960 	blx	38c4 <_utee_get_time>
    4606:	b118      	cbz	r0, 4610 <TEE_GetSystemTime+0x14>
    4608:	e8bd 4008 	ldmia.w	sp!, {r3, lr}
    460c:	f7fe bd48 	b.w	30a0 <TEE_Panic>
    4610:	bd08      	pop	{r3, pc}

00004612 <TEE_Wait>:
    4612:	b510      	push	{r4, lr}
    4614:	f7ff e94c 	blx	38b0 <_utee_wait>
    4618:	4604      	mov	r4, r0
    461a:	b120      	cbz	r0, 4626 <TEE_Wait+0x14>
    461c:	4b03      	ldr	r3, [pc, #12]	; (462c <TEE_Wait+0x1a>)
    461e:	4298      	cmp	r0, r3
    4620:	d001      	beq.n	4626 <TEE_Wait+0x14>
    4622:	f7fe fd3d 	bl	30a0 <TEE_Panic>
    4626:	4620      	mov	r0, r4
    4628:	bd10      	pop	{r4, pc}
    462a:	bf00      	nop
    462c:	ffff0002 	.word	0xffff0002

00004630 <TEE_GetTAPersistentTime>:
    4630:	b538      	push	{r3, r4, r5, lr}
    4632:	4601      	mov	r1, r0
    4634:	4605      	mov	r5, r0
    4636:	2001      	movs	r0, #1
    4638:	f7ff e944 	blx	38c4 <_utee_get_time>
    463c:	4604      	mov	r4, r0
    463e:	b170      	cbz	r0, 465e <TEE_GetTAPersistentTime+0x2e>
    4640:	4b08      	ldr	r3, [pc, #32]	; (4664 <TEE_GetTAPersistentTime+0x34>)
    4642:	4298      	cmp	r0, r3
    4644:	d00b      	beq.n	465e <TEE_GetTAPersistentTime+0x2e>
    4646:	2300      	movs	r3, #0
    4648:	602b      	str	r3, [r5, #0]
    464a:	606b      	str	r3, [r5, #4]
    464c:	f500 4330 	add.w	r3, r0, #45056	; 0xb000
    4650:	2b01      	cmp	r3, #1
    4652:	d904      	bls.n	465e <TEE_GetTAPersistentTime+0x2e>
    4654:	4b04      	ldr	r3, [pc, #16]	; (4668 <TEE_GetTAPersistentTime+0x38>)
    4656:	4298      	cmp	r0, r3
    4658:	d001      	beq.n	465e <TEE_GetTAPersistentTime+0x2e>
    465a:	f7fe fd21 	bl	30a0 <TEE_Panic>
    465e:	4620      	mov	r0, r4
    4660:	bd38      	pop	{r3, r4, r5, pc}
    4662:	bf00      	nop
    4664:	ffff300f 	.word	0xffff300f
    4668:	ffff000c 	.word	0xffff000c

0000466c <TEE_SetTAPersistentTime>:
    466c:	b510      	push	{r4, lr}
    466e:	f7ff e934 	blx	38d8 <_utee_set_ta_time>
    4672:	4604      	mov	r4, r0
    4674:	b138      	cbz	r0, 4686 <TEE_SetTAPersistentTime+0x1a>
    4676:	4b05      	ldr	r3, [pc, #20]	; (468c <TEE_SetTAPersistentTime+0x20>)
    4678:	4298      	cmp	r0, r3
    467a:	d004      	beq.n	4686 <TEE_SetTAPersistentTime+0x1a>
    467c:	4b04      	ldr	r3, [pc, #16]	; (4690 <TEE_SetTAPersistentTime+0x24>)
    467e:	4298      	cmp	r0, r3
    4680:	d001      	beq.n	4686 <TEE_SetTAPersistentTime+0x1a>
    4682:	f7fe fd0d 	bl	30a0 <TEE_Panic>
    4686:	4620      	mov	r0, r4
    4688:	bd10      	pop	{r4, pc}
    468a:	bf00      	nop
    468c:	ffff000c 	.word	0xffff000c
    4690:	ffff3041 	.word	0xffff3041

00004694 <TEE_GetREETime>:
    4694:	b508      	push	{r3, lr}
    4696:	4601      	mov	r1, r0
    4698:	2002      	movs	r0, #2
    469a:	f7ff e914 	blx	38c4 <_utee_get_time>
    469e:	b118      	cbz	r0, 46a8 <TEE_GetREETime+0x14>
    46a0:	e8bd 4008 	ldmia.w	sp!, {r3, lr}
    46a4:	f7fe bcfc 	b.w	30a0 <TEE_Panic>
    46a8:	bd08      	pop	{r3, pc}

000046aa <TEE_Malloc>:
    46aa:	b507      	push	{r0, r1, r2, lr}
    46ac:	b931      	cbnz	r1, 46bc <TEE_Malloc+0x12>
    46ae:	4601      	mov	r1, r0
    46b0:	2001      	movs	r0, #1
    46b2:	b003      	add	sp, #12
    46b4:	f85d eb04 	ldr.w	lr, [sp], #4
    46b8:	f004 bb8a 	b.w	8dd0 <calloc>
    46bc:	f1b1 4f00 	cmp.w	r1, #2147483648	; 0x80000000
    46c0:	d104      	bne.n	46cc <TEE_Malloc+0x22>
    46c2:	b003      	add	sp, #12
    46c4:	f85d eb04 	ldr.w	lr, [sp], #4
    46c8:	f004 bb6a 	b.w	8da0 <malloc>
    46cc:	4b07      	ldr	r3, [pc, #28]	; (46ec <TEE_Malloc+0x42>)
    46ce:	9101      	str	r1, [sp, #4]
    46d0:	f44f 71c8 	mov.w	r1, #400	; 0x190
    46d4:	4806      	ldr	r0, [pc, #24]	; (46f0 <TEE_Malloc+0x46>)
    46d6:	447b      	add	r3, pc
    46d8:	4478      	add	r0, pc
    46da:	9300      	str	r3, [sp, #0]
    46dc:	2301      	movs	r3, #1
    46de:	461a      	mov	r2, r3
    46e0:	f7fb ff4c 	bl	57c <trace_printf>
    46e4:	2000      	movs	r0, #0
    46e6:	b003      	add	sp, #12
    46e8:	f85d fb04 	ldr.w	pc, [sp], #4
    46ec:	000054f7 	.word	0x000054f7
    46f0:	000054ea 	.word	0x000054ea

000046f4 <TEE_Realloc>:
    46f4:	f004 bb8e 	b.w	8e14 <realloc>

000046f8 <TEE_Free>:
    46f8:	f004 bbac 	b.w	8e54 <free>

000046fc <TEE_CacheClean>:
    46fc:	2200      	movs	r2, #0
    46fe:	f004 be7b 	b.w	93f8 <___utee_cache_operation_from_thumb>

00004702 <TEE_CacheFlush>:
    4702:	2201      	movs	r2, #1
    4704:	f004 be78 	b.w	93f8 <___utee_cache_operation_from_thumb>

00004708 <TEE_CacheInvalidate>:
    4708:	2202      	movs	r2, #2
    470a:	f004 be75 	b.w	93f8 <___utee_cache_operation_from_thumb>
    470e:	bf00      	nop

00004710 <mpi_panic>:
    4710:	b508      	push	{r3, lr}
    4712:	4613      	mov	r3, r2
    4714:	460a      	mov	r2, r1
    4716:	4601      	mov	r1, r0
    4718:	4804      	ldr	r0, [pc, #16]	; (472c <mpi_panic+0x1c>)
    471a:	4478      	add	r0, pc
    471c:	f7fc fb35 	bl	d8a <printf>
    4720:	4801      	ldr	r0, [pc, #4]	; (4728 <mpi_panic+0x18>)
    4722:	f7fe fcbd 	bl	30a0 <TEE_Panic>
    4726:	e7fe      	b.n	4726 <mpi_panic+0x16>
    4728:	00b16127 	.word	0x00b16127
    472c:	00005621 	.word	0x00005621

00004730 <get_mpi>:
    4730:	b5f8      	push	{r3, r4, r5, r6, r7, lr}
    4732:	460c      	mov	r4, r1
    4734:	4605      	mov	r5, r0
    4736:	f001 fd8c 	bl	6252 <mbedtls_mpi_init_mempool>
    473a:	b1e4      	cbz	r4, 4776 <get_mpi+0x46>
    473c:	88e1      	ldrh	r1, [r4, #6]
    473e:	f104 0708 	add.w	r7, r4, #8
    4742:	008e      	lsls	r6, r1, #2
    4744:	b111      	cbz	r1, 474c <get_mpi+0x1c>
    4746:	19a3      	adds	r3, r4, r6
    4748:	685b      	ldr	r3, [r3, #4]
    474a:	b14b      	cbz	r3, 4760 <get_mpi+0x30>
    474c:	4628      	mov	r0, r5
    474e:	f001 fdb5 	bl	62bc <mbedtls_mpi_grow>
    4752:	4602      	mov	r2, r0
    4754:	b130      	cbz	r0, 4764 <get_mpi+0x34>
    4756:	4808      	ldr	r0, [pc, #32]	; (4778 <get_mpi+0x48>)
    4758:	2170      	movs	r1, #112	; 0x70
    475a:	4478      	add	r0, pc
    475c:	f7ff ffd8 	bl	4710 <mpi_panic>
    4760:	3901      	subs	r1, #1
    4762:	e7ee      	b.n	4742 <get_mpi+0x12>
    4764:	6823      	ldr	r3, [r4, #0]
    4766:	4632      	mov	r2, r6
    4768:	4639      	mov	r1, r7
    476a:	68a8      	ldr	r0, [r5, #8]
    476c:	802b      	strh	r3, [r5, #0]
    476e:	e8bd 40f8 	ldmia.w	sp!, {r3, r4, r5, r6, r7, lr}
    4772:	f7fb bde9 	b.w	348 <memcpy>
    4776:	bdf8      	pop	{r3, r4, r5, r6, r7, pc}
    4778:	00005484 	.word	0x00005484

0000477c <copy_mpi_to_bigint>:
    477c:	b538      	push	{r3, r4, r5, lr}
    477e:	4604      	mov	r4, r0
    4780:	6843      	ldr	r3, [r0, #4]
    4782:	f103 4280 	add.w	r2, r3, #1073741824	; 0x40000000
    4786:	3a01      	subs	r2, #1
    4788:	0092      	lsls	r2, r2, #2
    478a:	4610      	mov	r0, r2
    478c:	b11b      	cbz	r3, 4796 <copy_mpi_to_bigint+0x1a>
    478e:	68a5      	ldr	r5, [r4, #8]
    4790:	582d      	ldr	r5, [r5, r0]
    4792:	3804      	subs	r0, #4
    4794:	b175      	cbz	r5, 47b4 <copy_mpi_to_bigint+0x38>
    4796:	8888      	ldrh	r0, [r1, #4]
    4798:	4298      	cmp	r0, r3
    479a:	d30d      	bcc.n	47b8 <copy_mpi_to_bigint+0x3c>
    479c:	80cb      	strh	r3, [r1, #6]
    479e:	f9b4 3000 	ldrsh.w	r3, [r4]
    47a2:	4608      	mov	r0, r1
    47a4:	3204      	adds	r2, #4
    47a6:	68a1      	ldr	r1, [r4, #8]
    47a8:	f840 3b08 	str.w	r3, [r0], #8
    47ac:	f7fb fdcc 	bl	348 <memcpy>
    47b0:	2000      	movs	r0, #0
    47b2:	bd38      	pop	{r3, r4, r5, pc}
    47b4:	3b01      	subs	r3, #1
    47b6:	e7e9      	b.n	478c <copy_mpi_to_bigint+0x10>
    47b8:	4800      	ldr	r0, [pc, #0]	; (47bc <copy_mpi_to_bigint+0x40>)
    47ba:	bd38      	pop	{r3, r4, r5, pc}
    47bc:	ffff300f 	.word	0xffff300f

000047c0 <bigint_binary>:
    47c0:	e92d 4ff0 	stmdb	sp!, {r4, r5, r6, r7, r8, r9, sl, fp, lr}
    47c4:	b08b      	sub	sp, #44	; 0x2c
    47c6:	ac01      	add	r4, sp, #4
    47c8:	4607      	mov	r7, r0
    47ca:	468b      	mov	fp, r1
    47cc:	4601      	mov	r1, r0
    47ce:	4620      	mov	r0, r4
    47d0:	4615      	mov	r5, r2
    47d2:	469a      	mov	sl, r3
    47d4:	f10d 0910 	add.w	r9, sp, #16
    47d8:	f7ff ffaa 	bl	4730 <get_mpi>
    47dc:	455f      	cmp	r7, fp
    47de:	d01c      	beq.n	481a <bigint_binary+0x5a>
    47e0:	4659      	mov	r1, fp
    47e2:	4648      	mov	r0, r9
    47e4:	464e      	mov	r6, r9
    47e6:	f7ff ffa3 	bl	4730 <get_mpi>
    47ea:	42af      	cmp	r7, r5
    47ec:	f10d 081c 	add.w	r8, sp, #28
    47f0:	d015      	beq.n	481e <bigint_binary+0x5e>
    47f2:	45ab      	cmp	fp, r5
    47f4:	d015      	beq.n	4822 <bigint_binary+0x62>
    47f6:	4629      	mov	r1, r5
    47f8:	4640      	mov	r0, r8
    47fa:	4645      	mov	r5, r8
    47fc:	f7ff ff98 	bl	4730 <get_mpi>
    4800:	462a      	mov	r2, r5
    4802:	4631      	mov	r1, r6
    4804:	4620      	mov	r0, r4
    4806:	47d0      	blx	sl
    4808:	4602      	mov	r2, r0
    480a:	b160      	cbz	r0, 4826 <bigint_binary+0x66>
    480c:	4813      	ldr	r0, [pc, #76]	; (485c <bigint_binary+0x9c>)
    480e:	f44f 71aa 	mov.w	r1, #340	; 0x154
    4812:	4478      	add	r0, pc
    4814:	3008      	adds	r0, #8
    4816:	f7ff ff7b 	bl	4710 <mpi_panic>
    481a:	4626      	mov	r6, r4
    481c:	e7e5      	b.n	47ea <bigint_binary+0x2a>
    481e:	4625      	mov	r5, r4
    4820:	e7ee      	b.n	4800 <bigint_binary+0x40>
    4822:	4635      	mov	r5, r6
    4824:	e7ec      	b.n	4800 <bigint_binary+0x40>
    4826:	4639      	mov	r1, r7
    4828:	4620      	mov	r0, r4
    482a:	f7ff ffa7 	bl	477c <copy_mpi_to_bigint>
    482e:	4602      	mov	r2, r0
    4830:	b120      	cbz	r0, 483c <bigint_binary+0x7c>
    4832:	480b      	ldr	r0, [pc, #44]	; (4860 <bigint_binary+0xa0>)
    4834:	f44f 71ab 	mov.w	r1, #342	; 0x156
    4838:	4478      	add	r0, pc
    483a:	e7eb      	b.n	4814 <bigint_binary+0x54>
    483c:	4620      	mov	r0, r4
    483e:	f001 fd1b 	bl	6278 <mbedtls_mpi_free>
    4842:	454e      	cmp	r6, r9
    4844:	d102      	bne.n	484c <bigint_binary+0x8c>
    4846:	4630      	mov	r0, r6
    4848:	f001 fd16 	bl	6278 <mbedtls_mpi_free>
    484c:	4545      	cmp	r5, r8
    484e:	d102      	bne.n	4856 <bigint_binary+0x96>
    4850:	4628      	mov	r0, r5
    4852:	f001 fd11 	bl	6278 <mbedtls_mpi_free>
    4856:	b00b      	add	sp, #44	; 0x2c
    4858:	e8bd 8ff0 	ldmia.w	sp!, {r4, r5, r6, r7, r8, r9, sl, fp, pc}
    485c:	000053cc 	.word	0x000053cc
    4860:	000053a6 	.word	0x000053a6

00004864 <mpi_is_odd>:
    4864:	b508      	push	{r3, lr}
    4866:	2100      	movs	r1, #0
    4868:	f001 feb5 	bl	65d6 <mbedtls_mpi_get_bit>
    486c:	3000      	adds	r0, #0
    486e:	bf18      	it	ne
    4870:	2001      	movne	r0, #1
    4872:	bd08      	pop	{r3, pc}

00004874 <rng_read>:
    4874:	b508      	push	{r3, lr}
    4876:	4608      	mov	r0, r1
    4878:	4611      	mov	r1, r2
    487a:	f7ff e8f4 	blx	3a64 <_utee_cryp_random_number_generate>
    487e:	2800      	cmp	r0, #0
    4880:	bf14      	ite	ne
    4882:	f06f 0001 	mvnne.w	r0, #1
    4886:	2000      	moveq	r0, #0
    4888:	bd08      	pop	{r3, pc}

0000488a <mpi_egcd>:
    488a:	e92d 4ff0 	stmdb	sp!, {r4, r5, r6, r7, r8, r9, sl, fp, lr}
    488e:	b09b      	sub	sp, #108	; 0x6c
    4890:	f10d 0814 	add.w	r8, sp, #20
    4894:	4681      	mov	r9, r0
    4896:	af08      	add	r7, sp, #32
    4898:	4640      	mov	r0, r8
    489a:	9301      	str	r3, [sp, #4]
    489c:	9102      	str	r1, [sp, #8]
    489e:	ad0b      	add	r5, sp, #44	; 0x2c
    48a0:	ac0e      	add	r4, sp, #56	; 0x38
    48a2:	9203      	str	r2, [sp, #12]
    48a4:	f10d 0a44 	add.w	sl, sp, #68	; 0x44
    48a8:	f10d 0b50 	add.w	fp, sp, #80	; 0x50
    48ac:	f001 fcd1 	bl	6252 <mbedtls_mpi_init_mempool>
    48b0:	4638      	mov	r0, r7
    48b2:	ae17      	add	r6, sp, #92	; 0x5c
    48b4:	f001 fccd 	bl	6252 <mbedtls_mpi_init_mempool>
    48b8:	4628      	mov	r0, r5
    48ba:	f001 fcca 	bl	6252 <mbedtls_mpi_init_mempool>
    48be:	4620      	mov	r0, r4
    48c0:	f001 fcc7 	bl	6252 <mbedtls_mpi_init_mempool>
    48c4:	4650      	mov	r0, sl
    48c6:	f001 fcc4 	bl	6252 <mbedtls_mpi_init_mempool>
    48ca:	4658      	mov	r0, fp
    48cc:	f001 fcc1 	bl	6252 <mbedtls_mpi_init_mempool>
    48d0:	4630      	mov	r0, r6
    48d2:	f001 fcbe 	bl	6252 <mbedtls_mpi_init_mempool>
    48d6:	2100      	movs	r1, #0
    48d8:	9824      	ldr	r0, [sp, #144]	; 0x90
    48da:	f002 f939 	bl	6b50 <mbedtls_mpi_cmp_int>
    48de:	bb20      	cbnz	r0, 492a <mpi_egcd+0xa0>
    48e0:	2101      	movs	r1, #1
    48e2:	9802      	ldr	r0, [sp, #8]
    48e4:	f001 fe5b 	bl	659e <mbedtls_mpi_lset>
    48e8:	4602      	mov	r2, r0
    48ea:	b130      	cbz	r0, 48fa <mpi_egcd+0x70>
    48ec:	48dd      	ldr	r0, [pc, #884]	; (4c64 <mpi_egcd+0x3da>)
    48ee:	f240 2171 	movw	r1, #625	; 0x271
    48f2:	4478      	add	r0, pc
    48f4:	3016      	adds	r0, #22
    48f6:	f7ff ff0b 	bl	4710 <mpi_panic>
    48fa:	4601      	mov	r1, r0
    48fc:	9803      	ldr	r0, [sp, #12]
    48fe:	f001 fe4e 	bl	659e <mbedtls_mpi_lset>
    4902:	4602      	mov	r2, r0
    4904:	b120      	cbz	r0, 4910 <mpi_egcd+0x86>
    4906:	48d8      	ldr	r0, [pc, #864]	; (4c68 <mpi_egcd+0x3de>)
    4908:	f240 2172 	movw	r1, #626	; 0x272
    490c:	4478      	add	r0, pc
    490e:	e7f1      	b.n	48f4 <mpi_egcd+0x6a>
    4910:	4648      	mov	r0, r9
    4912:	9901      	ldr	r1, [sp, #4]
    4914:	f001 fd82 	bl	641c <mbedtls_mpi_copy>
    4918:	4602      	mov	r2, r0
    491a:	2800      	cmp	r0, #0
    491c:	f000 818a 	beq.w	4c34 <mpi_egcd+0x3aa>
    4920:	48d2      	ldr	r0, [pc, #840]	; (4c6c <mpi_egcd+0x3e2>)
    4922:	f240 2173 	movw	r1, #627	; 0x273
    4926:	4478      	add	r0, pc
    4928:	e7e4      	b.n	48f4 <mpi_egcd+0x6a>
    492a:	4650      	mov	r0, sl
    492c:	9901      	ldr	r1, [sp, #4]
    492e:	f001 fd75 	bl	641c <mbedtls_mpi_copy>
    4932:	4602      	mov	r2, r0
    4934:	b120      	cbz	r0, 4940 <mpi_egcd+0xb6>
    4936:	48ce      	ldr	r0, [pc, #824]	; (4c70 <mpi_egcd+0x3e6>)
    4938:	f240 2177 	movw	r1, #631	; 0x277
    493c:	4478      	add	r0, pc
    493e:	e7d9      	b.n	48f4 <mpi_egcd+0x6a>
    4940:	4658      	mov	r0, fp
    4942:	9924      	ldr	r1, [sp, #144]	; 0x90
    4944:	f001 fd6a 	bl	641c <mbedtls_mpi_copy>
    4948:	4602      	mov	r2, r0
    494a:	b178      	cbz	r0, 496c <mpi_egcd+0xe2>
    494c:	48c9      	ldr	r0, [pc, #804]	; (4c74 <mpi_egcd+0x3ea>)
    494e:	f44f 711e 	mov.w	r1, #632	; 0x278
    4952:	4478      	add	r0, pc
    4954:	e7ce      	b.n	48f4 <mpi_egcd+0x6a>
    4956:	2101      	movs	r1, #1
    4958:	4658      	mov	r0, fp
    495a:	f001 ffd4 	bl	6906 <mbedtls_mpi_shift_r>
    495e:	4602      	mov	r2, r0
    4960:	b128      	cbz	r0, 496e <mpi_egcd+0xe4>
    4962:	48c5      	ldr	r0, [pc, #788]	; (4c78 <mpi_egcd+0x3ee>)
    4964:	f240 217e 	movw	r1, #638	; 0x27e
    4968:	4478      	add	r0, pc
    496a:	e7c3      	b.n	48f4 <mpi_egcd+0x6a>
    496c:	9001      	str	r0, [sp, #4]
    496e:	4650      	mov	r0, sl
    4970:	f7ff ff78 	bl	4864 <mpi_is_odd>
    4974:	b150      	cbz	r0, 498c <mpi_egcd+0x102>
    4976:	4651      	mov	r1, sl
    4978:	4630      	mov	r0, r6
    497a:	f001 fd4f 	bl	641c <mbedtls_mpi_copy>
    497e:	4602      	mov	r2, r0
    4980:	b1c0      	cbz	r0, 49b4 <mpi_egcd+0x12a>
    4982:	48be      	ldr	r0, [pc, #760]	; (4c7c <mpi_egcd+0x3f2>)
    4984:	f240 2181 	movw	r1, #641	; 0x281
    4988:	4478      	add	r0, pc
    498a:	e7b3      	b.n	48f4 <mpi_egcd+0x6a>
    498c:	4658      	mov	r0, fp
    498e:	f7ff ff69 	bl	4864 <mpi_is_odd>
    4992:	2800      	cmp	r0, #0
    4994:	d1ef      	bne.n	4976 <mpi_egcd+0xec>
    4996:	9b01      	ldr	r3, [sp, #4]
    4998:	2101      	movs	r1, #1
    499a:	4650      	mov	r0, sl
    499c:	3301      	adds	r3, #1
    499e:	9301      	str	r3, [sp, #4]
    49a0:	f001 ffb1 	bl	6906 <mbedtls_mpi_shift_r>
    49a4:	4602      	mov	r2, r0
    49a6:	2800      	cmp	r0, #0
    49a8:	d0d5      	beq.n	4956 <mpi_egcd+0xcc>
    49aa:	48b5      	ldr	r0, [pc, #724]	; (4c80 <mpi_egcd+0x3f6>)
    49ac:	f240 217d 	movw	r1, #637	; 0x27d
    49b0:	4478      	add	r0, pc
    49b2:	e79f      	b.n	48f4 <mpi_egcd+0x6a>
    49b4:	4659      	mov	r1, fp
    49b6:	4648      	mov	r0, r9
    49b8:	f001 fd30 	bl	641c <mbedtls_mpi_copy>
    49bc:	4602      	mov	r2, r0
    49be:	b120      	cbz	r0, 49ca <mpi_egcd+0x140>
    49c0:	48b0      	ldr	r0, [pc, #704]	; (4c84 <mpi_egcd+0x3fa>)
    49c2:	f240 2182 	movw	r1, #642	; 0x282
    49c6:	4478      	add	r0, pc
    49c8:	e794      	b.n	48f4 <mpi_egcd+0x6a>
    49ca:	2101      	movs	r1, #1
    49cc:	4640      	mov	r0, r8
    49ce:	f001 fde6 	bl	659e <mbedtls_mpi_lset>
    49d2:	4602      	mov	r2, r0
    49d4:	b120      	cbz	r0, 49e0 <mpi_egcd+0x156>
    49d6:	48ac      	ldr	r0, [pc, #688]	; (4c88 <mpi_egcd+0x3fe>)
    49d8:	f240 2183 	movw	r1, #643	; 0x283
    49dc:	4478      	add	r0, pc
    49de:	e789      	b.n	48f4 <mpi_egcd+0x6a>
    49e0:	4601      	mov	r1, r0
    49e2:	4638      	mov	r0, r7
    49e4:	f001 fddb 	bl	659e <mbedtls_mpi_lset>
    49e8:	4602      	mov	r2, r0
    49ea:	b120      	cbz	r0, 49f6 <mpi_egcd+0x16c>
    49ec:	48a7      	ldr	r0, [pc, #668]	; (4c8c <mpi_egcd+0x402>)
    49ee:	f44f 7121 	mov.w	r1, #644	; 0x284
    49f2:	4478      	add	r0, pc
    49f4:	e77e      	b.n	48f4 <mpi_egcd+0x6a>
    49f6:	4601      	mov	r1, r0
    49f8:	4628      	mov	r0, r5
    49fa:	f001 fdd0 	bl	659e <mbedtls_mpi_lset>
    49fe:	4602      	mov	r2, r0
    4a00:	b120      	cbz	r0, 4a0c <mpi_egcd+0x182>
    4a02:	48a3      	ldr	r0, [pc, #652]	; (4c90 <mpi_egcd+0x406>)
    4a04:	f240 2185 	movw	r1, #645	; 0x285
    4a08:	4478      	add	r0, pc
    4a0a:	e773      	b.n	48f4 <mpi_egcd+0x6a>
    4a0c:	2101      	movs	r1, #1
    4a0e:	4620      	mov	r0, r4
    4a10:	f001 fdc5 	bl	659e <mbedtls_mpi_lset>
    4a14:	4602      	mov	r2, r0
    4a16:	2800      	cmp	r0, #0
    4a18:	f000 80e4 	beq.w	4be4 <mpi_egcd+0x35a>
    4a1c:	489d      	ldr	r0, [pc, #628]	; (4c94 <mpi_egcd+0x40a>)
    4a1e:	f240 2186 	movw	r1, #646	; 0x286
    4a22:	4478      	add	r0, pc
    4a24:	e766      	b.n	48f4 <mpi_egcd+0x6a>
    4a26:	2101      	movs	r1, #1
    4a28:	4630      	mov	r0, r6
    4a2a:	f001 ff6c 	bl	6906 <mbedtls_mpi_shift_r>
    4a2e:	4602      	mov	r2, r0
    4a30:	b120      	cbz	r0, 4a3c <mpi_egcd+0x1b2>
    4a32:	4899      	ldr	r0, [pc, #612]	; (4c98 <mpi_egcd+0x40e>)
    4a34:	f240 218a 	movw	r1, #650	; 0x28a
    4a38:	4478      	add	r0, pc
    4a3a:	e75b      	b.n	48f4 <mpi_egcd+0x6a>
    4a3c:	4640      	mov	r0, r8
    4a3e:	f7ff ff11 	bl	4864 <mpi_is_odd>
    4a42:	b158      	cbz	r0, 4a5c <mpi_egcd+0x1d2>
    4a44:	465a      	mov	r2, fp
    4a46:	4641      	mov	r1, r8
    4a48:	4640      	mov	r0, r8
    4a4a:	f002 f937 	bl	6cbc <mbedtls_mpi_add_mpi>
    4a4e:	4602      	mov	r2, r0
    4a50:	b1a0      	cbz	r0, 4a7c <mpi_egcd+0x1f2>
    4a52:	4892      	ldr	r0, [pc, #584]	; (4c9c <mpi_egcd+0x412>)
    4a54:	f44f 7123 	mov.w	r1, #652	; 0x28c
    4a58:	4478      	add	r0, pc
    4a5a:	e74b      	b.n	48f4 <mpi_egcd+0x6a>
    4a5c:	4638      	mov	r0, r7
    4a5e:	f7ff ff01 	bl	4864 <mpi_is_odd>
    4a62:	2800      	cmp	r0, #0
    4a64:	d1ee      	bne.n	4a44 <mpi_egcd+0x1ba>
    4a66:	2101      	movs	r1, #1
    4a68:	4640      	mov	r0, r8
    4a6a:	f001 ff4c 	bl	6906 <mbedtls_mpi_shift_r>
    4a6e:	4602      	mov	r2, r0
    4a70:	b188      	cbz	r0, 4a96 <mpi_egcd+0x20c>
    4a72:	488b      	ldr	r0, [pc, #556]	; (4ca0 <mpi_egcd+0x416>)
    4a74:	f240 218f 	movw	r1, #655	; 0x28f
    4a78:	4478      	add	r0, pc
    4a7a:	e73b      	b.n	48f4 <mpi_egcd+0x6a>
    4a7c:	4652      	mov	r2, sl
    4a7e:	4639      	mov	r1, r7
    4a80:	4638      	mov	r0, r7
    4a82:	f002 f93f 	bl	6d04 <mbedtls_mpi_sub_mpi>
    4a86:	4602      	mov	r2, r0
    4a88:	2800      	cmp	r0, #0
    4a8a:	d0ec      	beq.n	4a66 <mpi_egcd+0x1dc>
    4a8c:	4885      	ldr	r0, [pc, #532]	; (4ca4 <mpi_egcd+0x41a>)
    4a8e:	f240 218d 	movw	r1, #653	; 0x28d
    4a92:	4478      	add	r0, pc
    4a94:	e72e      	b.n	48f4 <mpi_egcd+0x6a>
    4a96:	2101      	movs	r1, #1
    4a98:	4638      	mov	r0, r7
    4a9a:	f001 ff34 	bl	6906 <mbedtls_mpi_shift_r>
    4a9e:	4602      	mov	r2, r0
    4aa0:	b120      	cbz	r0, 4aac <mpi_egcd+0x222>
    4aa2:	4881      	ldr	r0, [pc, #516]	; (4ca8 <mpi_egcd+0x41e>)
    4aa4:	f44f 7124 	mov.w	r1, #656	; 0x290
    4aa8:	4478      	add	r0, pc
    4aaa:	e723      	b.n	48f4 <mpi_egcd+0x6a>
    4aac:	4630      	mov	r0, r6
    4aae:	f7ff fed9 	bl	4864 <mpi_is_odd>
    4ab2:	2800      	cmp	r0, #0
    4ab4:	d0b7      	beq.n	4a26 <mpi_egcd+0x19c>
    4ab6:	4648      	mov	r0, r9
    4ab8:	f7ff fed4 	bl	4864 <mpi_is_odd>
    4abc:	b190      	cbz	r0, 4ae4 <mpi_egcd+0x25a>
    4abe:	4649      	mov	r1, r9
    4ac0:	4630      	mov	r0, r6
    4ac2:	f001 ff9d 	bl	6a00 <mbedtls_mpi_cmp_mpi>
    4ac6:	2800      	cmp	r0, #0
    4ac8:	db68      	blt.n	4b9c <mpi_egcd+0x312>
    4aca:	464a      	mov	r2, r9
    4acc:	4631      	mov	r1, r6
    4ace:	4630      	mov	r0, r6
    4ad0:	f002 f918 	bl	6d04 <mbedtls_mpi_sub_mpi>
    4ad4:	4602      	mov	r2, r0
    4ad6:	2800      	cmp	r0, #0
    4ad8:	d048      	beq.n	4b6c <mpi_egcd+0x2e2>
    4ada:	4874      	ldr	r0, [pc, #464]	; (4cac <mpi_egcd+0x422>)
    4adc:	f240 219f 	movw	r1, #671	; 0x29f
    4ae0:	4478      	add	r0, pc
    4ae2:	e707      	b.n	48f4 <mpi_egcd+0x6a>
    4ae4:	2101      	movs	r1, #1
    4ae6:	4648      	mov	r0, r9
    4ae8:	f001 ff0d 	bl	6906 <mbedtls_mpi_shift_r>
    4aec:	4602      	mov	r2, r0
    4aee:	b120      	cbz	r0, 4afa <mpi_egcd+0x270>
    4af0:	486f      	ldr	r0, [pc, #444]	; (4cb0 <mpi_egcd+0x426>)
    4af2:	f44f 7125 	mov.w	r1, #660	; 0x294
    4af6:	4478      	add	r0, pc
    4af8:	e6fc      	b.n	48f4 <mpi_egcd+0x6a>
    4afa:	4628      	mov	r0, r5
    4afc:	f7ff feb2 	bl	4864 <mpi_is_odd>
    4b00:	b158      	cbz	r0, 4b1a <mpi_egcd+0x290>
    4b02:	465a      	mov	r2, fp
    4b04:	4629      	mov	r1, r5
    4b06:	4628      	mov	r0, r5
    4b08:	f002 f8d8 	bl	6cbc <mbedtls_mpi_add_mpi>
    4b0c:	4602      	mov	r2, r0
    4b0e:	b1a0      	cbz	r0, 4b3a <mpi_egcd+0x2b0>
    4b10:	4868      	ldr	r0, [pc, #416]	; (4cb4 <mpi_egcd+0x42a>)
    4b12:	f240 2196 	movw	r1, #662	; 0x296
    4b16:	4478      	add	r0, pc
    4b18:	e6ec      	b.n	48f4 <mpi_egcd+0x6a>
    4b1a:	4620      	mov	r0, r4
    4b1c:	f7ff fea2 	bl	4864 <mpi_is_odd>
    4b20:	2800      	cmp	r0, #0
    4b22:	d1ee      	bne.n	4b02 <mpi_egcd+0x278>
    4b24:	2101      	movs	r1, #1
    4b26:	4628      	mov	r0, r5
    4b28:	f001 feed 	bl	6906 <mbedtls_mpi_shift_r>
    4b2c:	4602      	mov	r2, r0
    4b2e:	b188      	cbz	r0, 4b54 <mpi_egcd+0x2ca>
    4b30:	4861      	ldr	r0, [pc, #388]	; (4cb8 <mpi_egcd+0x42e>)
    4b32:	f240 2199 	movw	r1, #665	; 0x299
    4b36:	4478      	add	r0, pc
    4b38:	e6dc      	b.n	48f4 <mpi_egcd+0x6a>
    4b3a:	4652      	mov	r2, sl
    4b3c:	4621      	mov	r1, r4
    4b3e:	4620      	mov	r0, r4
    4b40:	f002 f8e0 	bl	6d04 <mbedtls_mpi_sub_mpi>
    4b44:	4602      	mov	r2, r0
    4b46:	2800      	cmp	r0, #0
    4b48:	d0ec      	beq.n	4b24 <mpi_egcd+0x29a>
    4b4a:	485c      	ldr	r0, [pc, #368]	; (4cbc <mpi_egcd+0x432>)
    4b4c:	f240 2197 	movw	r1, #663	; 0x297
    4b50:	4478      	add	r0, pc
    4b52:	e6cf      	b.n	48f4 <mpi_egcd+0x6a>
    4b54:	2101      	movs	r1, #1
    4b56:	4620      	mov	r0, r4
    4b58:	f001 fed5 	bl	6906 <mbedtls_mpi_shift_r>
    4b5c:	4602      	mov	r2, r0
    4b5e:	2800      	cmp	r0, #0
    4b60:	d0a9      	beq.n	4ab6 <mpi_egcd+0x22c>
    4b62:	4857      	ldr	r0, [pc, #348]	; (4cc0 <mpi_egcd+0x436>)
    4b64:	f240 219a 	movw	r1, #666	; 0x29a
    4b68:	4478      	add	r0, pc
    4b6a:	e6c3      	b.n	48f4 <mpi_egcd+0x6a>
    4b6c:	462a      	mov	r2, r5
    4b6e:	4641      	mov	r1, r8
    4b70:	4640      	mov	r0, r8
    4b72:	f002 f8c7 	bl	6d04 <mbedtls_mpi_sub_mpi>
    4b76:	4602      	mov	r2, r0
    4b78:	b120      	cbz	r0, 4b84 <mpi_egcd+0x2fa>
    4b7a:	4852      	ldr	r0, [pc, #328]	; (4cc4 <mpi_egcd+0x43a>)
    4b7c:	f44f 7128 	mov.w	r1, #672	; 0x2a0
    4b80:	4478      	add	r0, pc
    4b82:	e6b7      	b.n	48f4 <mpi_egcd+0x6a>
    4b84:	4622      	mov	r2, r4
    4b86:	4639      	mov	r1, r7
    4b88:	4638      	mov	r0, r7
    4b8a:	f002 f8bb 	bl	6d04 <mbedtls_mpi_sub_mpi>
    4b8e:	4602      	mov	r2, r0
    4b90:	b340      	cbz	r0, 4be4 <mpi_egcd+0x35a>
    4b92:	484d      	ldr	r0, [pc, #308]	; (4cc8 <mpi_egcd+0x43e>)
    4b94:	f240 21a1 	movw	r1, #673	; 0x2a1
    4b98:	4478      	add	r0, pc
    4b9a:	e6ab      	b.n	48f4 <mpi_egcd+0x6a>
    4b9c:	4632      	mov	r2, r6
    4b9e:	4649      	mov	r1, r9
    4ba0:	4648      	mov	r0, r9
    4ba2:	f002 f8af 	bl	6d04 <mbedtls_mpi_sub_mpi>
    4ba6:	4602      	mov	r2, r0
    4ba8:	b120      	cbz	r0, 4bb4 <mpi_egcd+0x32a>
    4baa:	4848      	ldr	r0, [pc, #288]	; (4ccc <mpi_egcd+0x442>)
    4bac:	f240 21a3 	movw	r1, #675	; 0x2a3
    4bb0:	4478      	add	r0, pc
    4bb2:	e69f      	b.n	48f4 <mpi_egcd+0x6a>
    4bb4:	4642      	mov	r2, r8
    4bb6:	4629      	mov	r1, r5
    4bb8:	4628      	mov	r0, r5
    4bba:	f002 f8a3 	bl	6d04 <mbedtls_mpi_sub_mpi>
    4bbe:	4602      	mov	r2, r0
    4bc0:	b120      	cbz	r0, 4bcc <mpi_egcd+0x342>
    4bc2:	4843      	ldr	r0, [pc, #268]	; (4cd0 <mpi_egcd+0x446>)
    4bc4:	f44f 7129 	mov.w	r1, #676	; 0x2a4
    4bc8:	4478      	add	r0, pc
    4bca:	e693      	b.n	48f4 <mpi_egcd+0x6a>
    4bcc:	463a      	mov	r2, r7
    4bce:	4621      	mov	r1, r4
    4bd0:	4620      	mov	r0, r4
    4bd2:	f002 f897 	bl	6d04 <mbedtls_mpi_sub_mpi>
    4bd6:	4602      	mov	r2, r0
    4bd8:	b120      	cbz	r0, 4be4 <mpi_egcd+0x35a>
    4bda:	483e      	ldr	r0, [pc, #248]	; (4cd4 <mpi_egcd+0x44a>)
    4bdc:	f240 21a5 	movw	r1, #677	; 0x2a5
    4be0:	4478      	add	r0, pc
    4be2:	e687      	b.n	48f4 <mpi_egcd+0x6a>
    4be4:	2100      	movs	r1, #0
    4be6:	4630      	mov	r0, r6
    4be8:	f001 ffb2 	bl	6b50 <mbedtls_mpi_cmp_int>
    4bec:	2800      	cmp	r0, #0
    4bee:	f47f af5d 	bne.w	4aac <mpi_egcd+0x222>
    4bf2:	4629      	mov	r1, r5
    4bf4:	9802      	ldr	r0, [sp, #8]
    4bf6:	f001 fc11 	bl	641c <mbedtls_mpi_copy>
    4bfa:	4602      	mov	r2, r0
    4bfc:	b120      	cbz	r0, 4c08 <mpi_egcd+0x37e>
    4bfe:	4836      	ldr	r0, [pc, #216]	; (4cd8 <mpi_egcd+0x44e>)
    4c00:	f240 21a9 	movw	r1, #681	; 0x2a9
    4c04:	4478      	add	r0, pc
    4c06:	e675      	b.n	48f4 <mpi_egcd+0x6a>
    4c08:	4621      	mov	r1, r4
    4c0a:	9803      	ldr	r0, [sp, #12]
    4c0c:	f001 fc06 	bl	641c <mbedtls_mpi_copy>
    4c10:	4602      	mov	r2, r0
    4c12:	b120      	cbz	r0, 4c1e <mpi_egcd+0x394>
    4c14:	4831      	ldr	r0, [pc, #196]	; (4cdc <mpi_egcd+0x452>)
    4c16:	f240 21aa 	movw	r1, #682	; 0x2aa
    4c1a:	4478      	add	r0, pc
    4c1c:	e66a      	b.n	48f4 <mpi_egcd+0x6a>
    4c1e:	4648      	mov	r0, r9
    4c20:	9901      	ldr	r1, [sp, #4]
    4c22:	f001 fe25 	bl	6870 <mbedtls_mpi_shift_l>
    4c26:	4602      	mov	r2, r0
    4c28:	b120      	cbz	r0, 4c34 <mpi_egcd+0x3aa>
    4c2a:	482d      	ldr	r0, [pc, #180]	; (4ce0 <mpi_egcd+0x456>)
    4c2c:	f240 21ab 	movw	r1, #683	; 0x2ab
    4c30:	4478      	add	r0, pc
    4c32:	e65f      	b.n	48f4 <mpi_egcd+0x6a>
    4c34:	4640      	mov	r0, r8
    4c36:	f001 fb1f 	bl	6278 <mbedtls_mpi_free>
    4c3a:	4638      	mov	r0, r7
    4c3c:	f001 fb1c 	bl	6278 <mbedtls_mpi_free>
    4c40:	4628      	mov	r0, r5
    4c42:	f001 fb19 	bl	6278 <mbedtls_mpi_free>
    4c46:	4620      	mov	r0, r4
    4c48:	f001 fb16 	bl	6278 <mbedtls_mpi_free>
    4c4c:	4650      	mov	r0, sl
    4c4e:	f001 fb13 	bl	6278 <mbedtls_mpi_free>
    4c52:	4658      	mov	r0, fp
    4c54:	f001 fb10 	bl	6278 <mbedtls_mpi_free>
    4c58:	4630      	mov	r0, r6
    4c5a:	f001 fb0d 	bl	6278 <mbedtls_mpi_free>
    4c5e:	b01b      	add	sp, #108	; 0x6c
    4c60:	e8bd 8ff0 	ldmia.w	sp!, {r4, r5, r6, r7, r8, r9, sl, fp, pc}
    4c64:	000052ec 	.word	0x000052ec
    4c68:	000052d2 	.word	0x000052d2
    4c6c:	000052b8 	.word	0x000052b8
    4c70:	000052a2 	.word	0x000052a2
    4c74:	0000528c 	.word	0x0000528c
    4c78:	00005276 	.word	0x00005276
    4c7c:	00005256 	.word	0x00005256
    4c80:	0000522e 	.word	0x0000522e
    4c84:	00005218 	.word	0x00005218
    4c88:	00005202 	.word	0x00005202
    4c8c:	000051ec 	.word	0x000051ec
    4c90:	000051d6 	.word	0x000051d6
    4c94:	000051bc 	.word	0x000051bc
    4c98:	000051a6 	.word	0x000051a6
    4c9c:	00005186 	.word	0x00005186
    4ca0:	00005166 	.word	0x00005166
    4ca4:	0000514c 	.word	0x0000514c
    4ca8:	00005136 	.word	0x00005136
    4cac:	000050fe 	.word	0x000050fe
    4cb0:	000050e8 	.word	0x000050e8
    4cb4:	000050c8 	.word	0x000050c8
    4cb8:	000050a8 	.word	0x000050a8
    4cbc:	0000508e 	.word	0x0000508e
    4cc0:	00005076 	.word	0x00005076
    4cc4:	0000505e 	.word	0x0000505e
    4cc8:	00005046 	.word	0x00005046
    4ccc:	0000502e 	.word	0x0000502e
    4cd0:	00005016 	.word	0x00005016
    4cd4:	00004ffe 	.word	0x00004ffe
    4cd8:	00004fda 	.word	0x00004fda
    4cdc:	00004fc4 	.word	0x00004fc4
    4ce0:	00004fae 	.word	0x00004fae

00004ce4 <_TEE_MathAPI_Init>:
    4ce4:	480b      	ldr	r0, [pc, #44]	; (4d14 <_TEE_MathAPI_Init+0x30>)
    4ce6:	2200      	movs	r2, #0
    4ce8:	f44f 5140 	mov.w	r1, #12288	; 0x3000
    4cec:	b510      	push	{r4, lr}
    4cee:	4c0a      	ldr	r4, [pc, #40]	; (4d18 <_TEE_MathAPI_Init+0x34>)
    4cf0:	4478      	add	r0, pc
    4cf2:	f004 f9a7 	bl	9044 <mempool_alloc_pool>
    4cf6:	4b09      	ldr	r3, [pc, #36]	; (4d1c <_TEE_MathAPI_Init+0x38>)
    4cf8:	447c      	add	r4, pc
    4cfa:	58e3      	ldr	r3, [r4, r3]
    4cfc:	6018      	str	r0, [r3, #0]
    4cfe:	b938      	cbnz	r0, 4d10 <_TEE_MathAPI_Init+0x2c>
    4d00:	4807      	ldr	r0, [pc, #28]	; (4d20 <_TEE_MathAPI_Init+0x3c>)
    4d02:	2131      	movs	r1, #49	; 0x31
    4d04:	4a07      	ldr	r2, [pc, #28]	; (4d24 <_TEE_MathAPI_Init+0x40>)
    4d06:	4478      	add	r0, pc
    4d08:	447a      	add	r2, pc
    4d0a:	301f      	adds	r0, #31
    4d0c:	f000 fdd0 	bl	58b0 <api_panic>
    4d10:	bd10      	pop	{r4, pc}
    4d12:	bf00      	nop
    4d14:	000076a4 	.word	0x000076a4
    4d18:	00007384 	.word	0x00007384
    4d1c:	00000050 	.word	0x00000050
    4d20:	00004ed8 	.word	0x00004ed8
    4d24:	00005058 	.word	0x00005058

00004d28 <TEE_BigIntInit>:
    4d28:	b538      	push	{r3, r4, r5, lr}
    4d2a:	008a      	lsls	r2, r1, #2
    4d2c:	460c      	mov	r4, r1
    4d2e:	2100      	movs	r1, #0
    4d30:	4605      	mov	r5, r0
    4d32:	f004 fa10 	bl	9156 <memset>
    4d36:	2301      	movs	r3, #1
    4d38:	3c02      	subs	r4, #2
    4d3a:	602b      	str	r3, [r5, #0]
    4d3c:	f242 7310 	movw	r3, #10000	; 0x2710
    4d40:	429c      	cmp	r4, r3
    4d42:	d907      	bls.n	4d54 <TEE_BigIntInit+0x2c>
    4d44:	4804      	ldr	r0, [pc, #16]	; (4d58 <TEE_BigIntInit+0x30>)
    4d46:	217d      	movs	r1, #125	; 0x7d
    4d48:	4a04      	ldr	r2, [pc, #16]	; (4d5c <TEE_BigIntInit+0x34>)
    4d4a:	4478      	add	r0, pc
    4d4c:	447a      	add	r2, pc
    4d4e:	3031      	adds	r0, #49	; 0x31
    4d50:	f000 fdae 	bl	58b0 <api_panic>
    4d54:	80ac      	strh	r4, [r5, #4]
    4d56:	bd38      	pop	{r3, r4, r5, pc}
    4d58:	00004e94 	.word	0x00004e94
    4d5c:	00005035 	.word	0x00005035

00004d60 <TEE_BigIntConvertFromOctetString>:
    4d60:	e92d 41ff 	stmdb	sp!, {r0, r1, r2, r3, r4, r5, r6, r7, r8, lr}
    4d64:	ad01      	add	r5, sp, #4
    4d66:	460f      	mov	r7, r1
    4d68:	4690      	mov	r8, r2
    4d6a:	4606      	mov	r6, r0
    4d6c:	4628      	mov	r0, r5
    4d6e:	461c      	mov	r4, r3
    4d70:	f001 fa6f 	bl	6252 <mbedtls_mpi_init_mempool>
    4d74:	4642      	mov	r2, r8
    4d76:	4639      	mov	r1, r7
    4d78:	4628      	mov	r0, r5
    4d7a:	f001 fcd5 	bl	6728 <mbedtls_mpi_read_binary>
    4d7e:	b998      	cbnz	r0, 4da8 <TEE_BigIntConvertFromOctetString+0x48>
    4d80:	2c00      	cmp	r4, #0
    4d82:	da05      	bge.n	4d90 <TEE_BigIntConvertFromOctetString+0x30>
    4d84:	4604      	mov	r4, r0
    4d86:	f64f 73ff 	movw	r3, #65535	; 0xffff
    4d8a:	f8ad 3004 	strh.w	r3, [sp, #4]
    4d8e:	b924      	cbnz	r4, 4d9a <TEE_BigIntConvertFromOctetString+0x3a>
    4d90:	4631      	mov	r1, r6
    4d92:	4628      	mov	r0, r5
    4d94:	f7ff fcf2 	bl	477c <copy_mpi_to_bigint>
    4d98:	4604      	mov	r4, r0
    4d9a:	4628      	mov	r0, r5
    4d9c:	f001 fa6c 	bl	6278 <mbedtls_mpi_free>
    4da0:	4620      	mov	r0, r4
    4da2:	b004      	add	sp, #16
    4da4:	e8bd 81f0 	ldmia.w	sp!, {r4, r5, r6, r7, r8, pc}
    4da8:	2c00      	cmp	r4, #0
    4daa:	4c01      	ldr	r4, [pc, #4]	; (4db0 <TEE_BigIntConvertFromOctetString+0x50>)
    4dac:	daf5      	bge.n	4d9a <TEE_BigIntConvertFromOctetString+0x3a>
    4dae:	e7ea      	b.n	4d86 <TEE_BigIntConvertFromOctetString+0x26>
    4db0:	ffff300f 	.word	0xffff300f

00004db4 <TEE_BigIntConvertToOctetString>:
    4db4:	b5f0      	push	{r4, r5, r6, r7, lr}
    4db6:	b085      	sub	sp, #20
    4db8:	ad01      	add	r5, sp, #4
    4dba:	460f      	mov	r7, r1
    4dbc:	4604      	mov	r4, r0
    4dbe:	4611      	mov	r1, r2
    4dc0:	4628      	mov	r0, r5
    4dc2:	f7ff fcb5 	bl	4730 <get_mpi>
    4dc6:	4628      	mov	r0, r5
    4dc8:	f001 fc75 	bl	66b6 <mbedtls_mpi_size>
    4dcc:	683b      	ldr	r3, [r7, #0]
    4dce:	4606      	mov	r6, r0
    4dd0:	4298      	cmp	r0, r3
    4dd2:	d80c      	bhi.n	4dee <TEE_BigIntConvertToOctetString+0x3a>
    4dd4:	4602      	mov	r2, r0
    4dd6:	4621      	mov	r1, r4
    4dd8:	4628      	mov	r0, r5
    4dda:	f001 fd15 	bl	6808 <mbedtls_mpi_write_binary>
    4dde:	b170      	cbz	r0, 4dfe <TEE_BigIntConvertToOctetString+0x4a>
    4de0:	4602      	mov	r2, r0
    4de2:	4809      	ldr	r0, [pc, #36]	; (4e08 <TEE_BigIntConvertToOctetString+0x54>)
    4de4:	21a5      	movs	r1, #165	; 0xa5
    4de6:	4478      	add	r0, pc
    4de8:	3040      	adds	r0, #64	; 0x40
    4dea:	f7ff fc91 	bl	4710 <mpi_panic>
    4dee:	4c05      	ldr	r4, [pc, #20]	; (4e04 <TEE_BigIntConvertToOctetString+0x50>)
    4df0:	4628      	mov	r0, r5
    4df2:	603e      	str	r6, [r7, #0]
    4df4:	f001 fa40 	bl	6278 <mbedtls_mpi_free>
    4df8:	4620      	mov	r0, r4
    4dfa:	b005      	add	sp, #20
    4dfc:	bdf0      	pop	{r4, r5, r6, r7, pc}
    4dfe:	4604      	mov	r4, r0
    4e00:	e7f6      	b.n	4df0 <TEE_BigIntConvertToOctetString+0x3c>
    4e02:	bf00      	nop
    4e04:	ffff0010 	.word	0xffff0010
    4e08:	00004df8 	.word	0x00004df8

00004e0c <TEE_BigIntConvertFromS32>:
    4e0c:	b57f      	push	{r0, r1, r2, r3, r4, r5, r6, lr}
    4e0e:	ac01      	add	r4, sp, #4
    4e10:	460e      	mov	r6, r1
    4e12:	4605      	mov	r5, r0
    4e14:	4601      	mov	r1, r0
    4e16:	4620      	mov	r0, r4
    4e18:	f7ff fc8a 	bl	4730 <get_mpi>
    4e1c:	4631      	mov	r1, r6
    4e1e:	4620      	mov	r0, r4
    4e20:	f001 fbbd 	bl	659e <mbedtls_mpi_lset>
    4e24:	4602      	mov	r2, r0
    4e26:	b128      	cbz	r0, 4e34 <TEE_BigIntConvertFromS32+0x28>
    4e28:	480a      	ldr	r0, [pc, #40]	; (4e54 <TEE_BigIntConvertFromS32+0x48>)
    4e2a:	21b6      	movs	r1, #182	; 0xb6
    4e2c:	4478      	add	r0, pc
    4e2e:	305f      	adds	r0, #95	; 0x5f
    4e30:	f7ff fc6e 	bl	4710 <mpi_panic>
    4e34:	4629      	mov	r1, r5
    4e36:	4620      	mov	r0, r4
    4e38:	f7ff fca0 	bl	477c <copy_mpi_to_bigint>
    4e3c:	4602      	mov	r2, r0
    4e3e:	b118      	cbz	r0, 4e48 <TEE_BigIntConvertFromS32+0x3c>
    4e40:	4805      	ldr	r0, [pc, #20]	; (4e58 <TEE_BigIntConvertFromS32+0x4c>)
    4e42:	21b8      	movs	r1, #184	; 0xb8
    4e44:	4478      	add	r0, pc
    4e46:	e7f2      	b.n	4e2e <TEE_BigIntConvertFromS32+0x22>
    4e48:	4620      	mov	r0, r4
    4e4a:	f001 fa15 	bl	6278 <mbedtls_mpi_free>
    4e4e:	b004      	add	sp, #16
    4e50:	bd70      	pop	{r4, r5, r6, pc}
    4e52:	bf00      	nop
    4e54:	00004db2 	.word	0x00004db2
    4e58:	00004d9a 	.word	0x00004d9a

00004e5c <TEE_BigIntConvertToS32>:
    4e5c:	b530      	push	{r4, r5, lr}
    4e5e:	b085      	sub	sp, #20
    4e60:	ac01      	add	r4, sp, #4
    4e62:	4605      	mov	r5, r0
    4e64:	4620      	mov	r0, r4
    4e66:	f7ff fc63 	bl	4730 <get_mpi>
    4e6a:	2204      	movs	r2, #4
    4e6c:	4669      	mov	r1, sp
    4e6e:	4620      	mov	r0, r4
    4e70:	f001 fcca 	bl	6808 <mbedtls_mpi_write_binary>
    4e74:	b9d0      	cbnz	r0, 4eac <TEE_BigIntConvertToS32+0x50>
    4e76:	f9bd 3004 	ldrsh.w	r3, [sp, #4]
    4e7a:	2b00      	cmp	r3, #0
    4e7c:	9b00      	ldr	r3, [sp, #0]
    4e7e:	ba1b      	rev	r3, r3
    4e80:	dd09      	ble.n	4e96 <TEE_BigIntConvertToS32+0x3a>
    4e82:	2b00      	cmp	r3, #0
    4e84:	602b      	str	r3, [r5, #0]
    4e86:	db11      	blt.n	4eac <TEE_BigIntConvertToS32+0x50>
    4e88:	2500      	movs	r5, #0
    4e8a:	4620      	mov	r0, r4
    4e8c:	f001 f9f4 	bl	6278 <mbedtls_mpi_free>
    4e90:	4628      	mov	r0, r5
    4e92:	b005      	add	sp, #20
    4e94:	bd30      	pop	{r4, r5, pc}
    4e96:	425a      	negs	r2, r3
    4e98:	b11b      	cbz	r3, 4ea2 <TEE_BigIntConvertToS32+0x46>
    4e9a:	2a00      	cmp	r2, #0
    4e9c:	db03      	blt.n	4ea6 <TEE_BigIntConvertToS32+0x4a>
    4e9e:	2001      	movs	r0, #1
    4ea0:	e001      	b.n	4ea6 <TEE_BigIntConvertToS32+0x4a>
    4ea2:	2a00      	cmp	r2, #0
    4ea4:	dbfb      	blt.n	4e9e <TEE_BigIntConvertToS32+0x42>
    4ea6:	602a      	str	r2, [r5, #0]
    4ea8:	2800      	cmp	r0, #0
    4eaa:	d0ed      	beq.n	4e88 <TEE_BigIntConvertToS32+0x2c>
    4eac:	4d00      	ldr	r5, [pc, #0]	; (4eb0 <TEE_BigIntConvertToS32+0x54>)
    4eae:	e7ec      	b.n	4e8a <TEE_BigIntConvertToS32+0x2e>
    4eb0:	ffff300f 	.word	0xffff300f

00004eb4 <TEE_BigIntCmp>:
    4eb4:	b570      	push	{r4, r5, r6, lr}
    4eb6:	b086      	sub	sp, #24
    4eb8:	460c      	mov	r4, r1
    4eba:	4601      	mov	r1, r0
    4ebc:	4668      	mov	r0, sp
    4ebe:	f7ff fc37 	bl	4730 <get_mpi>
    4ec2:	4621      	mov	r1, r4
    4ec4:	ac03      	add	r4, sp, #12
    4ec6:	4620      	mov	r0, r4
    4ec8:	f7ff fc32 	bl	4730 <get_mpi>
    4ecc:	4621      	mov	r1, r4
    4ece:	4668      	mov	r0, sp
    4ed0:	f001 fd96 	bl	6a00 <mbedtls_mpi_cmp_mpi>
    4ed4:	4606      	mov	r6, r0
    4ed6:	4668      	mov	r0, sp
    4ed8:	f001 f9ce 	bl	6278 <mbedtls_mpi_free>
    4edc:	4620      	mov	r0, r4
    4ede:	f001 f9cb 	bl	6278 <mbedtls_mpi_free>
    4ee2:	4630      	mov	r0, r6
    4ee4:	b006      	add	sp, #24
    4ee6:	bd70      	pop	{r4, r5, r6, pc}

00004ee8 <TEE_BigIntCmpS32>:
    4ee8:	b530      	push	{r4, r5, lr}
    4eea:	b085      	sub	sp, #20
    4eec:	ac01      	add	r4, sp, #4
    4eee:	460d      	mov	r5, r1
    4ef0:	4601      	mov	r1, r0
    4ef2:	4620      	mov	r0, r4
    4ef4:	f7ff fc1c 	bl	4730 <get_mpi>
    4ef8:	4629      	mov	r1, r5
    4efa:	4620      	mov	r0, r4
    4efc:	f001 fe28 	bl	6b50 <mbedtls_mpi_cmp_int>
    4f00:	4605      	mov	r5, r0
    4f02:	4620      	mov	r0, r4
    4f04:	f001 f9b8 	bl	6278 <mbedtls_mpi_free>
    4f08:	4628      	mov	r0, r5
    4f0a:	b005      	add	sp, #20
    4f0c:	bd30      	pop	{r4, r5, pc}

00004f0e <bigint_binary_mod>:
    4f0e:	e92d 4ff0 	stmdb	sp!, {r4, r5, r6, r7, r8, r9, sl, fp, lr}
    4f12:	4680      	mov	r8, r0
    4f14:	b091      	sub	sp, #68	; 0x44
    4f16:	460f      	mov	r7, r1
    4f18:	4618      	mov	r0, r3
    4f1a:	2102      	movs	r1, #2
    4f1c:	4615      	mov	r5, r2
    4f1e:	461e      	mov	r6, r3
    4f20:	f7ff ffe2 	bl	4ee8 <TEE_BigIntCmpS32>
    4f24:	2800      	cmp	r0, #0
    4f26:	da08      	bge.n	4f3a <bigint_binary_mod+0x2c>
    4f28:	4834      	ldr	r0, [pc, #208]	; (4ffc <bigint_binary_mod+0xee>)
    4f2a:	f44f 71b2 	mov.w	r1, #356	; 0x164
    4f2e:	4a34      	ldr	r2, [pc, #208]	; (5000 <bigint_binary_mod+0xf2>)
    4f30:	4478      	add	r0, pc
    4f32:	447a      	add	r2, pc
    4f34:	3078      	adds	r0, #120	; 0x78
    4f36:	f000 fcbb 	bl	58b0 <api_panic>
    4f3a:	ac01      	add	r4, sp, #4
    4f3c:	4641      	mov	r1, r8
    4f3e:	4620      	mov	r0, r4
    4f40:	f10d 0b28 	add.w	fp, sp, #40	; 0x28
    4f44:	f7ff fbf4 	bl	4730 <get_mpi>
    4f48:	4631      	mov	r1, r6
    4f4a:	4658      	mov	r0, fp
    4f4c:	f7ff fbf0 	bl	4730 <get_mpi>
    4f50:	45b8      	cmp	r8, r7
    4f52:	f10d 0a10 	add.w	sl, sp, #16
    4f56:	d021      	beq.n	4f9c <bigint_binary_mod+0x8e>
    4f58:	4639      	mov	r1, r7
    4f5a:	4650      	mov	r0, sl
    4f5c:	4656      	mov	r6, sl
    4f5e:	f7ff fbe7 	bl	4730 <get_mpi>
    4f62:	45a8      	cmp	r8, r5
    4f64:	f10d 091c 	add.w	r9, sp, #28
    4f68:	d01a      	beq.n	4fa0 <bigint_binary_mod+0x92>
    4f6a:	42af      	cmp	r7, r5
    4f6c:	d01a      	beq.n	4fa4 <bigint_binary_mod+0x96>
    4f6e:	4629      	mov	r1, r5
    4f70:	4648      	mov	r0, r9
    4f72:	464d      	mov	r5, r9
    4f74:	f7ff fbdc 	bl	4730 <get_mpi>
    4f78:	af0d      	add	r7, sp, #52	; 0x34
    4f7a:	4638      	mov	r0, r7
    4f7c:	f001 f969 	bl	6252 <mbedtls_mpi_init_mempool>
    4f80:	462a      	mov	r2, r5
    4f82:	4631      	mov	r1, r6
    4f84:	9b1a      	ldr	r3, [sp, #104]	; 0x68
    4f86:	4638      	mov	r0, r7
    4f88:	4798      	blx	r3
    4f8a:	4602      	mov	r2, r0
    4f8c:	b160      	cbz	r0, 4fa8 <bigint_binary_mod+0x9a>
    4f8e:	481d      	ldr	r0, [pc, #116]	; (5004 <bigint_binary_mod+0xf6>)
    4f90:	f240 117f 	movw	r1, #383	; 0x17f
    4f94:	4478      	add	r0, pc
    4f96:	3078      	adds	r0, #120	; 0x78
    4f98:	f7ff fbba 	bl	4710 <mpi_panic>
    4f9c:	4626      	mov	r6, r4
    4f9e:	e7e0      	b.n	4f62 <bigint_binary_mod+0x54>
    4fa0:	4625      	mov	r5, r4
    4fa2:	e7e9      	b.n	4f78 <bigint_binary_mod+0x6a>
    4fa4:	4635      	mov	r5, r6
    4fa6:	e7e7      	b.n	4f78 <bigint_binary_mod+0x6a>
    4fa8:	465a      	mov	r2, fp
    4faa:	4639      	mov	r1, r7
    4fac:	4620      	mov	r0, r4
    4fae:	f002 f9f0 	bl	7392 <mbedtls_mpi_mod_mpi>
    4fb2:	4602      	mov	r2, r0
    4fb4:	b120      	cbz	r0, 4fc0 <bigint_binary_mod+0xb2>
    4fb6:	4814      	ldr	r0, [pc, #80]	; (5008 <bigint_binary_mod+0xfa>)
    4fb8:	f44f 71c0 	mov.w	r1, #384	; 0x180
    4fbc:	4478      	add	r0, pc
    4fbe:	e7ea      	b.n	4f96 <bigint_binary_mod+0x88>
    4fc0:	4641      	mov	r1, r8
    4fc2:	4620      	mov	r0, r4
    4fc4:	f7ff fbda 	bl	477c <copy_mpi_to_bigint>
    4fc8:	4602      	mov	r2, r0
    4fca:	b120      	cbz	r0, 4fd6 <bigint_binary_mod+0xc8>
    4fcc:	480f      	ldr	r0, [pc, #60]	; (500c <bigint_binary_mod+0xfe>)
    4fce:	f44f 71c1 	mov.w	r1, #386	; 0x182
    4fd2:	4478      	add	r0, pc
    4fd4:	e7df      	b.n	4f96 <bigint_binary_mod+0x88>
    4fd6:	4620      	mov	r0, r4
    4fd8:	f001 f94e 	bl	6278 <mbedtls_mpi_free>
    4fdc:	4556      	cmp	r6, sl
    4fde:	d102      	bne.n	4fe6 <bigint_binary_mod+0xd8>
    4fe0:	4630      	mov	r0, r6
    4fe2:	f001 f949 	bl	6278 <mbedtls_mpi_free>
    4fe6:	454d      	cmp	r5, r9
    4fe8:	d102      	bne.n	4ff0 <bigint_binary_mod+0xe2>
    4fea:	4628      	mov	r0, r5
    4fec:	f001 f944 	bl	6278 <mbedtls_mpi_free>
    4ff0:	4638      	mov	r0, r7
    4ff2:	f001 f941 	bl	6278 <mbedtls_mpi_free>
    4ff6:	b011      	add	sp, #68	; 0x44
    4ff8:	e8bd 8ff0 	ldmia.w	sp!, {r4, r5, r6, r7, r8, r9, sl, fp, pc}
    4ffc:	00004cae 	.word	0x00004cae
    5000:	00004e60 	.word	0x00004e60
    5004:	00004c4a 	.word	0x00004c4a
    5008:	00004c22 	.word	0x00004c22
    500c:	00004c0c 	.word	0x00004c0c

00005010 <TEE_BigIntShiftRight>:
    5010:	e92d 41f0 	stmdb	sp!, {r4, r5, r6, r7, r8, lr}
    5014:	b08a      	sub	sp, #40	; 0x28
    5016:	ac01      	add	r4, sp, #4
    5018:	4607      	mov	r7, r0
    501a:	460e      	mov	r6, r1
    501c:	4601      	mov	r1, r0
    501e:	4620      	mov	r0, r4
    5020:	4690      	mov	r8, r2
    5022:	f7ff fb85 	bl	4730 <get_mpi>
    5026:	42b7      	cmp	r7, r6
    5028:	d10c      	bne.n	5044 <TEE_BigIntShiftRight+0x34>
    502a:	4641      	mov	r1, r8
    502c:	4620      	mov	r0, r4
    502e:	f001 fc6a 	bl	6906 <mbedtls_mpi_shift_r>
    5032:	4602      	mov	r2, r0
    5034:	2800      	cmp	r0, #0
    5036:	d054      	beq.n	50e2 <TEE_BigIntShiftRight+0xd2>
    5038:	4832      	ldr	r0, [pc, #200]	; (5104 <TEE_BigIntShiftRight+0xf4>)
    503a:	21fe      	movs	r1, #254	; 0xfe
    503c:	4478      	add	r0, pc
    503e:	308a      	adds	r0, #138	; 0x8a
    5040:	f7ff fb66 	bl	4710 <mpi_panic>
    5044:	ad04      	add	r5, sp, #16
    5046:	4631      	mov	r1, r6
    5048:	4628      	mov	r0, r5
    504a:	f7ff fb71 	bl	4730 <get_mpi>
    504e:	4620      	mov	r0, r4
    5050:	f001 fb31 	bl	66b6 <mbedtls_mpi_size>
    5054:	4606      	mov	r6, r0
    5056:	4628      	mov	r0, r5
    5058:	f001 fb2d 	bl	66b6 <mbedtls_mpi_size>
    505c:	4286      	cmp	r6, r0
    505e:	d315      	bcc.n	508c <TEE_BigIntShiftRight+0x7c>
    5060:	4629      	mov	r1, r5
    5062:	4620      	mov	r0, r4
    5064:	f001 f9da 	bl	641c <mbedtls_mpi_copy>
    5068:	4602      	mov	r2, r0
    506a:	b120      	cbz	r0, 5076 <TEE_BigIntShiftRight+0x66>
    506c:	4826      	ldr	r0, [pc, #152]	; (5108 <TEE_BigIntShiftRight+0xf8>)
    506e:	f240 1105 	movw	r1, #261	; 0x105
    5072:	4478      	add	r0, pc
    5074:	e7e3      	b.n	503e <TEE_BigIntShiftRight+0x2e>
    5076:	4641      	mov	r1, r8
    5078:	4620      	mov	r0, r4
    507a:	f001 fc44 	bl	6906 <mbedtls_mpi_shift_r>
    507e:	4602      	mov	r2, r0
    5080:	b360      	cbz	r0, 50dc <TEE_BigIntShiftRight+0xcc>
    5082:	4822      	ldr	r0, [pc, #136]	; (510c <TEE_BigIntShiftRight+0xfc>)
    5084:	f44f 7183 	mov.w	r1, #262	; 0x106
    5088:	4478      	add	r0, pc
    508a:	e7d8      	b.n	503e <TEE_BigIntShiftRight+0x2e>
    508c:	ae07      	add	r6, sp, #28
    508e:	4630      	mov	r0, r6
    5090:	f001 f8df 	bl	6252 <mbedtls_mpi_init_mempool>
    5094:	4629      	mov	r1, r5
    5096:	4630      	mov	r0, r6
    5098:	f001 f9c0 	bl	641c <mbedtls_mpi_copy>
    509c:	4602      	mov	r2, r0
    509e:	b120      	cbz	r0, 50aa <TEE_BigIntShiftRight+0x9a>
    50a0:	481b      	ldr	r0, [pc, #108]	; (5110 <TEE_BigIntShiftRight+0x100>)
    50a2:	f240 1111 	movw	r1, #273	; 0x111
    50a6:	4478      	add	r0, pc
    50a8:	e7c9      	b.n	503e <TEE_BigIntShiftRight+0x2e>
    50aa:	4641      	mov	r1, r8
    50ac:	4630      	mov	r0, r6
    50ae:	f001 fc2a 	bl	6906 <mbedtls_mpi_shift_r>
    50b2:	4602      	mov	r2, r0
    50b4:	b120      	cbz	r0, 50c0 <TEE_BigIntShiftRight+0xb0>
    50b6:	4817      	ldr	r0, [pc, #92]	; (5114 <TEE_BigIntShiftRight+0x104>)
    50b8:	f44f 7189 	mov.w	r1, #274	; 0x112
    50bc:	4478      	add	r0, pc
    50be:	e7be      	b.n	503e <TEE_BigIntShiftRight+0x2e>
    50c0:	4631      	mov	r1, r6
    50c2:	4620      	mov	r0, r4
    50c4:	f001 f9aa 	bl	641c <mbedtls_mpi_copy>
    50c8:	4602      	mov	r2, r0
    50ca:	b120      	cbz	r0, 50d6 <TEE_BigIntShiftRight+0xc6>
    50cc:	4812      	ldr	r0, [pc, #72]	; (5118 <TEE_BigIntShiftRight+0x108>)
    50ce:	f240 1113 	movw	r1, #275	; 0x113
    50d2:	4478      	add	r0, pc
    50d4:	e7b3      	b.n	503e <TEE_BigIntShiftRight+0x2e>
    50d6:	4630      	mov	r0, r6
    50d8:	f001 f8ce 	bl	6278 <mbedtls_mpi_free>
    50dc:	4628      	mov	r0, r5
    50de:	f001 f8cb 	bl	6278 <mbedtls_mpi_free>
    50e2:	4639      	mov	r1, r7
    50e4:	4620      	mov	r0, r4
    50e6:	f7ff fb49 	bl	477c <copy_mpi_to_bigint>
    50ea:	4602      	mov	r2, r0
    50ec:	b120      	cbz	r0, 50f8 <TEE_BigIntShiftRight+0xe8>
    50ee:	480b      	ldr	r0, [pc, #44]	; (511c <TEE_BigIntShiftRight+0x10c>)
    50f0:	f240 111b 	movw	r1, #283	; 0x11b
    50f4:	4478      	add	r0, pc
    50f6:	e7a2      	b.n	503e <TEE_BigIntShiftRight+0x2e>
    50f8:	4620      	mov	r0, r4
    50fa:	f001 f8bd 	bl	6278 <mbedtls_mpi_free>
    50fe:	b00a      	add	sp, #40	; 0x28
    5100:	e8bd 81f0 	ldmia.w	sp!, {r4, r5, r6, r7, r8, pc}
    5104:	00004ba2 	.word	0x00004ba2
    5108:	00004b6c 	.word	0x00004b6c
    510c:	00004b56 	.word	0x00004b56
    5110:	00004b38 	.word	0x00004b38
    5114:	00004b22 	.word	0x00004b22
    5118:	00004b0c 	.word	0x00004b0c
    511c:	00004aea 	.word	0x00004aea

00005120 <TEE_BigIntGetBit>:
    5120:	b530      	push	{r4, r5, lr}
    5122:	b085      	sub	sp, #20
    5124:	ac01      	add	r4, sp, #4
    5126:	460d      	mov	r5, r1
    5128:	4601      	mov	r1, r0
    512a:	4620      	mov	r0, r4
    512c:	f7ff fb00 	bl	4730 <get_mpi>
    5130:	4629      	mov	r1, r5
    5132:	4620      	mov	r0, r4
    5134:	f001 fa4f 	bl	65d6 <mbedtls_mpi_get_bit>
    5138:	4605      	mov	r5, r0
    513a:	4620      	mov	r0, r4
    513c:	f001 f89c 	bl	6278 <mbedtls_mpi_free>
    5140:	1c28      	adds	r0, r5, #0
    5142:	bf18      	it	ne
    5144:	2001      	movne	r0, #1
    5146:	b005      	add	sp, #20
    5148:	bd30      	pop	{r4, r5, pc}

0000514a <TEE_BigIntGetBitCount>:
    514a:	b530      	push	{r4, r5, lr}
    514c:	b085      	sub	sp, #20
    514e:	ac01      	add	r4, sp, #4
    5150:	4601      	mov	r1, r0
    5152:	4620      	mov	r0, r4
    5154:	f7ff faec 	bl	4730 <get_mpi>
    5158:	4620      	mov	r0, r4
    515a:	f001 fa8b 	bl	6674 <mbedtls_mpi_bitlen>
    515e:	4605      	mov	r5, r0
    5160:	4620      	mov	r0, r4
    5162:	f001 f889 	bl	6278 <mbedtls_mpi_free>
    5166:	4628      	mov	r0, r5
    5168:	b005      	add	sp, #20
    516a:	bd30      	pop	{r4, r5, pc}

0000516c <TEE_BigIntAdd>:
    516c:	4b05      	ldr	r3, [pc, #20]	; (5184 <TEE_BigIntAdd+0x18>)
    516e:	b417      	push	{r0, r1, r2, r4}
    5170:	4c05      	ldr	r4, [pc, #20]	; (5188 <TEE_BigIntAdd+0x1c>)
    5172:	447b      	add	r3, pc
    5174:	591b      	ldr	r3, [r3, r4]
    5176:	9301      	str	r3, [sp, #4]
    5178:	b003      	add	sp, #12
    517a:	f85d 4b04 	ldr.w	r4, [sp], #4
    517e:	f7ff bb1f 	b.w	47c0 <bigint_binary>
    5182:	bf00      	nop
    5184:	00006f0a 	.word	0x00006f0a
    5188:	00000024 	.word	0x00000024

0000518c <TEE_BigIntSub>:
    518c:	4b05      	ldr	r3, [pc, #20]	; (51a4 <TEE_BigIntSub+0x18>)
    518e:	b417      	push	{r0, r1, r2, r4}
    5190:	4c05      	ldr	r4, [pc, #20]	; (51a8 <TEE_BigIntSub+0x1c>)
    5192:	447b      	add	r3, pc
    5194:	591b      	ldr	r3, [r3, r4]
    5196:	9301      	str	r3, [sp, #4]
    5198:	b003      	add	sp, #12
    519a:	f85d 4b04 	ldr.w	r4, [sp], #4
    519e:	f7ff bb0f 	b.w	47c0 <bigint_binary>
    51a2:	bf00      	nop
    51a4:	00006eea 	.word	0x00006eea
    51a8:	0000002c 	.word	0x0000002c

000051ac <TEE_BigIntNeg>:
    51ac:	b5f0      	push	{r4, r5, r6, r7, lr}
    51ae:	b087      	sub	sp, #28
    51b0:	4605      	mov	r5, r0
    51b2:	460f      	mov	r7, r1
    51b4:	4601      	mov	r1, r0
    51b6:	4668      	mov	r0, sp
    51b8:	f7ff faba 	bl	4730 <get_mpi>
    51bc:	42bd      	cmp	r5, r7
    51be:	466c      	mov	r4, sp
    51c0:	d014      	beq.n	51ec <TEE_BigIntNeg+0x40>
    51c2:	ae03      	add	r6, sp, #12
    51c4:	4639      	mov	r1, r7
    51c6:	4630      	mov	r0, r6
    51c8:	f7ff fab2 	bl	4730 <get_mpi>
    51cc:	4631      	mov	r1, r6
    51ce:	4668      	mov	r0, sp
    51d0:	f001 f924 	bl	641c <mbedtls_mpi_copy>
    51d4:	4602      	mov	r2, r0
    51d6:	b130      	cbz	r0, 51e6 <TEE_BigIntNeg+0x3a>
    51d8:	480f      	ldr	r0, [pc, #60]	; (5218 <TEE_BigIntNeg+0x6c>)
    51da:	f44f 71d1 	mov.w	r1, #418	; 0x1a2
    51de:	4478      	add	r0, pc
    51e0:	309f      	adds	r0, #159	; 0x9f
    51e2:	f7ff fa95 	bl	4710 <mpi_panic>
    51e6:	4630      	mov	r0, r6
    51e8:	f001 f846 	bl	6278 <mbedtls_mpi_free>
    51ec:	f8bd 3000 	ldrh.w	r3, [sp]
    51f0:	4629      	mov	r1, r5
    51f2:	4620      	mov	r0, r4
    51f4:	425b      	negs	r3, r3
    51f6:	f8ad 3000 	strh.w	r3, [sp]
    51fa:	f7ff fabf 	bl	477c <copy_mpi_to_bigint>
    51fe:	4602      	mov	r2, r0
    5200:	b120      	cbz	r0, 520c <TEE_BigIntNeg+0x60>
    5202:	4806      	ldr	r0, [pc, #24]	; (521c <TEE_BigIntNeg+0x70>)
    5204:	f240 11a9 	movw	r1, #425	; 0x1a9
    5208:	4478      	add	r0, pc
    520a:	e7e9      	b.n	51e0 <TEE_BigIntNeg+0x34>
    520c:	4620      	mov	r0, r4
    520e:	f001 f833 	bl	6278 <mbedtls_mpi_free>
    5212:	b007      	add	sp, #28
    5214:	bdf0      	pop	{r4, r5, r6, r7, pc}
    5216:	bf00      	nop
    5218:	00004a00 	.word	0x00004a00
    521c:	000049d6 	.word	0x000049d6

00005220 <TEE_BigIntMul>:
    5220:	e92d 4ff0 	stmdb	sp!, {r4, r5, r6, r7, r8, r9, sl, fp, lr}
    5224:	4681      	mov	r9, r0
    5226:	b087      	sub	sp, #28
    5228:	4608      	mov	r0, r1
    522a:	4e23      	ldr	r6, [pc, #140]	; (52b8 <TEE_BigIntMul+0x98>)
    522c:	4690      	mov	r8, r2
    522e:	460f      	mov	r7, r1
    5230:	f7ff ff8b 	bl	514a <TEE_BigIntGetBitCount>
    5234:	4604      	mov	r4, r0
    5236:	4640      	mov	r0, r8
    5238:	f7ff ff87 	bl	514a <TEE_BigIntGetBitCount>
    523c:	f104 031f 	add.w	r3, r4, #31
    5240:	f100 041f 	add.w	r4, r0, #31
    5244:	0964      	lsrs	r4, r4, #5
    5246:	f10d 0a0c 	add.w	sl, sp, #12
    524a:	447e      	add	r6, pc
    524c:	eb04 1453 	add.w	r4, r4, r3, lsr #5
    5250:	2300      	movs	r3, #0
    5252:	f8ca 3004 	str.w	r3, [sl, #4]
    5256:	3404      	adds	r4, #4
    5258:	f8ca 3008 	str.w	r3, [sl, #8]
    525c:	00a1      	lsls	r1, r4, #2
    525e:	9303      	str	r3, [sp, #12]
    5260:	4b16      	ldr	r3, [pc, #88]	; (52bc <TEE_BigIntMul+0x9c>)
    5262:	f856 b003 	ldr.w	fp, [r6, r3]
    5266:	f8db 0000 	ldr.w	r0, [fp]
    526a:	f003 ff0d 	bl	9088 <mempool_alloc>
    526e:	4605      	mov	r5, r0
    5270:	b910      	cbnz	r0, 5278 <TEE_BigIntMul+0x58>
    5272:	4810      	ldr	r0, [pc, #64]	; (52b4 <TEE_BigIntMul+0x94>)
    5274:	f7fd ff14 	bl	30a0 <TEE_Panic>
    5278:	4621      	mov	r1, r4
    527a:	4628      	mov	r0, r5
    527c:	f7ff fd54 	bl	4d28 <TEE_BigIntInit>
    5280:	4650      	mov	r0, sl
    5282:	2103      	movs	r1, #3
    5284:	f7ff fd50 	bl	4d28 <TEE_BigIntInit>
    5288:	4b0d      	ldr	r3, [pc, #52]	; (52c0 <TEE_BigIntMul+0xa0>)
    528a:	4642      	mov	r2, r8
    528c:	4639      	mov	r1, r7
    528e:	4628      	mov	r0, r5
    5290:	58f3      	ldr	r3, [r6, r3]
    5292:	9301      	str	r3, [sp, #4]
    5294:	f7ff fa94 	bl	47c0 <bigint_binary>
    5298:	4652      	mov	r2, sl
    529a:	4629      	mov	r1, r5
    529c:	4648      	mov	r0, r9
    529e:	f7ff ff65 	bl	516c <TEE_BigIntAdd>
    52a2:	f8db 0000 	ldr.w	r0, [fp]
    52a6:	4629      	mov	r1, r5
    52a8:	f003 ff36 	bl	9118 <mempool_free>
    52ac:	b007      	add	sp, #28
    52ae:	e8bd 8ff0 	ldmia.w	sp!, {r4, r5, r6, r7, r8, r9, sl, fp, pc}
    52b2:	bf00      	nop
    52b4:	ffff000c 	.word	0xffff000c
    52b8:	00006e32 	.word	0x00006e32
    52bc:	00000050 	.word	0x00000050
    52c0:	00000020 	.word	0x00000020

000052c4 <TEE_BigIntSquare>:
    52c4:	460a      	mov	r2, r1
    52c6:	f7ff bfab 	b.w	5220 <TEE_BigIntMul>

000052ca <TEE_BigIntDiv>:
    52ca:	e92d 4ff0 	stmdb	sp!, {r4, r5, r6, r7, r8, r9, sl, fp, lr}
    52ce:	b08f      	sub	sp, #60	; 0x3c
    52d0:	af02      	add	r7, sp, #8
    52d2:	4681      	mov	r9, r0
    52d4:	4688      	mov	r8, r1
    52d6:	ae05      	add	r6, sp, #20
    52d8:	9201      	str	r2, [sp, #4]
    52da:	4601      	mov	r1, r0
    52dc:	4638      	mov	r0, r7
    52de:	461c      	mov	r4, r3
    52e0:	f10d 0b20 	add.w	fp, sp, #32
    52e4:	f7ff fa24 	bl	4730 <get_mpi>
    52e8:	4641      	mov	r1, r8
    52ea:	4630      	mov	r0, r6
    52ec:	f7ff fa20 	bl	4730 <get_mpi>
    52f0:	9a01      	ldr	r2, [sp, #4]
    52f2:	4591      	cmp	r9, r2
    52f4:	d023      	beq.n	533e <TEE_BigIntDiv+0x74>
    52f6:	4590      	cmp	r8, r2
    52f8:	d023      	beq.n	5342 <TEE_BigIntDiv+0x78>
    52fa:	4611      	mov	r1, r2
    52fc:	4658      	mov	r0, fp
    52fe:	f7ff fa17 	bl	4730 <get_mpi>
    5302:	9a01      	ldr	r2, [sp, #4]
    5304:	465d      	mov	r5, fp
    5306:	45a1      	cmp	r9, r4
    5308:	f10d 0a2c 	add.w	sl, sp, #44	; 0x2c
    530c:	d01b      	beq.n	5346 <TEE_BigIntDiv+0x7c>
    530e:	45a0      	cmp	r8, r4
    5310:	d01b      	beq.n	534a <TEE_BigIntDiv+0x80>
    5312:	42a2      	cmp	r2, r4
    5314:	d01b      	beq.n	534e <TEE_BigIntDiv+0x84>
    5316:	4621      	mov	r1, r4
    5318:	4650      	mov	r0, sl
    531a:	4654      	mov	r4, sl
    531c:	f7ff fa08 	bl	4730 <get_mpi>
    5320:	462a      	mov	r2, r5
    5322:	4623      	mov	r3, r4
    5324:	4631      	mov	r1, r6
    5326:	4638      	mov	r0, r7
    5328:	f001 fe58 	bl	6fdc <mbedtls_mpi_div_mpi>
    532c:	4602      	mov	r2, r0
    532e:	b180      	cbz	r0, 5352 <TEE_BigIntDiv+0x88>
    5330:	481f      	ldr	r0, [pc, #124]	; (53b0 <TEE_BigIntDiv+0xe6>)
    5332:	f44f 71f3 	mov.w	r1, #486	; 0x1e6
    5336:	4478      	add	r0, pc
    5338:	30ad      	adds	r0, #173	; 0xad
    533a:	f7ff f9e9 	bl	4710 <mpi_panic>
    533e:	463d      	mov	r5, r7
    5340:	e7e1      	b.n	5306 <TEE_BigIntDiv+0x3c>
    5342:	4635      	mov	r5, r6
    5344:	e7df      	b.n	5306 <TEE_BigIntDiv+0x3c>
    5346:	463c      	mov	r4, r7
    5348:	e7ea      	b.n	5320 <TEE_BigIntDiv+0x56>
    534a:	4634      	mov	r4, r6
    534c:	e7e8      	b.n	5320 <TEE_BigIntDiv+0x56>
    534e:	462c      	mov	r4, r5
    5350:	e7e6      	b.n	5320 <TEE_BigIntDiv+0x56>
    5352:	f1b9 0f00 	cmp.w	r9, #0
    5356:	d00a      	beq.n	536e <TEE_BigIntDiv+0xa4>
    5358:	4649      	mov	r1, r9
    535a:	4638      	mov	r0, r7
    535c:	f7ff fa0e 	bl	477c <copy_mpi_to_bigint>
    5360:	4602      	mov	r2, r0
    5362:	b120      	cbz	r0, 536e <TEE_BigIntDiv+0xa4>
    5364:	4813      	ldr	r0, [pc, #76]	; (53b4 <TEE_BigIntDiv+0xea>)
    5366:	f240 11e9 	movw	r1, #489	; 0x1e9
    536a:	4478      	add	r0, pc
    536c:	e7e4      	b.n	5338 <TEE_BigIntDiv+0x6e>
    536e:	f1b8 0f00 	cmp.w	r8, #0
    5372:	d00a      	beq.n	538a <TEE_BigIntDiv+0xc0>
    5374:	4641      	mov	r1, r8
    5376:	4630      	mov	r0, r6
    5378:	f7ff fa00 	bl	477c <copy_mpi_to_bigint>
    537c:	4602      	mov	r2, r0
    537e:	b120      	cbz	r0, 538a <TEE_BigIntDiv+0xc0>
    5380:	480d      	ldr	r0, [pc, #52]	; (53b8 <TEE_BigIntDiv+0xee>)
    5382:	f240 11eb 	movw	r1, #491	; 0x1eb
    5386:	4478      	add	r0, pc
    5388:	e7d6      	b.n	5338 <TEE_BigIntDiv+0x6e>
    538a:	4638      	mov	r0, r7
    538c:	f000 ff74 	bl	6278 <mbedtls_mpi_free>
    5390:	4630      	mov	r0, r6
    5392:	f000 ff71 	bl	6278 <mbedtls_mpi_free>
    5396:	455d      	cmp	r5, fp
    5398:	d102      	bne.n	53a0 <TEE_BigIntDiv+0xd6>
    539a:	4628      	mov	r0, r5
    539c:	f000 ff6c 	bl	6278 <mbedtls_mpi_free>
    53a0:	4554      	cmp	r4, sl
    53a2:	d102      	bne.n	53aa <TEE_BigIntDiv+0xe0>
    53a4:	4620      	mov	r0, r4
    53a6:	f000 ff67 	bl	6278 <mbedtls_mpi_free>
    53aa:	b00f      	add	sp, #60	; 0x3c
    53ac:	e8bd 8ff0 	ldmia.w	sp!, {r4, r5, r6, r7, r8, r9, sl, fp, pc}
    53b0:	000048a8 	.word	0x000048a8
    53b4:	00004874 	.word	0x00004874
    53b8:	00004858 	.word	0x00004858

000053bc <TEE_BigIntMod>:
    53bc:	b5f7      	push	{r0, r1, r2, r4, r5, r6, r7, lr}
    53be:	4606      	mov	r6, r0
    53c0:	460f      	mov	r7, r1
    53c2:	4d0e      	ldr	r5, [pc, #56]	; (53fc <TEE_BigIntMod+0x40>)
    53c4:	2102      	movs	r1, #2
    53c6:	4610      	mov	r0, r2
    53c8:	4614      	mov	r4, r2
    53ca:	f7ff fd8d 	bl	4ee8 <TEE_BigIntCmpS32>
    53ce:	2800      	cmp	r0, #0
    53d0:	447d      	add	r5, pc
    53d2:	da08      	bge.n	53e6 <TEE_BigIntMod+0x2a>
    53d4:	480a      	ldr	r0, [pc, #40]	; (5400 <TEE_BigIntMod+0x44>)
    53d6:	f240 11f7 	movw	r1, #503	; 0x1f7
    53da:	4a0a      	ldr	r2, [pc, #40]	; (5404 <TEE_BigIntMod+0x48>)
    53dc:	4478      	add	r0, pc
    53de:	447a      	add	r2, pc
    53e0:	30bb      	adds	r0, #187	; 0xbb
    53e2:	f000 fa65 	bl	58b0 <api_panic>
    53e6:	4b08      	ldr	r3, [pc, #32]	; (5408 <TEE_BigIntMod+0x4c>)
    53e8:	4622      	mov	r2, r4
    53ea:	4639      	mov	r1, r7
    53ec:	4630      	mov	r0, r6
    53ee:	58eb      	ldr	r3, [r5, r3]
    53f0:	9301      	str	r3, [sp, #4]
    53f2:	b003      	add	sp, #12
    53f4:	e8bd 40f0 	ldmia.w	sp!, {r4, r5, r6, r7, lr}
    53f8:	f7ff b9e2 	b.w	47c0 <bigint_binary>
    53fc:	00006cac 	.word	0x00006cac
    5400:	00004802 	.word	0x00004802
    5404:	000049b4 	.word	0x000049b4
    5408:	0000003c 	.word	0x0000003c

0000540c <TEE_BigIntAddMod>:
    540c:	b537      	push	{r0, r1, r2, r4, r5, lr}
    540e:	4c04      	ldr	r4, [pc, #16]	; (5420 <TEE_BigIntAddMod+0x14>)
    5410:	4d04      	ldr	r5, [pc, #16]	; (5424 <TEE_BigIntAddMod+0x18>)
    5412:	447c      	add	r4, pc
    5414:	5964      	ldr	r4, [r4, r5]
    5416:	9400      	str	r4, [sp, #0]
    5418:	f7ff fd79 	bl	4f0e <bigint_binary_mod>
    541c:	b003      	add	sp, #12
    541e:	bd30      	pop	{r4, r5, pc}
    5420:	00006c6a 	.word	0x00006c6a
    5424:	00000024 	.word	0x00000024

00005428 <TEE_BigIntSubMod>:
    5428:	b537      	push	{r0, r1, r2, r4, r5, lr}
    542a:	4c04      	ldr	r4, [pc, #16]	; (543c <TEE_BigIntSubMod+0x14>)
    542c:	4d04      	ldr	r5, [pc, #16]	; (5440 <TEE_BigIntSubMod+0x18>)
    542e:	447c      	add	r4, pc
    5430:	5964      	ldr	r4, [r4, r5]
    5432:	9400      	str	r4, [sp, #0]
    5434:	f7ff fd6b 	bl	4f0e <bigint_binary_mod>
    5438:	b003      	add	sp, #12
    543a:	bd30      	pop	{r4, r5, pc}
    543c:	00006c4e 	.word	0x00006c4e
    5440:	0000002c 	.word	0x0000002c

00005444 <TEE_BigIntMulMod>:
    5444:	b537      	push	{r0, r1, r2, r4, r5, lr}
    5446:	4c04      	ldr	r4, [pc, #16]	; (5458 <TEE_BigIntMulMod+0x14>)
    5448:	4d04      	ldr	r5, [pc, #16]	; (545c <TEE_BigIntMulMod+0x18>)
    544a:	447c      	add	r4, pc
    544c:	5964      	ldr	r4, [r4, r5]
    544e:	9400      	str	r4, [sp, #0]
    5450:	f7ff fd5d 	bl	4f0e <bigint_binary_mod>
    5454:	b003      	add	sp, #12
    5456:	bd30      	pop	{r4, r5, pc}
    5458:	00006c32 	.word	0x00006c32
    545c:	00000020 	.word	0x00000020

00005460 <TEE_BigIntSquareMod>:
    5460:	4613      	mov	r3, r2
    5462:	460a      	mov	r2, r1
    5464:	f7ff bfee 	b.w	5444 <TEE_BigIntMulMod>

00005468 <TEE_BigIntInvMod>:
    5468:	e92d 41f0 	stmdb	sp!, {r4, r5, r6, r7, r8, lr}
    546c:	4680      	mov	r8, r0
    546e:	b08a      	sub	sp, #40	; 0x28
    5470:	460d      	mov	r5, r1
    5472:	4610      	mov	r0, r2
    5474:	2102      	movs	r1, #2
    5476:	4616      	mov	r6, r2
    5478:	f7ff fd36 	bl	4ee8 <TEE_BigIntCmpS32>
    547c:	2800      	cmp	r0, #0
    547e:	da08      	bge.n	5492 <TEE_BigIntInvMod+0x2a>
    5480:	4824      	ldr	r0, [pc, #144]	; (5514 <TEE_BigIntInvMod+0xac>)
    5482:	f44f 7106 	mov.w	r1, #536	; 0x218
    5486:	4a24      	ldr	r2, [pc, #144]	; (5518 <TEE_BigIntInvMod+0xb0>)
    5488:	4478      	add	r0, pc
    548a:	447a      	add	r2, pc
    548c:	30c9      	adds	r0, #201	; 0xc9
    548e:	f000 fa0f 	bl	58b0 <api_panic>
    5492:	2100      	movs	r1, #0
    5494:	4628      	mov	r0, r5
    5496:	f7ff fd27 	bl	4ee8 <TEE_BigIntCmpS32>
    549a:	2800      	cmp	r0, #0
    549c:	d0f0      	beq.n	5480 <TEE_BigIntInvMod+0x18>
    549e:	ac01      	add	r4, sp, #4
    54a0:	4641      	mov	r1, r8
    54a2:	4620      	mov	r0, r4
    54a4:	af07      	add	r7, sp, #28
    54a6:	f7ff f943 	bl	4730 <get_mpi>
    54aa:	4631      	mov	r1, r6
    54ac:	4638      	mov	r0, r7
    54ae:	f7ff f93f 	bl	4730 <get_mpi>
    54b2:	4545      	cmp	r5, r8
    54b4:	ae04      	add	r6, sp, #16
    54b6:	d012      	beq.n	54de <TEE_BigIntInvMod+0x76>
    54b8:	4629      	mov	r1, r5
    54ba:	4630      	mov	r0, r6
    54bc:	4635      	mov	r5, r6
    54be:	f7ff f937 	bl	4730 <get_mpi>
    54c2:	463a      	mov	r2, r7
    54c4:	4629      	mov	r1, r5
    54c6:	4620      	mov	r0, r4
    54c8:	f002 fce5 	bl	7e96 <mbedtls_mpi_inv_mod>
    54cc:	4602      	mov	r2, r0
    54ce:	b140      	cbz	r0, 54e2 <TEE_BigIntInvMod+0x7a>
    54d0:	4812      	ldr	r0, [pc, #72]	; (551c <TEE_BigIntInvMod+0xb4>)
    54d2:	f240 2127 	movw	r1, #551	; 0x227
    54d6:	4478      	add	r0, pc
    54d8:	30c9      	adds	r0, #201	; 0xc9
    54da:	f7ff f919 	bl	4710 <mpi_panic>
    54de:	4625      	mov	r5, r4
    54e0:	e7ef      	b.n	54c2 <TEE_BigIntInvMod+0x5a>
    54e2:	4641      	mov	r1, r8
    54e4:	4620      	mov	r0, r4
    54e6:	f7ff f949 	bl	477c <copy_mpi_to_bigint>
    54ea:	4602      	mov	r2, r0
    54ec:	b120      	cbz	r0, 54f8 <TEE_BigIntInvMod+0x90>
    54ee:	480c      	ldr	r0, [pc, #48]	; (5520 <TEE_BigIntInvMod+0xb8>)
    54f0:	f240 2129 	movw	r1, #553	; 0x229
    54f4:	4478      	add	r0, pc
    54f6:	e7ef      	b.n	54d8 <TEE_BigIntInvMod+0x70>
    54f8:	4620      	mov	r0, r4
    54fa:	f000 febd 	bl	6278 <mbedtls_mpi_free>
    54fe:	4638      	mov	r0, r7
    5500:	f000 feba 	bl	6278 <mbedtls_mpi_free>
    5504:	42b5      	cmp	r5, r6
    5506:	d102      	bne.n	550e <TEE_BigIntInvMod+0xa6>
    5508:	4628      	mov	r0, r5
    550a:	f000 feb5 	bl	6278 <mbedtls_mpi_free>
    550e:	b00a      	add	sp, #40	; 0x28
    5510:	e8bd 81f0 	ldmia.w	sp!, {r4, r5, r6, r7, r8, pc}
    5514:	00004756 	.word	0x00004756
    5518:	0000491d 	.word	0x0000491d
    551c:	00004708 	.word	0x00004708
    5520:	000046ea 	.word	0x000046ea

00005524 <TEE_BigIntRelativePrime>:
    5524:	e92d 41f0 	stmdb	sp!, {r4, r5, r6, r7, r8, lr}
    5528:	b08a      	sub	sp, #40	; 0x28
    552a:	ad01      	add	r5, sp, #4
    552c:	4604      	mov	r4, r0
    552e:	460e      	mov	r6, r1
    5530:	4601      	mov	r1, r0
    5532:	4628      	mov	r0, r5
    5534:	f7ff f8fc 	bl	4730 <get_mpi>
    5538:	42b4      	cmp	r4, r6
    553a:	ac04      	add	r4, sp, #16
    553c:	d016      	beq.n	556c <TEE_BigIntRelativePrime+0x48>
    553e:	4631      	mov	r1, r6
    5540:	4620      	mov	r0, r4
    5542:	46a0      	mov	r8, r4
    5544:	f7ff f8f4 	bl	4730 <get_mpi>
    5548:	ae07      	add	r6, sp, #28
    554a:	4630      	mov	r0, r6
    554c:	f000 fe81 	bl	6252 <mbedtls_mpi_init_mempool>
    5550:	4622      	mov	r2, r4
    5552:	4629      	mov	r1, r5
    5554:	4630      	mov	r0, r6
    5556:	f002 fb1d 	bl	7b94 <mbedtls_mpi_gcd>
    555a:	4602      	mov	r2, r0
    555c:	b140      	cbz	r0, 5570 <TEE_BigIntRelativePrime+0x4c>
    555e:	480f      	ldr	r0, [pc, #60]	; (559c <TEE_BigIntRelativePrime+0x78>)
    5560:	f240 2141 	movw	r1, #577	; 0x241
    5564:	4478      	add	r0, pc
    5566:	30da      	adds	r0, #218	; 0xda
    5568:	f7ff f8d2 	bl	4710 <mpi_panic>
    556c:	46a8      	mov	r8, r5
    556e:	e7eb      	b.n	5548 <TEE_BigIntRelativePrime+0x24>
    5570:	2101      	movs	r1, #1
    5572:	4630      	mov	r0, r6
    5574:	f001 faec 	bl	6b50 <mbedtls_mpi_cmp_int>
    5578:	fab0 f780 	clz	r7, r0
    557c:	4630      	mov	r0, r6
    557e:	f000 fe7b 	bl	6278 <mbedtls_mpi_free>
    5582:	4628      	mov	r0, r5
    5584:	097f      	lsrs	r7, r7, #5
    5586:	f000 fe77 	bl	6278 <mbedtls_mpi_free>
    558a:	45a0      	cmp	r8, r4
    558c:	d102      	bne.n	5594 <TEE_BigIntRelativePrime+0x70>
    558e:	4640      	mov	r0, r8
    5590:	f000 fe72 	bl	6278 <mbedtls_mpi_free>
    5594:	4638      	mov	r0, r7
    5596:	b00a      	add	sp, #40	; 0x28
    5598:	e8bd 81f0 	ldmia.w	sp!, {r4, r5, r6, r7, r8, pc}
    559c:	0000467a 	.word	0x0000467a

000055a0 <TEE_BigIntComputeExtendedGcd>:
    55a0:	e92d 4ff0 	stmdb	sp!, {r4, r5, r6, r7, r8, r9, sl, fp, lr}
    55a4:	b097      	sub	sp, #92	; 0x5c
    55a6:	9c20      	ldr	r4, [sp, #128]	; 0x80
    55a8:	ae07      	add	r6, sp, #28
    55aa:	461f      	mov	r7, r3
    55ac:	9002      	str	r0, [sp, #8]
    55ae:	468b      	mov	fp, r1
    55b0:	ad0a      	add	r5, sp, #40	; 0x28
    55b2:	4601      	mov	r1, r0
    55b4:	4630      	mov	r0, r6
    55b6:	9203      	str	r2, [sp, #12]
    55b8:	f7ff f8ba 	bl	4730 <get_mpi>
    55bc:	4639      	mov	r1, r7
    55be:	4628      	mov	r0, r5
    55c0:	f7ff f8b6 	bl	4730 <get_mpi>
    55c4:	42a7      	cmp	r7, r4
    55c6:	f10d 0934 	add.w	r9, sp, #52	; 0x34
    55ca:	d01c      	beq.n	5606 <TEE_BigIntComputeExtendedGcd+0x66>
    55cc:	4621      	mov	r1, r4
    55ce:	4648      	mov	r0, r9
    55d0:	464c      	mov	r4, r9
    55d2:	f7ff f8ad 	bl	4730 <get_mpi>
    55d6:	f1bb 0f00 	cmp.w	fp, #0
    55da:	d116      	bne.n	560a <TEE_BigIntComputeExtendedGcd+0x6a>
    55dc:	9b03      	ldr	r3, [sp, #12]
    55de:	b9a3      	cbnz	r3, 560a <TEE_BigIntComputeExtendedGcd+0x6a>
    55e0:	9b02      	ldr	r3, [sp, #8]
    55e2:	2b00      	cmp	r3, #0
    55e4:	f000 8088 	beq.w	56f8 <TEE_BigIntComputeExtendedGcd+0x158>
    55e8:	4622      	mov	r2, r4
    55ea:	4629      	mov	r1, r5
    55ec:	4630      	mov	r0, r6
    55ee:	f002 fad1 	bl	7b94 <mbedtls_mpi_gcd>
    55f2:	4602      	mov	r2, r0
    55f4:	2800      	cmp	r0, #0
    55f6:	d07f      	beq.n	56f8 <TEE_BigIntComputeExtendedGcd+0x158>
    55f8:	484c      	ldr	r0, [pc, #304]	; (572c <TEE_BigIntComputeExtendedGcd+0x18c>)
    55fa:	f240 21cb 	movw	r1, #715	; 0x2cb
    55fe:	4478      	add	r0, pc
    5600:	30f2      	adds	r0, #242	; 0xf2
    5602:	f7ff f885 	bl	4710 <mpi_panic>
    5606:	462c      	mov	r4, r5
    5608:	e7e5      	b.n	55d6 <TEE_BigIntComputeExtendedGcd+0x36>
    560a:	f99d 3028 	ldrsb.w	r3, [sp, #40]	; 0x28
    560e:	f04f 0a01 	mov.w	sl, #1
    5612:	f10d 0840 	add.w	r8, sp, #64	; 0x40
    5616:	4659      	mov	r1, fp
    5618:	4640      	mov	r0, r8
    561a:	af13      	add	r7, sp, #76	; 0x4c
    561c:	9304      	str	r3, [sp, #16]
    561e:	f994 3000 	ldrsb.w	r3, [r4]
    5622:	f8ad a028 	strh.w	sl, [sp, #40]	; 0x28
    5626:	f8a4 a000 	strh.w	sl, [r4]
    562a:	9305      	str	r3, [sp, #20]
    562c:	f7ff f880 	bl	4730 <get_mpi>
    5630:	4638      	mov	r0, r7
    5632:	9903      	ldr	r1, [sp, #12]
    5634:	f7ff f87c 	bl	4730 <get_mpi>
    5638:	4621      	mov	r1, r4
    563a:	4628      	mov	r0, r5
    563c:	f001 f9a6 	bl	698c <mbedtls_mpi_cmp_abs>
    5640:	2800      	cmp	r0, #0
    5642:	d120      	bne.n	5686 <TEE_BigIntComputeExtendedGcd+0xe6>
    5644:	4629      	mov	r1, r5
    5646:	4630      	mov	r0, r6
    5648:	f000 fee8 	bl	641c <mbedtls_mpi_copy>
    564c:	4602      	mov	r2, r0
    564e:	b120      	cbz	r0, 565a <TEE_BigIntComputeExtendedGcd+0xba>
    5650:	4837      	ldr	r0, [pc, #220]	; (5730 <TEE_BigIntComputeExtendedGcd+0x190>)
    5652:	f240 21db 	movw	r1, #731	; 0x2db
    5656:	4478      	add	r0, pc
    5658:	e7d2      	b.n	5600 <TEE_BigIntComputeExtendedGcd+0x60>
    565a:	4651      	mov	r1, sl
    565c:	4640      	mov	r0, r8
    565e:	f000 ff9e 	bl	659e <mbedtls_mpi_lset>
    5662:	4602      	mov	r2, r0
    5664:	b120      	cbz	r0, 5670 <TEE_BigIntComputeExtendedGcd+0xd0>
    5666:	4833      	ldr	r0, [pc, #204]	; (5734 <TEE_BigIntComputeExtendedGcd+0x194>)
    5668:	f44f 7137 	mov.w	r1, #732	; 0x2dc
    566c:	4478      	add	r0, pc
    566e:	e7c7      	b.n	5600 <TEE_BigIntComputeExtendedGcd+0x60>
    5670:	4601      	mov	r1, r0
    5672:	4638      	mov	r0, r7
    5674:	f000 ff93 	bl	659e <mbedtls_mpi_lset>
    5678:	4602      	mov	r2, r0
    567a:	b188      	cbz	r0, 56a0 <TEE_BigIntComputeExtendedGcd+0x100>
    567c:	482e      	ldr	r0, [pc, #184]	; (5738 <TEE_BigIntComputeExtendedGcd+0x198>)
    567e:	f240 21dd 	movw	r1, #733	; 0x2dd
    5682:	4478      	add	r0, pc
    5684:	e7bc      	b.n	5600 <TEE_BigIntComputeExtendedGcd+0x60>
    5686:	bfc1      	itttt	gt
    5688:	462b      	movgt	r3, r5
    568a:	463a      	movgt	r2, r7
    568c:	9400      	strgt	r4, [sp, #0]
    568e:	4641      	movgt	r1, r8
    5690:	bfdf      	itttt	le
    5692:	4623      	movle	r3, r4
    5694:	9500      	strle	r5, [sp, #0]
    5696:	4642      	movle	r2, r8
    5698:	4639      	movle	r1, r7
    569a:	4630      	mov	r0, r6
    569c:	f7ff f8f5 	bl	488a <mpi_egcd>
    56a0:	f8bd 3040 	ldrh.w	r3, [sp, #64]	; 0x40
    56a4:	4659      	mov	r1, fp
    56a6:	4640      	mov	r0, r8
    56a8:	f8bd 2010 	ldrh.w	r2, [sp, #16]
    56ac:	fb13 f302 	smulbb	r3, r3, r2
    56b0:	f8bd 2014 	ldrh.w	r2, [sp, #20]
    56b4:	f8ad 3040 	strh.w	r3, [sp, #64]	; 0x40
    56b8:	f8bd 304c 	ldrh.w	r3, [sp, #76]	; 0x4c
    56bc:	fb13 f302 	smulbb	r3, r3, r2
    56c0:	f8ad 304c 	strh.w	r3, [sp, #76]	; 0x4c
    56c4:	f7ff f85a 	bl	477c <copy_mpi_to_bigint>
    56c8:	4602      	mov	r2, r0
    56ca:	b120      	cbz	r0, 56d6 <TEE_BigIntComputeExtendedGcd+0x136>
    56cc:	481b      	ldr	r0, [pc, #108]	; (573c <TEE_BigIntComputeExtendedGcd+0x19c>)
    56ce:	f240 21e7 	movw	r1, #743	; 0x2e7
    56d2:	4478      	add	r0, pc
    56d4:	e794      	b.n	5600 <TEE_BigIntComputeExtendedGcd+0x60>
    56d6:	4638      	mov	r0, r7
    56d8:	9903      	ldr	r1, [sp, #12]
    56da:	f7ff f84f 	bl	477c <copy_mpi_to_bigint>
    56de:	4602      	mov	r2, r0
    56e0:	b120      	cbz	r0, 56ec <TEE_BigIntComputeExtendedGcd+0x14c>
    56e2:	4817      	ldr	r0, [pc, #92]	; (5740 <TEE_BigIntComputeExtendedGcd+0x1a0>)
    56e4:	f44f 713a 	mov.w	r1, #744	; 0x2e8
    56e8:	4478      	add	r0, pc
    56ea:	e789      	b.n	5600 <TEE_BigIntComputeExtendedGcd+0x60>
    56ec:	4640      	mov	r0, r8
    56ee:	f000 fdc3 	bl	6278 <mbedtls_mpi_free>
    56f2:	4638      	mov	r0, r7
    56f4:	f000 fdc0 	bl	6278 <mbedtls_mpi_free>
    56f8:	4630      	mov	r0, r6
    56fa:	9902      	ldr	r1, [sp, #8]
    56fc:	f7ff f83e 	bl	477c <copy_mpi_to_bigint>
    5700:	4602      	mov	r2, r0
    5702:	b120      	cbz	r0, 570e <TEE_BigIntComputeExtendedGcd+0x16e>
    5704:	480f      	ldr	r0, [pc, #60]	; (5744 <TEE_BigIntComputeExtendedGcd+0x1a4>)
    5706:	f240 21ed 	movw	r1, #749	; 0x2ed
    570a:	4478      	add	r0, pc
    570c:	e778      	b.n	5600 <TEE_BigIntComputeExtendedGcd+0x60>
    570e:	4630      	mov	r0, r6
    5710:	f000 fdb2 	bl	6278 <mbedtls_mpi_free>
    5714:	4628      	mov	r0, r5
    5716:	f000 fdaf 	bl	6278 <mbedtls_mpi_free>
    571a:	454c      	cmp	r4, r9
    571c:	d102      	bne.n	5724 <TEE_BigIntComputeExtendedGcd+0x184>
    571e:	4620      	mov	r0, r4
    5720:	f000 fdaa 	bl	6278 <mbedtls_mpi_free>
    5724:	b017      	add	sp, #92	; 0x5c
    5726:	e8bd 8ff0 	ldmia.w	sp!, {r4, r5, r6, r7, r8, r9, sl, fp, pc}
    572a:	bf00      	nop
    572c:	000045e0 	.word	0x000045e0
    5730:	00004588 	.word	0x00004588
    5734:	00004572 	.word	0x00004572
    5738:	0000455c 	.word	0x0000455c
    573c:	0000450c 	.word	0x0000450c
    5740:	000044f6 	.word	0x000044f6
    5744:	000044d4 	.word	0x000044d4

00005748 <TEE_BigIntIsProbablePrime>:
    5748:	b530      	push	{r4, r5, lr}
    574a:	b085      	sub	sp, #20
    574c:	ac01      	add	r4, sp, #4
    574e:	4601      	mov	r1, r0
    5750:	4620      	mov	r0, r4
    5752:	f7fe ffed 	bl	4730 <get_mpi>
    5756:	4907      	ldr	r1, [pc, #28]	; (5774 <TEE_BigIntIsProbablePrime+0x2c>)
    5758:	2200      	movs	r2, #0
    575a:	4620      	mov	r0, r4
    575c:	4479      	add	r1, pc
    575e:	f002 fd33 	bl	81c8 <mbedtls_mpi_is_prime>
    5762:	4605      	mov	r5, r0
    5764:	4620      	mov	r0, r4
    5766:	f000 fd87 	bl	6278 <mbedtls_mpi_free>
    576a:	fab5 f085 	clz	r0, r5
    576e:	0940      	lsrs	r0, r0, #5
    5770:	b005      	add	sp, #20
    5772:	bd30      	pop	{r4, r5, pc}
    5774:	fffff115 	.word	0xfffff115

00005778 <TEE_BigIntInitFMM>:
    5778:	f7ff bad6 	b.w	4d28 <TEE_BigIntInit>

0000577c <TEE_BigIntInitFMMContext>:
    577c:	4770      	bx	lr

0000577e <TEE_BigIntFMMSizeInU32>:
    577e:	301f      	adds	r0, #31
    5780:	0940      	lsrs	r0, r0, #5
    5782:	3002      	adds	r0, #2
    5784:	4770      	bx	lr

00005786 <TEE_BigIntFMMContextSizeInU32>:
    5786:	2001      	movs	r0, #1
    5788:	4770      	bx	lr

0000578a <TEE_BigIntConvertToFMM>:
    578a:	f7ff be17 	b.w	53bc <TEE_BigIntMod>

0000578e <TEE_BigIntConvertFromFMM>:
    578e:	b5f0      	push	{r4, r5, r6, r7, lr}
    5790:	b087      	sub	sp, #28
    5792:	460f      	mov	r7, r1
    5794:	ad03      	add	r5, sp, #12
    5796:	4601      	mov	r1, r0
    5798:	4606      	mov	r6, r0
    579a:	4668      	mov	r0, sp
    579c:	f7fe ffc8 	bl	4730 <get_mpi>
    57a0:	4639      	mov	r1, r7
    57a2:	4628      	mov	r0, r5
    57a4:	f7fe ffc4 	bl	4730 <get_mpi>
    57a8:	4629      	mov	r1, r5
    57aa:	4668      	mov	r0, sp
    57ac:	f000 fe36 	bl	641c <mbedtls_mpi_copy>
    57b0:	4602      	mov	r2, r0
    57b2:	b138      	cbz	r0, 57c4 <TEE_BigIntConvertFromFMM+0x36>
    57b4:	480d      	ldr	r0, [pc, #52]	; (57ec <TEE_BigIntConvertFromFMM+0x5e>)
    57b6:	f44f 714f 	mov.w	r1, #828	; 0x33c
    57ba:	4478      	add	r0, pc
    57bc:	f200 100f 	addw	r0, r0, #271	; 0x10f
    57c0:	f7fe ffa6 	bl	4710 <mpi_panic>
    57c4:	4631      	mov	r1, r6
    57c6:	4668      	mov	r0, sp
    57c8:	f7fe ffd8 	bl	477c <copy_mpi_to_bigint>
    57cc:	4602      	mov	r2, r0
    57ce:	b120      	cbz	r0, 57da <TEE_BigIntConvertFromFMM+0x4c>
    57d0:	4807      	ldr	r0, [pc, #28]	; (57f0 <TEE_BigIntConvertFromFMM+0x62>)
    57d2:	f240 313e 	movw	r1, #830	; 0x33e
    57d6:	4478      	add	r0, pc
    57d8:	e7f0      	b.n	57bc <TEE_BigIntConvertFromFMM+0x2e>
    57da:	4668      	mov	r0, sp
    57dc:	f000 fd4c 	bl	6278 <mbedtls_mpi_free>
    57e0:	4628      	mov	r0, r5
    57e2:	f000 fd49 	bl	6278 <mbedtls_mpi_free>
    57e6:	b007      	add	sp, #28
    57e8:	bdf0      	pop	{r4, r5, r6, r7, pc}
    57ea:	bf00      	nop
    57ec:	00004424 	.word	0x00004424
    57f0:	00004408 	.word	0x00004408

000057f4 <TEE_BigIntComputeFMM>:
    57f4:	e92d 43f0 	stmdb	sp!, {r4, r5, r6, r7, r8, r9, lr}
    57f8:	b091      	sub	sp, #68	; 0x44
    57fa:	ac01      	add	r4, sp, #4
    57fc:	460f      	mov	r7, r1
    57fe:	ae04      	add	r6, sp, #16
    5800:	4601      	mov	r1, r0
    5802:	4681      	mov	r9, r0
    5804:	4620      	mov	r0, r4
    5806:	4690      	mov	r8, r2
    5808:	461d      	mov	r5, r3
    580a:	f7fe ff91 	bl	4730 <get_mpi>
    580e:	4639      	mov	r1, r7
    5810:	4630      	mov	r0, r6
    5812:	af07      	add	r7, sp, #28
    5814:	f7fe ff8c 	bl	4730 <get_mpi>
    5818:	4641      	mov	r1, r8
    581a:	4638      	mov	r0, r7
    581c:	f10d 0828 	add.w	r8, sp, #40	; 0x28
    5820:	f7fe ff86 	bl	4730 <get_mpi>
    5824:	4629      	mov	r1, r5
    5826:	4640      	mov	r0, r8
    5828:	ad0d      	add	r5, sp, #52	; 0x34
    582a:	f7fe ff81 	bl	4730 <get_mpi>
    582e:	4628      	mov	r0, r5
    5830:	f000 fd0f 	bl	6252 <mbedtls_mpi_init_mempool>
    5834:	463a      	mov	r2, r7
    5836:	4631      	mov	r1, r6
    5838:	4628      	mov	r0, r5
    583a:	f001 fab6 	bl	6daa <mbedtls_mpi_mul_mpi>
    583e:	4602      	mov	r2, r0
    5840:	b138      	cbz	r0, 5852 <TEE_BigIntComputeFMM+0x5e>
    5842:	4818      	ldr	r0, [pc, #96]	; (58a4 <TEE_BigIntComputeFMM+0xb0>)
    5844:	f240 3153 	movw	r1, #851	; 0x353
    5848:	4478      	add	r0, pc
    584a:	f500 7094 	add.w	r0, r0, #296	; 0x128
    584e:	f7fe ff5f 	bl	4710 <mpi_panic>
    5852:	4642      	mov	r2, r8
    5854:	4629      	mov	r1, r5
    5856:	4620      	mov	r0, r4
    5858:	f001 fd9b 	bl	7392 <mbedtls_mpi_mod_mpi>
    585c:	4602      	mov	r2, r0
    585e:	b120      	cbz	r0, 586a <TEE_BigIntComputeFMM+0x76>
    5860:	4811      	ldr	r0, [pc, #68]	; (58a8 <TEE_BigIntComputeFMM+0xb4>)
    5862:	f44f 7155 	mov.w	r1, #852	; 0x354
    5866:	4478      	add	r0, pc
    5868:	e7ef      	b.n	584a <TEE_BigIntComputeFMM+0x56>
    586a:	4628      	mov	r0, r5
    586c:	f000 fd04 	bl	6278 <mbedtls_mpi_free>
    5870:	4640      	mov	r0, r8
    5872:	f000 fd01 	bl	6278 <mbedtls_mpi_free>
    5876:	4638      	mov	r0, r7
    5878:	f000 fcfe 	bl	6278 <mbedtls_mpi_free>
    587c:	4630      	mov	r0, r6
    587e:	f000 fcfb 	bl	6278 <mbedtls_mpi_free>
    5882:	4649      	mov	r1, r9
    5884:	4620      	mov	r0, r4
    5886:	f7fe ff79 	bl	477c <copy_mpi_to_bigint>
    588a:	4602      	mov	r2, r0
    588c:	b120      	cbz	r0, 5898 <TEE_BigIntComputeFMM+0xa4>
    588e:	4807      	ldr	r0, [pc, #28]	; (58ac <TEE_BigIntComputeFMM+0xb8>)
    5890:	f240 315a 	movw	r1, #858	; 0x35a
    5894:	4478      	add	r0, pc
    5896:	e7d8      	b.n	584a <TEE_BigIntComputeFMM+0x56>
    5898:	4620      	mov	r0, r4
    589a:	f000 fced 	bl	6278 <mbedtls_mpi_free>
    589e:	b011      	add	sp, #68	; 0x44
    58a0:	e8bd 83f0 	ldmia.w	sp!, {r4, r5, r6, r7, r8, r9, pc}
    58a4:	00004396 	.word	0x00004396
    58a8:	00004378 	.word	0x00004378
    58ac:	0000434a 	.word	0x0000434a

000058b0 <api_panic>:
    58b0:	b508      	push	{r3, lr}
    58b2:	4613      	mov	r3, r2
    58b4:	460a      	mov	r2, r1
    58b6:	4601      	mov	r1, r0
    58b8:	4804      	ldr	r0, [pc, #16]	; (58cc <api_panic+0x1c>)
    58ba:	4478      	add	r0, pc
    58bc:	f7fb fa65 	bl	d8a <printf>
    58c0:	4801      	ldr	r0, [pc, #4]	; (58c8 <api_panic+0x18>)
    58c2:	f7fd fbed 	bl	30a0 <TEE_Panic>
    58c6:	e7fe      	b.n	58c6 <api_panic+0x16>
    58c8:	00b16127 	.word	0x00b16127
    58cc:	00004461 	.word	0x00004461

000058d0 <invoke_system_pta>:
    58d0:	b573      	push	{r0, r1, r4, r5, r6, lr}
    58d2:	4616      	mov	r6, r2
    58d4:	4a0f      	ldr	r2, [pc, #60]	; (5914 <invoke_system_pta+0x44>)
    58d6:	4604      	mov	r4, r0
    58d8:	460d      	mov	r5, r1
    58da:	447a      	add	r2, pc
    58dc:	6813      	ldr	r3, [r2, #0]
    58de:	b16b      	cbz	r3, 58fc <invoke_system_pta+0x2c>
    58e0:	480d      	ldr	r0, [pc, #52]	; (5918 <invoke_system_pta+0x48>)
    58e2:	2300      	movs	r3, #0
    58e4:	9600      	str	r6, [sp, #0]
    58e6:	4622      	mov	r2, r4
    58e8:	f04f 31ff 	mov.w	r1, #4294967295	; 0xffffffff
    58ec:	9301      	str	r3, [sp, #4]
    58ee:	462b      	mov	r3, r5
    58f0:	4478      	add	r0, pc
    58f2:	6800      	ldr	r0, [r0, #0]
    58f4:	f7fe fe19 	bl	452a <TEE_InvokeTACommand>
    58f8:	b002      	add	sp, #8
    58fa:	bd70      	pop	{r4, r5, r6, pc}
    58fc:	4807      	ldr	r0, [pc, #28]	; (591c <invoke_system_pta+0x4c>)
    58fe:	e9cd 2300 	strd	r2, r3, [sp]
    5902:	f04f 31ff 	mov.w	r1, #4294967295	; 0xffffffff
    5906:	461a      	mov	r2, r3
    5908:	4478      	add	r0, pc
    590a:	f7fe fdc5 	bl	4498 <TEE_OpenTASession>
    590e:	2800      	cmp	r0, #0
    5910:	d0e6      	beq.n	58e0 <invoke_system_pta+0x10>
    5912:	e7f1      	b.n	58f8 <invoke_system_pta+0x28>
    5914:	00009aba 	.word	0x00009aba
    5918:	00009aa4 	.word	0x00009aa4
    591c:	00003b40 	.word	0x00003b40

00005920 <tee_map_zi>:
    5920:	b570      	push	{r4, r5, r6, lr}
    5922:	4606      	mov	r6, r0
    5924:	b088      	sub	sp, #32
    5926:	460d      	mov	r5, r1
    5928:	2220      	movs	r2, #32
    592a:	2100      	movs	r1, #0
    592c:	4668      	mov	r0, sp
    592e:	466c      	mov	r4, sp
    5930:	f003 fc11 	bl	9156 <memset>
    5934:	9600      	str	r6, [sp, #0]
    5936:	b11d      	cbz	r5, 5940 <tee_map_zi+0x20>
    5938:	2d04      	cmp	r5, #4
    593a:	d10d      	bne.n	5958 <tee_map_zi+0x38>
    593c:	2301      	movs	r3, #1
    593e:	9301      	str	r3, [sp, #4]
    5940:	4622      	mov	r2, r4
    5942:	f240 1131 	movw	r1, #305	; 0x131
    5946:	2002      	movs	r0, #2
    5948:	f7ff ffc2 	bl	58d0 <invoke_system_pta>
    594c:	b920      	cbnz	r0, 5958 <tee_map_zi+0x38>
    594e:	4603      	mov	r3, r0
    5950:	9803      	ldr	r0, [sp, #12]
    5952:	4318      	orrs	r0, r3
    5954:	b008      	add	sp, #32
    5956:	bd70      	pop	{r4, r5, r6, pc}
    5958:	2000      	movs	r0, #0
    595a:	e7fb      	b.n	5954 <tee_map_zi+0x34>

0000595c <tee_unmap>:
    595c:	b570      	push	{r4, r5, r6, lr}
    595e:	b08c      	sub	sp, #48	; 0x30
    5960:	ac04      	add	r4, sp, #16
    5962:	4605      	mov	r5, r0
    5964:	460e      	mov	r6, r1
    5966:	2220      	movs	r2, #32
    5968:	2100      	movs	r1, #0
    596a:	4620      	mov	r0, r4
    596c:	f003 fbf3 	bl	9156 <memset>
    5970:	4622      	mov	r2, r4
    5972:	2111      	movs	r1, #17
    5974:	9604      	str	r6, [sp, #16]
    5976:	2003      	movs	r0, #3
    5978:	9507      	str	r5, [sp, #28]
    597a:	f7ff ffa9 	bl	58d0 <invoke_system_pta>
    597e:	4604      	mov	r4, r0
    5980:	b158      	cbz	r0, 599a <tee_unmap+0x3e>
    5982:	4b07      	ldr	r3, [pc, #28]	; (59a0 <tee_unmap+0x44>)
    5984:	214c      	movs	r1, #76	; 0x4c
    5986:	4807      	ldr	r0, [pc, #28]	; (59a4 <tee_unmap+0x48>)
    5988:	447b      	add	r3, pc
    598a:	4478      	add	r0, pc
    598c:	e88d 0068 	stmia.w	sp, {r3, r5, r6}
    5990:	2301      	movs	r3, #1
    5992:	3010      	adds	r0, #16
    5994:	461a      	mov	r2, r3
    5996:	f7fa fdf1 	bl	57c <trace_printf>
    599a:	4620      	mov	r0, r4
    599c:	b00c      	add	sp, #48	; 0x30
    599e:	bd70      	pop	{r4, r5, r6, pc}
    59a0:	0000444a 	.word	0x0000444a
    59a4:	00003abe 	.word	0x00003abe

000059a8 <tee_invoke_supp_plugin>:
    59a8:	e92d 47f0 	stmdb	sp!, {r4, r5, r6, r7, r8, r9, sl, lr}
    59ac:	b08a      	sub	sp, #40	; 0x28
    59ae:	ae02      	add	r6, sp, #8
    59b0:	4680      	mov	r8, r0
    59b2:	9f12      	ldr	r7, [sp, #72]	; 0x48
    59b4:	468a      	mov	sl, r1
    59b6:	4691      	mov	r9, r2
    59b8:	9d13      	ldr	r5, [sp, #76]	; 0x4c
    59ba:	2220      	movs	r2, #32
    59bc:	2100      	movs	r1, #0
    59be:	4630      	mov	r0, r6
    59c0:	461c      	mov	r4, r3
    59c2:	f003 fbc8 	bl	9156 <memset>
    59c6:	f1b8 0f00 	cmp.w	r8, #0
    59ca:	d001      	beq.n	59d0 <tee_invoke_supp_plugin+0x28>
    59cc:	b117      	cbz	r7, 59d4 <tee_invoke_supp_plugin+0x2c>
    59ce:	b91c      	cbnz	r4, 59d8 <tee_invoke_supp_plugin+0x30>
    59d0:	4c14      	ldr	r4, [pc, #80]	; (5a24 <tee_invoke_supp_plugin+0x7c>)
    59d2:	e022      	b.n	5a1a <tee_invoke_supp_plugin+0x72>
    59d4:	2c00      	cmp	r4, #0
    59d6:	d1fb      	bne.n	59d0 <tee_invoke_supp_plugin+0x28>
    59d8:	2310      	movs	r3, #16
    59da:	4632      	mov	r2, r6
    59dc:	f8cd 8008 	str.w	r8, [sp, #8]
    59e0:	f242 7115 	movw	r1, #10005	; 0x2715
    59e4:	200d      	movs	r0, #13
    59e6:	9303      	str	r3, [sp, #12]
    59e8:	f8cd a010 	str.w	sl, [sp, #16]
    59ec:	f8cd 9014 	str.w	r9, [sp, #20]
    59f0:	9406      	str	r4, [sp, #24]
    59f2:	9707      	str	r7, [sp, #28]
    59f4:	f7ff ff6c 	bl	58d0 <invoke_system_pta>
    59f8:	4604      	mov	r4, r0
    59fa:	b158      	cbz	r0, 5a14 <tee_invoke_supp_plugin+0x6c>
    59fc:	4b0a      	ldr	r3, [pc, #40]	; (5a28 <tee_invoke_supp_plugin+0x80>)
    59fe:	2169      	movs	r1, #105	; 0x69
    5a00:	480a      	ldr	r0, [pc, #40]	; (5a2c <tee_invoke_supp_plugin+0x84>)
    5a02:	447b      	add	r3, pc
    5a04:	4478      	add	r0, pc
    5a06:	e9cd 3400 	strd	r3, r4, [sp]
    5a0a:	2301      	movs	r3, #1
    5a0c:	301a      	adds	r0, #26
    5a0e:	461a      	mov	r2, r3
    5a10:	f7fa fdb4 	bl	57c <trace_printf>
    5a14:	b10d      	cbz	r5, 5a1a <tee_invoke_supp_plugin+0x72>
    5a16:	9b08      	ldr	r3, [sp, #32]
    5a18:	602b      	str	r3, [r5, #0]
    5a1a:	4620      	mov	r0, r4
    5a1c:	b00a      	add	sp, #40	; 0x28
    5a1e:	e8bd 87f0 	ldmia.w	sp!, {r4, r5, r6, r7, r8, r9, sl, pc}
    5a22:	bf00      	nop
    5a24:	ffff0006 	.word	0xffff0006
    5a28:	000043fa 	.word	0x000043fa
    5a2c:	00003a44 	.word	0x00003a44

00005a30 <__utee_tcb_init>:
    5a30:	4b51      	ldr	r3, [pc, #324]	; (5b78 <__utee_tcb_init+0x148>)
    5a32:	4a52      	ldr	r2, [pc, #328]	; (5b7c <__utee_tcb_init+0x14c>)
    5a34:	e92d 4ff0 	stmdb	sp!, {r4, r5, r6, r7, r8, r9, sl, fp, lr}
    5a38:	2600      	movs	r6, #0
    5a3a:	b087      	sub	sp, #28
    5a3c:	447b      	add	r3, pc
    5a3e:	589f      	ldr	r7, [r3, r2]
    5a40:	2228      	movs	r2, #40	; 0x28
    5a42:	88b8      	ldrh	r0, [r7, #4]
    5a44:	68bb      	ldr	r3, [r7, #8]
    5a46:	fb02 3000 	mla	r0, r2, r0, r3
    5a4a:	4283      	cmp	r3, r0
    5a4c:	d110      	bne.n	5a70 <__utee_tcb_init+0x40>
    5a4e:	4d4c      	ldr	r5, [pc, #304]	; (5b80 <__utee_tcb_init+0x150>)
    5a50:	447d      	add	r5, pc
    5a52:	682b      	ldr	r3, [r5, #0]
    5a54:	429e      	cmp	r6, r3
    5a56:	9303      	str	r3, [sp, #12]
    5a58:	d21c      	bcs.n	5a94 <__utee_tcb_init+0x64>
    5a5a:	4b4a      	ldr	r3, [pc, #296]	; (5b84 <__utee_tcb_init+0x154>)
    5a5c:	226c      	movs	r2, #108	; 0x6c
    5a5e:	494a      	ldr	r1, [pc, #296]	; (5b88 <__utee_tcb_init+0x158>)
    5a60:	484a      	ldr	r0, [pc, #296]	; (5b8c <__utee_tcb_init+0x15c>)
    5a62:	447b      	add	r3, pc
    5a64:	4479      	add	r1, pc
    5a66:	4478      	add	r0, pc
    5a68:	f000 f8f6 	bl	5c58 <_assert_log>
    5a6c:	f000 f908 	bl	5c80 <_assert_break>
    5a70:	899d      	ldrh	r5, [r3, #12]
    5a72:	2200      	movs	r2, #0
    5a74:	42aa      	cmp	r2, r5
    5a76:	d209      	bcs.n	5a8c <__utee_tcb_init+0x5c>
    5a78:	689c      	ldr	r4, [r3, #8]
    5a7a:	0151      	lsls	r1, r2, #5
    5a7c:	eb04 0c01 	add.w	ip, r4, r1
    5a80:	5861      	ldr	r1, [r4, r1]
    5a82:	2907      	cmp	r1, #7
    5a84:	d104      	bne.n	5a90 <__utee_tcb_init+0x60>
    5a86:	f8dc 2014 	ldr.w	r2, [ip, #20]
    5a8a:	4416      	add	r6, r2
    5a8c:	3328      	adds	r3, #40	; 0x28
    5a8e:	e7dc      	b.n	5a4a <__utee_tcb_init+0x1a>
    5a90:	3201      	adds	r2, #1
    5a92:	e7ef      	b.n	5a74 <__utee_tcb_init+0x44>
    5a94:	d02a      	beq.n	5aec <__utee_tcb_init+0xbc>
    5a96:	f106 0808 	add.w	r8, r6, #8
    5a9a:	6868      	ldr	r0, [r5, #4]
    5a9c:	4641      	mov	r1, r8
    5a9e:	f003 f9b9 	bl	8e14 <realloc>
    5aa2:	4604      	mov	r4, r0
    5aa4:	6068      	str	r0, [r5, #4]
    5aa6:	b960      	cbnz	r0, 5ac2 <__utee_tcb_init+0x92>
    5aa8:	4b39      	ldr	r3, [pc, #228]	; (5b90 <__utee_tcb_init+0x160>)
    5aaa:	2174      	movs	r1, #116	; 0x74
    5aac:	4839      	ldr	r0, [pc, #228]	; (5b94 <__utee_tcb_init+0x164>)
    5aae:	447b      	add	r3, pc
    5ab0:	4478      	add	r0, pc
    5ab2:	e9cd 3800 	strd	r3, r8, [sp]
    5ab6:	2301      	movs	r3, #1
    5ab8:	461a      	mov	r2, r3
    5aba:	f7fa fd5f 	bl	57c <trace_printf>
    5abe:	f7fe fb05 	bl	40cc <abort>
    5ac2:	88bd      	ldrh	r5, [r7, #4]
    5ac4:	6800      	ldr	r0, [r0, #0]
    5ac6:	3502      	adds	r5, #2
    5ac8:	00ad      	lsls	r5, r5, #2
    5aca:	4629      	mov	r1, r5
    5acc:	f003 f9a2 	bl	8e14 <realloc>
    5ad0:	6020      	str	r0, [r4, #0]
    5ad2:	b170      	cbz	r0, 5af2 <__utee_tcb_init+0xc2>
    5ad4:	2200      	movs	r2, #0
    5ad6:	f104 0b08 	add.w	fp, r4, #8
    5ada:	4690      	mov	r8, r2
    5adc:	88bb      	ldrh	r3, [r7, #4]
    5ade:	429a      	cmp	r2, r3
    5ae0:	d311      	bcc.n	5b06 <__utee_tcb_init+0xd6>
    5ae2:	6823      	ldr	r3, [r4, #0]
    5ae4:	601a      	str	r2, [r3, #0]
    5ae6:	4b2c      	ldr	r3, [pc, #176]	; (5b98 <__utee_tcb_init+0x168>)
    5ae8:	447b      	add	r3, pc
    5aea:	601e      	str	r6, [r3, #0]
    5aec:	b007      	add	sp, #28
    5aee:	e8bd 8ff0 	ldmia.w	sp!, {r4, r5, r6, r7, r8, r9, sl, fp, pc}
    5af2:	4b2a      	ldr	r3, [pc, #168]	; (5b9c <__utee_tcb_init+0x16c>)
    5af4:	217c      	movs	r1, #124	; 0x7c
    5af6:	482a      	ldr	r0, [pc, #168]	; (5ba0 <__utee_tcb_init+0x170>)
    5af8:	447b      	add	r3, pc
    5afa:	4478      	add	r0, pc
    5afc:	e9cd 3500 	strd	r3, r5, [sp]
    5b00:	2301      	movs	r3, #1
    5b02:	461a      	mov	r2, r3
    5b04:	e7d9      	b.n	5aba <__utee_tcb_init+0x8a>
    5b06:	68bb      	ldr	r3, [r7, #8]
    5b08:	2128      	movs	r1, #40	; 0x28
    5b0a:	f04f 0a00 	mov.w	sl, #0
    5b0e:	fb01 3902 	mla	r9, r1, r2, r3
    5b12:	1c53      	adds	r3, r2, #1
    5b14:	009a      	lsls	r2, r3, #2
    5b16:	9204      	str	r2, [sp, #16]
    5b18:	f8b9 100c 	ldrh.w	r1, [r9, #12]
    5b1c:	461a      	mov	r2, r3
    5b1e:	458a      	cmp	sl, r1
    5b20:	d2dc      	bcs.n	5adc <__utee_tcb_init+0xac>
    5b22:	f8d9 1008 	ldr.w	r1, [r9, #8]
    5b26:	ea4f 124a 	mov.w	r2, sl, lsl #5
    5b2a:	188d      	adds	r5, r1, r2
    5b2c:	588a      	ldr	r2, [r1, r2]
    5b2e:	2a07      	cmp	r2, #7
    5b30:	d11e      	bne.n	5b70 <__utee_tcb_init+0x140>
    5b32:	6969      	ldr	r1, [r5, #20]
    5b34:	461a      	mov	r2, r3
    5b36:	9305      	str	r3, [sp, #20]
    5b38:	9b03      	ldr	r3, [sp, #12]
    5b3a:	4441      	add	r1, r8
    5b3c:	428b      	cmp	r3, r1
    5b3e:	d2cd      	bcs.n	5adc <__utee_tcb_init+0xac>
    5b40:	6822      	ldr	r2, [r4, #0]
    5b42:	eb0b 0008 	add.w	r0, fp, r8
    5b46:	9b04      	ldr	r3, [sp, #16]
    5b48:	50d0      	str	r0, [r2, r3]
    5b4a:	f8d9 3000 	ldr.w	r3, [r9]
    5b4e:	68a9      	ldr	r1, [r5, #8]
    5b50:	692a      	ldr	r2, [r5, #16]
    5b52:	4419      	add	r1, r3
    5b54:	f7fa fbf8 	bl	348 <memcpy>
    5b58:	692a      	ldr	r2, [r5, #16]
    5b5a:	6969      	ldr	r1, [r5, #20]
    5b5c:	eb08 0002 	add.w	r0, r8, r2
    5b60:	4458      	add	r0, fp
    5b62:	1a8a      	subs	r2, r1, r2
    5b64:	2100      	movs	r1, #0
    5b66:	f003 faf6 	bl	9156 <memset>
    5b6a:	696a      	ldr	r2, [r5, #20]
    5b6c:	9b05      	ldr	r3, [sp, #20]
    5b6e:	4490      	add	r8, r2
    5b70:	f10a 0a01 	add.w	sl, sl, #1
    5b74:	e7d0      	b.n	5b18 <__utee_tcb_init+0xe8>
    5b76:	bf00      	nop
    5b78:	00006640 	.word	0x00006640
    5b7c:	00000048 	.word	0x00000048
    5b80:	00009948 	.word	0x00009948
    5b84:	000043c5 	.word	0x000043c5
    5b88:	000043e3 	.word	0x000043e3
    5b8c:	000043fc 	.word	0x000043fc
    5b90:	000043cc 	.word	0x000043cc
    5b94:	00004377 	.word	0x00004377
    5b98:	000098b0 	.word	0x000098b0
    5b9c:	000043a4 	.word	0x000043a4
    5ba0:	0000432d 	.word	0x0000432d

00005ba4 <__tls_get_addr>:
    5ba4:	4b04      	ldr	r3, [pc, #16]	; (5bb8 <__tls_get_addr+0x14>)
    5ba6:	6802      	ldr	r2, [r0, #0]
    5ba8:	6840      	ldr	r0, [r0, #4]
    5baa:	447b      	add	r3, pc
    5bac:	685b      	ldr	r3, [r3, #4]
    5bae:	681b      	ldr	r3, [r3, #0]
    5bb0:	f853 2022 	ldr.w	r2, [r3, r2, lsl #2]
    5bb4:	4410      	add	r0, r2
    5bb6:	4770      	bx	lr
    5bb8:	000097ee 	.word	0x000097ee

00005bbc <dl_iterate_phdr>:
    5bbc:	e92d 4ff7 	stmdb	sp!, {r0, r1, r2, r4, r5, r6, r7, r8, r9, sl, fp, lr}
    5bc0:	4680      	mov	r8, r0
    5bc2:	4f20      	ldr	r7, [pc, #128]	; (5c44 <dl_iterate_phdr+0x88>)
    5bc4:	4689      	mov	r9, r1
    5bc6:	2001      	movs	r0, #1
    5bc8:	2128      	movs	r1, #40	; 0x28
    5bca:	f003 f901 	bl	8dd0 <calloc>
    5bce:	4604      	mov	r4, r0
    5bd0:	447f      	add	r7, pc
    5bd2:	b190      	cbz	r0, 5bfa <dl_iterate_phdr+0x3e>
    5bd4:	4b1c      	ldr	r3, [pc, #112]	; (5c48 <dl_iterate_phdr+0x8c>)
    5bd6:	2600      	movs	r6, #0
    5bd8:	f04f 0a28 	mov.w	sl, #40	; 0x28
    5bdc:	f8df b06c 	ldr.w	fp, [pc, #108]	; 5c4c <dl_iterate_phdr+0x90>
    5be0:	4635      	mov	r5, r6
    5be2:	58ff      	ldr	r7, [r7, r3]
    5be4:	44fb      	add	fp, pc
    5be6:	88bb      	ldrh	r3, [r7, #4]
    5be8:	429d      	cmp	r5, r3
    5bea:	d313      	bcc.n	5c14 <dl_iterate_phdr+0x58>
    5bec:	4620      	mov	r0, r4
    5bee:	f003 f931 	bl	8e54 <free>
    5bf2:	4630      	mov	r0, r6
    5bf4:	b003      	add	sp, #12
    5bf6:	e8bd 8ff0 	ldmia.w	sp!, {r4, r5, r6, r7, r8, r9, sl, fp, pc}
    5bfa:	4b15      	ldr	r3, [pc, #84]	; (5c50 <dl_iterate_phdr+0x94>)
    5bfc:	21c0      	movs	r1, #192	; 0xc0
    5bfe:	4815      	ldr	r0, [pc, #84]	; (5c54 <dl_iterate_phdr+0x98>)
    5c00:	447b      	add	r3, pc
    5c02:	4478      	add	r0, pc
    5c04:	9300      	str	r3, [sp, #0]
    5c06:	2301      	movs	r3, #1
    5c08:	3010      	adds	r0, #16
    5c0a:	461a      	mov	r2, r3
    5c0c:	f7fa fcb6 	bl	57c <trace_printf>
    5c10:	f7fe fa5c 	bl	40cc <abort>
    5c14:	68b9      	ldr	r1, [r7, #8]
    5c16:	2228      	movs	r2, #40	; 0x28
    5c18:	4620      	mov	r0, r4
    5c1a:	fb0a 1105 	mla	r1, sl, r5, r1
    5c1e:	f7fa fb93 	bl	348 <memcpy>
    5c22:	2300      	movs	r3, #0
    5c24:	6263      	str	r3, [r4, #36]	; 0x24
    5c26:	6a23      	ldr	r3, [r4, #32]
    5c28:	b12b      	cbz	r3, 5c36 <dl_iterate_phdr+0x7a>
    5c2a:	f8db 2004 	ldr.w	r2, [fp, #4]
    5c2e:	6812      	ldr	r2, [r2, #0]
    5c30:	f852 3023 	ldr.w	r3, [r2, r3, lsl #2]
    5c34:	6263      	str	r3, [r4, #36]	; 0x24
    5c36:	464a      	mov	r2, r9
    5c38:	2128      	movs	r1, #40	; 0x28
    5c3a:	4620      	mov	r0, r4
    5c3c:	3501      	adds	r5, #1
    5c3e:	47c0      	blx	r8
    5c40:	4606      	mov	r6, r0
    5c42:	e7d0      	b.n	5be6 <dl_iterate_phdr+0x2a>
    5c44:	000064ac 	.word	0x000064ac
    5c48:	00000048 	.word	0x00000048
    5c4c:	000097b4 	.word	0x000097b4
    5c50:	000042be 	.word	0x000042be
    5c54:	00004225 	.word	0x00004225

00005c58 <_assert_log>:
    5c58:	b57f      	push	{r0, r1, r2, r3, r4, r5, r6, lr}
    5c5a:	9001      	str	r0, [sp, #4]
    5c5c:	9304      	str	r3, [sp, #16]
    5c5e:	4b07      	ldr	r3, [pc, #28]	; (5c7c <_assert_log+0x24>)
    5c60:	9102      	str	r1, [sp, #8]
    5c62:	2100      	movs	r1, #0
    5c64:	9203      	str	r2, [sp, #12]
    5c66:	4608      	mov	r0, r1
    5c68:	447b      	add	r3, pc
    5c6a:	9300      	str	r3, [sp, #0]
    5c6c:	2301      	movs	r3, #1
    5c6e:	461a      	mov	r2, r3
    5c70:	f7fa fc84 	bl	57c <trace_printf>
    5c74:	b007      	add	sp, #28
    5c76:	f85d fb04 	ldr.w	pc, [sp], #4
    5c7a:	bf00      	nop
    5c7c:	00004275 	.word	0x00004275

00005c80 <_assert_break>:
    5c80:	b508      	push	{r3, lr}
    5c82:	4802      	ldr	r0, [pc, #8]	; (5c8c <_assert_break+0xc>)
    5c84:	f7fd ed8c 	blx	37a0 <_utee_panic>
    5c88:	e7fe      	b.n	5c88 <_assert_break+0x8>
    5c8a:	bf00      	nop
    5c8c:	ffff0000 	.word	0xffff0000

00005c90 <mpi_get_digit>:
    5c90:	f1a2 0330 	sub.w	r3, r2, #48	; 0x30
    5c94:	b510      	push	{r4, lr}
    5c96:	b2dc      	uxtb	r4, r3
    5c98:	2c09      	cmp	r4, #9
    5c9a:	bf88      	it	hi
    5c9c:	23ff      	movhi	r3, #255	; 0xff
    5c9e:	6003      	str	r3, [r0, #0]
    5ca0:	f1a2 0341 	sub.w	r3, r2, #65	; 0x41
    5ca4:	2b05      	cmp	r3, #5
    5ca6:	bf9c      	itt	ls
    5ca8:	f1a2 0337 	subls.w	r3, r2, #55	; 0x37
    5cac:	6003      	strls	r3, [r0, #0]
    5cae:	f1a2 0361 	sub.w	r3, r2, #97	; 0x61
    5cb2:	2b05      	cmp	r3, #5
    5cb4:	bf9c      	itt	ls
    5cb6:	3a57      	subls	r2, #87	; 0x57
    5cb8:	6002      	strls	r2, [r0, #0]
    5cba:	6803      	ldr	r3, [r0, #0]
    5cbc:	428b      	cmp	r3, r1
    5cbe:	bf2c      	ite	cs
    5cc0:	f06f 0005 	mvncs.w	r0, #5
    5cc4:	2000      	movcc	r0, #0
    5cc6:	bd10      	pop	{r4, pc}

00005cc8 <mpi_sub_hlp>:
    5cc8:	2300      	movs	r3, #0
    5cca:	b5f0      	push	{r4, r5, r6, r7, lr}
    5ccc:	4616      	mov	r6, r2
    5cce:	461c      	mov	r4, r3
    5cd0:	4284      	cmp	r4, r0
    5cd2:	d103      	bne.n	5cdc <mpi_sub_hlp+0x14>
    5cd4:	eb02 0284 	add.w	r2, r2, r4, lsl #2
    5cd8:	b9c3      	cbnz	r3, 5d0c <mpi_sub_hlp+0x44>
    5cda:	bdf0      	pop	{r4, r5, r6, r7, pc}
    5cdc:	f8d6 c000 	ldr.w	ip, [r6]
    5ce0:	ebac 0503 	sub.w	r5, ip, r3
    5ce4:	6035      	str	r5, [r6, #0]
    5ce6:	f851 7024 	ldr.w	r7, [r1, r4, lsl #2]
    5cea:	3401      	adds	r4, #1
    5cec:	42bd      	cmp	r5, r7
    5cee:	eba5 0507 	sub.w	r5, r5, r7
    5cf2:	bf2c      	ite	cs
    5cf4:	f04f 0e00 	movcs.w	lr, #0
    5cf8:	f04f 0e01 	movcc.w	lr, #1
    5cfc:	4563      	cmp	r3, ip
    5cfe:	bf94      	ite	ls
    5d00:	4673      	movls	r3, lr
    5d02:	f10e 0301 	addhi.w	r3, lr, #1
    5d06:	f846 5b04 	str.w	r5, [r6], #4
    5d0a:	e7e1      	b.n	5cd0 <mpi_sub_hlp+0x8>
    5d0c:	6811      	ldr	r1, [r2, #0]
    5d0e:	1ac8      	subs	r0, r1, r3
    5d10:	428b      	cmp	r3, r1
    5d12:	bf94      	ite	ls
    5d14:	2300      	movls	r3, #0
    5d16:	2301      	movhi	r3, #1
    5d18:	f842 0b04 	str.w	r0, [r2], #4
    5d1c:	e7dc      	b.n	5cd8 <mpi_sub_hlp+0x10>

00005d1e <mpi_mul_hlp>:
    5d1e:	e92d 43f0 	stmdb	sp!, {r4, r5, r6, r7, r8, r9, lr}
    5d22:	4684      	mov	ip, r0
    5d24:	460d      	mov	r5, r1
    5d26:	4614      	mov	r4, r2
    5d28:	f04f 0e00 	mov.w	lr, #0
    5d2c:	f1bc 0f0f 	cmp.w	ip, #15
    5d30:	f105 0540 	add.w	r5, r5, #64	; 0x40
    5d34:	f104 0440 	add.w	r4, r4, #64	; 0x40
    5d38:	f200 80b1 	bhi.w	5e9e <mpi_mul_hlp+0x180>
    5d3c:	ea4f 1c10 	mov.w	ip, r0, lsr #4
    5d40:	eba0 100c 	sub.w	r0, r0, ip, lsl #4
    5d44:	ea4f 1c8c 	mov.w	ip, ip, lsl #6
    5d48:	2807      	cmp	r0, #7
    5d4a:	eb01 050c 	add.w	r5, r1, ip
    5d4e:	eb02 040c 	add.w	r4, r2, ip
    5d52:	f240 808b 	bls.w	5e6c <mpi_mul_hlp+0x14e>
    5d56:	f851 600c 	ldr.w	r6, [r1, ip]
    5d5a:	2100      	movs	r1, #0
    5d5c:	fba3 6706 	umull	r6, r7, r3, r6
    5d60:	eb1e 0e06 	adds.w	lr, lr, r6
    5d64:	f852 600c 	ldr.w	r6, [r2, ip]
    5d68:	bf2c      	ite	cs
    5d6a:	f04f 0801 	movcs.w	r8, #1
    5d6e:	f04f 0800 	movcc.w	r8, #0
    5d72:	44b8      	add	r8, r7
    5d74:	eb1e 0606 	adds.w	r6, lr, r6
    5d78:	bf28      	it	cs
    5d7a:	2101      	movcs	r1, #1
    5d7c:	f842 600c 	str.w	r6, [r2, ip]
    5d80:	686e      	ldr	r6, [r5, #4]
    5d82:	eb01 0208 	add.w	r2, r1, r8
    5d86:	fba3 6706 	umull	r6, r7, r3, r6
    5d8a:	1992      	adds	r2, r2, r6
    5d8c:	6866      	ldr	r6, [r4, #4]
    5d8e:	bf2c      	ite	cs
    5d90:	2101      	movcs	r1, #1
    5d92:	2100      	movcc	r1, #0
    5d94:	eb01 0c07 	add.w	ip, r1, r7
    5d98:	2100      	movs	r1, #0
    5d9a:	1992      	adds	r2, r2, r6
    5d9c:	bf28      	it	cs
    5d9e:	2101      	movcs	r1, #1
    5da0:	6062      	str	r2, [r4, #4]
    5da2:	68ae      	ldr	r6, [r5, #8]
    5da4:	4461      	add	r1, ip
    5da6:	fba3 6706 	umull	r6, r7, r3, r6
    5daa:	1989      	adds	r1, r1, r6
    5dac:	68a6      	ldr	r6, [r4, #8]
    5dae:	bf2c      	ite	cs
    5db0:	2201      	movcs	r2, #1
    5db2:	2200      	movcc	r2, #0
    5db4:	eb02 0c07 	add.w	ip, r2, r7
    5db8:	2200      	movs	r2, #0
    5dba:	1989      	adds	r1, r1, r6
    5dbc:	bf28      	it	cs
    5dbe:	2201      	movcs	r2, #1
    5dc0:	60a1      	str	r1, [r4, #8]
    5dc2:	68ee      	ldr	r6, [r5, #12]
    5dc4:	4462      	add	r2, ip
    5dc6:	fba3 6706 	umull	r6, r7, r3, r6
    5dca:	1992      	adds	r2, r2, r6
    5dcc:	68e6      	ldr	r6, [r4, #12]
    5dce:	bf2c      	ite	cs
    5dd0:	2101      	movcs	r1, #1
    5dd2:	2100      	movcc	r1, #0
    5dd4:	eb01 0c07 	add.w	ip, r1, r7
    5dd8:	2100      	movs	r1, #0
    5dda:	1992      	adds	r2, r2, r6
    5ddc:	bf28      	it	cs
    5dde:	2101      	movcs	r1, #1
    5de0:	60e2      	str	r2, [r4, #12]
    5de2:	692e      	ldr	r6, [r5, #16]
    5de4:	4461      	add	r1, ip
    5de6:	fba3 6706 	umull	r6, r7, r3, r6
    5dea:	1989      	adds	r1, r1, r6
    5dec:	6926      	ldr	r6, [r4, #16]
    5dee:	bf2c      	ite	cs
    5df0:	2201      	movcs	r2, #1
    5df2:	2200      	movcc	r2, #0
    5df4:	eb02 0c07 	add.w	ip, r2, r7
    5df8:	2200      	movs	r2, #0
    5dfa:	1989      	adds	r1, r1, r6
    5dfc:	bf28      	it	cs
    5dfe:	2201      	movcs	r2, #1
    5e00:	6121      	str	r1, [r4, #16]
    5e02:	696e      	ldr	r6, [r5, #20]
    5e04:	4462      	add	r2, ip
    5e06:	fba3 6706 	umull	r6, r7, r3, r6
    5e0a:	1992      	adds	r2, r2, r6
    5e0c:	6966      	ldr	r6, [r4, #20]
    5e0e:	bf2c      	ite	cs
    5e10:	2101      	movcs	r1, #1
    5e12:	2100      	movcc	r1, #0
    5e14:	eb01 0c07 	add.w	ip, r1, r7
    5e18:	2100      	movs	r1, #0
    5e1a:	1992      	adds	r2, r2, r6
    5e1c:	bf28      	it	cs
    5e1e:	2101      	movcs	r1, #1
    5e20:	6162      	str	r2, [r4, #20]
    5e22:	69ae      	ldr	r6, [r5, #24]
    5e24:	4461      	add	r1, ip
    5e26:	fba3 6706 	umull	r6, r7, r3, r6
    5e2a:	1989      	adds	r1, r1, r6
    5e2c:	69a6      	ldr	r6, [r4, #24]
    5e2e:	bf2c      	ite	cs
    5e30:	2201      	movcs	r2, #1
    5e32:	2200      	movcc	r2, #0
    5e34:	eb02 0c07 	add.w	ip, r2, r7
    5e38:	2200      	movs	r2, #0
    5e3a:	1989      	adds	r1, r1, r6
    5e3c:	bf28      	it	cs
    5e3e:	2201      	movcs	r2, #1
    5e40:	61a1      	str	r1, [r4, #24]
    5e42:	69ee      	ldr	r6, [r5, #28]
    5e44:	4462      	add	r2, ip
    5e46:	fba3 6706 	umull	r6, r7, r3, r6
    5e4a:	1992      	adds	r2, r2, r6
    5e4c:	69e6      	ldr	r6, [r4, #28]
    5e4e:	bf2c      	ite	cs
    5e50:	f04f 0e01 	movcs.w	lr, #1
    5e54:	f04f 0e00 	movcc.w	lr, #0
    5e58:	eb0e 0107 	add.w	r1, lr, r7
    5e5c:	f04f 0e00 	mov.w	lr, #0
    5e60:	1992      	adds	r2, r2, r6
    5e62:	bf28      	it	cs
    5e64:	f04f 0e01 	movcs.w	lr, #1
    5e68:	448e      	add	lr, r1
    5e6a:	61e2      	str	r2, [r4, #28]
    5e6c:	08c2      	lsrs	r2, r0, #3
    5e6e:	0151      	lsls	r1, r2, #5
    5e70:	eba0 00c2 	sub.w	r0, r0, r2, lsl #3
    5e74:	440c      	add	r4, r1
    5e76:	440d      	add	r5, r1
    5e78:	eb04 0080 	add.w	r0, r4, r0, lsl #2
    5e7c:	4284      	cmp	r4, r0
    5e7e:	f040 81a0 	bne.w	61c2 <mpi_mul_hlp+0x4a4>
    5e82:	6803      	ldr	r3, [r0, #0]
    5e84:	2200      	movs	r2, #0
    5e86:	eb1e 0303 	adds.w	r3, lr, r3
    5e8a:	f04f 0e01 	mov.w	lr, #1
    5e8e:	bf28      	it	cs
    5e90:	2201      	movcs	r2, #1
    5e92:	f840 3b04 	str.w	r3, [r0], #4
    5e96:	2a00      	cmp	r2, #0
    5e98:	d1f3      	bne.n	5e82 <mpi_mul_hlp+0x164>
    5e9a:	e8bd 83f0 	ldmia.w	sp!, {r4, r5, r6, r7, r8, r9, pc}
    5e9e:	f855 6c40 	ldr.w	r6, [r5, #-64]
    5ea2:	f1ac 0c10 	sub.w	ip, ip, #16
    5ea6:	fba3 6706 	umull	r6, r7, r3, r6
    5eaa:	eb1e 0e06 	adds.w	lr, lr, r6
    5eae:	bf2c      	ite	cs
    5eb0:	f04f 0801 	movcs.w	r8, #1
    5eb4:	f04f 0800 	movcc.w	r8, #0
    5eb8:	eb08 0907 	add.w	r9, r8, r7
    5ebc:	f854 7c40 	ldr.w	r7, [r4, #-64]
    5ec0:	f04f 0800 	mov.w	r8, #0
    5ec4:	eb1e 0707 	adds.w	r7, lr, r7
    5ec8:	bf28      	it	cs
    5eca:	f04f 0801 	movcs.w	r8, #1
    5ece:	f844 7c40 	str.w	r7, [r4, #-64]
    5ed2:	f855 6c3c 	ldr.w	r6, [r5, #-60]
    5ed6:	44c8      	add	r8, r9
    5ed8:	fba3 6706 	umull	r6, r7, r3, r6
    5edc:	eb18 0806 	adds.w	r8, r8, r6
    5ee0:	f854 6c3c 	ldr.w	r6, [r4, #-60]
    5ee4:	bf2c      	ite	cs
    5ee6:	f04f 0e01 	movcs.w	lr, #1
    5eea:	f04f 0e00 	movcc.w	lr, #0
    5eee:	eb0e 0907 	add.w	r9, lr, r7
    5ef2:	f04f 0e00 	mov.w	lr, #0
    5ef6:	eb18 0606 	adds.w	r6, r8, r6
    5efa:	bf28      	it	cs
    5efc:	f04f 0e01 	movcs.w	lr, #1
    5f00:	f844 6c3c 	str.w	r6, [r4, #-60]
    5f04:	f855 6c38 	ldr.w	r6, [r5, #-56]
    5f08:	44ce      	add	lr, r9
    5f0a:	fba3 6706 	umull	r6, r7, r3, r6
    5f0e:	eb1e 0e06 	adds.w	lr, lr, r6
    5f12:	bf2c      	ite	cs
    5f14:	f04f 0801 	movcs.w	r8, #1
    5f18:	f04f 0800 	movcc.w	r8, #0
    5f1c:	eb08 0907 	add.w	r9, r8, r7
    5f20:	f854 7c38 	ldr.w	r7, [r4, #-56]
    5f24:	f04f 0800 	mov.w	r8, #0
    5f28:	eb1e 0707 	adds.w	r7, lr, r7
    5f2c:	bf28      	it	cs
    5f2e:	f04f 0801 	movcs.w	r8, #1
    5f32:	f844 7c38 	str.w	r7, [r4, #-56]
    5f36:	f855 6c34 	ldr.w	r6, [r5, #-52]
    5f3a:	44c8      	add	r8, r9
    5f3c:	fba3 6706 	umull	r6, r7, r3, r6
    5f40:	eb18 0806 	adds.w	r8, r8, r6
    5f44:	f854 6c34 	ldr.w	r6, [r4, #-52]
    5f48:	bf2c      	ite	cs
    5f4a:	f04f 0e01 	movcs.w	lr, #1
    5f4e:	f04f 0e00 	movcc.w	lr, #0
    5f52:	eb0e 0907 	add.w	r9, lr, r7
    5f56:	f04f 0e00 	mov.w	lr, #0
    5f5a:	eb18 0606 	adds.w	r6, r8, r6
    5f5e:	bf28      	it	cs
    5f60:	f04f 0e01 	movcs.w	lr, #1
    5f64:	f844 6c34 	str.w	r6, [r4, #-52]
    5f68:	f855 6c30 	ldr.w	r6, [r5, #-48]
    5f6c:	44ce      	add	lr, r9
    5f6e:	fba3 6706 	umull	r6, r7, r3, r6
    5f72:	eb1e 0e06 	adds.w	lr, lr, r6
    5f76:	bf2c      	ite	cs
    5f78:	f04f 0801 	movcs.w	r8, #1
    5f7c:	f04f 0800 	movcc.w	r8, #0
    5f80:	eb08 0907 	add.w	r9, r8, r7
    5f84:	f854 7c30 	ldr.w	r7, [r4, #-48]
    5f88:	f04f 0800 	mov.w	r8, #0
    5f8c:	eb1e 0707 	adds.w	r7, lr, r7
    5f90:	bf28      	it	cs
    5f92:	f04f 0801 	movcs.w	r8, #1
    5f96:	f844 7c30 	str.w	r7, [r4, #-48]
    5f9a:	f855 6c2c 	ldr.w	r6, [r5, #-44]
    5f9e:	44c8      	add	r8, r9
    5fa0:	fba3 6706 	umull	r6, r7, r3, r6
    5fa4:	eb18 0806 	adds.w	r8, r8, r6
    5fa8:	f854 6c2c 	ldr.w	r6, [r4, #-44]
    5fac:	bf2c      	ite	cs
    5fae:	f04f 0e01 	movcs.w	lr, #1
    5fb2:	f04f 0e00 	movcc.w	lr, #0
    5fb6:	eb0e 0907 	add.w	r9, lr, r7
    5fba:	f04f 0e00 	mov.w	lr, #0
    5fbe:	eb18 0606 	adds.w	r6, r8, r6
    5fc2:	bf28      	it	cs
    5fc4:	f04f 0e01 	movcs.w	lr, #1
    5fc8:	f844 6c2c 	str.w	r6, [r4, #-44]
    5fcc:	f855 6c28 	ldr.w	r6, [r5, #-40]
    5fd0:	44ce      	add	lr, r9
    5fd2:	fba3 6706 	umull	r6, r7, r3, r6
    5fd6:	eb1e 0e06 	adds.w	lr, lr, r6
    5fda:	bf2c      	ite	cs
    5fdc:	f04f 0801 	movcs.w	r8, #1
    5fe0:	f04f 0800 	movcc.w	r8, #0
    5fe4:	eb08 0907 	add.w	r9, r8, r7
    5fe8:	f854 7c28 	ldr.w	r7, [r4, #-40]
    5fec:	f04f 0800 	mov.w	r8, #0
    5ff0:	eb1e 0707 	adds.w	r7, lr, r7
    5ff4:	bf28      	it	cs
    5ff6:	f04f 0801 	movcs.w	r8, #1
    5ffa:	f844 7c28 	str.w	r7, [r4, #-40]
    5ffe:	f855 6c24 	ldr.w	r6, [r5, #-36]
    6002:	44c8      	add	r8, r9
    6004:	fba3 6706 	umull	r6, r7, r3, r6
    6008:	eb18 0806 	adds.w	r8, r8, r6
    600c:	f854 6c24 	ldr.w	r6, [r4, #-36]
    6010:	bf2c      	ite	cs
    6012:	f04f 0e01 	movcs.w	lr, #1
    6016:	f04f 0e00 	movcc.w	lr, #0
    601a:	eb0e 0907 	add.w	r9, lr, r7
    601e:	f04f 0e00 	mov.w	lr, #0
    6022:	eb18 0606 	adds.w	r6, r8, r6
    6026:	bf28      	it	cs
    6028:	f04f 0e01 	movcs.w	lr, #1
    602c:	f844 6c24 	str.w	r6, [r4, #-36]
    6030:	f855 6c20 	ldr.w	r6, [r5, #-32]
    6034:	44ce      	add	lr, r9
    6036:	fba3 6706 	umull	r6, r7, r3, r6
    603a:	eb1e 0e06 	adds.w	lr, lr, r6
    603e:	bf2c      	ite	cs
    6040:	f04f 0801 	movcs.w	r8, #1
    6044:	f04f 0800 	movcc.w	r8, #0
    6048:	eb08 0907 	add.w	r9, r8, r7
    604c:	f854 7c20 	ldr.w	r7, [r4, #-32]
    6050:	f04f 0800 	mov.w	r8, #0
    6054:	eb1e 0707 	adds.w	r7, lr, r7
    6058:	bf28      	it	cs
    605a:	f04f 0801 	movcs.w	r8, #1
    605e:	f844 7c20 	str.w	r7, [r4, #-32]
    6062:	f855 6c1c 	ldr.w	r6, [r5, #-28]
    6066:	44c8      	add	r8, r9
    6068:	fba3 6706 	umull	r6, r7, r3, r6
    606c:	eb18 0806 	adds.w	r8, r8, r6
    6070:	f854 6c1c 	ldr.w	r6, [r4, #-28]
    6074:	bf2c      	ite	cs
    6076:	f04f 0e01 	movcs.w	lr, #1
    607a:	f04f 0e00 	movcc.w	lr, #0
    607e:	eb0e 0907 	add.w	r9, lr, r7
    6082:	f04f 0e00 	mov.w	lr, #0
    6086:	eb18 0606 	adds.w	r6, r8, r6
    608a:	bf28      	it	cs
    608c:	f04f 0e01 	movcs.w	lr, #1
    6090:	f844 6c1c 	str.w	r6, [r4, #-28]
    6094:	f855 6c18 	ldr.w	r6, [r5, #-24]
    6098:	44ce      	add	lr, r9
    609a:	fba3 6706 	umull	r6, r7, r3, r6
    609e:	eb1e 0e06 	adds.w	lr, lr, r6
    60a2:	bf2c      	ite	cs
    60a4:	f04f 0801 	movcs.w	r8, #1
    60a8:	f04f 0800 	movcc.w	r8, #0
    60ac:	eb08 0907 	add.w	r9, r8, r7
    60b0:	f854 7c18 	ldr.w	r7, [r4, #-24]
    60b4:	f04f 0800 	mov.w	r8, #0
    60b8:	eb1e 0707 	adds.w	r7, lr, r7
    60bc:	bf28      	it	cs
    60be:	f04f 0801 	movcs.w	r8, #1
    60c2:	f844 7c18 	str.w	r7, [r4, #-24]
    60c6:	f855 6c14 	ldr.w	r6, [r5, #-20]
    60ca:	44c8      	add	r8, r9
    60cc:	fba3 6706 	umull	r6, r7, r3, r6
    60d0:	eb18 0806 	adds.w	r8, r8, r6
    60d4:	f854 6c14 	ldr.w	r6, [r4, #-20]
    60d8:	bf2c      	ite	cs
    60da:	f04f 0e01 	movcs.w	lr, #1
    60de:	f04f 0e00 	movcc.w	lr, #0
    60e2:	eb0e 0907 	add.w	r9, lr, r7
    60e6:	f04f 0e00 	mov.w	lr, #0
    60ea:	eb18 0606 	adds.w	r6, r8, r6
    60ee:	bf28      	it	cs
    60f0:	f04f 0e01 	movcs.w	lr, #1
    60f4:	f844 6c14 	str.w	r6, [r4, #-20]
    60f8:	f855 6c10 	ldr.w	r6, [r5, #-16]
    60fc:	44ce      	add	lr, r9
    60fe:	fba3 6706 	umull	r6, r7, r3, r6
    6102:	eb1e 0e06 	adds.w	lr, lr, r6
    6106:	bf2c      	ite	cs
    6108:	f04f 0801 	movcs.w	r8, #1
    610c:	f04f 0800 	movcc.w	r8, #0
    6110:	eb08 0907 	add.w	r9, r8, r7
    6114:	f854 7c10 	ldr.w	r7, [r4, #-16]
    6118:	f04f 0800 	mov.w	r8, #0
    611c:	eb1e 0707 	adds.w	r7, lr, r7
    6120:	bf28      	it	cs
    6122:	f04f 0801 	movcs.w	r8, #1
    6126:	f844 7c10 	str.w	r7, [r4, #-16]
    612a:	f855 6c0c 	ldr.w	r6, [r5, #-12]
    612e:	44c8      	add	r8, r9
    6130:	fba3 6706 	umull	r6, r7, r3, r6
    6134:	eb18 0806 	adds.w	r8, r8, r6
    6138:	f854 6c0c 	ldr.w	r6, [r4, #-12]
    613c:	bf2c      	ite	cs
    613e:	f04f 0e01 	movcs.w	lr, #1
    6142:	f04f 0e00 	movcc.w	lr, #0
    6146:	eb0e 0907 	add.w	r9, lr, r7
    614a:	f04f 0e00 	mov.w	lr, #0
    614e:	eb18 0606 	adds.w	r6, r8, r6
    6152:	bf28      	it	cs
    6154:	f04f 0e01 	movcs.w	lr, #1
    6158:	f844 6c0c 	str.w	r6, [r4, #-12]
    615c:	f855 6c08 	ldr.w	r6, [r5, #-8]
    6160:	44ce      	add	lr, r9
    6162:	fba3 6706 	umull	r6, r7, r3, r6
    6166:	eb1e 0e06 	adds.w	lr, lr, r6
    616a:	bf2c      	ite	cs
    616c:	f04f 0801 	movcs.w	r8, #1
    6170:	f04f 0800 	movcc.w	r8, #0
    6174:	eb08 0907 	add.w	r9, r8, r7
    6178:	f854 7c08 	ldr.w	r7, [r4, #-8]
    617c:	f04f 0800 	mov.w	r8, #0
    6180:	eb1e 0707 	adds.w	r7, lr, r7
    6184:	bf28      	it	cs
    6186:	f04f 0801 	movcs.w	r8, #1
    618a:	f844 7c08 	str.w	r7, [r4, #-8]
    618e:	f855 6c04 	ldr.w	r6, [r5, #-4]
    6192:	44c8      	add	r8, r9
    6194:	fba3 6706 	umull	r6, r7, r3, r6
    6198:	eb18 0806 	adds.w	r8, r8, r6
    619c:	f854 6c04 	ldr.w	r6, [r4, #-4]
    61a0:	bf2c      	ite	cs
    61a2:	f04f 0e01 	movcs.w	lr, #1
    61a6:	f04f 0e00 	movcc.w	lr, #0
    61aa:	4477      	add	r7, lr
    61ac:	f04f 0e00 	mov.w	lr, #0
    61b0:	eb18 0606 	adds.w	r6, r8, r6
    61b4:	bf28      	it	cs
    61b6:	f04f 0e01 	movcs.w	lr, #1
    61ba:	44be      	add	lr, r7
    61bc:	f844 6c04 	str.w	r6, [r4, #-4]
    61c0:	e5b4      	b.n	5d2c <mpi_mul_hlp+0xe>
    61c2:	f855 6b04 	ldr.w	r6, [r5], #4
    61c6:	fba3 6706 	umull	r6, r7, r3, r6
    61ca:	eb1e 0206 	adds.w	r2, lr, r6
    61ce:	6826      	ldr	r6, [r4, #0]
    61d0:	bf2c      	ite	cs
    61d2:	f04f 0e01 	movcs.w	lr, #1
    61d6:	f04f 0e00 	movcc.w	lr, #0
    61da:	eb0e 0107 	add.w	r1, lr, r7
    61de:	f04f 0e00 	mov.w	lr, #0
    61e2:	1992      	adds	r2, r2, r6
    61e4:	bf28      	it	cs
    61e6:	f04f 0e01 	movcs.w	lr, #1
    61ea:	f844 2b04 	str.w	r2, [r4], #4
    61ee:	448e      	add	lr, r1
    61f0:	e644      	b.n	5e7c <mpi_mul_hlp+0x15e>

000061f2 <mpi_bigendian_to_host.part.0>:
    61f2:	b537      	push	{r0, r1, r2, r4, r5, lr}
    61f4:	f101 4180 	add.w	r1, r1, #1073741824	; 0x40000000
    61f8:	3901      	subs	r1, #1
    61fa:	eb00 0181 	add.w	r1, r0, r1, lsl #2
    61fe:	4288      	cmp	r0, r1
    6200:	d901      	bls.n	6206 <mpi_bigendian_to_host.part.0+0x14>
    6202:	b003      	add	sp, #12
    6204:	bd30      	pop	{r4, r5, pc}
    6206:	6803      	ldr	r3, [r0, #0]
    6208:	b2dc      	uxtb	r4, r3
    620a:	f3c3 2207 	ubfx	r2, r3, #8, #8
    620e:	ea42 2404 	orr.w	r4, r2, r4, lsl #8
    6212:	f3c3 4207 	ubfx	r2, r3, #16, #8
    6216:	0e1b      	lsrs	r3, r3, #24
    6218:	ea42 2204 	orr.w	r2, r2, r4, lsl #8
    621c:	ea43 2302 	orr.w	r3, r3, r2, lsl #8
    6220:	680a      	ldr	r2, [r1, #0]
    6222:	b2d5      	uxtb	r5, r2
    6224:	f3c2 2407 	ubfx	r4, r2, #8, #8
    6228:	ea44 2505 	orr.w	r5, r4, r5, lsl #8
    622c:	f3c2 4407 	ubfx	r4, r2, #16, #8
    6230:	0e12      	lsrs	r2, r2, #24
    6232:	ea44 2405 	orr.w	r4, r4, r5, lsl #8
    6236:	ea42 2204 	orr.w	r2, r2, r4, lsl #8
    623a:	f840 2b04 	str.w	r2, [r0], #4
    623e:	f841 3904 	str.w	r3, [r1], #-4
    6242:	e7dc      	b.n	61fe <mpi_bigendian_to_host.part.0+0xc>

00006244 <mbedtls_mpi_init>:
    6244:	2301      	movs	r3, #1
    6246:	8003      	strh	r3, [r0, #0]
    6248:	2300      	movs	r3, #0
    624a:	8043      	strh	r3, [r0, #2]
    624c:	6043      	str	r3, [r0, #4]
    624e:	6083      	str	r3, [r0, #8]
    6250:	4770      	bx	lr

00006252 <mbedtls_mpi_init_mempool>:
    6252:	4b07      	ldr	r3, [pc, #28]	; (6270 <mbedtls_mpi_init_mempool+0x1e>)
    6254:	4a07      	ldr	r2, [pc, #28]	; (6274 <mbedtls_mpi_init_mempool+0x22>)
    6256:	447b      	add	r3, pc
    6258:	589b      	ldr	r3, [r3, r2]
    625a:	2201      	movs	r2, #1
    625c:	681b      	ldr	r3, [r3, #0]
    625e:	8002      	strh	r2, [r0, #0]
    6260:	3300      	adds	r3, #0
    6262:	bf18      	it	ne
    6264:	2301      	movne	r3, #1
    6266:	8043      	strh	r3, [r0, #2]
    6268:	2300      	movs	r3, #0
    626a:	6043      	str	r3, [r0, #4]
    626c:	6083      	str	r3, [r0, #8]
    626e:	4770      	bx	lr
    6270:	00005e26 	.word	0x00005e26
    6274:	00000050 	.word	0x00000050

00006278 <mbedtls_mpi_free>:
    6278:	b538      	push	{r3, r4, r5, lr}
    627a:	4604      	mov	r4, r0
    627c:	4d0d      	ldr	r5, [pc, #52]	; (62b4 <mbedtls_mpi_free+0x3c>)
    627e:	447d      	add	r5, pc
    6280:	b198      	cbz	r0, 62aa <mbedtls_mpi_free+0x32>
    6282:	6880      	ldr	r0, [r0, #8]
    6284:	b160      	cbz	r0, 62a0 <mbedtls_mpi_free+0x28>
    6286:	6861      	ldr	r1, [r4, #4]
    6288:	0089      	lsls	r1, r1, #2
    628a:	f002 fa3d 	bl	8708 <mbedtls_platform_zeroize>
    628e:	f9b4 3002 	ldrsh.w	r3, [r4, #2]
    6292:	b15b      	cbz	r3, 62ac <mbedtls_mpi_free+0x34>
    6294:	4b08      	ldr	r3, [pc, #32]	; (62b8 <mbedtls_mpi_free+0x40>)
    6296:	68a1      	ldr	r1, [r4, #8]
    6298:	58eb      	ldr	r3, [r5, r3]
    629a:	6818      	ldr	r0, [r3, #0]
    629c:	f002 ff3c 	bl	9118 <mempool_free>
    62a0:	2301      	movs	r3, #1
    62a2:	8023      	strh	r3, [r4, #0]
    62a4:	2300      	movs	r3, #0
    62a6:	6063      	str	r3, [r4, #4]
    62a8:	60a3      	str	r3, [r4, #8]
    62aa:	bd38      	pop	{r3, r4, r5, pc}
    62ac:	68a0      	ldr	r0, [r4, #8]
    62ae:	f002 fdd1 	bl	8e54 <free>
    62b2:	e7f5      	b.n	62a0 <mbedtls_mpi_free+0x28>
    62b4:	00005dfe 	.word	0x00005dfe
    62b8:	00000050 	.word	0x00000050

000062bc <mbedtls_mpi_grow>:
    62bc:	e92d 41f0 	stmdb	sp!, {r4, r5, r6, r7, r8, lr}
    62c0:	f242 7310 	movw	r3, #10000	; 0x2710
    62c4:	4f22      	ldr	r7, [pc, #136]	; (6350 <mbedtls_mpi_grow+0x94>)
    62c6:	4299      	cmp	r1, r3
    62c8:	4604      	mov	r4, r0
    62ca:	460d      	mov	r5, r1
    62cc:	447f      	add	r7, pc
    62ce:	d903      	bls.n	62d8 <mbedtls_mpi_grow+0x1c>
    62d0:	f06f 000f 	mvn.w	r0, #15
    62d4:	e8bd 81f0 	ldmia.w	sp!, {r4, r5, r6, r7, r8, pc}
    62d8:	6843      	ldr	r3, [r0, #4]
    62da:	4299      	cmp	r1, r3
    62dc:	d928      	bls.n	6330 <mbedtls_mpi_grow+0x74>
    62de:	f9b0 3002 	ldrsh.w	r3, [r0, #2]
    62e2:	b343      	cbz	r3, 6336 <mbedtls_mpi_grow+0x7a>
    62e4:	4b1b      	ldr	r3, [pc, #108]	; (6354 <mbedtls_mpi_grow+0x98>)
    62e6:	ea4f 0881 	mov.w	r8, r1, lsl #2
    62ea:	4641      	mov	r1, r8
    62ec:	58fb      	ldr	r3, [r7, r3]
    62ee:	6818      	ldr	r0, [r3, #0]
    62f0:	f002 feca 	bl	9088 <mempool_alloc>
    62f4:	4606      	mov	r6, r0
    62f6:	2800      	cmp	r0, #0
    62f8:	d0ea      	beq.n	62d0 <mbedtls_mpi_grow+0x14>
    62fa:	4642      	mov	r2, r8
    62fc:	2100      	movs	r1, #0
    62fe:	f002 ff2a 	bl	9156 <memset>
    6302:	68a1      	ldr	r1, [r4, #8]
    6304:	b191      	cbz	r1, 632c <mbedtls_mpi_grow+0x70>
    6306:	6862      	ldr	r2, [r4, #4]
    6308:	4630      	mov	r0, r6
    630a:	0092      	lsls	r2, r2, #2
    630c:	f7fa f81c 	bl	348 <memcpy>
    6310:	6861      	ldr	r1, [r4, #4]
    6312:	68a0      	ldr	r0, [r4, #8]
    6314:	0089      	lsls	r1, r1, #2
    6316:	f002 f9f7 	bl	8708 <mbedtls_platform_zeroize>
    631a:	f9b4 3002 	ldrsh.w	r3, [r4, #2]
    631e:	b193      	cbz	r3, 6346 <mbedtls_mpi_grow+0x8a>
    6320:	4b0c      	ldr	r3, [pc, #48]	; (6354 <mbedtls_mpi_grow+0x98>)
    6322:	68a1      	ldr	r1, [r4, #8]
    6324:	58fb      	ldr	r3, [r7, r3]
    6326:	6818      	ldr	r0, [r3, #0]
    6328:	f002 fef6 	bl	9118 <mempool_free>
    632c:	6065      	str	r5, [r4, #4]
    632e:	60a6      	str	r6, [r4, #8]
    6330:	2000      	movs	r0, #0
    6332:	e8bd 81f0 	ldmia.w	sp!, {r4, r5, r6, r7, r8, pc}
    6336:	2104      	movs	r1, #4
    6338:	4628      	mov	r0, r5
    633a:	f002 fd49 	bl	8dd0 <calloc>
    633e:	4606      	mov	r6, r0
    6340:	2800      	cmp	r0, #0
    6342:	d1de      	bne.n	6302 <mbedtls_mpi_grow+0x46>
    6344:	e7c4      	b.n	62d0 <mbedtls_mpi_grow+0x14>
    6346:	68a0      	ldr	r0, [r4, #8]
    6348:	f002 fd84 	bl	8e54 <free>
    634c:	e7ee      	b.n	632c <mbedtls_mpi_grow+0x70>
    634e:	bf00      	nop
    6350:	00005db0 	.word	0x00005db0
    6354:	00000050 	.word	0x00000050

00006358 <mbedtls_mpi_shrink>:
    6358:	e92d 41f0 	stmdb	sp!, {r4, r5, r6, r7, r8, lr}
    635c:	f242 7310 	movw	r3, #10000	; 0x2710
    6360:	4e2c      	ldr	r6, [pc, #176]	; (6414 <mbedtls_mpi_shrink+0xbc>)
    6362:	4299      	cmp	r1, r3
    6364:	4604      	mov	r4, r0
    6366:	460d      	mov	r5, r1
    6368:	447e      	add	r6, pc
    636a:	d903      	bls.n	6374 <mbedtls_mpi_shrink+0x1c>
    636c:	f06f 000f 	mvn.w	r0, #15
    6370:	e8bd 81f0 	ldmia.w	sp!, {r4, r5, r6, r7, r8, pc}
    6374:	6843      	ldr	r3, [r0, #4]
    6376:	4299      	cmp	r1, r3
    6378:	d303      	bcc.n	6382 <mbedtls_mpi_shrink+0x2a>
    637a:	e8bd 41f0 	ldmia.w	sp!, {r4, r5, r6, r7, r8, lr}
    637e:	f7ff bf9d 	b.w	62bc <mbedtls_mpi_grow>
    6382:	1e5a      	subs	r2, r3, #1
    6384:	f103 4380 	add.w	r3, r3, #1073741824	; 0x40000000
    6388:	3b01      	subs	r3, #1
    638a:	009b      	lsls	r3, r3, #2
    638c:	bb7a      	cbnz	r2, 63ee <mbedtls_mpi_shrink+0x96>
    638e:	f9b4 3002 	ldrsh.w	r3, [r4, #2]
    6392:	3201      	adds	r2, #1
    6394:	4295      	cmp	r5, r2
    6396:	bf38      	it	cc
    6398:	4615      	movcc	r5, r2
    639a:	2b00      	cmp	r3, #0
    639c:	d02e      	beq.n	63fc <mbedtls_mpi_shrink+0xa4>
    639e:	4b1e      	ldr	r3, [pc, #120]	; (6418 <mbedtls_mpi_shrink+0xc0>)
    63a0:	ea4f 0885 	mov.w	r8, r5, lsl #2
    63a4:	4641      	mov	r1, r8
    63a6:	58f3      	ldr	r3, [r6, r3]
    63a8:	6818      	ldr	r0, [r3, #0]
    63aa:	f002 fe6d 	bl	9088 <mempool_alloc>
    63ae:	4607      	mov	r7, r0
    63b0:	2800      	cmp	r0, #0
    63b2:	d0db      	beq.n	636c <mbedtls_mpi_shrink+0x14>
    63b4:	4642      	mov	r2, r8
    63b6:	2100      	movs	r1, #0
    63b8:	f002 fecd 	bl	9156 <memset>
    63bc:	68a1      	ldr	r1, [r4, #8]
    63be:	b189      	cbz	r1, 63e4 <mbedtls_mpi_shrink+0x8c>
    63c0:	00aa      	lsls	r2, r5, #2
    63c2:	4638      	mov	r0, r7
    63c4:	f7f9 ffc0 	bl	348 <memcpy>
    63c8:	6861      	ldr	r1, [r4, #4]
    63ca:	68a0      	ldr	r0, [r4, #8]
    63cc:	0089      	lsls	r1, r1, #2
    63ce:	f002 f99b 	bl	8708 <mbedtls_platform_zeroize>
    63d2:	f9b4 3002 	ldrsh.w	r3, [r4, #2]
    63d6:	b1cb      	cbz	r3, 640c <mbedtls_mpi_shrink+0xb4>
    63d8:	4b0f      	ldr	r3, [pc, #60]	; (6418 <mbedtls_mpi_shrink+0xc0>)
    63da:	68a1      	ldr	r1, [r4, #8]
    63dc:	58f3      	ldr	r3, [r6, r3]
    63de:	6818      	ldr	r0, [r3, #0]
    63e0:	f002 fe9a 	bl	9118 <mempool_free>
    63e4:	2000      	movs	r0, #0
    63e6:	6065      	str	r5, [r4, #4]
    63e8:	60a7      	str	r7, [r4, #8]
    63ea:	e8bd 81f0 	ldmia.w	sp!, {r4, r5, r6, r7, r8, pc}
    63ee:	68a1      	ldr	r1, [r4, #8]
    63f0:	58c9      	ldr	r1, [r1, r3]
    63f2:	3b04      	subs	r3, #4
    63f4:	2900      	cmp	r1, #0
    63f6:	d1ca      	bne.n	638e <mbedtls_mpi_shrink+0x36>
    63f8:	3a01      	subs	r2, #1
    63fa:	e7c7      	b.n	638c <mbedtls_mpi_shrink+0x34>
    63fc:	2104      	movs	r1, #4
    63fe:	4628      	mov	r0, r5
    6400:	f002 fce6 	bl	8dd0 <calloc>
    6404:	4607      	mov	r7, r0
    6406:	2800      	cmp	r0, #0
    6408:	d1d8      	bne.n	63bc <mbedtls_mpi_shrink+0x64>
    640a:	e7af      	b.n	636c <mbedtls_mpi_shrink+0x14>
    640c:	68a0      	ldr	r0, [r4, #8]
    640e:	f002 fd21 	bl	8e54 <free>
    6412:	e7e7      	b.n	63e4 <mbedtls_mpi_shrink+0x8c>
    6414:	00005d14 	.word	0x00005d14
    6418:	00000050 	.word	0x00000050

0000641c <mbedtls_mpi_copy>:
    641c:	4288      	cmp	r0, r1
    641e:	b570      	push	{r4, r5, r6, lr}
    6420:	4605      	mov	r5, r0
    6422:	460e      	mov	r6, r1
    6424:	d003      	beq.n	642e <mbedtls_mpi_copy+0x12>
    6426:	684c      	ldr	r4, [r1, #4]
    6428:	b91c      	cbnz	r4, 6432 <mbedtls_mpi_copy+0x16>
    642a:	f7ff ff25 	bl	6278 <mbedtls_mpi_free>
    642e:	2000      	movs	r0, #0
    6430:	bd70      	pop	{r4, r5, r6, pc}
    6432:	f104 4080 	add.w	r0, r4, #1073741824	; 0x40000000
    6436:	1e63      	subs	r3, r4, #1
    6438:	3801      	subs	r0, #1
    643a:	0080      	lsls	r0, r0, #2
    643c:	b963      	cbnz	r3, 6458 <mbedtls_mpi_copy+0x3c>
    643e:	686a      	ldr	r2, [r5, #4]
    6440:	1c5c      	adds	r4, r3, #1
    6442:	f9b6 3000 	ldrsh.w	r3, [r6]
    6446:	4294      	cmp	r4, r2
    6448:	802b      	strh	r3, [r5, #0]
    644a:	d90c      	bls.n	6466 <mbedtls_mpi_copy+0x4a>
    644c:	4621      	mov	r1, r4
    644e:	4628      	mov	r0, r5
    6450:	f7ff ff34 	bl	62bc <mbedtls_mpi_grow>
    6454:	b178      	cbz	r0, 6476 <mbedtls_mpi_copy+0x5a>
    6456:	bd70      	pop	{r4, r5, r6, pc}
    6458:	68b2      	ldr	r2, [r6, #8]
    645a:	5812      	ldr	r2, [r2, r0]
    645c:	3804      	subs	r0, #4
    645e:	2a00      	cmp	r2, #0
    6460:	d1ed      	bne.n	643e <mbedtls_mpi_copy+0x22>
    6462:	3b01      	subs	r3, #1
    6464:	e7ea      	b.n	643c <mbedtls_mpi_copy+0x20>
    6466:	68a8      	ldr	r0, [r5, #8]
    6468:	1b12      	subs	r2, r2, r4
    646a:	2100      	movs	r1, #0
    646c:	0092      	lsls	r2, r2, #2
    646e:	eb00 0084 	add.w	r0, r0, r4, lsl #2
    6472:	f002 fe70 	bl	9156 <memset>
    6476:	00a2      	lsls	r2, r4, #2
    6478:	68a8      	ldr	r0, [r5, #8]
    647a:	68b1      	ldr	r1, [r6, #8]
    647c:	f7f9 ff64 	bl	348 <memcpy>
    6480:	e7d5      	b.n	642e <mbedtls_mpi_copy+0x12>

00006482 <mbedtls_mpi_swap>:
    6482:	b5f0      	push	{r4, r5, r6, r7, lr}
    6484:	b085      	sub	sp, #20
    6486:	250c      	movs	r5, #12
    6488:	ac01      	add	r4, sp, #4
    648a:	460e      	mov	r6, r1
    648c:	4607      	mov	r7, r0
    648e:	462a      	mov	r2, r5
    6490:	4601      	mov	r1, r0
    6492:	4620      	mov	r0, r4
    6494:	f7f9 ff58 	bl	348 <memcpy>
    6498:	462a      	mov	r2, r5
    649a:	4631      	mov	r1, r6
    649c:	4638      	mov	r0, r7
    649e:	f7f9 ff53 	bl	348 <memcpy>
    64a2:	462a      	mov	r2, r5
    64a4:	4621      	mov	r1, r4
    64a6:	4630      	mov	r0, r6
    64a8:	f7f9 ff4e 	bl	348 <memcpy>
    64ac:	b005      	add	sp, #20
    64ae:	bdf0      	pop	{r4, r5, r6, r7, pc}

000064b0 <mbedtls_mpi_safe_cond_assign>:
    64b0:	b5f8      	push	{r3, r4, r5, r6, r7, lr}
    64b2:	460e      	mov	r6, r1
    64b4:	6849      	ldr	r1, [r1, #4]
    64b6:	4605      	mov	r5, r0
    64b8:	4614      	mov	r4, r2
    64ba:	f7ff feff 	bl	62bc <mbedtls_mpi_grow>
    64be:	b9b8      	cbnz	r0, 64f0 <mbedtls_mpi_safe_cond_assign+0x40>
    64c0:	4262      	negs	r2, r4
    64c2:	8831      	ldrh	r1, [r6, #0]
    64c4:	4322      	orrs	r2, r4
    64c6:	f9b5 3000 	ldrsh.w	r3, [r5]
    64ca:	f3c2 12c0 	ubfx	r2, r2, #7, #1
    64ce:	f1c2 0401 	rsb	r4, r2, #1
    64d2:	fb11 f102 	smulbb	r1, r1, r2
    64d6:	fb03 1304 	mla	r3, r3, r4, r1
    64da:	802b      	strh	r3, [r5, #0]
    64dc:	4603      	mov	r3, r0
    64de:	6871      	ldr	r1, [r6, #4]
    64e0:	428b      	cmp	r3, r1
    64e2:	ea4f 0183 	mov.w	r1, r3, lsl #2
    64e6:	d304      	bcc.n	64f2 <mbedtls_mpi_safe_cond_assign+0x42>
    64e8:	460a      	mov	r2, r1
    64ea:	6869      	ldr	r1, [r5, #4]
    64ec:	428b      	cmp	r3, r1
    64ee:	d30e      	bcc.n	650e <mbedtls_mpi_safe_cond_assign+0x5e>
    64f0:	bdf8      	pop	{r3, r4, r5, r6, r7, pc}
    64f2:	f8d5 c008 	ldr.w	ip, [r5, #8]
    64f6:	68b1      	ldr	r1, [r6, #8]
    64f8:	f85c 7023 	ldr.w	r7, [ip, r3, lsl #2]
    64fc:	f851 1023 	ldr.w	r1, [r1, r3, lsl #2]
    6500:	4367      	muls	r7, r4
    6502:	fb01 7102 	mla	r1, r1, r2, r7
    6506:	f84c 1023 	str.w	r1, [ip, r3, lsl #2]
    650a:	3301      	adds	r3, #1
    650c:	e7e7      	b.n	64de <mbedtls_mpi_safe_cond_assign+0x2e>
    650e:	68ae      	ldr	r6, [r5, #8]
    6510:	3301      	adds	r3, #1
    6512:	58b1      	ldr	r1, [r6, r2]
    6514:	4361      	muls	r1, r4
    6516:	50b1      	str	r1, [r6, r2]
    6518:	3204      	adds	r2, #4
    651a:	e7e6      	b.n	64ea <mbedtls_mpi_safe_cond_assign+0x3a>

0000651c <mbedtls_mpi_safe_cond_swap>:
    651c:	4288      	cmp	r0, r1
    651e:	b5f8      	push	{r3, r4, r5, r6, r7, lr}
    6520:	4605      	mov	r5, r0
    6522:	460c      	mov	r4, r1
    6524:	4616      	mov	r6, r2
    6526:	d101      	bne.n	652c <mbedtls_mpi_safe_cond_swap+0x10>
    6528:	2000      	movs	r0, #0
    652a:	bdf8      	pop	{r3, r4, r5, r6, r7, pc}
    652c:	6849      	ldr	r1, [r1, #4]
    652e:	f7ff fec5 	bl	62bc <mbedtls_mpi_grow>
    6532:	bb98      	cbnz	r0, 659c <mbedtls_mpi_safe_cond_swap+0x80>
    6534:	4620      	mov	r0, r4
    6536:	6869      	ldr	r1, [r5, #4]
    6538:	f7ff fec0 	bl	62bc <mbedtls_mpi_grow>
    653c:	bb70      	cbnz	r0, 659c <mbedtls_mpi_safe_cond_swap+0x80>
    653e:	4272      	negs	r2, r6
    6540:	8823      	ldrh	r3, [r4, #0]
    6542:	4332      	orrs	r2, r6
    6544:	8829      	ldrh	r1, [r5, #0]
    6546:	f3c2 12c0 	ubfx	r2, r2, #7, #1
    654a:	fa1f fc82 	uxth.w	ip, r2
    654e:	f1c2 0601 	rsb	r6, r2, #1
    6552:	b2b7      	uxth	r7, r6
    6554:	fb13 f30c 	smulbb	r3, r3, ip
    6558:	fb11 3307 	smlabb	r3, r1, r7, r3
    655c:	fb11 f10c 	smulbb	r1, r1, ip
    6560:	802b      	strh	r3, [r5, #0]
    6562:	8823      	ldrh	r3, [r4, #0]
    6564:	fb13 1107 	smlabb	r1, r3, r7, r1
    6568:	8021      	strh	r1, [r4, #0]
    656a:	686b      	ldr	r3, [r5, #4]
    656c:	4298      	cmp	r0, r3
    656e:	d2db      	bcs.n	6528 <mbedtls_mpi_safe_cond_swap+0xc>
    6570:	f8d5 c008 	ldr.w	ip, [r5, #8]
    6574:	68a7      	ldr	r7, [r4, #8]
    6576:	f85c 3020 	ldr.w	r3, [ip, r0, lsl #2]
    657a:	f857 1020 	ldr.w	r1, [r7, r0, lsl #2]
    657e:	fb06 fe03 	mul.w	lr, r6, r3
    6582:	4353      	muls	r3, r2
    6584:	fb01 e102 	mla	r1, r1, r2, lr
    6588:	f84c 1020 	str.w	r1, [ip, r0, lsl #2]
    658c:	f857 1020 	ldr.w	r1, [r7, r0, lsl #2]
    6590:	fb01 3306 	mla	r3, r1, r6, r3
    6594:	f847 3020 	str.w	r3, [r7, r0, lsl #2]
    6598:	3001      	adds	r0, #1
    659a:	e7e6      	b.n	656a <mbedtls_mpi_safe_cond_swap+0x4e>
    659c:	bdf8      	pop	{r3, r4, r5, r6, r7, pc}

0000659e <mbedtls_mpi_lset>:
    659e:	b570      	push	{r4, r5, r6, lr}
    65a0:	460e      	mov	r6, r1
    65a2:	2101      	movs	r1, #1
    65a4:	4604      	mov	r4, r0
    65a6:	f7ff fe89 	bl	62bc <mbedtls_mpi_grow>
    65aa:	4605      	mov	r5, r0
    65ac:	b988      	cbnz	r0, 65d2 <mbedtls_mpi_lset+0x34>
    65ae:	6862      	ldr	r2, [r4, #4]
    65b0:	4601      	mov	r1, r0
    65b2:	68a0      	ldr	r0, [r4, #8]
    65b4:	0092      	lsls	r2, r2, #2
    65b6:	f002 fdce 	bl	9156 <memset>
    65ba:	ea86 72e6 	eor.w	r2, r6, r6, asr #31
    65be:	68a3      	ldr	r3, [r4, #8]
    65c0:	2e00      	cmp	r6, #0
    65c2:	eba2 72e6 	sub.w	r2, r2, r6, asr #31
    65c6:	601a      	str	r2, [r3, #0]
    65c8:	bfb4      	ite	lt
    65ca:	f04f 33ff 	movlt.w	r3, #4294967295	; 0xffffffff
    65ce:	2301      	movge	r3, #1
    65d0:	8023      	strh	r3, [r4, #0]
    65d2:	4628      	mov	r0, r5
    65d4:	bd70      	pop	{r4, r5, r6, pc}

000065d6 <mbedtls_mpi_get_bit>:
    65d6:	6843      	ldr	r3, [r0, #4]
    65d8:	ebb1 1f43 	cmp.w	r1, r3, lsl #5
    65dc:	bf3f      	itttt	cc
    65de:	6883      	ldrcc	r3, [r0, #8]
    65e0:	094a      	lsrcc	r2, r1, #5
    65e2:	f001 011f 	andcc.w	r1, r1, #31
    65e6:	f853 0022 	ldrcc.w	r0, [r3, r2, lsl #2]
    65ea:	bf3a      	itte	cc
    65ec:	40c8      	lsrcc	r0, r1
    65ee:	f000 0001 	andcc.w	r0, r0, #1
    65f2:	2000      	movcs	r0, #0
    65f4:	4770      	bx	lr

000065f6 <mbedtls_mpi_set_bit>:
    65f6:	2a01      	cmp	r2, #1
    65f8:	b5f8      	push	{r3, r4, r5, r6, r7, lr}
    65fa:	4607      	mov	r7, r0
    65fc:	460c      	mov	r4, r1
    65fe:	4615      	mov	r5, r2
    6600:	ea4f 1651 	mov.w	r6, r1, lsr #5
    6604:	d81c      	bhi.n	6640 <mbedtls_mpi_set_bit+0x4a>
    6606:	6843      	ldr	r3, [r0, #4]
    6608:	ebb1 1f43 	cmp.w	r1, r3, lsl #5
    660c:	d210      	bcs.n	6630 <mbedtls_mpi_set_bit+0x3a>
    660e:	68b9      	ldr	r1, [r7, #8]
    6610:	f004 041f 	and.w	r4, r4, #31
    6614:	2301      	movs	r3, #1
    6616:	fa03 f204 	lsl.w	r2, r3, r4
    661a:	fa05 f404 	lsl.w	r4, r5, r4
    661e:	f851 3026 	ldr.w	r3, [r1, r6, lsl #2]
    6622:	ea23 0302 	bic.w	r3, r3, r2
    6626:	431c      	orrs	r4, r3
    6628:	f841 4026 	str.w	r4, [r1, r6, lsl #2]
    662c:	2000      	movs	r0, #0
    662e:	bdf8      	pop	{r3, r4, r5, r6, r7, pc}
    6630:	2a00      	cmp	r2, #0
    6632:	d0fb      	beq.n	662c <mbedtls_mpi_set_bit+0x36>
    6634:	1c71      	adds	r1, r6, #1
    6636:	f7ff fe41 	bl	62bc <mbedtls_mpi_grow>
    663a:	2800      	cmp	r0, #0
    663c:	d0e7      	beq.n	660e <mbedtls_mpi_set_bit+0x18>
    663e:	bdf8      	pop	{r3, r4, r5, r6, r7, pc}
    6640:	f06f 0003 	mvn.w	r0, #3
    6644:	bdf8      	pop	{r3, r4, r5, r6, r7, pc}

00006646 <mbedtls_mpi_lsb>:
    6646:	b570      	push	{r4, r5, r6, lr}
    6648:	2300      	movs	r3, #0
    664a:	6845      	ldr	r5, [r0, #4]
    664c:	4619      	mov	r1, r3
    664e:	42a9      	cmp	r1, r5
    6650:	d00d      	beq.n	666e <mbedtls_mpi_lsb+0x28>
    6652:	6882      	ldr	r2, [r0, #8]
    6654:	f852 4021 	ldr.w	r4, [r2, r1, lsl #2]
    6658:	2200      	movs	r2, #0
    665a:	fa24 f602 	lsr.w	r6, r4, r2
    665e:	07f6      	lsls	r6, r6, #31
    6660:	d406      	bmi.n	6670 <mbedtls_mpi_lsb+0x2a>
    6662:	3201      	adds	r2, #1
    6664:	3301      	adds	r3, #1
    6666:	2a20      	cmp	r2, #32
    6668:	d1f7      	bne.n	665a <mbedtls_mpi_lsb+0x14>
    666a:	3101      	adds	r1, #1
    666c:	e7ef      	b.n	664e <mbedtls_mpi_lsb+0x8>
    666e:	2300      	movs	r3, #0
    6670:	4618      	mov	r0, r3
    6672:	bd70      	pop	{r4, r5, r6, pc}

00006674 <mbedtls_mpi_bitlen>:
    6674:	6843      	ldr	r3, [r0, #4]
    6676:	b510      	push	{r4, lr}
    6678:	b1db      	cbz	r3, 66b2 <mbedtls_mpi_bitlen+0x3e>
    667a:	1e5a      	subs	r2, r3, #1
    667c:	f103 4380 	add.w	r3, r3, #1073741824	; 0x40000000
    6680:	3b01      	subs	r3, #1
    6682:	009b      	lsls	r3, r3, #2
    6684:	6881      	ldr	r1, [r0, #8]
    6686:	b972      	cbnz	r2, 66a6 <mbedtls_mpi_bitlen+0x32>
    6688:	f851 1022 	ldr.w	r1, [r1, r2, lsl #2]
    668c:	2000      	movs	r0, #0
    668e:	f04f 4300 	mov.w	r3, #2147483648	; 0x80000000
    6692:	4219      	tst	r1, r3
    6694:	d103      	bne.n	669e <mbedtls_mpi_bitlen+0x2a>
    6696:	3001      	adds	r0, #1
    6698:	085b      	lsrs	r3, r3, #1
    669a:	2820      	cmp	r0, #32
    669c:	d1f9      	bne.n	6692 <mbedtls_mpi_bitlen+0x1e>
    669e:	ebc0 1042 	rsb	r0, r0, r2, lsl #5
    66a2:	3020      	adds	r0, #32
    66a4:	bd10      	pop	{r4, pc}
    66a6:	58cc      	ldr	r4, [r1, r3]
    66a8:	3b04      	subs	r3, #4
    66aa:	2c00      	cmp	r4, #0
    66ac:	d1ec      	bne.n	6688 <mbedtls_mpi_bitlen+0x14>
    66ae:	3a01      	subs	r2, #1
    66b0:	e7e8      	b.n	6684 <mbedtls_mpi_bitlen+0x10>
    66b2:	4618      	mov	r0, r3
    66b4:	bd10      	pop	{r4, pc}

000066b6 <mbedtls_mpi_size>:
    66b6:	b508      	push	{r3, lr}
    66b8:	f7ff ffdc 	bl	6674 <mbedtls_mpi_bitlen>
    66bc:	3007      	adds	r0, #7
    66be:	08c0      	lsrs	r0, r0, #3
    66c0:	bd08      	pop	{r3, pc}

000066c2 <mbedtls_mpi_read_binary_le>:
    66c2:	b5f8      	push	{r3, r4, r5, r6, r7, lr}
    66c4:	460f      	mov	r7, r1
    66c6:	6843      	ldr	r3, [r0, #4]
    66c8:	f012 0103 	ands.w	r1, r2, #3
    66cc:	4605      	mov	r5, r0
    66ce:	bf18      	it	ne
    66d0:	2101      	movne	r1, #1
    66d2:	4616      	mov	r6, r2
    66d4:	eb01 0492 	add.w	r4, r1, r2, lsr #2
    66d8:	429c      	cmp	r4, r3
    66da:	d108      	bne.n	66ee <mbedtls_mpi_read_binary_le+0x2c>
    66dc:	2100      	movs	r1, #0
    66de:	4628      	mov	r0, r5
    66e0:	f7ff ff5d 	bl	659e <mbedtls_mpi_lset>
    66e4:	b910      	cbnz	r0, 66ec <mbedtls_mpi_read_binary_le+0x2a>
    66e6:	4603      	mov	r3, r0
    66e8:	42b3      	cmp	r3, r6
    66ea:	d10c      	bne.n	6706 <mbedtls_mpi_read_binary_le+0x44>
    66ec:	bdf8      	pop	{r3, r4, r5, r6, r7, pc}
    66ee:	f7ff fdc3 	bl	6278 <mbedtls_mpi_free>
    66f2:	4628      	mov	r0, r5
    66f4:	f7ff fda6 	bl	6244 <mbedtls_mpi_init>
    66f8:	4621      	mov	r1, r4
    66fa:	4628      	mov	r0, r5
    66fc:	f7ff fdde 	bl	62bc <mbedtls_mpi_grow>
    6700:	2800      	cmp	r0, #0
    6702:	d0eb      	beq.n	66dc <mbedtls_mpi_read_binary_le+0x1a>
    6704:	bdf8      	pop	{r3, r4, r5, r6, r7, pc}
    6706:	5cfa      	ldrb	r2, [r7, r3]
    6708:	00d9      	lsls	r1, r3, #3
    670a:	f023 0403 	bic.w	r4, r3, #3
    670e:	f8d5 c008 	ldr.w	ip, [r5, #8]
    6712:	3301      	adds	r3, #1
    6714:	f001 0118 	and.w	r1, r1, #24
    6718:	fa02 f101 	lsl.w	r1, r2, r1
    671c:	f85c 2004 	ldr.w	r2, [ip, r4]
    6720:	430a      	orrs	r2, r1
    6722:	f84c 2004 	str.w	r2, [ip, r4]
    6726:	e7df      	b.n	66e8 <mbedtls_mpi_read_binary_le+0x26>

00006728 <mbedtls_mpi_read_binary>:
    6728:	e92d 41f0 	stmdb	sp!, {r4, r5, r6, r7, r8, lr}
    672c:	f012 0503 	ands.w	r5, r2, #3
    6730:	6843      	ldr	r3, [r0, #4]
    6732:	bf18      	it	ne
    6734:	2501      	movne	r5, #1
    6736:	4604      	mov	r4, r0
    6738:	eb05 0592 	add.w	r5, r5, r2, lsr #2
    673c:	4688      	mov	r8, r1
    673e:	4616      	mov	r6, r2
    6740:	429d      	cmp	r5, r3
    6742:	d108      	bne.n	6756 <mbedtls_mpi_read_binary+0x2e>
    6744:	2100      	movs	r1, #0
    6746:	4620      	mov	r0, r4
    6748:	f7ff ff29 	bl	659e <mbedtls_mpi_lset>
    674c:	4607      	mov	r7, r0
    674e:	b1a0      	cbz	r0, 677a <mbedtls_mpi_read_binary+0x52>
    6750:	4638      	mov	r0, r7
    6752:	e8bd 81f0 	ldmia.w	sp!, {r4, r5, r6, r7, r8, pc}
    6756:	f9b0 7002 	ldrsh.w	r7, [r0, #2]
    675a:	f7ff fd8d 	bl	6278 <mbedtls_mpi_free>
    675e:	2301      	movs	r3, #1
    6760:	4629      	mov	r1, r5
    6762:	4620      	mov	r0, r4
    6764:	8023      	strh	r3, [r4, #0]
    6766:	2300      	movs	r3, #0
    6768:	8067      	strh	r7, [r4, #2]
    676a:	6063      	str	r3, [r4, #4]
    676c:	60a3      	str	r3, [r4, #8]
    676e:	f7ff fda5 	bl	62bc <mbedtls_mpi_grow>
    6772:	4607      	mov	r7, r0
    6774:	2800      	cmp	r0, #0
    6776:	d0e5      	beq.n	6744 <mbedtls_mpi_read_binary+0x1c>
    6778:	e7ea      	b.n	6750 <mbedtls_mpi_read_binary+0x28>
    677a:	f1b8 0f00 	cmp.w	r8, #0
    677e:	d0e7      	beq.n	6750 <mbedtls_mpi_read_binary+0x28>
    6780:	68a3      	ldr	r3, [r4, #8]
    6782:	ebc6 0085 	rsb	r0, r6, r5, lsl #2
    6786:	4632      	mov	r2, r6
    6788:	4641      	mov	r1, r8
    678a:	4418      	add	r0, r3
    678c:	f7f9 fddc 	bl	348 <memcpy>
    6790:	2d00      	cmp	r5, #0
    6792:	d0dd      	beq.n	6750 <mbedtls_mpi_read_binary+0x28>
    6794:	4629      	mov	r1, r5
    6796:	68a0      	ldr	r0, [r4, #8]
    6798:	f7ff fd2b 	bl	61f2 <mpi_bigendian_to_host.part.0>
    679c:	e7d8      	b.n	6750 <mbedtls_mpi_read_binary+0x28>

0000679e <mbedtls_mpi_write_binary_le>:
    679e:	b5f8      	push	{r3, r4, r5, r6, r7, lr}
    67a0:	460e      	mov	r6, r1
    67a2:	6843      	ldr	r3, [r0, #4]
    67a4:	009b      	lsls	r3, r3, #2
    67a6:	4293      	cmp	r3, r2
    67a8:	d31d      	bcc.n	67e6 <mbedtls_mpi_write_binary_le+0x48>
    67aa:	4611      	mov	r1, r2
    67ac:	4299      	cmp	r1, r3
    67ae:	d10c      	bne.n	67ca <mbedtls_mpi_write_binary_le+0x2c>
    67b0:	4694      	mov	ip, r2
    67b2:	2100      	movs	r1, #0
    67b4:	458c      	cmp	ip, r1
    67b6:	d118      	bne.n	67ea <mbedtls_mpi_write_binary_le+0x4c>
    67b8:	4293      	cmp	r3, r2
    67ba:	d204      	bcs.n	67c6 <mbedtls_mpi_write_binary_le+0x28>
    67bc:	1ad2      	subs	r2, r2, r3
    67be:	2100      	movs	r1, #0
    67c0:	18f0      	adds	r0, r6, r3
    67c2:	f002 fcc8 	bl	9156 <memset>
    67c6:	2000      	movs	r0, #0
    67c8:	bdf8      	pop	{r3, r4, r5, r6, r7, pc}
    67ca:	6887      	ldr	r7, [r0, #8]
    67cc:	f001 0403 	and.w	r4, r1, #3
    67d0:	f021 0c03 	bic.w	ip, r1, #3
    67d4:	00e5      	lsls	r5, r4, #3
    67d6:	f857 400c 	ldr.w	r4, [r7, ip]
    67da:	40ec      	lsrs	r4, r5
    67dc:	f014 0fff 	tst.w	r4, #255	; 0xff
    67e0:	d10f      	bne.n	6802 <mbedtls_mpi_write_binary_le+0x64>
    67e2:	3101      	adds	r1, #1
    67e4:	e7e2      	b.n	67ac <mbedtls_mpi_write_binary_le+0xe>
    67e6:	469c      	mov	ip, r3
    67e8:	e7e3      	b.n	67b2 <mbedtls_mpi_write_binary_le+0x14>
    67ea:	6887      	ldr	r7, [r0, #8]
    67ec:	f001 0403 	and.w	r4, r1, #3
    67f0:	f021 0e03 	bic.w	lr, r1, #3
    67f4:	00e5      	lsls	r5, r4, #3
    67f6:	f857 400e 	ldr.w	r4, [r7, lr]
    67fa:	40ec      	lsrs	r4, r5
    67fc:	5474      	strb	r4, [r6, r1]
    67fe:	3101      	adds	r1, #1
    6800:	e7d8      	b.n	67b4 <mbedtls_mpi_write_binary_le+0x16>
    6802:	f06f 0007 	mvn.w	r0, #7
    6806:	bdf8      	pop	{r3, r4, r5, r6, r7, pc}

00006808 <mbedtls_mpi_write_binary>:
    6808:	b5f8      	push	{r3, r4, r5, r6, r7, lr}
    680a:	4605      	mov	r5, r0
    680c:	686c      	ldr	r4, [r5, #4]
    680e:	4608      	mov	r0, r1
    6810:	00a4      	lsls	r4, r4, #2
    6812:	4294      	cmp	r4, r2
    6814:	d310      	bcc.n	6838 <mbedtls_mpi_write_binary+0x30>
    6816:	4613      	mov	r3, r2
    6818:	42a3      	cmp	r3, r4
    681a:	d014      	beq.n	6846 <mbedtls_mpi_write_binary+0x3e>
    681c:	68af      	ldr	r7, [r5, #8]
    681e:	f003 0103 	and.w	r1, r3, #3
    6822:	f023 0c03 	bic.w	ip, r3, #3
    6826:	00ce      	lsls	r6, r1, #3
    6828:	f857 100c 	ldr.w	r1, [r7, ip]
    682c:	40f1      	lsrs	r1, r6
    682e:	f011 0fff 	tst.w	r1, #255	; 0xff
    6832:	d11a      	bne.n	686a <mbedtls_mpi_write_binary+0x62>
    6834:	3301      	adds	r3, #1
    6836:	e7ef      	b.n	6818 <mbedtls_mpi_write_binary+0x10>
    6838:	1b12      	subs	r2, r2, r4
    683a:	188e      	adds	r6, r1, r2
    683c:	2100      	movs	r1, #0
    683e:	f002 fc8a 	bl	9156 <memset>
    6842:	4630      	mov	r0, r6
    6844:	4622      	mov	r2, r4
    6846:	4410      	add	r0, r2
    6848:	2300      	movs	r3, #0
    684a:	429a      	cmp	r2, r3
    684c:	d101      	bne.n	6852 <mbedtls_mpi_write_binary+0x4a>
    684e:	2000      	movs	r0, #0
    6850:	bdf8      	pop	{r3, r4, r5, r6, r7, pc}
    6852:	68af      	ldr	r7, [r5, #8]
    6854:	f003 0103 	and.w	r1, r3, #3
    6858:	f023 0603 	bic.w	r6, r3, #3
    685c:	00cc      	lsls	r4, r1, #3
    685e:	3301      	adds	r3, #1
    6860:	59b9      	ldr	r1, [r7, r6]
    6862:	40e1      	lsrs	r1, r4
    6864:	f800 1d01 	strb.w	r1, [r0, #-1]!
    6868:	e7ef      	b.n	684a <mbedtls_mpi_write_binary+0x42>
    686a:	f06f 0007 	mvn.w	r0, #7
    686e:	bdf8      	pop	{r3, r4, r5, r6, r7, pc}

00006870 <mbedtls_mpi_shift_l>:
    6870:	b5f8      	push	{r3, r4, r5, r6, r7, lr}
    6872:	4606      	mov	r6, r0
    6874:	460c      	mov	r4, r1
    6876:	094d      	lsrs	r5, r1, #5
    6878:	f001 071f 	and.w	r7, r1, #31
    687c:	f7ff fefa 	bl	6674 <mbedtls_mpi_bitlen>
    6880:	6873      	ldr	r3, [r6, #4]
    6882:	4420      	add	r0, r4
    6884:	ebb0 1f43 	cmp.w	r0, r3, lsl #5
    6888:	d803      	bhi.n	6892 <mbedtls_mpi_shift_l+0x22>
    688a:	b975      	cbnz	r5, 68aa <mbedtls_mpi_shift_l+0x3a>
    688c:	bb4f      	cbnz	r7, 68e2 <mbedtls_mpi_shift_l+0x72>
    688e:	2000      	movs	r0, #0
    6890:	bdf8      	pop	{r3, r4, r5, r6, r7, pc}
    6892:	f010 011f 	ands.w	r1, r0, #31
    6896:	bf18      	it	ne
    6898:	2101      	movne	r1, #1
    689a:	eb01 1150 	add.w	r1, r1, r0, lsr #5
    689e:	4630      	mov	r0, r6
    68a0:	f7ff fd0c 	bl	62bc <mbedtls_mpi_grow>
    68a4:	2800      	cmp	r0, #0
    68a6:	d0f0      	beq.n	688a <mbedtls_mpi_shift_l+0x1a>
    68a8:	bdf8      	pop	{r3, r4, r5, r6, r7, pc}
    68aa:	6873      	ldr	r3, [r6, #4]
    68ac:	f06f 0103 	mvn.w	r1, #3
    68b0:	4369      	muls	r1, r5
    68b2:	f103 4280 	add.w	r2, r3, #1073741824	; 0x40000000
    68b6:	3a01      	subs	r2, #1
    68b8:	0092      	lsls	r2, r2, #2
    68ba:	42ab      	cmp	r3, r5
    68bc:	d80a      	bhi.n	68d4 <mbedtls_mpi_shift_l+0x64>
    68be:	f103 4380 	add.w	r3, r3, #1073741824	; 0x40000000
    68c2:	2200      	movs	r2, #0
    68c4:	3b01      	subs	r3, #1
    68c6:	009b      	lsls	r3, r3, #2
    68c8:	1d19      	adds	r1, r3, #4
    68ca:	d0df      	beq.n	688c <mbedtls_mpi_shift_l+0x1c>
    68cc:	68b1      	ldr	r1, [r6, #8]
    68ce:	50ca      	str	r2, [r1, r3]
    68d0:	3b04      	subs	r3, #4
    68d2:	e7f9      	b.n	68c8 <mbedtls_mpi_shift_l+0x58>
    68d4:	68b0      	ldr	r0, [r6, #8]
    68d6:	3b01      	subs	r3, #1
    68d8:	1884      	adds	r4, r0, r2
    68da:	5864      	ldr	r4, [r4, r1]
    68dc:	5084      	str	r4, [r0, r2]
    68de:	3a04      	subs	r2, #4
    68e0:	e7eb      	b.n	68ba <mbedtls_mpi_shift_l+0x4a>
    68e2:	00ab      	lsls	r3, r5, #2
    68e4:	2100      	movs	r1, #0
    68e6:	f1c7 0c20 	rsb	ip, r7, #32
    68ea:	6872      	ldr	r2, [r6, #4]
    68ec:	4295      	cmp	r5, r2
    68ee:	d2ce      	bcs.n	688e <mbedtls_mpi_shift_l+0x1e>
    68f0:	68b4      	ldr	r4, [r6, #8]
    68f2:	3501      	adds	r5, #1
    68f4:	58e0      	ldr	r0, [r4, r3]
    68f6:	fa00 f207 	lsl.w	r2, r0, r7
    68fa:	430a      	orrs	r2, r1
    68fc:	fa20 f10c 	lsr.w	r1, r0, ip
    6900:	50e2      	str	r2, [r4, r3]
    6902:	3304      	adds	r3, #4
    6904:	e7f1      	b.n	68ea <mbedtls_mpi_shift_l+0x7a>

00006906 <mbedtls_mpi_shift_r>:
    6906:	6843      	ldr	r3, [r0, #4]
    6908:	094a      	lsrs	r2, r1, #5
    690a:	f001 011f 	and.w	r1, r1, #31
    690e:	b4f0      	push	{r4, r5, r6, r7}
    6910:	429a      	cmp	r2, r3
    6912:	d802      	bhi.n	691a <mbedtls_mpi_shift_r+0x14>
    6914:	d105      	bne.n	6922 <mbedtls_mpi_shift_r+0x1c>
    6916:	2900      	cmp	r1, #0
    6918:	d034      	beq.n	6984 <mbedtls_mpi_shift_r+0x7e>
    691a:	2100      	movs	r1, #0
    691c:	bcf0      	pop	{r4, r5, r6, r7}
    691e:	f7ff be3e 	b.w	659e <mbedtls_mpi_lset>
    6922:	b14a      	cbz	r2, 6938 <mbedtls_mpi_shift_r+0x32>
    6924:	2300      	movs	r3, #0
    6926:	6844      	ldr	r4, [r0, #4]
    6928:	1aa4      	subs	r4, r4, r2
    692a:	42a3      	cmp	r3, r4
    692c:	d308      	bcc.n	6940 <mbedtls_mpi_shift_r+0x3a>
    692e:	009a      	lsls	r2, r3, #2
    6930:	2500      	movs	r5, #0
    6932:	6844      	ldr	r4, [r0, #4]
    6934:	42a3      	cmp	r3, r4
    6936:	d30b      	bcc.n	6950 <mbedtls_mpi_shift_r+0x4a>
    6938:	b979      	cbnz	r1, 695a <mbedtls_mpi_shift_r+0x54>
    693a:	2000      	movs	r0, #0
    693c:	bcf0      	pop	{r4, r5, r6, r7}
    693e:	4770      	bx	lr
    6940:	6884      	ldr	r4, [r0, #8]
    6942:	189d      	adds	r5, r3, r2
    6944:	f854 5025 	ldr.w	r5, [r4, r5, lsl #2]
    6948:	f844 5023 	str.w	r5, [r4, r3, lsl #2]
    694c:	3301      	adds	r3, #1
    694e:	e7ea      	b.n	6926 <mbedtls_mpi_shift_r+0x20>
    6950:	6884      	ldr	r4, [r0, #8]
    6952:	3301      	adds	r3, #1
    6954:	50a5      	str	r5, [r4, r2]
    6956:	3204      	adds	r2, #4
    6958:	e7eb      	b.n	6932 <mbedtls_mpi_shift_r+0x2c>
    695a:	6842      	ldr	r2, [r0, #4]
    695c:	2500      	movs	r5, #0
    695e:	f1c1 0c20 	rsb	ip, r1, #32
    6962:	f102 4380 	add.w	r3, r2, #1073741824	; 0x40000000
    6966:	3b01      	subs	r3, #1
    6968:	009b      	lsls	r3, r3, #2
    696a:	2a00      	cmp	r2, #0
    696c:	d0e5      	beq.n	693a <mbedtls_mpi_shift_r+0x34>
    696e:	6887      	ldr	r7, [r0, #8]
    6970:	3a01      	subs	r2, #1
    6972:	58fe      	ldr	r6, [r7, r3]
    6974:	fa26 f401 	lsr.w	r4, r6, r1
    6978:	432c      	orrs	r4, r5
    697a:	fa06 f50c 	lsl.w	r5, r6, ip
    697e:	50fc      	str	r4, [r7, r3]
    6980:	3b04      	subs	r3, #4
    6982:	e7f2      	b.n	696a <mbedtls_mpi_shift_r+0x64>
    6984:	2a00      	cmp	r2, #0
    6986:	d0d8      	beq.n	693a <mbedtls_mpi_shift_r+0x34>
    6988:	460b      	mov	r3, r1
    698a:	e7d0      	b.n	692e <mbedtls_mpi_shift_r+0x28>

0000698c <mbedtls_mpi_cmp_abs>:
    698c:	6843      	ldr	r3, [r0, #4]
    698e:	b530      	push	{r4, r5, lr}
    6990:	f103 4280 	add.w	r2, r3, #1073741824	; 0x40000000
    6994:	3a01      	subs	r2, #1
    6996:	0092      	lsls	r2, r2, #2
    6998:	b993      	cbnz	r3, 69c0 <mbedtls_mpi_cmp_abs+0x34>
    699a:	684c      	ldr	r4, [r1, #4]
    699c:	f104 4280 	add.w	r2, r4, #1073741824	; 0x40000000
    69a0:	3a01      	subs	r2, #1
    69a2:	0092      	lsls	r2, r2, #2
    69a4:	b99c      	cbnz	r4, 69ce <mbedtls_mpi_cmp_abs+0x42>
    69a6:	ea53 0204 	orrs.w	r2, r3, r4
    69aa:	d022      	beq.n	69f2 <mbedtls_mpi_cmp_abs+0x66>
    69ac:	42a3      	cmp	r3, r4
    69ae:	d822      	bhi.n	69f6 <mbedtls_mpi_cmp_abs+0x6a>
    69b0:	d323      	bcc.n	69fa <mbedtls_mpi_cmp_abs+0x6e>
    69b2:	f103 4280 	add.w	r2, r3, #1073741824	; 0x40000000
    69b6:	3a01      	subs	r2, #1
    69b8:	0092      	lsls	r2, r2, #2
    69ba:	b97b      	cbnz	r3, 69dc <mbedtls_mpi_cmp_abs+0x50>
    69bc:	4618      	mov	r0, r3
    69be:	bd30      	pop	{r4, r5, pc}
    69c0:	6884      	ldr	r4, [r0, #8]
    69c2:	58a4      	ldr	r4, [r4, r2]
    69c4:	3a04      	subs	r2, #4
    69c6:	2c00      	cmp	r4, #0
    69c8:	d1e7      	bne.n	699a <mbedtls_mpi_cmp_abs+0xe>
    69ca:	3b01      	subs	r3, #1
    69cc:	e7e4      	b.n	6998 <mbedtls_mpi_cmp_abs+0xc>
    69ce:	688d      	ldr	r5, [r1, #8]
    69d0:	58ad      	ldr	r5, [r5, r2]
    69d2:	3a04      	subs	r2, #4
    69d4:	2d00      	cmp	r5, #0
    69d6:	d1e6      	bne.n	69a6 <mbedtls_mpi_cmp_abs+0x1a>
    69d8:	3c01      	subs	r4, #1
    69da:	e7e3      	b.n	69a4 <mbedtls_mpi_cmp_abs+0x18>
    69dc:	6884      	ldr	r4, [r0, #8]
    69de:	58a5      	ldr	r5, [r4, r2]
    69e0:	688c      	ldr	r4, [r1, #8]
    69e2:	58a4      	ldr	r4, [r4, r2]
    69e4:	42a5      	cmp	r5, r4
    69e6:	d806      	bhi.n	69f6 <mbedtls_mpi_cmp_abs+0x6a>
    69e8:	f1a2 0204 	sub.w	r2, r2, #4
    69ec:	d305      	bcc.n	69fa <mbedtls_mpi_cmp_abs+0x6e>
    69ee:	3b01      	subs	r3, #1
    69f0:	e7e3      	b.n	69ba <mbedtls_mpi_cmp_abs+0x2e>
    69f2:	4610      	mov	r0, r2
    69f4:	bd30      	pop	{r4, r5, pc}
    69f6:	2001      	movs	r0, #1
    69f8:	bd30      	pop	{r4, r5, pc}
    69fa:	f04f 30ff 	mov.w	r0, #4294967295	; 0xffffffff
    69fe:	bd30      	pop	{r4, r5, pc}

00006a00 <mbedtls_mpi_cmp_mpi>:
    6a00:	6842      	ldr	r2, [r0, #4]
    6a02:	b570      	push	{r4, r5, r6, lr}
    6a04:	f102 4380 	add.w	r3, r2, #1073741824	; 0x40000000
    6a08:	3b01      	subs	r3, #1
    6a0a:	009b      	lsls	r3, r3, #2
    6a0c:	b972      	cbnz	r2, 6a2c <mbedtls_mpi_cmp_mpi+0x2c>
    6a0e:	684c      	ldr	r4, [r1, #4]
    6a10:	f104 4380 	add.w	r3, r4, #1073741824	; 0x40000000
    6a14:	3b01      	subs	r3, #1
    6a16:	009b      	lsls	r3, r3, #2
    6a18:	b97c      	cbnz	r4, 6a3a <mbedtls_mpi_cmp_mpi+0x3a>
    6a1a:	ea52 0304 	orrs.w	r3, r2, r4
    6a1e:	d003      	beq.n	6a28 <mbedtls_mpi_cmp_mpi+0x28>
    6a20:	42a2      	cmp	r2, r4
    6a22:	d911      	bls.n	6a48 <mbedtls_mpi_cmp_mpi+0x48>
    6a24:	f9b0 3000 	ldrsh.w	r3, [r0]
    6a28:	4618      	mov	r0, r3
    6a2a:	bd70      	pop	{r4, r5, r6, pc}
    6a2c:	6884      	ldr	r4, [r0, #8]
    6a2e:	58e4      	ldr	r4, [r4, r3]
    6a30:	3b04      	subs	r3, #4
    6a32:	2c00      	cmp	r4, #0
    6a34:	d1eb      	bne.n	6a0e <mbedtls_mpi_cmp_mpi+0xe>
    6a36:	3a01      	subs	r2, #1
    6a38:	e7e8      	b.n	6a0c <mbedtls_mpi_cmp_mpi+0xc>
    6a3a:	688d      	ldr	r5, [r1, #8]
    6a3c:	58ed      	ldr	r5, [r5, r3]
    6a3e:	3b04      	subs	r3, #4
    6a40:	2d00      	cmp	r5, #0
    6a42:	d1ea      	bne.n	6a1a <mbedtls_mpi_cmp_mpi+0x1a>
    6a44:	3c01      	subs	r4, #1
    6a46:	e7e7      	b.n	6a18 <mbedtls_mpi_cmp_mpi+0x18>
    6a48:	f9b1 4000 	ldrsh.w	r4, [r1]
    6a4c:	d201      	bcs.n	6a52 <mbedtls_mpi_cmp_mpi+0x52>
    6a4e:	4263      	negs	r3, r4
    6a50:	e7ea      	b.n	6a28 <mbedtls_mpi_cmp_mpi+0x28>
    6a52:	f9b0 3000 	ldrsh.w	r3, [r0]
    6a56:	2b00      	cmp	r3, #0
    6a58:	dd01      	ble.n	6a5e <mbedtls_mpi_cmp_mpi+0x5e>
    6a5a:	2c00      	cmp	r4, #0
    6a5c:	db17      	blt.n	6a8e <mbedtls_mpi_cmp_mpi+0x8e>
    6a5e:	2c00      	cmp	r4, #0
    6a60:	dd01      	ble.n	6a66 <mbedtls_mpi_cmp_mpi+0x66>
    6a62:	2b00      	cmp	r3, #0
    6a64:	db15      	blt.n	6a92 <mbedtls_mpi_cmp_mpi+0x92>
    6a66:	f102 4480 	add.w	r4, r2, #1073741824	; 0x40000000
    6a6a:	3c01      	subs	r4, #1
    6a6c:	00a4      	lsls	r4, r4, #2
    6a6e:	b90a      	cbnz	r2, 6a74 <mbedtls_mpi_cmp_mpi+0x74>
    6a70:	4613      	mov	r3, r2
    6a72:	e7d9      	b.n	6a28 <mbedtls_mpi_cmp_mpi+0x28>
    6a74:	6885      	ldr	r5, [r0, #8]
    6a76:	592e      	ldr	r6, [r5, r4]
    6a78:	688d      	ldr	r5, [r1, #8]
    6a7a:	592d      	ldr	r5, [r5, r4]
    6a7c:	42ae      	cmp	r6, r5
    6a7e:	d8d3      	bhi.n	6a28 <mbedtls_mpi_cmp_mpi+0x28>
    6a80:	f1a4 0404 	sub.w	r4, r4, #4
    6a84:	d201      	bcs.n	6a8a <mbedtls_mpi_cmp_mpi+0x8a>
    6a86:	425b      	negs	r3, r3
    6a88:	e7ce      	b.n	6a28 <mbedtls_mpi_cmp_mpi+0x28>
    6a8a:	3a01      	subs	r2, #1
    6a8c:	e7ef      	b.n	6a6e <mbedtls_mpi_cmp_mpi+0x6e>
    6a8e:	2301      	movs	r3, #1
    6a90:	e7ca      	b.n	6a28 <mbedtls_mpi_cmp_mpi+0x28>
    6a92:	f04f 33ff 	mov.w	r3, #4294967295	; 0xffffffff
    6a96:	e7c7      	b.n	6a28 <mbedtls_mpi_cmp_mpi+0x28>

00006a98 <mbedtls_mpi_lt_mpi_ct>:
    6a98:	e92d 47f0 	stmdb	sp!, {r4, r5, r6, r7, r8, r9, sl, lr}
    6a9c:	684b      	ldr	r3, [r1, #4]
    6a9e:	6844      	ldr	r4, [r0, #4]
    6aa0:	429c      	cmp	r4, r3
    6aa2:	d151      	bne.n	6b48 <mbedtls_mpi_lt_mpi_ct+0xb0>
    6aa4:	8804      	ldrh	r4, [r0, #0]
    6aa6:	880b      	ldrh	r3, [r1, #0]
    6aa8:	1064      	asrs	r4, r4, #1
    6aaa:	f004 0701 	and.w	r7, r4, #1
    6aae:	ea84 0453 	eor.w	r4, r4, r3, lsr #1
    6ab2:	f1c7 0c01 	rsb	ip, r7, #1
    6ab6:	f004 0301 	and.w	r3, r4, #1
    6aba:	403c      	ands	r4, r7
    6abc:	6014      	str	r4, [r2, #0]
    6abe:	6846      	ldr	r6, [r0, #4]
    6ac0:	f106 4580 	add.w	r5, r6, #1073741824	; 0x40000000
    6ac4:	3d01      	subs	r5, #1
    6ac6:	00ad      	lsls	r5, r5, #2
    6ac8:	b916      	cbnz	r6, 6ad0 <mbedtls_mpi_lt_mpi_ct+0x38>
    6aca:	4630      	mov	r0, r6
    6acc:	e8bd 87f0 	ldmia.w	sp!, {r4, r5, r6, r7, r8, r9, sl, pc}
    6ad0:	f8d1 9008 	ldr.w	r9, [r1, #8]
    6ad4:	3e01      	subs	r6, #1
    6ad6:	f8d0 a008 	ldr.w	sl, [r0, #8]
    6ada:	f859 4005 	ldr.w	r4, [r9, r5]
    6ade:	f85a 8005 	ldr.w	r8, [sl, r5]
    6ae2:	eba4 0e08 	sub.w	lr, r4, r8
    6ae6:	ea84 0408 	eor.w	r4, r4, r8
    6aea:	ea88 080e 	eor.w	r8, r8, lr
    6aee:	ea04 0808 	and.w	r8, r4, r8
    6af2:	6814      	ldr	r4, [r2, #0]
    6af4:	ea88 080e 	eor.w	r8, r8, lr
    6af8:	f1c3 0e01 	rsb	lr, r3, #1
    6afc:	ea4f 78d8 	mov.w	r8, r8, lsr #31
    6b00:	ea0e 0e07 	and.w	lr, lr, r7
    6b04:	ea0e 0e08 	and.w	lr, lr, r8
    6b08:	ea43 0808 	orr.w	r8, r3, r8
    6b0c:	ea4e 0e04 	orr.w	lr, lr, r4
    6b10:	f8c2 e000 	str.w	lr, [r2]
    6b14:	f859 3005 	ldr.w	r3, [r9, r5]
    6b18:	f85a 4005 	ldr.w	r4, [sl, r5]
    6b1c:	3d04      	subs	r5, #4
    6b1e:	eba4 0903 	sub.w	r9, r4, r3
    6b22:	405c      	eors	r4, r3
    6b24:	ea83 0309 	eor.w	r3, r3, r9
    6b28:	4023      	ands	r3, r4
    6b2a:	ea83 0309 	eor.w	r3, r3, r9
    6b2e:	f1c8 0901 	rsb	r9, r8, #1
    6b32:	0fdb      	lsrs	r3, r3, #31
    6b34:	ea0c 0403 	and.w	r4, ip, r3
    6b38:	ea48 0303 	orr.w	r3, r8, r3
    6b3c:	ea04 0409 	and.w	r4, r4, r9
    6b40:	ea44 040e 	orr.w	r4, r4, lr
    6b44:	6014      	str	r4, [r2, #0]
    6b46:	e7bf      	b.n	6ac8 <mbedtls_mpi_lt_mpi_ct+0x30>
    6b48:	f06f 0003 	mvn.w	r0, #3
    6b4c:	e8bd 87f0 	ldmia.w	sp!, {r4, r5, r6, r7, r8, r9, sl, pc}

00006b50 <mbedtls_mpi_cmp_int>:
    6b50:	b51f      	push	{r0, r1, r2, r3, r4, lr}
    6b52:	ea81 73e1 	eor.w	r3, r1, r1, asr #31
    6b56:	2900      	cmp	r1, #0
    6b58:	eba3 73e1 	sub.w	r3, r3, r1, asr #31
    6b5c:	a901      	add	r1, sp, #4
    6b5e:	9300      	str	r3, [sp, #0]
    6b60:	bfb4      	ite	lt
    6b62:	f04f 33ff 	movlt.w	r3, #4294967295	; 0xffffffff
    6b66:	2301      	movge	r3, #1
    6b68:	f8ad 3004 	strh.w	r3, [sp, #4]
    6b6c:	2301      	movs	r3, #1
    6b6e:	f8cd d00c 	str.w	sp, [sp, #12]
    6b72:	9302      	str	r3, [sp, #8]
    6b74:	f7ff ff44 	bl	6a00 <mbedtls_mpi_cmp_mpi>
    6b78:	b005      	add	sp, #20
    6b7a:	f85d fb04 	ldr.w	pc, [sp], #4

00006b7e <mbedtls_mpi_add_abs>:
    6b7e:	4290      	cmp	r0, r2
    6b80:	e92d 41f0 	stmdb	sp!, {r4, r5, r6, r7, r8, lr}
    6b84:	4606      	mov	r6, r0
    6b86:	460c      	mov	r4, r1
    6b88:	4615      	mov	r5, r2
    6b8a:	d002      	beq.n	6b92 <mbedtls_mpi_add_abs+0x14>
    6b8c:	4288      	cmp	r0, r1
    6b8e:	d131      	bne.n	6bf4 <mbedtls_mpi_add_abs+0x76>
    6b90:	462c      	mov	r4, r5
    6b92:	6865      	ldr	r5, [r4, #4]
    6b94:	2301      	movs	r3, #1
    6b96:	8033      	strh	r3, [r6, #0]
    6b98:	f105 4380 	add.w	r3, r5, #1073741824	; 0x40000000
    6b9c:	3b01      	subs	r3, #1
    6b9e:	009b      	lsls	r3, r3, #2
    6ba0:	bb85      	cbnz	r5, 6c04 <mbedtls_mpi_add_abs+0x86>
    6ba2:	4629      	mov	r1, r5
    6ba4:	4630      	mov	r0, r6
    6ba6:	f7ff fb89 	bl	62bc <mbedtls_mpi_grow>
    6baa:	4607      	mov	r7, r0
    6bac:	bb38      	cbnz	r0, 6bfe <mbedtls_mpi_add_abs+0x80>
    6bae:	68b3      	ldr	r3, [r6, #8]
    6bb0:	4601      	mov	r1, r0
    6bb2:	f8d4 8008 	ldr.w	r8, [r4, #8]
    6bb6:	4604      	mov	r4, r0
    6bb8:	469c      	mov	ip, r3
    6bba:	42a9      	cmp	r1, r5
    6bbc:	d129      	bne.n	6c12 <mbedtls_mpi_add_abs+0x94>
    6bbe:	ea4f 0881 	mov.w	r8, r1, lsl #2
    6bc2:	4443      	add	r3, r8
    6bc4:	b1dc      	cbz	r4, 6bfe <mbedtls_mpi_add_abs+0x80>
    6bc6:	6872      	ldr	r2, [r6, #4]
    6bc8:	1c4d      	adds	r5, r1, #1
    6bca:	4291      	cmp	r1, r2
    6bcc:	d306      	bcc.n	6bdc <mbedtls_mpi_add_abs+0x5e>
    6bce:	4629      	mov	r1, r5
    6bd0:	4630      	mov	r0, r6
    6bd2:	f7ff fb73 	bl	62bc <mbedtls_mpi_grow>
    6bd6:	bb78      	cbnz	r0, 6c38 <mbedtls_mpi_add_abs+0xba>
    6bd8:	68b3      	ldr	r3, [r6, #8]
    6bda:	4443      	add	r3, r8
    6bdc:	681a      	ldr	r2, [r3, #0]
    6bde:	2100      	movs	r1, #0
    6be0:	f108 0804 	add.w	r8, r8, #4
    6be4:	18a4      	adds	r4, r4, r2
    6be6:	bf28      	it	cs
    6be8:	2101      	movcs	r1, #1
    6bea:	f843 4b04 	str.w	r4, [r3], #4
    6bee:	460c      	mov	r4, r1
    6bf0:	4629      	mov	r1, r5
    6bf2:	e7e7      	b.n	6bc4 <mbedtls_mpi_add_abs+0x46>
    6bf4:	f7ff fc12 	bl	641c <mbedtls_mpi_copy>
    6bf8:	4607      	mov	r7, r0
    6bfa:	2800      	cmp	r0, #0
    6bfc:	d0c8      	beq.n	6b90 <mbedtls_mpi_add_abs+0x12>
    6bfe:	4638      	mov	r0, r7
    6c00:	e8bd 81f0 	ldmia.w	sp!, {r4, r5, r6, r7, r8, pc}
    6c04:	68a2      	ldr	r2, [r4, #8]
    6c06:	58d2      	ldr	r2, [r2, r3]
    6c08:	3b04      	subs	r3, #4
    6c0a:	2a00      	cmp	r2, #0
    6c0c:	d1c9      	bne.n	6ba2 <mbedtls_mpi_add_abs+0x24>
    6c0e:	3d01      	subs	r5, #1
    6c10:	e7c6      	b.n	6ba0 <mbedtls_mpi_add_abs+0x22>
    6c12:	f8dc 2000 	ldr.w	r2, [ip]
    6c16:	f04f 0e00 	mov.w	lr, #0
    6c1a:	f858 0021 	ldr.w	r0, [r8, r1, lsl #2]
    6c1e:	3101      	adds	r1, #1
    6c20:	18a4      	adds	r4, r4, r2
    6c22:	bf28      	it	cs
    6c24:	f04f 0e01 	movcs.w	lr, #1
    6c28:	1904      	adds	r4, r0, r4
    6c2a:	f84c 4b04 	str.w	r4, [ip], #4
    6c2e:	bf2c      	ite	cs
    6c30:	2401      	movcs	r4, #1
    6c32:	2400      	movcc	r4, #0
    6c34:	4474      	add	r4, lr
    6c36:	e7c0      	b.n	6bba <mbedtls_mpi_add_abs+0x3c>
    6c38:	4607      	mov	r7, r0
    6c3a:	e7e0      	b.n	6bfe <mbedtls_mpi_add_abs+0x80>

00006c3c <mbedtls_mpi_sub_abs>:
    6c3c:	e92d 41ff 	stmdb	sp!, {r0, r1, r2, r3, r4, r5, r6, r7, r8, lr}
    6c40:	4688      	mov	r8, r1
    6c42:	4606      	mov	r6, r0
    6c44:	4611      	mov	r1, r2
    6c46:	4640      	mov	r0, r8
    6c48:	4614      	mov	r4, r2
    6c4a:	f7ff fe9f 	bl	698c <mbedtls_mpi_cmp_abs>
    6c4e:	2800      	cmp	r0, #0
    6c50:	db31      	blt.n	6cb6 <mbedtls_mpi_sub_abs+0x7a>
    6c52:	af01      	add	r7, sp, #4
    6c54:	4638      	mov	r0, r7
    6c56:	f7ff fafc 	bl	6252 <mbedtls_mpi_init_mempool>
    6c5a:	42b4      	cmp	r4, r6
    6c5c:	d106      	bne.n	6c6c <mbedtls_mpi_sub_abs+0x30>
    6c5e:	4621      	mov	r1, r4
    6c60:	4638      	mov	r0, r7
    6c62:	f7ff fbdb 	bl	641c <mbedtls_mpi_copy>
    6c66:	4605      	mov	r5, r0
    6c68:	b9b8      	cbnz	r0, 6c9a <mbedtls_mpi_sub_abs+0x5e>
    6c6a:	463c      	mov	r4, r7
    6c6c:	45b0      	cmp	r8, r6
    6c6e:	d10d      	bne.n	6c8c <mbedtls_mpi_sub_abs+0x50>
    6c70:	6860      	ldr	r0, [r4, #4]
    6c72:	2301      	movs	r3, #1
    6c74:	8033      	strh	r3, [r6, #0]
    6c76:	f100 4380 	add.w	r3, r0, #1073741824	; 0x40000000
    6c7a:	3b01      	subs	r3, #1
    6c7c:	009b      	lsls	r3, r3, #2
    6c7e:	b998      	cbnz	r0, 6ca8 <mbedtls_mpi_sub_abs+0x6c>
    6c80:	68a1      	ldr	r1, [r4, #8]
    6c82:	2500      	movs	r5, #0
    6c84:	68b2      	ldr	r2, [r6, #8]
    6c86:	f7ff f81f 	bl	5cc8 <mpi_sub_hlp>
    6c8a:	e006      	b.n	6c9a <mbedtls_mpi_sub_abs+0x5e>
    6c8c:	4641      	mov	r1, r8
    6c8e:	4630      	mov	r0, r6
    6c90:	f7ff fbc4 	bl	641c <mbedtls_mpi_copy>
    6c94:	4605      	mov	r5, r0
    6c96:	2800      	cmp	r0, #0
    6c98:	d0ea      	beq.n	6c70 <mbedtls_mpi_sub_abs+0x34>
    6c9a:	4638      	mov	r0, r7
    6c9c:	f7ff faec 	bl	6278 <mbedtls_mpi_free>
    6ca0:	4628      	mov	r0, r5
    6ca2:	b004      	add	sp, #16
    6ca4:	e8bd 81f0 	ldmia.w	sp!, {r4, r5, r6, r7, r8, pc}
    6ca8:	68a2      	ldr	r2, [r4, #8]
    6caa:	58d2      	ldr	r2, [r2, r3]
    6cac:	3b04      	subs	r3, #4
    6cae:	2a00      	cmp	r2, #0
    6cb0:	d1e6      	bne.n	6c80 <mbedtls_mpi_sub_abs+0x44>
    6cb2:	3801      	subs	r0, #1
    6cb4:	e7e3      	b.n	6c7e <mbedtls_mpi_sub_abs+0x42>
    6cb6:	f06f 0509 	mvn.w	r5, #9
    6cba:	e7f1      	b.n	6ca0 <mbedtls_mpi_sub_abs+0x64>

00006cbc <mbedtls_mpi_add_mpi>:
    6cbc:	b5f8      	push	{r3, r4, r5, r6, r7, lr}
    6cbe:	4605      	mov	r5, r0
    6cc0:	f9b1 4000 	ldrsh.w	r4, [r1]
    6cc4:	460f      	mov	r7, r1
    6cc6:	4616      	mov	r6, r2
    6cc8:	f9b2 3000 	ldrsh.w	r3, [r2]
    6ccc:	4363      	muls	r3, r4
    6cce:	d516      	bpl.n	6cfe <mbedtls_mpi_add_mpi+0x42>
    6cd0:	4611      	mov	r1, r2
    6cd2:	4638      	mov	r0, r7
    6cd4:	f7ff fe5a 	bl	698c <mbedtls_mpi_cmp_abs>
    6cd8:	2800      	cmp	r0, #0
    6cda:	db06      	blt.n	6cea <mbedtls_mpi_add_mpi+0x2e>
    6cdc:	4632      	mov	r2, r6
    6cde:	4639      	mov	r1, r7
    6ce0:	4628      	mov	r0, r5
    6ce2:	f7ff ffab 	bl	6c3c <mbedtls_mpi_sub_abs>
    6ce6:	b140      	cbz	r0, 6cfa <mbedtls_mpi_add_mpi+0x3e>
    6ce8:	bdf8      	pop	{r3, r4, r5, r6, r7, pc}
    6cea:	463a      	mov	r2, r7
    6cec:	4631      	mov	r1, r6
    6cee:	4628      	mov	r0, r5
    6cf0:	f7ff ffa4 	bl	6c3c <mbedtls_mpi_sub_abs>
    6cf4:	2800      	cmp	r0, #0
    6cf6:	d1f7      	bne.n	6ce8 <mbedtls_mpi_add_mpi+0x2c>
    6cf8:	4264      	negs	r4, r4
    6cfa:	802c      	strh	r4, [r5, #0]
    6cfc:	e7f4      	b.n	6ce8 <mbedtls_mpi_add_mpi+0x2c>
    6cfe:	f7ff ff3e 	bl	6b7e <mbedtls_mpi_add_abs>
    6d02:	e7f0      	b.n	6ce6 <mbedtls_mpi_add_mpi+0x2a>

00006d04 <mbedtls_mpi_sub_mpi>:
    6d04:	b5f8      	push	{r3, r4, r5, r6, r7, lr}
    6d06:	4605      	mov	r5, r0
    6d08:	f9b1 4000 	ldrsh.w	r4, [r1]
    6d0c:	460f      	mov	r7, r1
    6d0e:	4616      	mov	r6, r2
    6d10:	8813      	ldrh	r3, [r2, #0]
    6d12:	fb13 f304 	smulbb	r3, r3, r4
    6d16:	2b00      	cmp	r3, #0
    6d18:	dd16      	ble.n	6d48 <mbedtls_mpi_sub_mpi+0x44>
    6d1a:	4611      	mov	r1, r2
    6d1c:	4638      	mov	r0, r7
    6d1e:	f7ff fe35 	bl	698c <mbedtls_mpi_cmp_abs>
    6d22:	2800      	cmp	r0, #0
    6d24:	db06      	blt.n	6d34 <mbedtls_mpi_sub_mpi+0x30>
    6d26:	4632      	mov	r2, r6
    6d28:	4639      	mov	r1, r7
    6d2a:	4628      	mov	r0, r5
    6d2c:	f7ff ff86 	bl	6c3c <mbedtls_mpi_sub_abs>
    6d30:	b140      	cbz	r0, 6d44 <mbedtls_mpi_sub_mpi+0x40>
    6d32:	bdf8      	pop	{r3, r4, r5, r6, r7, pc}
    6d34:	463a      	mov	r2, r7
    6d36:	4631      	mov	r1, r6
    6d38:	4628      	mov	r0, r5
    6d3a:	f7ff ff7f 	bl	6c3c <mbedtls_mpi_sub_abs>
    6d3e:	2800      	cmp	r0, #0
    6d40:	d1f7      	bne.n	6d32 <mbedtls_mpi_sub_mpi+0x2e>
    6d42:	4264      	negs	r4, r4
    6d44:	802c      	strh	r4, [r5, #0]
    6d46:	e7f4      	b.n	6d32 <mbedtls_mpi_sub_mpi+0x2e>
    6d48:	f7ff ff19 	bl	6b7e <mbedtls_mpi_add_abs>
    6d4c:	e7f0      	b.n	6d30 <mbedtls_mpi_sub_mpi+0x2c>

00006d4e <mbedtls_mpi_add_int>:
    6d4e:	b51f      	push	{r0, r1, r2, r3, r4, lr}
    6d50:	ea82 73e2 	eor.w	r3, r2, r2, asr #31
    6d54:	2a00      	cmp	r2, #0
    6d56:	eba3 73e2 	sub.w	r3, r3, r2, asr #31
    6d5a:	aa01      	add	r2, sp, #4
    6d5c:	9300      	str	r3, [sp, #0]
    6d5e:	bfb4      	ite	lt
    6d60:	f04f 33ff 	movlt.w	r3, #4294967295	; 0xffffffff
    6d64:	2301      	movge	r3, #1
    6d66:	f8ad 3004 	strh.w	r3, [sp, #4]
    6d6a:	2301      	movs	r3, #1
    6d6c:	f8cd d00c 	str.w	sp, [sp, #12]
    6d70:	9302      	str	r3, [sp, #8]
    6d72:	f7ff ffa3 	bl	6cbc <mbedtls_mpi_add_mpi>
    6d76:	b005      	add	sp, #20
    6d78:	f85d fb04 	ldr.w	pc, [sp], #4

00006d7c <mbedtls_mpi_sub_int>:
    6d7c:	b51f      	push	{r0, r1, r2, r3, r4, lr}
    6d7e:	ea82 73e2 	eor.w	r3, r2, r2, asr #31
    6d82:	2a00      	cmp	r2, #0
    6d84:	eba3 73e2 	sub.w	r3, r3, r2, asr #31
    6d88:	aa01      	add	r2, sp, #4
    6d8a:	9300      	str	r3, [sp, #0]
    6d8c:	bfb4      	ite	lt
    6d8e:	f04f 33ff 	movlt.w	r3, #4294967295	; 0xffffffff
    6d92:	2301      	movge	r3, #1
    6d94:	f8ad 3004 	strh.w	r3, [sp, #4]
    6d98:	2301      	movs	r3, #1
    6d9a:	f8cd d00c 	str.w	sp, [sp, #12]
    6d9e:	9302      	str	r3, [sp, #8]
    6da0:	f7ff ffb0 	bl	6d04 <mbedtls_mpi_sub_mpi>
    6da4:	b005      	add	sp, #20
    6da6:	f85d fb04 	ldr.w	pc, [sp], #4

00006daa <mbedtls_mpi_mul_mpi>:
    6daa:	e92d 4ff0 	stmdb	sp!, {r4, r5, r6, r7, r8, r9, sl, fp, lr}
    6dae:	b089      	sub	sp, #36	; 0x24
    6db0:	ab02      	add	r3, sp, #8
    6db2:	4606      	mov	r6, r0
    6db4:	f10d 0b14 	add.w	fp, sp, #20
    6db8:	4618      	mov	r0, r3
    6dba:	4689      	mov	r9, r1
    6dbc:	4690      	mov	r8, r2
    6dbe:	9301      	str	r3, [sp, #4]
    6dc0:	f7ff fa47 	bl	6252 <mbedtls_mpi_init_mempool>
    6dc4:	4658      	mov	r0, fp
    6dc6:	f7ff fa44 	bl	6252 <mbedtls_mpi_init_mempool>
    6dca:	454e      	cmp	r6, r9
    6dcc:	d107      	bne.n	6dde <mbedtls_mpi_mul_mpi+0x34>
    6dce:	4631      	mov	r1, r6
    6dd0:	9801      	ldr	r0, [sp, #4]
    6dd2:	f7ff fb23 	bl	641c <mbedtls_mpi_copy>
    6dd6:	4604      	mov	r4, r0
    6dd8:	bb98      	cbnz	r0, 6e42 <mbedtls_mpi_mul_mpi+0x98>
    6dda:	f8dd 9004 	ldr.w	r9, [sp, #4]
    6dde:	4546      	cmp	r6, r8
    6de0:	d106      	bne.n	6df0 <mbedtls_mpi_mul_mpi+0x46>
    6de2:	4631      	mov	r1, r6
    6de4:	4658      	mov	r0, fp
    6de6:	f7ff fb19 	bl	641c <mbedtls_mpi_copy>
    6dea:	4604      	mov	r4, r0
    6dec:	bb48      	cbnz	r0, 6e42 <mbedtls_mpi_mul_mpi+0x98>
    6dee:	46d8      	mov	r8, fp
    6df0:	f8d9 a004 	ldr.w	sl, [r9, #4]
    6df4:	f10a 4380 	add.w	r3, sl, #1073741824	; 0x40000000
    6df8:	3b01      	subs	r3, #1
    6dfa:	009b      	lsls	r3, r3, #2
    6dfc:	f1ba 0f00 	cmp.w	sl, #0
    6e00:	d129      	bne.n	6e56 <mbedtls_mpi_mul_mpi+0xac>
    6e02:	f8d8 5004 	ldr.w	r5, [r8, #4]
    6e06:	f105 4380 	add.w	r3, r5, #1073741824	; 0x40000000
    6e0a:	3b01      	subs	r3, #1
    6e0c:	009b      	lsls	r3, r3, #2
    6e0e:	bb5d      	cbnz	r5, 6e68 <mbedtls_mpi_mul_mpi+0xbe>
    6e10:	eb0a 0105 	add.w	r1, sl, r5
    6e14:	4630      	mov	r0, r6
    6e16:	f7ff fa51 	bl	62bc <mbedtls_mpi_grow>
    6e1a:	4604      	mov	r4, r0
    6e1c:	b988      	cbnz	r0, 6e42 <mbedtls_mpi_mul_mpi+0x98>
    6e1e:	4601      	mov	r1, r0
    6e20:	4630      	mov	r0, r6
    6e22:	f7ff fbbc 	bl	659e <mbedtls_mpi_lset>
    6e26:	4604      	mov	r4, r0
    6e28:	b958      	cbnz	r0, 6e42 <mbedtls_mpi_mul_mpi+0x98>
    6e2a:	f105 4780 	add.w	r7, r5, #1073741824	; 0x40000000
    6e2e:	3f01      	subs	r7, #1
    6e30:	00bf      	lsls	r7, r7, #2
    6e32:	bb0d      	cbnz	r5, 6e78 <mbedtls_mpi_mul_mpi+0xce>
    6e34:	f8b9 3000 	ldrh.w	r3, [r9]
    6e38:	f8b8 2000 	ldrh.w	r2, [r8]
    6e3c:	fb13 f302 	smulbb	r3, r3, r2
    6e40:	8033      	strh	r3, [r6, #0]
    6e42:	4658      	mov	r0, fp
    6e44:	f7ff fa18 	bl	6278 <mbedtls_mpi_free>
    6e48:	9801      	ldr	r0, [sp, #4]
    6e4a:	f7ff fa15 	bl	6278 <mbedtls_mpi_free>
    6e4e:	4620      	mov	r0, r4
    6e50:	b009      	add	sp, #36	; 0x24
    6e52:	e8bd 8ff0 	ldmia.w	sp!, {r4, r5, r6, r7, r8, r9, sl, fp, pc}
    6e56:	f8d9 2008 	ldr.w	r2, [r9, #8]
    6e5a:	58d2      	ldr	r2, [r2, r3]
    6e5c:	3b04      	subs	r3, #4
    6e5e:	2a00      	cmp	r2, #0
    6e60:	d1cf      	bne.n	6e02 <mbedtls_mpi_mul_mpi+0x58>
    6e62:	f10a 3aff 	add.w	sl, sl, #4294967295	; 0xffffffff
    6e66:	e7c9      	b.n	6dfc <mbedtls_mpi_mul_mpi+0x52>
    6e68:	f8d8 2008 	ldr.w	r2, [r8, #8]
    6e6c:	58d2      	ldr	r2, [r2, r3]
    6e6e:	3b04      	subs	r3, #4
    6e70:	2a00      	cmp	r2, #0
    6e72:	d1cd      	bne.n	6e10 <mbedtls_mpi_mul_mpi+0x66>
    6e74:	3d01      	subs	r5, #1
    6e76:	e7ca      	b.n	6e0e <mbedtls_mpi_mul_mpi+0x64>
    6e78:	68b2      	ldr	r2, [r6, #8]
    6e7a:	4650      	mov	r0, sl
    6e7c:	3d01      	subs	r5, #1
    6e7e:	f8d8 3008 	ldr.w	r3, [r8, #8]
    6e82:	f8d9 1008 	ldr.w	r1, [r9, #8]
    6e86:	443a      	add	r2, r7
    6e88:	59db      	ldr	r3, [r3, r7]
    6e8a:	3f04      	subs	r7, #4
    6e8c:	f7fe ff47 	bl	5d1e <mpi_mul_hlp>
    6e90:	e7cf      	b.n	6e32 <mbedtls_mpi_mul_mpi+0x88>

00006e92 <mbedtls_mpi_mul_int>:
    6e92:	b51f      	push	{r0, r1, r2, r3, r4, lr}
    6e94:	2301      	movs	r3, #1
    6e96:	9200      	str	r2, [sp, #0]
    6e98:	aa01      	add	r2, sp, #4
    6e9a:	f8ad 3004 	strh.w	r3, [sp, #4]
    6e9e:	9302      	str	r3, [sp, #8]
    6ea0:	f8cd d00c 	str.w	sp, [sp, #12]
    6ea4:	f7ff ff81 	bl	6daa <mbedtls_mpi_mul_mpi>
    6ea8:	b005      	add	sp, #20
    6eaa:	f85d fb04 	ldr.w	pc, [sp], #4

00006eae <mbedtls_mpi_read_string>:
    6eae:	1e8b      	subs	r3, r1, #2
    6eb0:	e92d 4ff0 	stmdb	sp!, {r4, r5, r6, r7, r8, r9, sl, fp, lr}
    6eb4:	2b0e      	cmp	r3, #14
    6eb6:	b087      	sub	sp, #28
    6eb8:	4605      	mov	r5, r0
    6eba:	4689      	mov	r9, r1
    6ebc:	4690      	mov	r8, r2
    6ebe:	d905      	bls.n	6ecc <mbedtls_mpi_read_string+0x1e>
    6ec0:	f06f 0a03 	mvn.w	sl, #3
    6ec4:	4650      	mov	r0, sl
    6ec6:	b007      	add	sp, #28
    6ec8:	e8bd 8ff0 	ldmia.w	sp!, {r4, r5, r6, r7, r8, r9, sl, fp, pc}
    6ecc:	ae03      	add	r6, sp, #12
    6ece:	4630      	mov	r0, r6
    6ed0:	f7ff f9bf 	bl	6252 <mbedtls_mpi_init_mempool>
    6ed4:	4640      	mov	r0, r8
    6ed6:	f002 f957 	bl	9188 <strlen>
    6eda:	f1b9 0f10 	cmp.w	r9, #16
    6ede:	4604      	mov	r4, r0
    6ee0:	d142      	bne.n	6f68 <mbedtls_mpi_read_string+0xba>
    6ee2:	f1b0 4f80 	cmp.w	r0, #1073741824	; 0x40000000
    6ee6:	d2eb      	bcs.n	6ec0 <mbedtls_mpi_read_string+0x12>
    6ee8:	0083      	lsls	r3, r0, #2
    6eea:	4628      	mov	r0, r5
    6eec:	f013 0f1c 	tst.w	r3, #28
    6ef0:	bf14      	ite	ne
    6ef2:	2101      	movne	r1, #1
    6ef4:	2100      	moveq	r1, #0
    6ef6:	eb01 1153 	add.w	r1, r1, r3, lsr #5
    6efa:	f7ff f9df 	bl	62bc <mbedtls_mpi_grow>
    6efe:	4682      	mov	sl, r0
    6f00:	b9a8      	cbnz	r0, 6f2e <mbedtls_mpi_read_string+0x80>
    6f02:	4601      	mov	r1, r0
    6f04:	4628      	mov	r0, r5
    6f06:	f7ff fb4a 	bl	659e <mbedtls_mpi_lset>
    6f0a:	4682      	mov	sl, r0
    6f0c:	b978      	cbnz	r0, 6f2e <mbedtls_mpi_read_string+0x80>
    6f0e:	4607      	mov	r7, r0
    6f10:	f10d 0908 	add.w	r9, sp, #8
    6f14:	b914      	cbnz	r4, 6f1c <mbedtls_mpi_read_string+0x6e>
    6f16:	f04f 0a00 	mov.w	sl, #0
    6f1a:	e008      	b.n	6f2e <mbedtls_mpi_read_string+0x80>
    6f1c:	2c01      	cmp	r4, #1
    6f1e:	d10a      	bne.n	6f36 <mbedtls_mpi_read_string+0x88>
    6f20:	f898 2000 	ldrb.w	r2, [r8]
    6f24:	2a2d      	cmp	r2, #45	; 0x2d
    6f26:	d106      	bne.n	6f36 <mbedtls_mpi_read_string+0x88>
    6f28:	f64f 72ff 	movw	r2, #65535	; 0xffff
    6f2c:	802a      	strh	r2, [r5, #0]
    6f2e:	4630      	mov	r0, r6
    6f30:	f7ff f9a2 	bl	6278 <mbedtls_mpi_free>
    6f34:	e7c6      	b.n	6ec4 <mbedtls_mpi_read_string+0x16>
    6f36:	3c01      	subs	r4, #1
    6f38:	2110      	movs	r1, #16
    6f3a:	f818 2004 	ldrb.w	r2, [r8, r4]
    6f3e:	4648      	mov	r0, r9
    6f40:	f7fe fea6 	bl	5c90 <mpi_get_digit>
    6f44:	2800      	cmp	r0, #0
    6f46:	d147      	bne.n	6fd8 <mbedtls_mpi_read_string+0x12a>
    6f48:	9a02      	ldr	r2, [sp, #8]
    6f4a:	00b9      	lsls	r1, r7, #2
    6f4c:	ea4f 0cd7 	mov.w	ip, r7, lsr #3
    6f50:	68a8      	ldr	r0, [r5, #8]
    6f52:	f001 011c 	and.w	r1, r1, #28
    6f56:	3701      	adds	r7, #1
    6f58:	fa02 f101 	lsl.w	r1, r2, r1
    6f5c:	f850 202c 	ldr.w	r2, [r0, ip, lsl #2]
    6f60:	430a      	orrs	r2, r1
    6f62:	f840 202c 	str.w	r2, [r0, ip, lsl #2]
    6f66:	e7d5      	b.n	6f14 <mbedtls_mpi_read_string+0x66>
    6f68:	2100      	movs	r1, #0
    6f6a:	4628      	mov	r0, r5
    6f6c:	f7ff fb17 	bl	659e <mbedtls_mpi_lset>
    6f70:	4682      	mov	sl, r0
    6f72:	2800      	cmp	r0, #0
    6f74:	d1db      	bne.n	6f2e <mbedtls_mpi_read_string+0x80>
    6f76:	ab02      	add	r3, sp, #8
    6f78:	4607      	mov	r7, r0
    6f7a:	f64f 7bff 	movw	fp, #65535	; 0xffff
    6f7e:	9301      	str	r3, [sp, #4]
    6f80:	42a7      	cmp	r7, r4
    6f82:	d0c8      	beq.n	6f16 <mbedtls_mpi_read_string+0x68>
    6f84:	b93f      	cbnz	r7, 6f96 <mbedtls_mpi_read_string+0xe8>
    6f86:	f898 3000 	ldrb.w	r3, [r8]
    6f8a:	2b2d      	cmp	r3, #45	; 0x2d
    6f8c:	d103      	bne.n	6f96 <mbedtls_mpi_read_string+0xe8>
    6f8e:	f8a5 b000 	strh.w	fp, [r5]
    6f92:	3701      	adds	r7, #1
    6f94:	e7f4      	b.n	6f80 <mbedtls_mpi_read_string+0xd2>
    6f96:	f818 2007 	ldrb.w	r2, [r8, r7]
    6f9a:	4649      	mov	r1, r9
    6f9c:	9801      	ldr	r0, [sp, #4]
    6f9e:	f7fe fe77 	bl	5c90 <mpi_get_digit>
    6fa2:	4682      	mov	sl, r0
    6fa4:	2800      	cmp	r0, #0
    6fa6:	d1c2      	bne.n	6f2e <mbedtls_mpi_read_string+0x80>
    6fa8:	464a      	mov	r2, r9
    6faa:	4629      	mov	r1, r5
    6fac:	4630      	mov	r0, r6
    6fae:	f7ff ff70 	bl	6e92 <mbedtls_mpi_mul_int>
    6fb2:	4682      	mov	sl, r0
    6fb4:	2800      	cmp	r0, #0
    6fb6:	d1ba      	bne.n	6f2e <mbedtls_mpi_read_string+0x80>
    6fb8:	f9b5 3000 	ldrsh.w	r3, [r5]
    6fbc:	4631      	mov	r1, r6
    6fbe:	4628      	mov	r0, r5
    6fc0:	9a02      	ldr	r2, [sp, #8]
    6fc2:	2b01      	cmp	r3, #1
    6fc4:	d105      	bne.n	6fd2 <mbedtls_mpi_read_string+0x124>
    6fc6:	f7ff fec2 	bl	6d4e <mbedtls_mpi_add_int>
    6fca:	4682      	mov	sl, r0
    6fcc:	2800      	cmp	r0, #0
    6fce:	d0e0      	beq.n	6f92 <mbedtls_mpi_read_string+0xe4>
    6fd0:	e7ad      	b.n	6f2e <mbedtls_mpi_read_string+0x80>
    6fd2:	f7ff fed3 	bl	6d7c <mbedtls_mpi_sub_int>
    6fd6:	e7f8      	b.n	6fca <mbedtls_mpi_read_string+0x11c>
    6fd8:	4682      	mov	sl, r0
    6fda:	e7a8      	b.n	6f2e <mbedtls_mpi_read_string+0x80>

00006fdc <mbedtls_mpi_div_mpi>:
    6fdc:	e92d 4ff0 	stmdb	sp!, {r4, r5, r6, r7, r8, r9, sl, fp, lr}
    6fe0:	b09f      	sub	sp, #124	; 0x7c
    6fe2:	4688      	mov	r8, r1
    6fe4:	2100      	movs	r1, #0
    6fe6:	9002      	str	r0, [sp, #8]
    6fe8:	4618      	mov	r0, r3
    6fea:	4691      	mov	r9, r2
    6fec:	9305      	str	r3, [sp, #20]
    6fee:	f7ff fdaf 	bl	6b50 <mbedtls_mpi_cmp_int>
    6ff2:	2800      	cmp	r0, #0
    6ff4:	f000 81b4 	beq.w	7360 <mbedtls_mpi_div_mpi+0x384>
    6ff8:	ae0c      	add	r6, sp, #48	; 0x30
    6ffa:	ad0f      	add	r5, sp, #60	; 0x3c
    6ffc:	4630      	mov	r0, r6
    6ffe:	af12      	add	r7, sp, #72	; 0x48
    7000:	f7ff f927 	bl	6252 <mbedtls_mpi_init_mempool>
    7004:	4628      	mov	r0, r5
    7006:	f10d 0b54 	add.w	fp, sp, #84	; 0x54
    700a:	f7ff f922 	bl	6252 <mbedtls_mpi_init_mempool>
    700e:	4638      	mov	r0, r7
    7010:	f04f 0a01 	mov.w	sl, #1
    7014:	f7ff f91d 	bl	6252 <mbedtls_mpi_init_mempool>
    7018:	4658      	mov	r0, fp
    701a:	f7ff f91a 	bl	6252 <mbedtls_mpi_init_mempool>
    701e:	2303      	movs	r3, #3
    7020:	4648      	mov	r0, r9
    7022:	9905      	ldr	r1, [sp, #20]
    7024:	f8ad a060 	strh.w	sl, [sp, #96]	; 0x60
    7028:	9319      	str	r3, [sp, #100]	; 0x64
    702a:	ab1b      	add	r3, sp, #108	; 0x6c
    702c:	931a      	str	r3, [sp, #104]	; 0x68
    702e:	f7ff fcad 	bl	698c <mbedtls_mpi_cmp_abs>
    7032:	2800      	cmp	r0, #0
    7034:	da29      	bge.n	708a <mbedtls_mpi_div_mpi+0xae>
    7036:	9b02      	ldr	r3, [sp, #8]
    7038:	b93b      	cbnz	r3, 704a <mbedtls_mpi_div_mpi+0x6e>
    703a:	f1b8 0f00 	cmp.w	r8, #0
    703e:	d11c      	bne.n	707a <mbedtls_mpi_div_mpi+0x9e>
    7040:	2400      	movs	r4, #0
    7042:	4620      	mov	r0, r4
    7044:	b01f      	add	sp, #124	; 0x7c
    7046:	e8bd 8ff0 	ldmia.w	sp!, {r4, r5, r6, r7, r8, r9, sl, fp, pc}
    704a:	2100      	movs	r1, #0
    704c:	9802      	ldr	r0, [sp, #8]
    704e:	f7ff faa6 	bl	659e <mbedtls_mpi_lset>
    7052:	4604      	mov	r4, r0
    7054:	2800      	cmp	r0, #0
    7056:	d0f0      	beq.n	703a <mbedtls_mpi_div_mpi+0x5e>
    7058:	a80c      	add	r0, sp, #48	; 0x30
    705a:	f7ff f90d 	bl	6278 <mbedtls_mpi_free>
    705e:	a80f      	add	r0, sp, #60	; 0x3c
    7060:	f7ff f90a 	bl	6278 <mbedtls_mpi_free>
    7064:	a812      	add	r0, sp, #72	; 0x48
    7066:	f7ff f907 	bl	6278 <mbedtls_mpi_free>
    706a:	a815      	add	r0, sp, #84	; 0x54
    706c:	f7ff f904 	bl	6278 <mbedtls_mpi_free>
    7070:	210c      	movs	r1, #12
    7072:	a81b      	add	r0, sp, #108	; 0x6c
    7074:	f001 fb48 	bl	8708 <mbedtls_platform_zeroize>
    7078:	e7e3      	b.n	7042 <mbedtls_mpi_div_mpi+0x66>
    707a:	4649      	mov	r1, r9
    707c:	4640      	mov	r0, r8
    707e:	f7ff f9cd 	bl	641c <mbedtls_mpi_copy>
    7082:	4604      	mov	r4, r0
    7084:	2800      	cmp	r0, #0
    7086:	d1e7      	bne.n	7058 <mbedtls_mpi_div_mpi+0x7c>
    7088:	e7da      	b.n	7040 <mbedtls_mpi_div_mpi+0x64>
    708a:	4649      	mov	r1, r9
    708c:	4630      	mov	r0, r6
    708e:	f7ff f9c5 	bl	641c <mbedtls_mpi_copy>
    7092:	4604      	mov	r4, r0
    7094:	2800      	cmp	r0, #0
    7096:	d1df      	bne.n	7058 <mbedtls_mpi_div_mpi+0x7c>
    7098:	4628      	mov	r0, r5
    709a:	9905      	ldr	r1, [sp, #20]
    709c:	f7ff f9be 	bl	641c <mbedtls_mpi_copy>
    70a0:	4604      	mov	r4, r0
    70a2:	2800      	cmp	r0, #0
    70a4:	d1d8      	bne.n	7058 <mbedtls_mpi_div_mpi+0x7c>
    70a6:	f8d9 1004 	ldr.w	r1, [r9, #4]
    70aa:	4638      	mov	r0, r7
    70ac:	f8ad a030 	strh.w	sl, [sp, #48]	; 0x30
    70b0:	f8ad a03c 	strh.w	sl, [sp, #60]	; 0x3c
    70b4:	3102      	adds	r1, #2
    70b6:	f7ff f901 	bl	62bc <mbedtls_mpi_grow>
    70ba:	4604      	mov	r4, r0
    70bc:	2800      	cmp	r0, #0
    70be:	d1cb      	bne.n	7058 <mbedtls_mpi_div_mpi+0x7c>
    70c0:	4601      	mov	r1, r0
    70c2:	4638      	mov	r0, r7
    70c4:	f7ff fa6b 	bl	659e <mbedtls_mpi_lset>
    70c8:	4604      	mov	r4, r0
    70ca:	2800      	cmp	r0, #0
    70cc:	d1c4      	bne.n	7058 <mbedtls_mpi_div_mpi+0x7c>
    70ce:	2102      	movs	r1, #2
    70d0:	4658      	mov	r0, fp
    70d2:	f7ff f8f3 	bl	62bc <mbedtls_mpi_grow>
    70d6:	4604      	mov	r4, r0
    70d8:	2800      	cmp	r0, #0
    70da:	d1bd      	bne.n	7058 <mbedtls_mpi_div_mpi+0x7c>
    70dc:	4628      	mov	r0, r5
    70de:	f7ff fac9 	bl	6674 <mbedtls_mpi_bitlen>
    70e2:	f000 001f 	and.w	r0, r0, #31
    70e6:	281f      	cmp	r0, #31
    70e8:	f000 8084 	beq.w	71f4 <mbedtls_mpi_div_mpi+0x218>
    70ec:	f1c0 031f 	rsb	r3, r0, #31
    70f0:	4630      	mov	r0, r6
    70f2:	4619      	mov	r1, r3
    70f4:	9303      	str	r3, [sp, #12]
    70f6:	f7ff fbbb 	bl	6870 <mbedtls_mpi_shift_l>
    70fa:	4604      	mov	r4, r0
    70fc:	2800      	cmp	r0, #0
    70fe:	d1ab      	bne.n	7058 <mbedtls_mpi_div_mpi+0x7c>
    7100:	4628      	mov	r0, r5
    7102:	9903      	ldr	r1, [sp, #12]
    7104:	f7ff fbb4 	bl	6870 <mbedtls_mpi_shift_l>
    7108:	4604      	mov	r4, r0
    710a:	2800      	cmp	r0, #0
    710c:	d1a4      	bne.n	7058 <mbedtls_mpi_div_mpi+0x7c>
    710e:	9e0d      	ldr	r6, [sp, #52]	; 0x34
    7110:	4628      	mov	r0, r5
    7112:	9f10      	ldr	r7, [sp, #64]	; 0x40
    7114:	1e73      	subs	r3, r6, #1
    7116:	9300      	str	r3, [sp, #0]
    7118:	1e7b      	subs	r3, r7, #1
    711a:	9301      	str	r3, [sp, #4]
    711c:	9b00      	ldr	r3, [sp, #0]
    711e:	9a01      	ldr	r2, [sp, #4]
    7120:	eba3 0b02 	sub.w	fp, r3, r2
    7124:	ea4f 134b 	mov.w	r3, fp, lsl #5
    7128:	4619      	mov	r1, r3
    712a:	9304      	str	r3, [sp, #16]
    712c:	f7ff fba0 	bl	6870 <mbedtls_mpi_shift_l>
    7130:	4604      	mov	r4, r0
    7132:	2800      	cmp	r0, #0
    7134:	d190      	bne.n	7058 <mbedtls_mpi_div_mpi+0x7c>
    7136:	ea4f 0b8b 	mov.w	fp, fp, lsl #2
    713a:	f10d 0a30 	add.w	sl, sp, #48	; 0x30
    713e:	4629      	mov	r1, r5
    7140:	4650      	mov	r0, sl
    7142:	f7ff fc5d 	bl	6a00 <mbedtls_mpi_cmp_mpi>
    7146:	2800      	cmp	r0, #0
    7148:	da56      	bge.n	71f8 <mbedtls_mpi_div_mpi+0x21c>
    714a:	4628      	mov	r0, r5
    714c:	9904      	ldr	r1, [sp, #16]
    714e:	f7ff fbda 	bl	6906 <mbedtls_mpi_shift_r>
    7152:	4604      	mov	r4, r0
    7154:	2800      	cmp	r0, #0
    7156:	f47f af7f 	bne.w	7058 <mbedtls_mpi_div_mpi+0x7c>
    715a:	9b01      	ldr	r3, [sp, #4]
    715c:	f106 4580 	add.w	r5, r6, #1073741824	; 0x40000000
    7160:	3d01      	subs	r5, #1
    7162:	1bed      	subs	r5, r5, r7
    7164:	00ad      	lsls	r5, r5, #2
    7166:	009b      	lsls	r3, r3, #2
    7168:	9308      	str	r3, [sp, #32]
    716a:	f107 4380 	add.w	r3, r7, #1073741824	; 0x40000000
    716e:	3b02      	subs	r3, #2
    7170:	009b      	lsls	r3, r3, #2
    7172:	9309      	str	r3, [sp, #36]	; 0x24
    7174:	f106 6300 	add.w	r3, r6, #134217728	; 0x8000000
    7178:	f106 4680 	add.w	r6, r6, #1073741824	; 0x40000000
    717c:	3b01      	subs	r3, #1
    717e:	3e02      	subs	r6, #2
    7180:	1bdf      	subs	r7, r3, r7
    7182:	00b6      	lsls	r6, r6, #2
    7184:	017b      	lsls	r3, r7, #5
    7186:	9304      	str	r3, [sp, #16]
    7188:	ab18      	add	r3, sp, #96	; 0x60
    718a:	930a      	str	r3, [sp, #40]	; 0x28
    718c:	9b00      	ldr	r3, [sp, #0]
    718e:	9a01      	ldr	r2, [sp, #4]
    7190:	4293      	cmp	r3, r2
    7192:	d840      	bhi.n	7216 <mbedtls_mpi_div_mpi+0x23a>
    7194:	9b02      	ldr	r3, [sp, #8]
    7196:	b163      	cbz	r3, 71b2 <mbedtls_mpi_div_mpi+0x1d6>
    7198:	a912      	add	r1, sp, #72	; 0x48
    719a:	4618      	mov	r0, r3
    719c:	f7ff f93e 	bl	641c <mbedtls_mpi_copy>
    71a0:	bb30      	cbnz	r0, 71f0 <mbedtls_mpi_div_mpi+0x214>
    71a2:	9a05      	ldr	r2, [sp, #20]
    71a4:	f8b9 3000 	ldrh.w	r3, [r9]
    71a8:	8812      	ldrh	r2, [r2, #0]
    71aa:	fb13 f302 	smulbb	r3, r3, r2
    71ae:	9a02      	ldr	r2, [sp, #8]
    71b0:	8013      	strh	r3, [r2, #0]
    71b2:	f1b8 0f00 	cmp.w	r8, #0
    71b6:	f43f af4f 	beq.w	7058 <mbedtls_mpi_div_mpi+0x7c>
    71ba:	ad0c      	add	r5, sp, #48	; 0x30
    71bc:	9903      	ldr	r1, [sp, #12]
    71be:	4628      	mov	r0, r5
    71c0:	f7ff fba1 	bl	6906 <mbedtls_mpi_shift_r>
    71c4:	b9a0      	cbnz	r0, 71f0 <mbedtls_mpi_div_mpi+0x214>
    71c6:	f8b9 3000 	ldrh.w	r3, [r9]
    71ca:	4629      	mov	r1, r5
    71cc:	4640      	mov	r0, r8
    71ce:	f8ad 3030 	strh.w	r3, [sp, #48]	; 0x30
    71d2:	f7ff f923 	bl	641c <mbedtls_mpi_copy>
    71d6:	4601      	mov	r1, r0
    71d8:	2800      	cmp	r0, #0
    71da:	f040 80bf 	bne.w	735c <mbedtls_mpi_div_mpi+0x380>
    71de:	4640      	mov	r0, r8
    71e0:	f7ff fcb6 	bl	6b50 <mbedtls_mpi_cmp_int>
    71e4:	2800      	cmp	r0, #0
    71e6:	f47f af37 	bne.w	7058 <mbedtls_mpi_div_mpi+0x7c>
    71ea:	2301      	movs	r3, #1
    71ec:	f8a8 3000 	strh.w	r3, [r8]
    71f0:	4604      	mov	r4, r0
    71f2:	e731      	b.n	7058 <mbedtls_mpi_div_mpi+0x7c>
    71f4:	9403      	str	r4, [sp, #12]
    71f6:	e78a      	b.n	710e <mbedtls_mpi_div_mpi+0x132>
    71f8:	9914      	ldr	r1, [sp, #80]	; 0x50
    71fa:	4650      	mov	r0, sl
    71fc:	f851 200b 	ldr.w	r2, [r1, fp]
    7200:	3201      	adds	r2, #1
    7202:	f841 200b 	str.w	r2, [r1, fp]
    7206:	462a      	mov	r2, r5
    7208:	4651      	mov	r1, sl
    720a:	f7ff fd7b 	bl	6d04 <mbedtls_mpi_sub_mpi>
    720e:	4604      	mov	r4, r0
    7210:	2800      	cmp	r0, #0
    7212:	d094      	beq.n	713e <mbedtls_mpi_div_mpi+0x162>
    7214:	e720      	b.n	7058 <mbedtls_mpi_div_mpi+0x7c>
    7216:	9908      	ldr	r1, [sp, #32]
    7218:	1d33      	adds	r3, r6, #4
    721a:	9f0e      	ldr	r7, [sp, #56]	; 0x38
    721c:	9a11      	ldr	r2, [sp, #68]	; 0x44
    721e:	930b      	str	r3, [sp, #44]	; 0x2c
    7220:	58fb      	ldr	r3, [r7, r3]
    7222:	5852      	ldr	r2, [r2, r1]
    7224:	9914      	ldr	r1, [sp, #80]	; 0x50
    7226:	4293      	cmp	r3, r2
    7228:	d379      	bcc.n	731e <mbedtls_mpi_div_mpi+0x342>
    722a:	f04f 33ff 	mov.w	r3, #4294967295	; 0xffffffff
    722e:	514b      	str	r3, [r1, r5]
    7230:	9a00      	ldr	r2, [sp, #0]
    7232:	9b1a      	ldr	r3, [sp, #104]	; 0x68
    7234:	2a01      	cmp	r2, #1
    7236:	bf16      	itet	ne
    7238:	19ba      	addne	r2, r7, r6
    723a:	2200      	moveq	r2, #0
    723c:	f852 2c04 	ldrne.w	r2, [r2, #-4]
    7240:	601a      	str	r2, [r3, #0]
    7242:	59ba      	ldr	r2, [r7, r6]
    7244:	605a      	str	r2, [r3, #4]
    7246:	1d32      	adds	r2, r6, #4
    7248:	58ba      	ldr	r2, [r7, r2]
    724a:	af15      	add	r7, sp, #84	; 0x54
    724c:	609a      	str	r2, [r3, #8]
    724e:	9a14      	ldr	r2, [sp, #80]	; 0x50
    7250:	5953      	ldr	r3, [r2, r5]
    7252:	3301      	adds	r3, #1
    7254:	5153      	str	r3, [r2, r5]
    7256:	9a14      	ldr	r2, [sp, #80]	; 0x50
    7258:	2100      	movs	r1, #0
    725a:	4638      	mov	r0, r7
    725c:	5953      	ldr	r3, [r2, r5]
    725e:	3b01      	subs	r3, #1
    7260:	5153      	str	r3, [r2, r5]
    7262:	f7ff f99c 	bl	659e <mbedtls_mpi_lset>
    7266:	2800      	cmp	r0, #0
    7268:	d1c2      	bne.n	71f0 <mbedtls_mpi_div_mpi+0x214>
    726a:	9901      	ldr	r1, [sp, #4]
    726c:	9a11      	ldr	r2, [sp, #68]	; 0x44
    726e:	9b17      	ldr	r3, [sp, #92]	; 0x5c
    7270:	2900      	cmp	r1, #0
    7272:	d071      	beq.n	7358 <mbedtls_mpi_div_mpi+0x37c>
    7274:	9909      	ldr	r1, [sp, #36]	; 0x24
    7276:	5851      	ldr	r1, [r2, r1]
    7278:	6019      	str	r1, [r3, #0]
    727a:	9908      	ldr	r1, [sp, #32]
    727c:	4638      	mov	r0, r7
    727e:	5852      	ldr	r2, [r2, r1]
    7280:	4639      	mov	r1, r7
    7282:	605a      	str	r2, [r3, #4]
    7284:	9b14      	ldr	r3, [sp, #80]	; 0x50
    7286:	595a      	ldr	r2, [r3, r5]
    7288:	f7ff fe03 	bl	6e92 <mbedtls_mpi_mul_int>
    728c:	2800      	cmp	r0, #0
    728e:	d1af      	bne.n	71f0 <mbedtls_mpi_div_mpi+0x214>
    7290:	4638      	mov	r0, r7
    7292:	990a      	ldr	r1, [sp, #40]	; 0x28
    7294:	f7ff fbb4 	bl	6a00 <mbedtls_mpi_cmp_mpi>
    7298:	2800      	cmp	r0, #0
    729a:	dcdc      	bgt.n	7256 <mbedtls_mpi_div_mpi+0x27a>
    729c:	9b14      	ldr	r3, [sp, #80]	; 0x50
    729e:	f10d 0b3c 	add.w	fp, sp, #60	; 0x3c
    72a2:	4638      	mov	r0, r7
    72a4:	4659      	mov	r1, fp
    72a6:	595a      	ldr	r2, [r3, r5]
    72a8:	f7ff fdf3 	bl	6e92 <mbedtls_mpi_mul_int>
    72ac:	2800      	cmp	r0, #0
    72ae:	d19f      	bne.n	71f0 <mbedtls_mpi_div_mpi+0x214>
    72b0:	4638      	mov	r0, r7
    72b2:	9904      	ldr	r1, [sp, #16]
    72b4:	f7ff fadc 	bl	6870 <mbedtls_mpi_shift_l>
    72b8:	2800      	cmp	r0, #0
    72ba:	d199      	bne.n	71f0 <mbedtls_mpi_div_mpi+0x214>
    72bc:	f10d 0a30 	add.w	sl, sp, #48	; 0x30
    72c0:	463a      	mov	r2, r7
    72c2:	4651      	mov	r1, sl
    72c4:	4650      	mov	r0, sl
    72c6:	f7ff fd1d 	bl	6d04 <mbedtls_mpi_sub_mpi>
    72ca:	4601      	mov	r1, r0
    72cc:	2800      	cmp	r0, #0
    72ce:	d145      	bne.n	735c <mbedtls_mpi_div_mpi+0x380>
    72d0:	4650      	mov	r0, sl
    72d2:	f7ff fc3d 	bl	6b50 <mbedtls_mpi_cmp_int>
    72d6:	2800      	cmp	r0, #0
    72d8:	da18      	bge.n	730c <mbedtls_mpi_div_mpi+0x330>
    72da:	4659      	mov	r1, fp
    72dc:	4638      	mov	r0, r7
    72de:	f7ff f89d 	bl	641c <mbedtls_mpi_copy>
    72e2:	2800      	cmp	r0, #0
    72e4:	d184      	bne.n	71f0 <mbedtls_mpi_div_mpi+0x214>
    72e6:	4638      	mov	r0, r7
    72e8:	9904      	ldr	r1, [sp, #16]
    72ea:	f7ff fac1 	bl	6870 <mbedtls_mpi_shift_l>
    72ee:	2800      	cmp	r0, #0
    72f0:	f47f af7e 	bne.w	71f0 <mbedtls_mpi_div_mpi+0x214>
    72f4:	463a      	mov	r2, r7
    72f6:	4651      	mov	r1, sl
    72f8:	4650      	mov	r0, sl
    72fa:	f7ff fcdf 	bl	6cbc <mbedtls_mpi_add_mpi>
    72fe:	2800      	cmp	r0, #0
    7300:	f47f af76 	bne.w	71f0 <mbedtls_mpi_div_mpi+0x214>
    7304:	9a14      	ldr	r2, [sp, #80]	; 0x50
    7306:	5953      	ldr	r3, [r2, r5]
    7308:	3b01      	subs	r3, #1
    730a:	5153      	str	r3, [r2, r5]
    730c:	9b00      	ldr	r3, [sp, #0]
    730e:	3d04      	subs	r5, #4
    7310:	3e04      	subs	r6, #4
    7312:	3b01      	subs	r3, #1
    7314:	9300      	str	r3, [sp, #0]
    7316:	9b04      	ldr	r3, [sp, #16]
    7318:	3b20      	subs	r3, #32
    731a:	9304      	str	r3, [sp, #16]
    731c:	e736      	b.n	718c <mbedtls_mpi_div_mpi+0x1b0>
    731e:	eb01 0a05 	add.w	sl, r1, r5
    7322:	59b8      	ldr	r0, [r7, r6]
    7324:	b1aa      	cbz	r2, 7352 <mbedtls_mpi_div_mpi+0x376>
    7326:	9307      	str	r3, [sp, #28]
    7328:	2300      	movs	r3, #0
    732a:	9306      	str	r3, [sp, #24]
    732c:	e9dd bc06 	ldrd	fp, ip, [sp, #24]
    7330:	ea4b 0b00 	orr.w	fp, fp, r0
    7334:	4658      	mov	r0, fp
    7336:	4661      	mov	r1, ip
    7338:	f7f9 ed0e 	blx	d58 <__aeabi_uldivmod>
    733c:	2300      	movs	r3, #0
    733e:	f04f 32ff 	mov.w	r2, #4294967295	; 0xffffffff
    7342:	428b      	cmp	r3, r1
    7344:	bf08      	it	eq
    7346:	4282      	cmpeq	r2, r0
    7348:	d200      	bcs.n	734c <mbedtls_mpi_div_mpi+0x370>
    734a:	4610      	mov	r0, r2
    734c:	f8ca 0000 	str.w	r0, [sl]
    7350:	e76e      	b.n	7230 <mbedtls_mpi_div_mpi+0x254>
    7352:	f04f 30ff 	mov.w	r0, #4294967295	; 0xffffffff
    7356:	e7f9      	b.n	734c <mbedtls_mpi_div_mpi+0x370>
    7358:	9901      	ldr	r1, [sp, #4]
    735a:	e78d      	b.n	7278 <mbedtls_mpi_div_mpi+0x29c>
    735c:	460c      	mov	r4, r1
    735e:	e67b      	b.n	7058 <mbedtls_mpi_div_mpi+0x7c>
    7360:	f06f 040b 	mvn.w	r4, #11
    7364:	e66d      	b.n	7042 <mbedtls_mpi_div_mpi+0x66>

00007366 <mbedtls_mpi_div_int>:
    7366:	b51f      	push	{r0, r1, r2, r3, r4, lr}
    7368:	ea83 74e3 	eor.w	r4, r3, r3, asr #31
    736c:	2b00      	cmp	r3, #0
    736e:	eba4 74e3 	sub.w	r4, r4, r3, asr #31
    7372:	bfb4      	ite	lt
    7374:	f04f 33ff 	movlt.w	r3, #4294967295	; 0xffffffff
    7378:	2301      	movge	r3, #1
    737a:	9400      	str	r4, [sp, #0]
    737c:	f8ad 3004 	strh.w	r3, [sp, #4]
    7380:	2301      	movs	r3, #1
    7382:	9302      	str	r3, [sp, #8]
    7384:	ab01      	add	r3, sp, #4
    7386:	f8cd d00c 	str.w	sp, [sp, #12]
    738a:	f7ff fe27 	bl	6fdc <mbedtls_mpi_div_mpi>
    738e:	b004      	add	sp, #16
    7390:	bd10      	pop	{r4, pc}

00007392 <mbedtls_mpi_mod_mpi>:
    7392:	b570      	push	{r4, r5, r6, lr}
    7394:	4604      	mov	r4, r0
    7396:	460d      	mov	r5, r1
    7398:	4610      	mov	r0, r2
    739a:	2100      	movs	r1, #0
    739c:	4616      	mov	r6, r2
    739e:	f7ff fbd7 	bl	6b50 <mbedtls_mpi_cmp_int>
    73a2:	2800      	cmp	r0, #0
    73a4:	db24      	blt.n	73f0 <mbedtls_mpi_mod_mpi+0x5e>
    73a6:	462a      	mov	r2, r5
    73a8:	4633      	mov	r3, r6
    73aa:	4621      	mov	r1, r4
    73ac:	2000      	movs	r0, #0
    73ae:	f7ff fe15 	bl	6fdc <mbedtls_mpi_div_mpi>
    73b2:	4605      	mov	r5, r0
    73b4:	b138      	cbz	r0, 73c6 <mbedtls_mpi_mod_mpi+0x34>
    73b6:	4628      	mov	r0, r5
    73b8:	bd70      	pop	{r4, r5, r6, pc}
    73ba:	4632      	mov	r2, r6
    73bc:	4621      	mov	r1, r4
    73be:	4620      	mov	r0, r4
    73c0:	f7ff fc7c 	bl	6cbc <mbedtls_mpi_add_mpi>
    73c4:	b990      	cbnz	r0, 73ec <mbedtls_mpi_mod_mpi+0x5a>
    73c6:	2100      	movs	r1, #0
    73c8:	4620      	mov	r0, r4
    73ca:	f7ff fbc1 	bl	6b50 <mbedtls_mpi_cmp_int>
    73ce:	2800      	cmp	r0, #0
    73d0:	dbf3      	blt.n	73ba <mbedtls_mpi_mod_mpi+0x28>
    73d2:	4631      	mov	r1, r6
    73d4:	4620      	mov	r0, r4
    73d6:	f7ff fb13 	bl	6a00 <mbedtls_mpi_cmp_mpi>
    73da:	2800      	cmp	r0, #0
    73dc:	dbeb      	blt.n	73b6 <mbedtls_mpi_mod_mpi+0x24>
    73de:	4632      	mov	r2, r6
    73e0:	4621      	mov	r1, r4
    73e2:	4620      	mov	r0, r4
    73e4:	f7ff fc8e 	bl	6d04 <mbedtls_mpi_sub_mpi>
    73e8:	2800      	cmp	r0, #0
    73ea:	d0f2      	beq.n	73d2 <mbedtls_mpi_mod_mpi+0x40>
    73ec:	4605      	mov	r5, r0
    73ee:	e7e2      	b.n	73b6 <mbedtls_mpi_mod_mpi+0x24>
    73f0:	f06f 0509 	mvn.w	r5, #9
    73f4:	e7df      	b.n	73b6 <mbedtls_mpi_mod_mpi+0x24>

000073f6 <mbedtls_mpi_mod_int>:
    73f6:	2a00      	cmp	r2, #0
    73f8:	b5f0      	push	{r4, r5, r6, r7, lr}
    73fa:	d02f      	beq.n	745c <mbedtls_mpi_mod_int+0x66>
    73fc:	db31      	blt.n	7462 <mbedtls_mpi_mod_int+0x6c>
    73fe:	2a01      	cmp	r2, #1
    7400:	d103      	bne.n	740a <mbedtls_mpi_mod_int+0x14>
    7402:	2300      	movs	r3, #0
    7404:	6003      	str	r3, [r0, #0]
    7406:	2000      	movs	r0, #0
    7408:	bdf0      	pop	{r4, r5, r6, r7, pc}
    740a:	2a02      	cmp	r2, #2
    740c:	d104      	bne.n	7418 <mbedtls_mpi_mod_int+0x22>
    740e:	688b      	ldr	r3, [r1, #8]
    7410:	681b      	ldr	r3, [r3, #0]
    7412:	f003 0301 	and.w	r3, r3, #1
    7416:	e7f5      	b.n	7404 <mbedtls_mpi_mod_int+0xe>
    7418:	684f      	ldr	r7, [r1, #4]
    741a:	2300      	movs	r3, #0
    741c:	f107 4480 	add.w	r4, r7, #1073741824	; 0x40000000
    7420:	3c01      	subs	r4, #1
    7422:	00a4      	lsls	r4, r4, #2
    7424:	b93f      	cbnz	r7, 7436 <mbedtls_mpi_mod_int+0x40>
    7426:	f9b1 1000 	ldrsh.w	r1, [r1]
    742a:	2900      	cmp	r1, #0
    742c:	daea      	bge.n	7404 <mbedtls_mpi_mod_int+0xe>
    742e:	2b00      	cmp	r3, #0
    7430:	d0e8      	beq.n	7404 <mbedtls_mpi_mod_int+0xe>
    7432:	1ad3      	subs	r3, r2, r3
    7434:	e7e6      	b.n	7404 <mbedtls_mpi_mod_int+0xe>
    7436:	688d      	ldr	r5, [r1, #8]
    7438:	3f01      	subs	r7, #1
    743a:	592e      	ldr	r6, [r5, r4]
    743c:	3c04      	subs	r4, #4
    743e:	0c35      	lsrs	r5, r6, #16
    7440:	ea45 4303 	orr.w	r3, r5, r3, lsl #16
    7444:	fbb3 f5f2 	udiv	r5, r3, r2
    7448:	fb02 3315 	mls	r3, r2, r5, r3
    744c:	b2b5      	uxth	r5, r6
    744e:	ea45 4503 	orr.w	r5, r5, r3, lsl #16
    7452:	fbb5 f3f2 	udiv	r3, r5, r2
    7456:	fb02 5313 	mls	r3, r2, r3, r5
    745a:	e7e3      	b.n	7424 <mbedtls_mpi_mod_int+0x2e>
    745c:	f06f 000b 	mvn.w	r0, #11
    7460:	bdf0      	pop	{r4, r5, r6, r7, pc}
    7462:	f06f 0009 	mvn.w	r0, #9
    7466:	bdf0      	pop	{r4, r5, r6, r7, pc}

00007468 <mbedtls_mpi_write_string>:
    7468:	e92d 4ff0 	stmdb	sp!, {r4, r5, r6, r7, r8, r9, sl, fp, lr}
    746c:	4699      	mov	r9, r3
    746e:	1e8b      	subs	r3, r1, #2
    7470:	b087      	sub	sp, #28
    7472:	2b0e      	cmp	r3, #14
    7474:	4605      	mov	r5, r0
    7476:	460f      	mov	r7, r1
    7478:	4692      	mov	sl, r2
    747a:	f200 80a5 	bhi.w	75c8 <mbedtls_mpi_write_string+0x160>
    747e:	f7ff f8f9 	bl	6674 <mbedtls_mpi_bitlen>
    7482:	2f03      	cmp	r7, #3
    7484:	dd03      	ble.n	748e <mbedtls_mpi_write_string+0x26>
    7486:	2f10      	cmp	r7, #16
    7488:	bf14      	ite	ne
    748a:	0840      	lsrne	r0, r0, #1
    748c:	0880      	lsreq	r0, r0, #2
    748e:	3004      	adds	r0, #4
    7490:	f020 0001 	bic.w	r0, r0, #1
    7494:	4548      	cmp	r0, r9
    7496:	d907      	bls.n	74a8 <mbedtls_mpi_write_string+0x40>
    7498:	9b10      	ldr	r3, [sp, #64]	; 0x40
    749a:	f06f 0107 	mvn.w	r1, #7
    749e:	6018      	str	r0, [r3, #0]
    74a0:	4608      	mov	r0, r1
    74a2:	b007      	add	sp, #28
    74a4:	e8bd 8ff0 	ldmia.w	sp!, {r4, r5, r6, r7, r8, r9, sl, fp, pc}
    74a8:	ae03      	add	r6, sp, #12
    74aa:	4630      	mov	r0, r6
    74ac:	f7fe fed1 	bl	6252 <mbedtls_mpi_init_mempool>
    74b0:	f9b5 3000 	ldrsh.w	r3, [r5]
    74b4:	3301      	adds	r3, #1
    74b6:	bf03      	ittte	eq
    74b8:	232d      	moveq	r3, #45	; 0x2d
    74ba:	f10a 0401 	addeq.w	r4, sl, #1
    74be:	f109 39ff 	addeq.w	r9, r9, #4294967295	; 0xffffffff
    74c2:	4654      	movne	r4, sl
    74c4:	bf08      	it	eq
    74c6:	f88a 3000 	strbeq.w	r3, [sl]
    74ca:	2f10      	cmp	r7, #16
    74cc:	d13d      	bne.n	754a <mbedtls_mpi_write_string+0xe2>
    74ce:	686b      	ldr	r3, [r5, #4]
    74d0:	f04f 0800 	mov.w	r8, #0
    74d4:	f8df e0fc 	ldr.w	lr, [pc, #252]	; 75d4 <mbedtls_mpi_write_string+0x16c>
    74d8:	1d19      	adds	r1, r3, #4
    74da:	f103 4380 	add.w	r3, r3, #1073741824	; 0x40000000
    74de:	3b01      	subs	r3, #1
    74e0:	44fe      	add	lr, pc
    74e2:	009b      	lsls	r3, r3, #2
    74e4:	2904      	cmp	r1, #4
    74e6:	d10c      	bne.n	7502 <mbedtls_mpi_write_string+0x9a>
    74e8:	2100      	movs	r1, #0
    74ea:	9b10      	ldr	r3, [sp, #64]	; 0x40
    74ec:	f804 1b01 	strb.w	r1, [r4], #1
    74f0:	eba4 040a 	sub.w	r4, r4, sl
    74f4:	601c      	str	r4, [r3, #0]
    74f6:	4630      	mov	r0, r6
    74f8:	9101      	str	r1, [sp, #4]
    74fa:	f7fe febd 	bl	6278 <mbedtls_mpi_free>
    74fe:	9901      	ldr	r1, [sp, #4]
    7500:	e7ce      	b.n	74a0 <mbedtls_mpi_write_string+0x38>
    7502:	460f      	mov	r7, r1
    7504:	2018      	movs	r0, #24
    7506:	68aa      	ldr	r2, [r5, #8]
    7508:	58d2      	ldr	r2, [r2, r3]
    750a:	40c2      	lsrs	r2, r0
    750c:	f012 0cff 	ands.w	ip, r2, #255	; 0xff
    7510:	d104      	bne.n	751c <mbedtls_mpi_write_string+0xb4>
    7512:	f1b8 0f00 	cmp.w	r8, #0
    7516:	d101      	bne.n	751c <mbedtls_mpi_write_string+0xb4>
    7518:	2f02      	cmp	r7, #2
    751a:	d10e      	bne.n	753a <mbedtls_mpi_write_string+0xd2>
    751c:	ea4f 1c2c 	mov.w	ip, ip, asr #4
    7520:	f002 020f 	and.w	r2, r2, #15
    7524:	f81e 2002 	ldrb.w	r2, [lr, r2]
    7528:	f81e 800c 	ldrb.w	r8, [lr, ip]
    752c:	46a4      	mov	ip, r4
    752e:	f80c 8b02 	strb.w	r8, [ip], #2
    7532:	f04f 0801 	mov.w	r8, #1
    7536:	7062      	strb	r2, [r4, #1]
    7538:	4664      	mov	r4, ip
    753a:	3808      	subs	r0, #8
    753c:	3f01      	subs	r7, #1
    753e:	f110 0f08 	cmn.w	r0, #8
    7542:	d1e0      	bne.n	7506 <mbedtls_mpi_write_string+0x9e>
    7544:	3901      	subs	r1, #1
    7546:	3b04      	subs	r3, #4
    7548:	e7cc      	b.n	74e4 <mbedtls_mpi_write_string+0x7c>
    754a:	4629      	mov	r1, r5
    754c:	4630      	mov	r0, r6
    754e:	f7fe ff65 	bl	641c <mbedtls_mpi_copy>
    7552:	4601      	mov	r1, r0
    7554:	2800      	cmp	r0, #0
    7556:	d1ce      	bne.n	74f6 <mbedtls_mpi_write_string+0x8e>
    7558:	f9bd 300c 	ldrsh.w	r3, [sp, #12]
    755c:	f109 35ff 	add.w	r5, r9, #4294967295	; 0xffffffff
    7560:	f04f 0800 	mov.w	r8, #0
    7564:	4425      	add	r5, r4
    7566:	f10d 0b08 	add.w	fp, sp, #8
    756a:	3301      	adds	r3, #1
    756c:	bf04      	itt	eq
    756e:	2301      	moveq	r3, #1
    7570:	f8ad 300c 	strheq.w	r3, [sp, #12]
    7574:	45c1      	cmp	r9, r8
    7576:	d02a      	beq.n	75ce <mbedtls_mpi_write_string+0x166>
    7578:	4631      	mov	r1, r6
    757a:	463a      	mov	r2, r7
    757c:	4658      	mov	r0, fp
    757e:	f7ff ff3a 	bl	73f6 <mbedtls_mpi_mod_int>
    7582:	4601      	mov	r1, r0
    7584:	2800      	cmp	r0, #0
    7586:	d1b6      	bne.n	74f6 <mbedtls_mpi_write_string+0x8e>
    7588:	463b      	mov	r3, r7
    758a:	4632      	mov	r2, r6
    758c:	4630      	mov	r0, r6
    758e:	f7ff feea 	bl	7366 <mbedtls_mpi_div_int>
    7592:	4601      	mov	r1, r0
    7594:	2800      	cmp	r0, #0
    7596:	d1ae      	bne.n	74f6 <mbedtls_mpi_write_string+0x8e>
    7598:	9a02      	ldr	r2, [sp, #8]
    759a:	2100      	movs	r1, #0
    759c:	4630      	mov	r0, r6
    759e:	f108 0801 	add.w	r8, r8, #1
    75a2:	2a09      	cmp	r2, #9
    75a4:	bf94      	ite	ls
    75a6:	3230      	addls	r2, #48	; 0x30
    75a8:	3237      	addhi	r2, #55	; 0x37
    75aa:	702a      	strb	r2, [r5, #0]
    75ac:	9501      	str	r5, [sp, #4]
    75ae:	3d01      	subs	r5, #1
    75b0:	f7ff face 	bl	6b50 <mbedtls_mpi_cmp_int>
    75b4:	9b01      	ldr	r3, [sp, #4]
    75b6:	2800      	cmp	r0, #0
    75b8:	d1dc      	bne.n	7574 <mbedtls_mpi_write_string+0x10c>
    75ba:	4620      	mov	r0, r4
    75bc:	4642      	mov	r2, r8
    75be:	4619      	mov	r1, r3
    75c0:	4444      	add	r4, r8
    75c2:	f001 feaf 	bl	9324 <memmove>
    75c6:	e78f      	b.n	74e8 <mbedtls_mpi_write_string+0x80>
    75c8:	f06f 0103 	mvn.w	r1, #3
    75cc:	e768      	b.n	74a0 <mbedtls_mpi_write_string+0x38>
    75ce:	f06f 0107 	mvn.w	r1, #7
    75d2:	e790      	b.n	74f6 <mbedtls_mpi_write_string+0x8e>
    75d4:	00002a24 	.word	0x00002a24

000075d8 <mpi_check_small_factors>:
    75d8:	6883      	ldr	r3, [r0, #8]
    75da:	b5f7      	push	{r0, r1, r2, r4, r5, r6, r7, lr}
    75dc:	4606      	mov	r6, r0
    75de:	681b      	ldr	r3, [r3, #0]
    75e0:	07db      	lsls	r3, r3, #31
    75e2:	d518      	bpl.n	7616 <mpi_check_small_factors+0x3e>
    75e4:	4c0f      	ldr	r4, [pc, #60]	; (7624 <mpi_check_small_factors+0x4c>)
    75e6:	af01      	add	r7, sp, #4
    75e8:	447c      	add	r4, pc
    75ea:	3c04      	subs	r4, #4
    75ec:	f854 5f04 	ldr.w	r5, [r4, #4]!
    75f0:	2d00      	cmp	r5, #0
    75f2:	dc01      	bgt.n	75f8 <mpi_check_small_factors+0x20>
    75f4:	2000      	movs	r0, #0
    75f6:	e010      	b.n	761a <mpi_check_small_factors+0x42>
    75f8:	4629      	mov	r1, r5
    75fa:	4630      	mov	r0, r6
    75fc:	f7ff faa8 	bl	6b50 <mbedtls_mpi_cmp_int>
    7600:	2800      	cmp	r0, #0
    7602:	dd0c      	ble.n	761e <mpi_check_small_factors+0x46>
    7604:	462a      	mov	r2, r5
    7606:	4631      	mov	r1, r6
    7608:	4638      	mov	r0, r7
    760a:	f7ff fef4 	bl	73f6 <mbedtls_mpi_mod_int>
    760e:	b920      	cbnz	r0, 761a <mpi_check_small_factors+0x42>
    7610:	9b01      	ldr	r3, [sp, #4]
    7612:	2b00      	cmp	r3, #0
    7614:	d1ea      	bne.n	75ec <mpi_check_small_factors+0x14>
    7616:	f06f 000d 	mvn.w	r0, #13
    761a:	b003      	add	sp, #12
    761c:	bdf0      	pop	{r4, r5, r6, r7, pc}
    761e:	2001      	movs	r0, #1
    7620:	e7fb      	b.n	761a <mpi_check_small_factors+0x42>
    7622:	bf00      	nop
    7624:	00001e94 	.word	0x00001e94

00007628 <mbedtls_mpi_montg_init>:
    7628:	688b      	ldr	r3, [r1, #8]
    762a:	2203      	movs	r2, #3
    762c:	b510      	push	{r4, lr}
    762e:	681c      	ldr	r4, [r3, #0]
    7630:	1ca3      	adds	r3, r4, #2
    7632:	005b      	lsls	r3, r3, #1
    7634:	f003 0308 	and.w	r3, r3, #8
    7638:	4423      	add	r3, r4
    763a:	fb03 f104 	mul.w	r1, r3, r4
    763e:	3a01      	subs	r2, #1
    7640:	f1c1 0102 	rsb	r1, r1, #2
    7644:	fb01 f303 	mul.w	r3, r1, r3
    7648:	d1f7      	bne.n	763a <mbedtls_mpi_montg_init+0x12>
    764a:	425b      	negs	r3, r3
    764c:	6003      	str	r3, [r0, #0]
    764e:	bd10      	pop	{r4, pc}

00007650 <mbedtls_mpi_montmul>:
    7650:	e92d 4ff0 	stmdb	sp!, {r4, r5, r6, r7, r8, r9, sl, fp, lr}
    7654:	b085      	sub	sp, #20
    7656:	4616      	mov	r6, r2
    7658:	4681      	mov	r9, r0
    765a:	9303      	str	r3, [sp, #12]
    765c:	9b0e      	ldr	r3, [sp, #56]	; 0x38
    765e:	468b      	mov	fp, r1
    7660:	685a      	ldr	r2, [r3, #4]
    7662:	6873      	ldr	r3, [r6, #4]
    7664:	3301      	adds	r3, #1
    7666:	429a      	cmp	r2, r3
    7668:	d353      	bcc.n	7712 <mbedtls_mpi_montmul+0xc2>
    766a:	9b0e      	ldr	r3, [sp, #56]	; 0x38
    766c:	6898      	ldr	r0, [r3, #8]
    766e:	2800      	cmp	r0, #0
    7670:	d04f      	beq.n	7712 <mbedtls_mpi_montmul+0xc2>
    7672:	0092      	lsls	r2, r2, #2
    7674:	2100      	movs	r1, #0
    7676:	2400      	movs	r4, #0
    7678:	f001 fd6d 	bl	9156 <memset>
    767c:	9b0e      	ldr	r3, [sp, #56]	; 0x38
    767e:	f8d6 a004 	ldr.w	sl, [r6, #4]
    7682:	689b      	ldr	r3, [r3, #8]
    7684:	f10a 0701 	add.w	r7, sl, #1
    7688:	00bf      	lsls	r7, r7, #2
    768a:	9300      	str	r3, [sp, #0]
    768c:	f8db 3004 	ldr.w	r3, [fp, #4]
    7690:	9d00      	ldr	r5, [sp, #0]
    7692:	4553      	cmp	r3, sl
    7694:	bf28      	it	cs
    7696:	4653      	movcs	r3, sl
    7698:	9301      	str	r3, [sp, #4]
    769a:	4554      	cmp	r4, sl
    769c:	f8d9 0008 	ldr.w	r0, [r9, #8]
    76a0:	d11b      	bne.n	76da <mbedtls_mpi_montmul+0x8a>
    76a2:	9b00      	ldr	r3, [sp, #0]
    76a4:	1f39      	subs	r1, r7, #4
    76a6:	463a      	mov	r2, r7
    76a8:	440b      	add	r3, r1
    76aa:	4619      	mov	r1, r3
    76ac:	f7f8 fe4c 	bl	348 <memcpy>
    76b0:	4631      	mov	r1, r6
    76b2:	4648      	mov	r0, r9
    76b4:	f7ff f96a 	bl	698c <mbedtls_mpi_cmp_abs>
    76b8:	2800      	cmp	r0, #0
    76ba:	4620      	mov	r0, r4
    76bc:	bfb3      	iteet	lt
    76be:	9b0e      	ldrlt	r3, [sp, #56]	; 0x38
    76c0:	68b1      	ldrge	r1, [r6, #8]
    76c2:	f8d9 2008 	ldrge.w	r2, [r9, #8]
    76c6:	f8d9 1008 	ldrlt.w	r1, [r9, #8]
    76ca:	bfb8      	it	lt
    76cc:	689a      	ldrlt	r2, [r3, #8]
    76ce:	f7fe fafb 	bl	5cc8 <mpi_sub_hlp>
    76d2:	2000      	movs	r0, #0
    76d4:	b005      	add	sp, #20
    76d6:	e8bd 8ff0 	ldmia.w	sp!, {r4, r5, r6, r7, r8, r9, sl, fp, pc}
    76da:	f8db 1008 	ldr.w	r1, [fp, #8]
    76de:	f850 8024 	ldr.w	r8, [r0, r4, lsl #2]
    76e2:	3401      	adds	r4, #1
    76e4:	682a      	ldr	r2, [r5, #0]
    76e6:	9801      	ldr	r0, [sp, #4]
    76e8:	680b      	ldr	r3, [r1, #0]
    76ea:	fb03 2308 	mla	r3, r3, r8, r2
    76ee:	9a03      	ldr	r2, [sp, #12]
    76f0:	4353      	muls	r3, r2
    76f2:	462a      	mov	r2, r5
    76f4:	9302      	str	r3, [sp, #8]
    76f6:	4643      	mov	r3, r8
    76f8:	f7fe fb11 	bl	5d1e <mpi_mul_hlp>
    76fc:	462a      	mov	r2, r5
    76fe:	9b02      	ldr	r3, [sp, #8]
    7700:	4650      	mov	r0, sl
    7702:	68b1      	ldr	r1, [r6, #8]
    7704:	f7fe fb0b 	bl	5d1e <mpi_mul_hlp>
    7708:	2300      	movs	r3, #0
    770a:	f845 8b04 	str.w	r8, [r5], #4
    770e:	51eb      	str	r3, [r5, r7]
    7710:	e7c3      	b.n	769a <mbedtls_mpi_montmul+0x4a>
    7712:	f06f 0003 	mvn.w	r0, #3
    7716:	e7dd      	b.n	76d4 <mbedtls_mpi_montmul+0x84>

00007718 <mbedtls_mpi_montred>:
    7718:	b510      	push	{r4, lr}
    771a:	2401      	movs	r4, #1
    771c:	b086      	sub	sp, #24
    771e:	9300      	str	r3, [sp, #0]
    7720:	4613      	mov	r3, r2
    7722:	460a      	mov	r2, r1
    7724:	9402      	str	r4, [sp, #8]
    7726:	a903      	add	r1, sp, #12
    7728:	f8ad 400c 	strh.w	r4, [sp, #12]
    772c:	9404      	str	r4, [sp, #16]
    772e:	ac02      	add	r4, sp, #8
    7730:	9405      	str	r4, [sp, #20]
    7732:	f7ff ff8d 	bl	7650 <mbedtls_mpi_montmul>
    7736:	b006      	add	sp, #24
    7738:	bd10      	pop	{r4, pc}

0000773a <mbedtls_mpi_exp_mod>:
    773a:	e92d 4ff0 	stmdb	sp!, {r4, r5, r6, r7, r8, r9, sl, fp, lr}
    773e:	b095      	sub	sp, #84	; 0x54
    7740:	4606      	mov	r6, r0
    7742:	460f      	mov	r7, r1
    7744:	f8df b444 	ldr.w	fp, [pc, #1092]	; 7b8c <mbedtls_mpi_exp_mod+0x452>
    7748:	2100      	movs	r1, #0
    774a:	4618      	mov	r0, r3
    774c:	9204      	str	r2, [sp, #16]
    774e:	461c      	mov	r4, r3
    7750:	f7ff f9fe 	bl	6b50 <mbedtls_mpi_cmp_int>
    7754:	2800      	cmp	r0, #0
    7756:	44fb      	add	fp, pc
    7758:	dc05      	bgt.n	7766 <mbedtls_mpi_exp_mod+0x2c>
    775a:	f06f 0303 	mvn.w	r3, #3
    775e:	4618      	mov	r0, r3
    7760:	b015      	add	sp, #84	; 0x54
    7762:	e8bd 8ff0 	ldmia.w	sp!, {r4, r5, r6, r7, r8, r9, sl, fp, pc}
    7766:	68a3      	ldr	r3, [r4, #8]
    7768:	681b      	ldr	r3, [r3, #0]
    776a:	07d8      	lsls	r0, r3, #31
    776c:	d5f5      	bpl.n	775a <mbedtls_mpi_exp_mod+0x20>
    776e:	2100      	movs	r1, #0
    7770:	9804      	ldr	r0, [sp, #16]
    7772:	f7ff f9ed 	bl	6b50 <mbedtls_mpi_cmp_int>
    7776:	2800      	cmp	r0, #0
    7778:	dbef      	blt.n	775a <mbedtls_mpi_exp_mod+0x20>
    777a:	4621      	mov	r1, r4
    777c:	a80a      	add	r0, sp, #40	; 0x28
    777e:	ad0b      	add	r5, sp, #44	; 0x2c
    7780:	f10d 0a38 	add.w	sl, sp, #56	; 0x38
    7784:	f7ff ff50 	bl	7628 <mbedtls_mpi_montg_init>
    7788:	4628      	mov	r0, r5
    778a:	f10d 0944 	add.w	r9, sp, #68	; 0x44
    778e:	f7fe fd60 	bl	6252 <mbedtls_mpi_init_mempool>
    7792:	4650      	mov	r0, sl
    7794:	f7fe fd5d 	bl	6252 <mbedtls_mpi_init_mempool>
    7798:	4648      	mov	r0, r9
    779a:	f7fe fd5a 	bl	6252 <mbedtls_mpi_init_mempool>
    779e:	9804      	ldr	r0, [sp, #16]
    77a0:	f7fe ff68 	bl	6674 <mbedtls_mpi_bitlen>
    77a4:	f5b0 7f28 	cmp.w	r0, #672	; 0x2a0
    77a8:	f080 80ee 	bcs.w	7988 <mbedtls_mpi_exp_mod+0x24e>
    77ac:	28ef      	cmp	r0, #239	; 0xef
    77ae:	f200 80ed 	bhi.w	798c <mbedtls_mpi_exp_mod+0x252>
    77b2:	284f      	cmp	r0, #79	; 0x4f
    77b4:	f200 80ec 	bhi.w	7990 <mbedtls_mpi_exp_mod+0x256>
    77b8:	2817      	cmp	r0, #23
    77ba:	bf8c      	ite	hi
    77bc:	2303      	movhi	r3, #3
    77be:	2301      	movls	r3, #1
    77c0:	9302      	str	r3, [sp, #8]
    77c2:	6863      	ldr	r3, [r4, #4]
    77c4:	4630      	mov	r0, r6
    77c6:	f103 0801 	add.w	r8, r3, #1
    77ca:	4641      	mov	r1, r8
    77cc:	f7fe fd76 	bl	62bc <mbedtls_mpi_grow>
    77d0:	4aef      	ldr	r2, [pc, #956]	; (7b90 <mbedtls_mpi_exp_mod+0x456>)
    77d2:	4603      	mov	r3, r0
    77d4:	f85b 2002 	ldr.w	r2, [fp, r2]
    77d8:	9209      	str	r2, [sp, #36]	; 0x24
    77da:	2800      	cmp	r0, #0
    77dc:	f040 81d0 	bne.w	7b80 <mbedtls_mpi_exp_mod+0x446>
    77e0:	ea4f 0148 	mov.w	r1, r8, lsl #1
    77e4:	4650      	mov	r0, sl
    77e6:	f7fe fd69 	bl	62bc <mbedtls_mpi_grow>
    77ea:	4603      	mov	r3, r0
    77ec:	2800      	cmp	r0, #0
    77ee:	f040 81c7 	bne.w	7b80 <mbedtls_mpi_exp_mod+0x446>
    77f2:	f9b7 3000 	ldrsh.w	r3, [r7]
    77f6:	1c59      	adds	r1, r3, #1
    77f8:	9307      	str	r3, [sp, #28]
    77fa:	d10b      	bne.n	7814 <mbedtls_mpi_exp_mod+0xda>
    77fc:	4639      	mov	r1, r7
    77fe:	4648      	mov	r0, r9
    7800:	f7fe fe0c 	bl	641c <mbedtls_mpi_copy>
    7804:	4603      	mov	r3, r0
    7806:	2800      	cmp	r0, #0
    7808:	f040 81ba 	bne.w	7b80 <mbedtls_mpi_exp_mod+0x446>
    780c:	2301      	movs	r3, #1
    780e:	464f      	mov	r7, r9
    7810:	f8ad 3044 	strh.w	r3, [sp, #68]	; 0x44
    7814:	9b1e      	ldr	r3, [sp, #120]	; 0x78
    7816:	b11b      	cbz	r3, 7820 <mbedtls_mpi_exp_mod+0xe6>
    7818:	689b      	ldr	r3, [r3, #8]
    781a:	2b00      	cmp	r3, #0
    781c:	f040 80ba 	bne.w	7994 <mbedtls_mpi_exp_mod+0x25a>
    7820:	2101      	movs	r1, #1
    7822:	4628      	mov	r0, r5
    7824:	f7fe febb 	bl	659e <mbedtls_mpi_lset>
    7828:	4603      	mov	r3, r0
    782a:	2800      	cmp	r0, #0
    782c:	f040 81a8 	bne.w	7b80 <mbedtls_mpi_exp_mod+0x446>
    7830:	6861      	ldr	r1, [r4, #4]
    7832:	4628      	mov	r0, r5
    7834:	0189      	lsls	r1, r1, #6
    7836:	f7ff f81b 	bl	6870 <mbedtls_mpi_shift_l>
    783a:	4603      	mov	r3, r0
    783c:	2800      	cmp	r0, #0
    783e:	f040 819f 	bne.w	7b80 <mbedtls_mpi_exp_mod+0x446>
    7842:	4622      	mov	r2, r4
    7844:	4629      	mov	r1, r5
    7846:	4628      	mov	r0, r5
    7848:	f7ff fda3 	bl	7392 <mbedtls_mpi_mod_mpi>
    784c:	4603      	mov	r3, r0
    784e:	2800      	cmp	r0, #0
    7850:	f040 8196 	bne.w	7b80 <mbedtls_mpi_exp_mod+0x446>
    7854:	9b1e      	ldr	r3, [sp, #120]	; 0x78
    7856:	b123      	cbz	r3, 7862 <mbedtls_mpi_exp_mod+0x128>
    7858:	220c      	movs	r2, #12
    785a:	4629      	mov	r1, r5
    785c:	4618      	mov	r0, r3
    785e:	f7f8 fd73 	bl	348 <memcpy>
    7862:	9b09      	ldr	r3, [sp, #36]	; 0x24
    7864:	f44f 61c0 	mov.w	r1, #1536	; 0x600
    7868:	6818      	ldr	r0, [r3, #0]
    786a:	f001 fc0d 	bl	9088 <mempool_alloc>
    786e:	4605      	mov	r5, r0
    7870:	2800      	cmp	r0, #0
    7872:	f000 8187 	beq.w	7b84 <mbedtls_mpi_exp_mod+0x44a>
    7876:	f500 69c0 	add.w	r9, r0, #1536	; 0x600
    787a:	9005      	str	r0, [sp, #20]
    787c:	9006      	str	r0, [sp, #24]
    787e:	9805      	ldr	r0, [sp, #20]
    7880:	f7fe fce7 	bl	6252 <mbedtls_mpi_init_mempool>
    7884:	9b05      	ldr	r3, [sp, #20]
    7886:	330c      	adds	r3, #12
    7888:	4599      	cmp	r9, r3
    788a:	9305      	str	r3, [sp, #20]
    788c:	d1f7      	bne.n	787e <mbedtls_mpi_exp_mod+0x144>
    788e:	f105 030c 	add.w	r3, r5, #12
    7892:	4641      	mov	r1, r8
    7894:	4618      	mov	r0, r3
    7896:	9303      	str	r3, [sp, #12]
    7898:	f7fe fd10 	bl	62bc <mbedtls_mpi_grow>
    789c:	4603      	mov	r3, r0
    789e:	2800      	cmp	r0, #0
    78a0:	f040 8149 	bne.w	7b36 <mbedtls_mpi_exp_mod+0x3fc>
    78a4:	4621      	mov	r1, r4
    78a6:	4638      	mov	r0, r7
    78a8:	f7ff f8aa 	bl	6a00 <mbedtls_mpi_cmp_mpi>
    78ac:	2800      	cmp	r0, #0
    78ae:	db75      	blt.n	799c <mbedtls_mpi_exp_mod+0x262>
    78b0:	4622      	mov	r2, r4
    78b2:	4639      	mov	r1, r7
    78b4:	9803      	ldr	r0, [sp, #12]
    78b6:	f7ff fd6c 	bl	7392 <mbedtls_mpi_mod_mpi>
    78ba:	4603      	mov	r3, r0
    78bc:	2800      	cmp	r0, #0
    78be:	f040 813a 	bne.w	7b36 <mbedtls_mpi_exp_mod+0x3fc>
    78c2:	f10d 0838 	add.w	r8, sp, #56	; 0x38
    78c6:	af0b      	add	r7, sp, #44	; 0x2c
    78c8:	9803      	ldr	r0, [sp, #12]
    78ca:	9b0a      	ldr	r3, [sp, #40]	; 0x28
    78cc:	4622      	mov	r2, r4
    78ce:	4639      	mov	r1, r7
    78d0:	f8cd 8000 	str.w	r8, [sp]
    78d4:	f7ff febc 	bl	7650 <mbedtls_mpi_montmul>
    78d8:	4603      	mov	r3, r0
    78da:	2800      	cmp	r0, #0
    78dc:	f040 812b 	bne.w	7b36 <mbedtls_mpi_exp_mod+0x3fc>
    78e0:	4639      	mov	r1, r7
    78e2:	4630      	mov	r0, r6
    78e4:	f7fe fd9a 	bl	641c <mbedtls_mpi_copy>
    78e8:	4603      	mov	r3, r0
    78ea:	2800      	cmp	r0, #0
    78ec:	f040 8123 	bne.w	7b36 <mbedtls_mpi_exp_mod+0x3fc>
    78f0:	4643      	mov	r3, r8
    78f2:	4621      	mov	r1, r4
    78f4:	9a0a      	ldr	r2, [sp, #40]	; 0x28
    78f6:	4630      	mov	r0, r6
    78f8:	f7ff ff0e 	bl	7718 <mbedtls_mpi_montred>
    78fc:	4603      	mov	r3, r0
    78fe:	2800      	cmp	r0, #0
    7900:	f040 8119 	bne.w	7b36 <mbedtls_mpi_exp_mod+0x3fc>
    7904:	9b02      	ldr	r3, [sp, #8]
    7906:	2b01      	cmp	r3, #1
    7908:	d14d      	bne.n	79a6 <mbedtls_mpi_exp_mod+0x26c>
    790a:	9b04      	ldr	r3, [sp, #16]
    790c:	f04f 0800 	mov.w	r8, #0
    7910:	46c2      	mov	sl, r8
    7912:	46c3      	mov	fp, r8
    7914:	4647      	mov	r7, r8
    7916:	f8d3 9004 	ldr.w	r9, [r3, #4]
    791a:	ab0e      	add	r3, sp, #56	; 0x38
    791c:	9308      	str	r3, [sp, #32]
    791e:	f1bb 0f00 	cmp.w	fp, #0
    7922:	f040 80a3 	bne.w	7a6c <mbedtls_mpi_exp_mod+0x332>
    7926:	f1b9 0f00 	cmp.w	r9, #0
    792a:	f040 809b 	bne.w	7a64 <mbedtls_mpi_exp_mod+0x32a>
    792e:	9b02      	ldr	r3, [sp, #8]
    7930:	f04f 0b01 	mov.w	fp, #1
    7934:	f10d 0838 	add.w	r8, sp, #56	; 0x38
    7938:	fa0b fb03 	lsl.w	fp, fp, r3
    793c:	45d1      	cmp	r9, sl
    793e:	f040 80de 	bne.w	7afe <mbedtls_mpi_exp_mod+0x3c4>
    7942:	4643      	mov	r3, r8
    7944:	4621      	mov	r1, r4
    7946:	9a0a      	ldr	r2, [sp, #40]	; 0x28
    7948:	4630      	mov	r0, r6
    794a:	f7ff fee5 	bl	7718 <mbedtls_mpi_montred>
    794e:	4603      	mov	r3, r0
    7950:	2800      	cmp	r0, #0
    7952:	f040 80f0 	bne.w	7b36 <mbedtls_mpi_exp_mod+0x3fc>
    7956:	9a07      	ldr	r2, [sp, #28]
    7958:	3201      	adds	r2, #1
    795a:	f040 80ec 	bne.w	7b36 <mbedtls_mpi_exp_mod+0x3fc>
    795e:	9a04      	ldr	r2, [sp, #16]
    7960:	6852      	ldr	r2, [r2, #4]
    7962:	2a00      	cmp	r2, #0
    7964:	f000 80e7 	beq.w	7b36 <mbedtls_mpi_exp_mod+0x3fc>
    7968:	9a04      	ldr	r2, [sp, #16]
    796a:	6892      	ldr	r2, [r2, #8]
    796c:	6812      	ldr	r2, [r2, #0]
    796e:	07d2      	lsls	r2, r2, #31
    7970:	f140 80e1 	bpl.w	7b36 <mbedtls_mpi_exp_mod+0x3fc>
    7974:	f8bd 301c 	ldrh.w	r3, [sp, #28]
    7978:	4632      	mov	r2, r6
    797a:	4621      	mov	r1, r4
    797c:	4630      	mov	r0, r6
    797e:	8033      	strh	r3, [r6, #0]
    7980:	f7ff f99c 	bl	6cbc <mbedtls_mpi_add_mpi>
    7984:	4603      	mov	r3, r0
    7986:	e0d6      	b.n	7b36 <mbedtls_mpi_exp_mod+0x3fc>
    7988:	2306      	movs	r3, #6
    798a:	e719      	b.n	77c0 <mbedtls_mpi_exp_mod+0x86>
    798c:	2305      	movs	r3, #5
    798e:	e717      	b.n	77c0 <mbedtls_mpi_exp_mod+0x86>
    7990:	2304      	movs	r3, #4
    7992:	e715      	b.n	77c0 <mbedtls_mpi_exp_mod+0x86>
    7994:	220c      	movs	r2, #12
    7996:	4628      	mov	r0, r5
    7998:	991e      	ldr	r1, [sp, #120]	; 0x78
    799a:	e760      	b.n	785e <mbedtls_mpi_exp_mod+0x124>
    799c:	4639      	mov	r1, r7
    799e:	9803      	ldr	r0, [sp, #12]
    79a0:	f7fe fd3c 	bl	641c <mbedtls_mpi_copy>
    79a4:	e789      	b.n	78ba <mbedtls_mpi_exp_mod+0x180>
    79a6:	9b02      	ldr	r3, [sp, #8]
    79a8:	270c      	movs	r7, #12
    79aa:	f04f 0b01 	mov.w	fp, #1
    79ae:	6861      	ldr	r1, [r4, #4]
    79b0:	f103 3aff 	add.w	sl, r3, #4294967295	; 0xffffffff
    79b4:	3101      	adds	r1, #1
    79b6:	fa07 f70a 	lsl.w	r7, r7, sl
    79ba:	fa0b fb0a 	lsl.w	fp, fp, sl
    79be:	442f      	add	r7, r5
    79c0:	4638      	mov	r0, r7
    79c2:	f7fe fc7b 	bl	62bc <mbedtls_mpi_grow>
    79c6:	4603      	mov	r3, r0
    79c8:	2800      	cmp	r0, #0
    79ca:	f040 80b4 	bne.w	7b36 <mbedtls_mpi_exp_mod+0x3fc>
    79ce:	4638      	mov	r0, r7
    79d0:	9903      	ldr	r1, [sp, #12]
    79d2:	f7fe fd23 	bl	641c <mbedtls_mpi_copy>
    79d6:	4603      	mov	r3, r0
    79d8:	2800      	cmp	r0, #0
    79da:	f040 80ac 	bne.w	7b36 <mbedtls_mpi_exp_mod+0x3fc>
    79de:	4681      	mov	r9, r0
    79e0:	9b0a      	ldr	r3, [sp, #40]	; 0x28
    79e2:	4622      	mov	r2, r4
    79e4:	4639      	mov	r1, r7
    79e6:	4638      	mov	r0, r7
    79e8:	f8cd 8000 	str.w	r8, [sp]
    79ec:	f7ff fe30 	bl	7650 <mbedtls_mpi_montmul>
    79f0:	4603      	mov	r3, r0
    79f2:	2800      	cmp	r0, #0
    79f4:	f040 809f 	bne.w	7b36 <mbedtls_mpi_exp_mod+0x3fc>
    79f8:	f109 0901 	add.w	r9, r9, #1
    79fc:	45ca      	cmp	sl, r9
    79fe:	d8ef      	bhi.n	79e0 <mbedtls_mpi_exp_mod+0x2a6>
    7a00:	9b02      	ldr	r3, [sp, #8]
    7a02:	f10b 0b01 	add.w	fp, fp, #1
    7a06:	270c      	movs	r7, #12
    7a08:	f04f 0801 	mov.w	r8, #1
    7a0c:	f10d 0938 	add.w	r9, sp, #56	; 0x38
    7a10:	fb07 570b 	mla	r7, r7, fp, r5
    7a14:	fa08 f803 	lsl.w	r8, r8, r3
    7a18:	45c3      	cmp	fp, r8
    7a1a:	f4bf af76 	bcs.w	790a <mbedtls_mpi_exp_mod+0x1d0>
    7a1e:	6861      	ldr	r1, [r4, #4]
    7a20:	4638      	mov	r0, r7
    7a22:	3101      	adds	r1, #1
    7a24:	f7fe fc4a 	bl	62bc <mbedtls_mpi_grow>
    7a28:	4603      	mov	r3, r0
    7a2a:	2800      	cmp	r0, #0
    7a2c:	f040 8083 	bne.w	7b36 <mbedtls_mpi_exp_mod+0x3fc>
    7a30:	f1a7 010c 	sub.w	r1, r7, #12
    7a34:	4638      	mov	r0, r7
    7a36:	f7fe fcf1 	bl	641c <mbedtls_mpi_copy>
    7a3a:	4603      	mov	r3, r0
    7a3c:	2800      	cmp	r0, #0
    7a3e:	d17a      	bne.n	7b36 <mbedtls_mpi_exp_mod+0x3fc>
    7a40:	4638      	mov	r0, r7
    7a42:	4622      	mov	r2, r4
    7a44:	9903      	ldr	r1, [sp, #12]
    7a46:	9b0a      	ldr	r3, [sp, #40]	; 0x28
    7a48:	f8cd 9000 	str.w	r9, [sp]
    7a4c:	370c      	adds	r7, #12
    7a4e:	f7ff fdff 	bl	7650 <mbedtls_mpi_montmul>
    7a52:	4603      	mov	r3, r0
    7a54:	2800      	cmp	r0, #0
    7a56:	d16e      	bne.n	7b36 <mbedtls_mpi_exp_mod+0x3fc>
    7a58:	f10b 0b01 	add.w	fp, fp, #1
    7a5c:	e7dc      	b.n	7a18 <mbedtls_mpi_exp_mod+0x2de>
    7a5e:	2202      	movs	r2, #2
    7a60:	4690      	mov	r8, r2
    7a62:	e75c      	b.n	791e <mbedtls_mpi_exp_mod+0x1e4>
    7a64:	f109 39ff 	add.w	r9, r9, #4294967295	; 0xffffffff
    7a68:	f04f 0b20 	mov.w	fp, #32
    7a6c:	9b04      	ldr	r3, [sp, #16]
    7a6e:	f10b 3bff 	add.w	fp, fp, #4294967295	; 0xffffffff
    7a72:	689b      	ldr	r3, [r3, #8]
    7a74:	f853 3029 	ldr.w	r3, [r3, r9, lsl #2]
    7a78:	fa23 f30b 	lsr.w	r3, r3, fp
    7a7c:	f003 0301 	and.w	r3, r3, #1
    7a80:	ea58 0203 	orrs.w	r2, r8, r3
    7a84:	d0ec      	beq.n	7a60 <mbedtls_mpi_exp_mod+0x326>
    7a86:	b97b      	cbnz	r3, 7aa8 <mbedtls_mpi_exp_mod+0x36e>
    7a88:	f1b8 0f01 	cmp.w	r8, #1
    7a8c:	d10c      	bne.n	7aa8 <mbedtls_mpi_exp_mod+0x36e>
    7a8e:	9b08      	ldr	r3, [sp, #32]
    7a90:	4622      	mov	r2, r4
    7a92:	4631      	mov	r1, r6
    7a94:	4630      	mov	r0, r6
    7a96:	9300      	str	r3, [sp, #0]
    7a98:	9b0a      	ldr	r3, [sp, #40]	; 0x28
    7a9a:	f7ff fdd9 	bl	7650 <mbedtls_mpi_montmul>
    7a9e:	4603      	mov	r3, r0
    7aa0:	2800      	cmp	r0, #0
    7aa2:	d148      	bne.n	7b36 <mbedtls_mpi_exp_mod+0x3fc>
    7aa4:	4642      	mov	r2, r8
    7aa6:	e7db      	b.n	7a60 <mbedtls_mpi_exp_mod+0x326>
    7aa8:	9a02      	ldr	r2, [sp, #8]
    7aaa:	f10a 0a01 	add.w	sl, sl, #1
    7aae:	eba2 020a 	sub.w	r2, r2, sl
    7ab2:	4093      	lsls	r3, r2
    7ab4:	431f      	orrs	r7, r3
    7ab6:	9b02      	ldr	r3, [sp, #8]
    7ab8:	4553      	cmp	r3, sl
    7aba:	d1d0      	bne.n	7a5e <mbedtls_mpi_exp_mod+0x324>
    7abc:	f04f 0800 	mov.w	r8, #0
    7ac0:	9b08      	ldr	r3, [sp, #32]
    7ac2:	4622      	mov	r2, r4
    7ac4:	4631      	mov	r1, r6
    7ac6:	4630      	mov	r0, r6
    7ac8:	9300      	str	r3, [sp, #0]
    7aca:	9b0a      	ldr	r3, [sp, #40]	; 0x28
    7acc:	f7ff fdc0 	bl	7650 <mbedtls_mpi_montmul>
    7ad0:	4603      	mov	r3, r0
    7ad2:	bb80      	cbnz	r0, 7b36 <mbedtls_mpi_exp_mod+0x3fc>
    7ad4:	9b02      	ldr	r3, [sp, #8]
    7ad6:	f108 0801 	add.w	r8, r8, #1
    7ada:	4543      	cmp	r3, r8
    7adc:	d8f0      	bhi.n	7ac0 <mbedtls_mpi_exp_mod+0x386>
    7ade:	9b08      	ldr	r3, [sp, #32]
    7ae0:	210c      	movs	r1, #12
    7ae2:	4622      	mov	r2, r4
    7ae4:	4630      	mov	r0, r6
    7ae6:	fb01 5107 	mla	r1, r1, r7, r5
    7aea:	9300      	str	r3, [sp, #0]
    7aec:	9b0a      	ldr	r3, [sp, #40]	; 0x28
    7aee:	f7ff fdaf 	bl	7650 <mbedtls_mpi_montmul>
    7af2:	4603      	mov	r3, r0
    7af4:	b9f8      	cbnz	r0, 7b36 <mbedtls_mpi_exp_mod+0x3fc>
    7af6:	2201      	movs	r2, #1
    7af8:	4607      	mov	r7, r0
    7afa:	4682      	mov	sl, r0
    7afc:	e7b0      	b.n	7a60 <mbedtls_mpi_exp_mod+0x326>
    7afe:	9b0a      	ldr	r3, [sp, #40]	; 0x28
    7b00:	4622      	mov	r2, r4
    7b02:	4631      	mov	r1, r6
    7b04:	4630      	mov	r0, r6
    7b06:	f8cd 8000 	str.w	r8, [sp]
    7b0a:	f7ff fda1 	bl	7650 <mbedtls_mpi_montmul>
    7b0e:	4603      	mov	r3, r0
    7b10:	b988      	cbnz	r0, 7b36 <mbedtls_mpi_exp_mod+0x3fc>
    7b12:	007f      	lsls	r7, r7, #1
    7b14:	ea17 0f0b 	tst.w	r7, fp
    7b18:	d102      	bne.n	7b20 <mbedtls_mpi_exp_mod+0x3e6>
    7b1a:	f109 0901 	add.w	r9, r9, #1
    7b1e:	e70d      	b.n	793c <mbedtls_mpi_exp_mod+0x202>
    7b20:	4622      	mov	r2, r4
    7b22:	4630      	mov	r0, r6
    7b24:	9903      	ldr	r1, [sp, #12]
    7b26:	9b0a      	ldr	r3, [sp, #40]	; 0x28
    7b28:	f8cd 8000 	str.w	r8, [sp]
    7b2c:	f7ff fd90 	bl	7650 <mbedtls_mpi_montmul>
    7b30:	4603      	mov	r3, r0
    7b32:	2800      	cmp	r0, #0
    7b34:	d0f1      	beq.n	7b1a <mbedtls_mpi_exp_mod+0x3e0>
    7b36:	9806      	ldr	r0, [sp, #24]
    7b38:	9302      	str	r3, [sp, #8]
    7b3a:	f7fe fb9d 	bl	6278 <mbedtls_mpi_free>
    7b3e:	9b06      	ldr	r3, [sp, #24]
    7b40:	330c      	adds	r3, #12
    7b42:	9306      	str	r3, [sp, #24]
    7b44:	9b05      	ldr	r3, [sp, #20]
    7b46:	9a06      	ldr	r2, [sp, #24]
    7b48:	4293      	cmp	r3, r2
    7b4a:	9b02      	ldr	r3, [sp, #8]
    7b4c:	d1f3      	bne.n	7b36 <mbedtls_mpi_exp_mod+0x3fc>
    7b4e:	9302      	str	r3, [sp, #8]
    7b50:	9b09      	ldr	r3, [sp, #36]	; 0x24
    7b52:	4629      	mov	r1, r5
    7b54:	6818      	ldr	r0, [r3, #0]
    7b56:	f001 fadf 	bl	9118 <mempool_free>
    7b5a:	a80e      	add	r0, sp, #56	; 0x38
    7b5c:	f7fe fb8c 	bl	6278 <mbedtls_mpi_free>
    7b60:	a811      	add	r0, sp, #68	; 0x44
    7b62:	f7fe fb89 	bl	6278 <mbedtls_mpi_free>
    7b66:	9b02      	ldr	r3, [sp, #8]
    7b68:	9a1e      	ldr	r2, [sp, #120]	; 0x78
    7b6a:	b11a      	cbz	r2, 7b74 <mbedtls_mpi_exp_mod+0x43a>
    7b6c:	6892      	ldr	r2, [r2, #8]
    7b6e:	2a00      	cmp	r2, #0
    7b70:	f47f adf5 	bne.w	775e <mbedtls_mpi_exp_mod+0x24>
    7b74:	a80b      	add	r0, sp, #44	; 0x2c
    7b76:	9302      	str	r3, [sp, #8]
    7b78:	f7fe fb7e 	bl	6278 <mbedtls_mpi_free>
    7b7c:	9b02      	ldr	r3, [sp, #8]
    7b7e:	e5ee      	b.n	775e <mbedtls_mpi_exp_mod+0x24>
    7b80:	2500      	movs	r5, #0
    7b82:	e7e4      	b.n	7b4e <mbedtls_mpi_exp_mod+0x414>
    7b84:	f06f 030f 	mvn.w	r3, #15
    7b88:	e7e1      	b.n	7b4e <mbedtls_mpi_exp_mod+0x414>
    7b8a:	bf00      	nop
    7b8c:	00004926 	.word	0x00004926
    7b90:	00000050 	.word	0x00000050

00007b94 <mbedtls_mpi_gcd>:
    7b94:	e92d 41f0 	stmdb	sp!, {r4, r5, r6, r7, r8, lr}
    7b98:	b086      	sub	sp, #24
    7b9a:	4680      	mov	r8, r0
    7b9c:	ad03      	add	r5, sp, #12
    7b9e:	4668      	mov	r0, sp
    7ba0:	460c      	mov	r4, r1
    7ba2:	4617      	mov	r7, r2
    7ba4:	466e      	mov	r6, sp
    7ba6:	f7fe fb54 	bl	6252 <mbedtls_mpi_init_mempool>
    7baa:	4628      	mov	r0, r5
    7bac:	f7fe fb51 	bl	6252 <mbedtls_mpi_init_mempool>
    7bb0:	4621      	mov	r1, r4
    7bb2:	4668      	mov	r0, sp
    7bb4:	f7fe fc32 	bl	641c <mbedtls_mpi_copy>
    7bb8:	4604      	mov	r4, r0
    7bba:	2800      	cmp	r0, #0
    7bbc:	d159      	bne.n	7c72 <mbedtls_mpi_gcd+0xde>
    7bbe:	4639      	mov	r1, r7
    7bc0:	4628      	mov	r0, r5
    7bc2:	f7fe fc2b 	bl	641c <mbedtls_mpi_copy>
    7bc6:	4604      	mov	r4, r0
    7bc8:	2800      	cmp	r0, #0
    7bca:	d152      	bne.n	7c72 <mbedtls_mpi_gcd+0xde>
    7bcc:	4668      	mov	r0, sp
    7bce:	f7fe fd3a 	bl	6646 <mbedtls_mpi_lsb>
    7bd2:	4607      	mov	r7, r0
    7bd4:	4628      	mov	r0, r5
    7bd6:	f7fe fd36 	bl	6646 <mbedtls_mpi_lsb>
    7bda:	4287      	cmp	r7, r0
    7bdc:	bf28      	it	cs
    7bde:	4607      	movcs	r7, r0
    7be0:	4668      	mov	r0, sp
    7be2:	4639      	mov	r1, r7
    7be4:	f7fe fe8f 	bl	6906 <mbedtls_mpi_shift_r>
    7be8:	4604      	mov	r4, r0
    7bea:	2800      	cmp	r0, #0
    7bec:	d141      	bne.n	7c72 <mbedtls_mpi_gcd+0xde>
    7bee:	4639      	mov	r1, r7
    7bf0:	4628      	mov	r0, r5
    7bf2:	f7fe fe88 	bl	6906 <mbedtls_mpi_shift_r>
    7bf6:	4604      	mov	r4, r0
    7bf8:	bbd8      	cbnz	r0, 7c72 <mbedtls_mpi_gcd+0xde>
    7bfa:	2301      	movs	r3, #1
    7bfc:	f8ad 3000 	strh.w	r3, [sp]
    7c00:	f8ad 300c 	strh.w	r3, [sp, #12]
    7c04:	2100      	movs	r1, #0
    7c06:	4630      	mov	r0, r6
    7c08:	f7fe ffa2 	bl	6b50 <mbedtls_mpi_cmp_int>
    7c0c:	b958      	cbnz	r0, 7c26 <mbedtls_mpi_gcd+0x92>
    7c0e:	4639      	mov	r1, r7
    7c10:	4628      	mov	r0, r5
    7c12:	f7fe fe2d 	bl	6870 <mbedtls_mpi_shift_l>
    7c16:	4604      	mov	r4, r0
    7c18:	bb58      	cbnz	r0, 7c72 <mbedtls_mpi_gcd+0xde>
    7c1a:	4629      	mov	r1, r5
    7c1c:	4640      	mov	r0, r8
    7c1e:	f7fe fbfd 	bl	641c <mbedtls_mpi_copy>
    7c22:	4604      	mov	r4, r0
    7c24:	e025      	b.n	7c72 <mbedtls_mpi_gcd+0xde>
    7c26:	4630      	mov	r0, r6
    7c28:	f7fe fd0d 	bl	6646 <mbedtls_mpi_lsb>
    7c2c:	4601      	mov	r1, r0
    7c2e:	4630      	mov	r0, r6
    7c30:	f7fe fe69 	bl	6906 <mbedtls_mpi_shift_r>
    7c34:	4604      	mov	r4, r0
    7c36:	b9e0      	cbnz	r0, 7c72 <mbedtls_mpi_gcd+0xde>
    7c38:	4628      	mov	r0, r5
    7c3a:	f7fe fd04 	bl	6646 <mbedtls_mpi_lsb>
    7c3e:	4601      	mov	r1, r0
    7c40:	4628      	mov	r0, r5
    7c42:	f7fe fe60 	bl	6906 <mbedtls_mpi_shift_r>
    7c46:	4604      	mov	r4, r0
    7c48:	b998      	cbnz	r0, 7c72 <mbedtls_mpi_gcd+0xde>
    7c4a:	4629      	mov	r1, r5
    7c4c:	4630      	mov	r0, r6
    7c4e:	f7fe fed7 	bl	6a00 <mbedtls_mpi_cmp_mpi>
    7c52:	2800      	cmp	r0, #0
    7c54:	db17      	blt.n	7c86 <mbedtls_mpi_gcd+0xf2>
    7c56:	462a      	mov	r2, r5
    7c58:	4631      	mov	r1, r6
    7c5a:	4630      	mov	r0, r6
    7c5c:	f7fe ffee 	bl	6c3c <mbedtls_mpi_sub_abs>
    7c60:	4604      	mov	r4, r0
    7c62:	b930      	cbnz	r0, 7c72 <mbedtls_mpi_gcd+0xde>
    7c64:	2101      	movs	r1, #1
    7c66:	4630      	mov	r0, r6
    7c68:	f7fe fe4d 	bl	6906 <mbedtls_mpi_shift_r>
    7c6c:	4604      	mov	r4, r0
    7c6e:	2800      	cmp	r0, #0
    7c70:	d0c8      	beq.n	7c04 <mbedtls_mpi_gcd+0x70>
    7c72:	4630      	mov	r0, r6
    7c74:	f7fe fb00 	bl	6278 <mbedtls_mpi_free>
    7c78:	4628      	mov	r0, r5
    7c7a:	f7fe fafd 	bl	6278 <mbedtls_mpi_free>
    7c7e:	4620      	mov	r0, r4
    7c80:	b006      	add	sp, #24
    7c82:	e8bd 81f0 	ldmia.w	sp!, {r4, r5, r6, r7, r8, pc}
    7c86:	4632      	mov	r2, r6
    7c88:	4629      	mov	r1, r5
    7c8a:	4628      	mov	r0, r5
    7c8c:	f7fe ffd6 	bl	6c3c <mbedtls_mpi_sub_abs>
    7c90:	4604      	mov	r4, r0
    7c92:	2800      	cmp	r0, #0
    7c94:	d1ed      	bne.n	7c72 <mbedtls_mpi_gcd+0xde>
    7c96:	2101      	movs	r1, #1
    7c98:	4628      	mov	r0, r5
    7c9a:	e7e5      	b.n	7c68 <mbedtls_mpi_gcd+0xd4>

00007c9c <mbedtls_mpi_fill_random>:
    7c9c:	e92d 43f8 	stmdb	sp!, {r3, r4, r5, r6, r7, r8, r9, lr}
    7ca0:	f011 0403 	ands.w	r4, r1, #3
    7ca4:	4699      	mov	r9, r3
    7ca6:	6843      	ldr	r3, [r0, #4]
    7ca8:	bf18      	it	ne
    7caa:	2401      	movne	r4, #1
    7cac:	eb04 0491 	add.w	r4, r4, r1, lsr #2
    7cb0:	4606      	mov	r6, r0
    7cb2:	460f      	mov	r7, r1
    7cb4:	4690      	mov	r8, r2
    7cb6:	429c      	cmp	r4, r3
    7cb8:	d112      	bne.n	7ce0 <mbedtls_mpi_fill_random+0x44>
    7cba:	2100      	movs	r1, #0
    7cbc:	4630      	mov	r0, r6
    7cbe:	f7fe fc6e 	bl	659e <mbedtls_mpi_lset>
    7cc2:	4605      	mov	r5, r0
    7cc4:	b9c0      	cbnz	r0, 7cf8 <mbedtls_mpi_fill_random+0x5c>
    7cc6:	68b1      	ldr	r1, [r6, #8]
    7cc8:	ebc7 0384 	rsb	r3, r7, r4, lsl #2
    7ccc:	463a      	mov	r2, r7
    7cce:	4648      	mov	r0, r9
    7cd0:	4419      	add	r1, r3
    7cd2:	47c0      	blx	r8
    7cd4:	b184      	cbz	r4, 7cf8 <mbedtls_mpi_fill_random+0x5c>
    7cd6:	4621      	mov	r1, r4
    7cd8:	68b0      	ldr	r0, [r6, #8]
    7cda:	f7fe fa8a 	bl	61f2 <mpi_bigendian_to_host.part.0>
    7cde:	e00b      	b.n	7cf8 <mbedtls_mpi_fill_random+0x5c>
    7ce0:	f7fe faca 	bl	6278 <mbedtls_mpi_free>
    7ce4:	4630      	mov	r0, r6
    7ce6:	f7fe faad 	bl	6244 <mbedtls_mpi_init>
    7cea:	4621      	mov	r1, r4
    7cec:	4630      	mov	r0, r6
    7cee:	f7fe fae5 	bl	62bc <mbedtls_mpi_grow>
    7cf2:	4605      	mov	r5, r0
    7cf4:	2800      	cmp	r0, #0
    7cf6:	d0e0      	beq.n	7cba <mbedtls_mpi_fill_random+0x1e>
    7cf8:	4628      	mov	r0, r5
    7cfa:	e8bd 83f8 	ldmia.w	sp!, {r3, r4, r5, r6, r7, r8, r9, pc}

00007cfe <mpi_miller_rabin>:
    7cfe:	e92d 4ff0 	stmdb	sp!, {r4, r5, r6, r7, r8, r9, sl, fp, lr}
    7d02:	b097      	sub	sp, #92	; 0x5c
    7d04:	ae07      	add	r6, sp, #28
    7d06:	4607      	mov	r7, r0
    7d08:	f10d 0828 	add.w	r8, sp, #40	; 0x28
    7d0c:	4630      	mov	r0, r6
    7d0e:	9102      	str	r1, [sp, #8]
    7d10:	9203      	str	r2, [sp, #12]
    7d12:	ac10      	add	r4, sp, #64	; 0x40
    7d14:	9304      	str	r3, [sp, #16]
    7d16:	f7fe fa9c 	bl	6252 <mbedtls_mpi_init_mempool>
    7d1a:	4640      	mov	r0, r8
    7d1c:	f7fe fa99 	bl	6252 <mbedtls_mpi_init_mempool>
    7d20:	a80d      	add	r0, sp, #52	; 0x34
    7d22:	f7fe fa96 	bl	6252 <mbedtls_mpi_init_mempool>
    7d26:	4620      	mov	r0, r4
    7d28:	f7fe fa93 	bl	6252 <mbedtls_mpi_init_mempool>
    7d2c:	a813      	add	r0, sp, #76	; 0x4c
    7d2e:	f7fe fa90 	bl	6252 <mbedtls_mpi_init_mempool>
    7d32:	2201      	movs	r2, #1
    7d34:	4639      	mov	r1, r7
    7d36:	4630      	mov	r0, r6
    7d38:	f7ff f820 	bl	6d7c <mbedtls_mpi_sub_int>
    7d3c:	4605      	mov	r5, r0
    7d3e:	2800      	cmp	r0, #0
    7d40:	d145      	bne.n	7dce <mpi_miller_rabin+0xd0>
    7d42:	4630      	mov	r0, r6
    7d44:	f7fe fc7f 	bl	6646 <mbedtls_mpi_lsb>
    7d48:	4682      	mov	sl, r0
    7d4a:	4631      	mov	r1, r6
    7d4c:	4640      	mov	r0, r8
    7d4e:	f7fe fb65 	bl	641c <mbedtls_mpi_copy>
    7d52:	4605      	mov	r5, r0
    7d54:	2800      	cmp	r0, #0
    7d56:	d13a      	bne.n	7dce <mpi_miller_rabin+0xd0>
    7d58:	4651      	mov	r1, sl
    7d5a:	4640      	mov	r0, r8
    7d5c:	f7fe fdd3 	bl	6906 <mbedtls_mpi_shift_r>
    7d60:	4605      	mov	r5, r0
    7d62:	bba0      	cbnz	r0, 7dce <mpi_miller_rabin+0xd0>
    7d64:	4681      	mov	r9, r0
    7d66:	9b02      	ldr	r3, [sp, #8]
    7d68:	4599      	cmp	r9, r3
    7d6a:	d030      	beq.n	7dce <mpi_miller_rabin+0xd0>
    7d6c:	f44f 7897 	mov.w	r8, #302	; 0x12e
    7d70:	f06f 4b78 	mvn.w	fp, #4160749568	; 0xf8000000
    7d74:	6879      	ldr	r1, [r7, #4]
    7d76:	4620      	mov	r0, r4
    7d78:	9a03      	ldr	r2, [sp, #12]
    7d7a:	9b04      	ldr	r3, [sp, #16]
    7d7c:	0089      	lsls	r1, r1, #2
    7d7e:	f7ff ff8d 	bl	7c9c <mbedtls_mpi_fill_random>
    7d82:	2800      	cmp	r0, #0
    7d84:	f040 8085 	bne.w	7e92 <mpi_miller_rabin+0x194>
    7d88:	4620      	mov	r0, r4
    7d8a:	f7fe fc73 	bl	6674 <mbedtls_mpi_bitlen>
    7d8e:	4603      	mov	r3, r0
    7d90:	4630      	mov	r0, r6
    7d92:	9305      	str	r3, [sp, #20]
    7d94:	f7fe fc6e 	bl	6674 <mbedtls_mpi_bitlen>
    7d98:	9b05      	ldr	r3, [sp, #20]
    7d9a:	4283      	cmp	r3, r0
    7d9c:	d912      	bls.n	7dc4 <mpi_miller_rabin+0xc6>
    7d9e:	9b11      	ldr	r3, [sp, #68]	; 0x44
    7da0:	9a12      	ldr	r2, [sp, #72]	; 0x48
    7da2:	f103 4180 	add.w	r1, r3, #1073741824	; 0x40000000
    7da6:	445b      	add	r3, fp
    7da8:	ea6f 1343 	mvn.w	r3, r3, lsl #5
    7dac:	3901      	subs	r1, #1
    7dae:	4418      	add	r0, r3
    7db0:	f04f 33ff 	mov.w	r3, #4294967295	; 0xffffffff
    7db4:	fa03 f000 	lsl.w	r0, r3, r0
    7db8:	f852 3021 	ldr.w	r3, [r2, r1, lsl #2]
    7dbc:	ea23 0000 	bic.w	r0, r3, r0
    7dc0:	f842 0021 	str.w	r0, [r2, r1, lsl #2]
    7dc4:	f1b8 0801 	subs.w	r8, r8, #1
    7dc8:	d114      	bne.n	7df4 <mpi_miller_rabin+0xf6>
    7dca:	f06f 050d 	mvn.w	r5, #13
    7dce:	4630      	mov	r0, r6
    7dd0:	f7fe fa52 	bl	6278 <mbedtls_mpi_free>
    7dd4:	a80a      	add	r0, sp, #40	; 0x28
    7dd6:	f7fe fa4f 	bl	6278 <mbedtls_mpi_free>
    7dda:	a80d      	add	r0, sp, #52	; 0x34
    7ddc:	f7fe fa4c 	bl	6278 <mbedtls_mpi_free>
    7de0:	a810      	add	r0, sp, #64	; 0x40
    7de2:	f7fe fa49 	bl	6278 <mbedtls_mpi_free>
    7de6:	a813      	add	r0, sp, #76	; 0x4c
    7de8:	f7fe fa46 	bl	6278 <mbedtls_mpi_free>
    7dec:	4628      	mov	r0, r5
    7dee:	b017      	add	sp, #92	; 0x5c
    7df0:	e8bd 8ff0 	ldmia.w	sp!, {r4, r5, r6, r7, r8, r9, sl, fp, pc}
    7df4:	4631      	mov	r1, r6
    7df6:	4620      	mov	r0, r4
    7df8:	f7fe fe02 	bl	6a00 <mbedtls_mpi_cmp_mpi>
    7dfc:	2800      	cmp	r0, #0
    7dfe:	dab9      	bge.n	7d74 <mpi_miller_rabin+0x76>
    7e00:	2101      	movs	r1, #1
    7e02:	4620      	mov	r0, r4
    7e04:	f7fe fea4 	bl	6b50 <mbedtls_mpi_cmp_int>
    7e08:	2800      	cmp	r0, #0
    7e0a:	ddb3      	ble.n	7d74 <mpi_miller_rabin+0x76>
    7e0c:	ab13      	add	r3, sp, #76	; 0x4c
    7e0e:	aa0a      	add	r2, sp, #40	; 0x28
    7e10:	4621      	mov	r1, r4
    7e12:	4620      	mov	r0, r4
    7e14:	9300      	str	r3, [sp, #0]
    7e16:	463b      	mov	r3, r7
    7e18:	f7ff fc8f 	bl	773a <mbedtls_mpi_exp_mod>
    7e1c:	bbc8      	cbnz	r0, 7e92 <mpi_miller_rabin+0x194>
    7e1e:	4631      	mov	r1, r6
    7e20:	4620      	mov	r0, r4
    7e22:	f7fe fded 	bl	6a00 <mbedtls_mpi_cmp_mpi>
    7e26:	b910      	cbnz	r0, 7e2e <mpi_miller_rabin+0x130>
    7e28:	f109 0901 	add.w	r9, r9, #1
    7e2c:	e79b      	b.n	7d66 <mpi_miller_rabin+0x68>
    7e2e:	2101      	movs	r1, #1
    7e30:	4620      	mov	r0, r4
    7e32:	f7fe fe8d 	bl	6b50 <mbedtls_mpi_cmp_int>
    7e36:	2800      	cmp	r0, #0
    7e38:	d0f6      	beq.n	7e28 <mpi_miller_rabin+0x12a>
    7e3a:	f04f 0801 	mov.w	r8, #1
    7e3e:	f10d 0b34 	add.w	fp, sp, #52	; 0x34
    7e42:	45d0      	cmp	r8, sl
    7e44:	d215      	bcs.n	7e72 <mpi_miller_rabin+0x174>
    7e46:	4631      	mov	r1, r6
    7e48:	4620      	mov	r0, r4
    7e4a:	f7fe fdd9 	bl	6a00 <mbedtls_mpi_cmp_mpi>
    7e4e:	b180      	cbz	r0, 7e72 <mpi_miller_rabin+0x174>
    7e50:	4622      	mov	r2, r4
    7e52:	4621      	mov	r1, r4
    7e54:	4658      	mov	r0, fp
    7e56:	f7fe ffa8 	bl	6daa <mbedtls_mpi_mul_mpi>
    7e5a:	b9d0      	cbnz	r0, 7e92 <mpi_miller_rabin+0x194>
    7e5c:	463a      	mov	r2, r7
    7e5e:	4659      	mov	r1, fp
    7e60:	4620      	mov	r0, r4
    7e62:	f7ff fa96 	bl	7392 <mbedtls_mpi_mod_mpi>
    7e66:	b9a0      	cbnz	r0, 7e92 <mpi_miller_rabin+0x194>
    7e68:	2101      	movs	r1, #1
    7e6a:	4620      	mov	r0, r4
    7e6c:	f7fe fe70 	bl	6b50 <mbedtls_mpi_cmp_int>
    7e70:	b960      	cbnz	r0, 7e8c <mpi_miller_rabin+0x18e>
    7e72:	4631      	mov	r1, r6
    7e74:	4620      	mov	r0, r4
    7e76:	f7fe fdc3 	bl	6a00 <mbedtls_mpi_cmp_mpi>
    7e7a:	2800      	cmp	r0, #0
    7e7c:	d1a5      	bne.n	7dca <mpi_miller_rabin+0xcc>
    7e7e:	2101      	movs	r1, #1
    7e80:	4620      	mov	r0, r4
    7e82:	f7fe fe65 	bl	6b50 <mbedtls_mpi_cmp_int>
    7e86:	2800      	cmp	r0, #0
    7e88:	d1ce      	bne.n	7e28 <mpi_miller_rabin+0x12a>
    7e8a:	e79e      	b.n	7dca <mpi_miller_rabin+0xcc>
    7e8c:	f108 0801 	add.w	r8, r8, #1
    7e90:	e7d7      	b.n	7e42 <mpi_miller_rabin+0x144>
    7e92:	4605      	mov	r5, r0
    7e94:	e79b      	b.n	7dce <mpi_miller_rabin+0xd0>

00007e96 <mbedtls_mpi_inv_mod>:
    7e96:	e92d 4ff0 	stmdb	sp!, {r4, r5, r6, r7, r8, r9, sl, fp, lr}
    7e9a:	b0a3      	sub	sp, #140	; 0x8c
    7e9c:	460e      	mov	r6, r1
    7e9e:	2101      	movs	r1, #1
    7ea0:	9005      	str	r0, [sp, #20]
    7ea2:	4610      	mov	r0, r2
    7ea4:	4615      	mov	r5, r2
    7ea6:	f7fe fe53 	bl	6b50 <mbedtls_mpi_cmp_int>
    7eaa:	2800      	cmp	r0, #0
    7eac:	f340 8158 	ble.w	8160 <mbedtls_mpi_inv_mod+0x2ca>
    7eb0:	af0a      	add	r7, sp, #40	; 0x28
    7eb2:	ac0d      	add	r4, sp, #52	; 0x34
    7eb4:	4638      	mov	r0, r7
    7eb6:	f10d 0b40 	add.w	fp, sp, #64	; 0x40
    7eba:	f7fe f9ca 	bl	6252 <mbedtls_mpi_init_mempool>
    7ebe:	4620      	mov	r0, r4
    7ec0:	f10d 0a4c 	add.w	sl, sp, #76	; 0x4c
    7ec4:	f7fe f9c5 	bl	6252 <mbedtls_mpi_init_mempool>
    7ec8:	4658      	mov	r0, fp
    7eca:	f10d 091c 	add.w	r9, sp, #28
    7ece:	f7fe f9c0 	bl	6252 <mbedtls_mpi_init_mempool>
    7ed2:	4650      	mov	r0, sl
    7ed4:	f7fe f9bd 	bl	6252 <mbedtls_mpi_init_mempool>
    7ed8:	4648      	mov	r0, r9
    7eda:	f7fe f9ba 	bl	6252 <mbedtls_mpi_init_mempool>
    7ede:	ab16      	add	r3, sp, #88	; 0x58
    7ee0:	4618      	mov	r0, r3
    7ee2:	9301      	str	r3, [sp, #4]
    7ee4:	f7fe f9b5 	bl	6252 <mbedtls_mpi_init_mempool>
    7ee8:	ab19      	add	r3, sp, #100	; 0x64
    7eea:	4618      	mov	r0, r3
    7eec:	9302      	str	r3, [sp, #8]
    7eee:	f7fe f9b0 	bl	6252 <mbedtls_mpi_init_mempool>
    7ef2:	ab1c      	add	r3, sp, #112	; 0x70
    7ef4:	4618      	mov	r0, r3
    7ef6:	9303      	str	r3, [sp, #12]
    7ef8:	f7fe f9ab 	bl	6252 <mbedtls_mpi_init_mempool>
    7efc:	a81f      	add	r0, sp, #124	; 0x7c
    7efe:	f7fe f9a8 	bl	6252 <mbedtls_mpi_init_mempool>
    7f02:	4631      	mov	r1, r6
    7f04:	462a      	mov	r2, r5
    7f06:	4648      	mov	r0, r9
    7f08:	f7ff fe44 	bl	7b94 <mbedtls_mpi_gcd>
    7f0c:	4601      	mov	r1, r0
    7f0e:	2800      	cmp	r0, #0
    7f10:	d156      	bne.n	7fc0 <mbedtls_mpi_inv_mod+0x12a>
    7f12:	2101      	movs	r1, #1
    7f14:	4648      	mov	r0, r9
    7f16:	f7fe fe1b 	bl	6b50 <mbedtls_mpi_cmp_int>
    7f1a:	2800      	cmp	r0, #0
    7f1c:	f040 811d 	bne.w	815a <mbedtls_mpi_inv_mod+0x2c4>
    7f20:	4631      	mov	r1, r6
    7f22:	462a      	mov	r2, r5
    7f24:	4638      	mov	r0, r7
    7f26:	f7ff fa34 	bl	7392 <mbedtls_mpi_mod_mpi>
    7f2a:	4601      	mov	r1, r0
    7f2c:	2800      	cmp	r0, #0
    7f2e:	d147      	bne.n	7fc0 <mbedtls_mpi_inv_mod+0x12a>
    7f30:	4639      	mov	r1, r7
    7f32:	4620      	mov	r0, r4
    7f34:	f7fe fa72 	bl	641c <mbedtls_mpi_copy>
    7f38:	4601      	mov	r1, r0
    7f3a:	2800      	cmp	r0, #0
    7f3c:	d140      	bne.n	7fc0 <mbedtls_mpi_inv_mod+0x12a>
    7f3e:	4629      	mov	r1, r5
    7f40:	9801      	ldr	r0, [sp, #4]
    7f42:	f7fe fa6b 	bl	641c <mbedtls_mpi_copy>
    7f46:	4601      	mov	r1, r0
    7f48:	2800      	cmp	r0, #0
    7f4a:	d139      	bne.n	7fc0 <mbedtls_mpi_inv_mod+0x12a>
    7f4c:	4629      	mov	r1, r5
    7f4e:	9802      	ldr	r0, [sp, #8]
    7f50:	f7fe fa64 	bl	641c <mbedtls_mpi_copy>
    7f54:	4601      	mov	r1, r0
    7f56:	2800      	cmp	r0, #0
    7f58:	d132      	bne.n	7fc0 <mbedtls_mpi_inv_mod+0x12a>
    7f5a:	2101      	movs	r1, #1
    7f5c:	4658      	mov	r0, fp
    7f5e:	f7fe fb1e 	bl	659e <mbedtls_mpi_lset>
    7f62:	4601      	mov	r1, r0
    7f64:	bb60      	cbnz	r0, 7fc0 <mbedtls_mpi_inv_mod+0x12a>
    7f66:	4650      	mov	r0, sl
    7f68:	f7fe fb19 	bl	659e <mbedtls_mpi_lset>
    7f6c:	4601      	mov	r1, r0
    7f6e:	bb38      	cbnz	r0, 7fc0 <mbedtls_mpi_inv_mod+0x12a>
    7f70:	9803      	ldr	r0, [sp, #12]
    7f72:	f7fe fb14 	bl	659e <mbedtls_mpi_lset>
    7f76:	4601      	mov	r1, r0
    7f78:	bb10      	cbnz	r0, 7fc0 <mbedtls_mpi_inv_mod+0x12a>
    7f7a:	ae1f      	add	r6, sp, #124	; 0x7c
    7f7c:	2101      	movs	r1, #1
    7f7e:	4630      	mov	r0, r6
    7f80:	f7fe fb0d 	bl	659e <mbedtls_mpi_lset>
    7f84:	4601      	mov	r1, r0
    7f86:	b9d8      	cbnz	r0, 7fc0 <mbedtls_mpi_inv_mod+0x12a>
    7f88:	ab16      	add	r3, sp, #88	; 0x58
    7f8a:	f10d 0864 	add.w	r8, sp, #100	; 0x64
    7f8e:	9304      	str	r3, [sp, #16]
    7f90:	9b0f      	ldr	r3, [sp, #60]	; 0x3c
    7f92:	681b      	ldr	r3, [r3, #0]
    7f94:	07d8      	lsls	r0, r3, #31
    7f96:	d46a      	bmi.n	806e <mbedtls_mpi_inv_mod+0x1d8>
    7f98:	2101      	movs	r1, #1
    7f9a:	4620      	mov	r0, r4
    7f9c:	f7fe fcb3 	bl	6906 <mbedtls_mpi_shift_r>
    7fa0:	4601      	mov	r1, r0
    7fa2:	b968      	cbnz	r0, 7fc0 <mbedtls_mpi_inv_mod+0x12a>
    7fa4:	9b12      	ldr	r3, [sp, #72]	; 0x48
    7fa6:	681b      	ldr	r3, [r3, #0]
    7fa8:	07da      	lsls	r2, r3, #31
    7faa:	d42a      	bmi.n	8002 <mbedtls_mpi_inv_mod+0x16c>
    7fac:	9b15      	ldr	r3, [sp, #84]	; 0x54
    7fae:	681b      	ldr	r3, [r3, #0]
    7fb0:	07db      	lsls	r3, r3, #31
    7fb2:	d426      	bmi.n	8002 <mbedtls_mpi_inv_mod+0x16c>
    7fb4:	2101      	movs	r1, #1
    7fb6:	a810      	add	r0, sp, #64	; 0x40
    7fb8:	f7fe fca5 	bl	6906 <mbedtls_mpi_shift_r>
    7fbc:	4601      	mov	r1, r0
    7fbe:	b388      	cbz	r0, 8024 <mbedtls_mpi_inv_mod+0x18e>
    7fc0:	4638      	mov	r0, r7
    7fc2:	9104      	str	r1, [sp, #16]
    7fc4:	f7fe f958 	bl	6278 <mbedtls_mpi_free>
    7fc8:	4620      	mov	r0, r4
    7fca:	f7fe f955 	bl	6278 <mbedtls_mpi_free>
    7fce:	4658      	mov	r0, fp
    7fd0:	f7fe f952 	bl	6278 <mbedtls_mpi_free>
    7fd4:	4650      	mov	r0, sl
    7fd6:	f7fe f94f 	bl	6278 <mbedtls_mpi_free>
    7fda:	4648      	mov	r0, r9
    7fdc:	f7fe f94c 	bl	6278 <mbedtls_mpi_free>
    7fe0:	9801      	ldr	r0, [sp, #4]
    7fe2:	f7fe f949 	bl	6278 <mbedtls_mpi_free>
    7fe6:	9802      	ldr	r0, [sp, #8]
    7fe8:	f7fe f946 	bl	6278 <mbedtls_mpi_free>
    7fec:	9803      	ldr	r0, [sp, #12]
    7fee:	f7fe f943 	bl	6278 <mbedtls_mpi_free>
    7ff2:	a81f      	add	r0, sp, #124	; 0x7c
    7ff4:	f7fe f940 	bl	6278 <mbedtls_mpi_free>
    7ff8:	9904      	ldr	r1, [sp, #16]
    7ffa:	4608      	mov	r0, r1
    7ffc:	b023      	add	sp, #140	; 0x8c
    7ffe:	e8bd 8ff0 	ldmia.w	sp!, {r4, r5, r6, r7, r8, r9, sl, fp, pc}
    8002:	a910      	add	r1, sp, #64	; 0x40
    8004:	9a04      	ldr	r2, [sp, #16]
    8006:	4608      	mov	r0, r1
    8008:	f7fe fe58 	bl	6cbc <mbedtls_mpi_add_mpi>
    800c:	4601      	mov	r1, r0
    800e:	2800      	cmp	r0, #0
    8010:	d1d6      	bne.n	7fc0 <mbedtls_mpi_inv_mod+0x12a>
    8012:	a913      	add	r1, sp, #76	; 0x4c
    8014:	463a      	mov	r2, r7
    8016:	4608      	mov	r0, r1
    8018:	f7fe fe74 	bl	6d04 <mbedtls_mpi_sub_mpi>
    801c:	4601      	mov	r1, r0
    801e:	2800      	cmp	r0, #0
    8020:	d0c8      	beq.n	7fb4 <mbedtls_mpi_inv_mod+0x11e>
    8022:	e7cd      	b.n	7fc0 <mbedtls_mpi_inv_mod+0x12a>
    8024:	2101      	movs	r1, #1
    8026:	a813      	add	r0, sp, #76	; 0x4c
    8028:	f7fe fc6d 	bl	6906 <mbedtls_mpi_shift_r>
    802c:	4601      	mov	r1, r0
    802e:	2800      	cmp	r0, #0
    8030:	d0ae      	beq.n	7f90 <mbedtls_mpi_inv_mod+0xfa>
    8032:	e7c5      	b.n	7fc0 <mbedtls_mpi_inv_mod+0x12a>
    8034:	2101      	movs	r1, #1
    8036:	4640      	mov	r0, r8
    8038:	f7fe fc65 	bl	6906 <mbedtls_mpi_shift_r>
    803c:	4601      	mov	r1, r0
    803e:	2800      	cmp	r0, #0
    8040:	d1be      	bne.n	7fc0 <mbedtls_mpi_inv_mod+0x12a>
    8042:	9b1e      	ldr	r3, [sp, #120]	; 0x78
    8044:	681b      	ldr	r3, [r3, #0]
    8046:	07d9      	lsls	r1, r3, #31
    8048:	d44d      	bmi.n	80e6 <mbedtls_mpi_inv_mod+0x250>
    804a:	9b21      	ldr	r3, [sp, #132]	; 0x84
    804c:	681b      	ldr	r3, [r3, #0]
    804e:	07da      	lsls	r2, r3, #31
    8050:	d449      	bmi.n	80e6 <mbedtls_mpi_inv_mod+0x250>
    8052:	2101      	movs	r1, #1
    8054:	a81c      	add	r0, sp, #112	; 0x70
    8056:	f7fe fc56 	bl	6906 <mbedtls_mpi_shift_r>
    805a:	4601      	mov	r1, r0
    805c:	2800      	cmp	r0, #0
    805e:	d1af      	bne.n	7fc0 <mbedtls_mpi_inv_mod+0x12a>
    8060:	2101      	movs	r1, #1
    8062:	4630      	mov	r0, r6
    8064:	f7fe fc4f 	bl	6906 <mbedtls_mpi_shift_r>
    8068:	4601      	mov	r1, r0
    806a:	2800      	cmp	r0, #0
    806c:	d1a8      	bne.n	7fc0 <mbedtls_mpi_inv_mod+0x12a>
    806e:	9b1b      	ldr	r3, [sp, #108]	; 0x6c
    8070:	681b      	ldr	r3, [r3, #0]
    8072:	07db      	lsls	r3, r3, #31
    8074:	d5de      	bpl.n	8034 <mbedtls_mpi_inv_mod+0x19e>
    8076:	4641      	mov	r1, r8
    8078:	4620      	mov	r0, r4
    807a:	f7fe fcc1 	bl	6a00 <mbedtls_mpi_cmp_mpi>
    807e:	2800      	cmp	r0, #0
    8080:	db43      	blt.n	810a <mbedtls_mpi_inv_mod+0x274>
    8082:	4621      	mov	r1, r4
    8084:	4642      	mov	r2, r8
    8086:	4620      	mov	r0, r4
    8088:	f7fe fe3c 	bl	6d04 <mbedtls_mpi_sub_mpi>
    808c:	4601      	mov	r1, r0
    808e:	2800      	cmp	r0, #0
    8090:	d196      	bne.n	7fc0 <mbedtls_mpi_inv_mod+0x12a>
    8092:	a910      	add	r1, sp, #64	; 0x40
    8094:	aa1c      	add	r2, sp, #112	; 0x70
    8096:	4608      	mov	r0, r1
    8098:	f7fe fe34 	bl	6d04 <mbedtls_mpi_sub_mpi>
    809c:	4601      	mov	r1, r0
    809e:	2800      	cmp	r0, #0
    80a0:	d18e      	bne.n	7fc0 <mbedtls_mpi_inv_mod+0x12a>
    80a2:	a913      	add	r1, sp, #76	; 0x4c
    80a4:	4632      	mov	r2, r6
    80a6:	4608      	mov	r0, r1
    80a8:	f7fe fe2c 	bl	6d04 <mbedtls_mpi_sub_mpi>
    80ac:	4601      	mov	r1, r0
    80ae:	2800      	cmp	r0, #0
    80b0:	d186      	bne.n	7fc0 <mbedtls_mpi_inv_mod+0x12a>
    80b2:	2100      	movs	r1, #0
    80b4:	4620      	mov	r0, r4
    80b6:	f7fe fd4b 	bl	6b50 <mbedtls_mpi_cmp_int>
    80ba:	2800      	cmp	r0, #0
    80bc:	f47f af68 	bne.w	7f90 <mbedtls_mpi_inv_mod+0xfa>
    80c0:	ae1c      	add	r6, sp, #112	; 0x70
    80c2:	2100      	movs	r1, #0
    80c4:	4630      	mov	r0, r6
    80c6:	f7fe fd43 	bl	6b50 <mbedtls_mpi_cmp_int>
    80ca:	2800      	cmp	r0, #0
    80cc:	db33      	blt.n	8136 <mbedtls_mpi_inv_mod+0x2a0>
    80ce:	4629      	mov	r1, r5
    80d0:	4630      	mov	r0, r6
    80d2:	f7fe fc95 	bl	6a00 <mbedtls_mpi_cmp_mpi>
    80d6:	2800      	cmp	r0, #0
    80d8:	da36      	bge.n	8148 <mbedtls_mpi_inv_mod+0x2b2>
    80da:	4631      	mov	r1, r6
    80dc:	9805      	ldr	r0, [sp, #20]
    80de:	f7fe f99d 	bl	641c <mbedtls_mpi_copy>
    80e2:	4601      	mov	r1, r0
    80e4:	e76c      	b.n	7fc0 <mbedtls_mpi_inv_mod+0x12a>
    80e6:	a91c      	add	r1, sp, #112	; 0x70
    80e8:	9a04      	ldr	r2, [sp, #16]
    80ea:	4608      	mov	r0, r1
    80ec:	f7fe fde6 	bl	6cbc <mbedtls_mpi_add_mpi>
    80f0:	4601      	mov	r1, r0
    80f2:	2800      	cmp	r0, #0
    80f4:	f47f af64 	bne.w	7fc0 <mbedtls_mpi_inv_mod+0x12a>
    80f8:	4631      	mov	r1, r6
    80fa:	463a      	mov	r2, r7
    80fc:	4630      	mov	r0, r6
    80fe:	f7fe fe01 	bl	6d04 <mbedtls_mpi_sub_mpi>
    8102:	4601      	mov	r1, r0
    8104:	2800      	cmp	r0, #0
    8106:	d0a4      	beq.n	8052 <mbedtls_mpi_inv_mod+0x1bc>
    8108:	e75a      	b.n	7fc0 <mbedtls_mpi_inv_mod+0x12a>
    810a:	4641      	mov	r1, r8
    810c:	4622      	mov	r2, r4
    810e:	4640      	mov	r0, r8
    8110:	f7fe fdf8 	bl	6d04 <mbedtls_mpi_sub_mpi>
    8114:	4601      	mov	r1, r0
    8116:	2800      	cmp	r0, #0
    8118:	f47f af52 	bne.w	7fc0 <mbedtls_mpi_inv_mod+0x12a>
    811c:	a91c      	add	r1, sp, #112	; 0x70
    811e:	aa10      	add	r2, sp, #64	; 0x40
    8120:	4608      	mov	r0, r1
    8122:	f7fe fdef 	bl	6d04 <mbedtls_mpi_sub_mpi>
    8126:	4601      	mov	r1, r0
    8128:	2800      	cmp	r0, #0
    812a:	f47f af49 	bne.w	7fc0 <mbedtls_mpi_inv_mod+0x12a>
    812e:	aa13      	add	r2, sp, #76	; 0x4c
    8130:	4631      	mov	r1, r6
    8132:	4630      	mov	r0, r6
    8134:	e7b8      	b.n	80a8 <mbedtls_mpi_inv_mod+0x212>
    8136:	4631      	mov	r1, r6
    8138:	462a      	mov	r2, r5
    813a:	4630      	mov	r0, r6
    813c:	f7fe fdbe 	bl	6cbc <mbedtls_mpi_add_mpi>
    8140:	4601      	mov	r1, r0
    8142:	2800      	cmp	r0, #0
    8144:	d0bd      	beq.n	80c2 <mbedtls_mpi_inv_mod+0x22c>
    8146:	e73b      	b.n	7fc0 <mbedtls_mpi_inv_mod+0x12a>
    8148:	4631      	mov	r1, r6
    814a:	462a      	mov	r2, r5
    814c:	4630      	mov	r0, r6
    814e:	f7fe fdd9 	bl	6d04 <mbedtls_mpi_sub_mpi>
    8152:	4601      	mov	r1, r0
    8154:	2800      	cmp	r0, #0
    8156:	d0ba      	beq.n	80ce <mbedtls_mpi_inv_mod+0x238>
    8158:	e732      	b.n	7fc0 <mbedtls_mpi_inv_mod+0x12a>
    815a:	f06f 010d 	mvn.w	r1, #13
    815e:	e72f      	b.n	7fc0 <mbedtls_mpi_inv_mod+0x12a>
    8160:	f06f 0103 	mvn.w	r1, #3
    8164:	e749      	b.n	7ffa <mbedtls_mpi_inv_mod+0x164>

00008166 <mbedtls_mpi_is_prime_ext>:
    8166:	e92d 41ff 	stmdb	sp!, {r0, r1, r2, r3, r4, r5, r6, r7, r8, lr}
    816a:	4698      	mov	r8, r3
    816c:	6843      	ldr	r3, [r0, #4]
    816e:	2501      	movs	r5, #1
    8170:	ac01      	add	r4, sp, #4
    8172:	460e      	mov	r6, r1
    8174:	2100      	movs	r1, #0
    8176:	4617      	mov	r7, r2
    8178:	f8ad 5004 	strh.w	r5, [sp, #4]
    817c:	9302      	str	r3, [sp, #8]
    817e:	6883      	ldr	r3, [r0, #8]
    8180:	4620      	mov	r0, r4
    8182:	9303      	str	r3, [sp, #12]
    8184:	f7fe fce4 	bl	6b50 <mbedtls_mpi_cmp_int>
    8188:	b920      	cbnz	r0, 8194 <mbedtls_mpi_is_prime_ext+0x2e>
    818a:	f06f 000d 	mvn.w	r0, #13
    818e:	b004      	add	sp, #16
    8190:	e8bd 81f0 	ldmia.w	sp!, {r4, r5, r6, r7, r8, pc}
    8194:	4629      	mov	r1, r5
    8196:	4620      	mov	r0, r4
    8198:	f7fe fcda 	bl	6b50 <mbedtls_mpi_cmp_int>
    819c:	2800      	cmp	r0, #0
    819e:	d0f4      	beq.n	818a <mbedtls_mpi_is_prime_ext+0x24>
    81a0:	2102      	movs	r1, #2
    81a2:	4620      	mov	r0, r4
    81a4:	f7fe fcd4 	bl	6b50 <mbedtls_mpi_cmp_int>
    81a8:	b128      	cbz	r0, 81b6 <mbedtls_mpi_is_prime_ext+0x50>
    81aa:	4620      	mov	r0, r4
    81ac:	f7ff fa14 	bl	75d8 <mpi_check_small_factors>
    81b0:	b118      	cbz	r0, 81ba <mbedtls_mpi_is_prime_ext+0x54>
    81b2:	2801      	cmp	r0, #1
    81b4:	d1eb      	bne.n	818e <mbedtls_mpi_is_prime_ext+0x28>
    81b6:	2000      	movs	r0, #0
    81b8:	e7e9      	b.n	818e <mbedtls_mpi_is_prime_ext+0x28>
    81ba:	4643      	mov	r3, r8
    81bc:	463a      	mov	r2, r7
    81be:	4631      	mov	r1, r6
    81c0:	4620      	mov	r0, r4
    81c2:	f7ff fd9c 	bl	7cfe <mpi_miller_rabin>
    81c6:	e7e2      	b.n	818e <mbedtls_mpi_is_prime_ext+0x28>

000081c8 <mbedtls_mpi_is_prime>:
    81c8:	4613      	mov	r3, r2
    81ca:	460a      	mov	r2, r1
    81cc:	2128      	movs	r1, #40	; 0x28
    81ce:	f7ff bfca 	b.w	8166 <mbedtls_mpi_is_prime_ext>

000081d2 <mbedtls_mpi_gen_prime>:
    81d2:	e92d 4ff0 	stmdb	sp!, {r4, r5, r6, r7, r8, r9, sl, fp, lr}
    81d6:	4692      	mov	sl, r2
    81d8:	4699      	mov	r9, r3
    81da:	1eca      	subs	r2, r1, #3
    81dc:	f641 73fd 	movw	r3, #8189	; 0x1ffd
    81e0:	b087      	sub	sp, #28
    81e2:	429a      	cmp	r2, r3
    81e4:	4606      	mov	r6, r0
    81e6:	460c      	mov	r4, r1
    81e8:	f200 80f3 	bhi.w	83d2 <mbedtls_mpi_gen_prime+0x200>
    81ec:	f10d 080c 	add.w	r8, sp, #12
    81f0:	4640      	mov	r0, r8
    81f2:	f7fe f82e 	bl	6252 <mbedtls_mpi_init_mempool>
    81f6:	f014 071f 	ands.w	r7, r4, #31
    81fa:	bf18      	it	ne
    81fc:	2701      	movne	r7, #1
    81fe:	f01a 0f02 	tst.w	sl, #2
    8202:	eb07 1754 	add.w	r7, r7, r4, lsr #5
    8206:	f040 8091 	bne.w	832c <mbedtls_mpi_gen_prime+0x15a>
    820a:	f240 5313 	movw	r3, #1299	; 0x513
    820e:	429c      	cmp	r4, r3
    8210:	f200 80a9 	bhi.w	8366 <mbedtls_mpi_gen_prime+0x194>
    8214:	f240 3351 	movw	r3, #849	; 0x351
    8218:	429c      	cmp	r4, r3
    821a:	f200 80a6 	bhi.w	836a <mbedtls_mpi_gen_prime+0x198>
    821e:	f240 2389 	movw	r3, #649	; 0x289
    8222:	429c      	cmp	r4, r3
    8224:	f200 80a5 	bhi.w	8372 <mbedtls_mpi_gen_prime+0x1a0>
    8228:	f5b4 7faf 	cmp.w	r4, #350	; 0x15e
    822c:	f080 80a9 	bcs.w	8382 <mbedtls_mpi_gen_prime+0x1b0>
    8230:	2cf9      	cmp	r4, #249	; 0xf9
    8232:	f200 809c 	bhi.w	836e <mbedtls_mpi_gen_prime+0x19c>
    8236:	2c95      	cmp	r4, #149	; 0x95
    8238:	bf8c      	ite	hi
    823a:	2512      	movhi	r5, #18
    823c:	251b      	movls	r5, #27
    823e:	ea4f 0b87 	mov.w	fp, r7, lsl #2
    8242:	017f      	lsls	r7, r7, #5
    8244:	f1ab 0304 	sub.w	r3, fp, #4
    8248:	f00a 0a01 	and.w	sl, sl, #1
    824c:	9300      	str	r3, [sp, #0]
    824e:	1b3b      	subs	r3, r7, r4
    8250:	9301      	str	r3, [sp, #4]
    8252:	9b10      	ldr	r3, [sp, #64]	; 0x40
    8254:	464a      	mov	r2, r9
    8256:	4659      	mov	r1, fp
    8258:	4630      	mov	r0, r6
    825a:	f7ff fd1f 	bl	7c9c <mbedtls_mpi_fill_random>
    825e:	4603      	mov	r3, r0
    8260:	2800      	cmp	r0, #0
    8262:	f040 809c 	bne.w	839e <mbedtls_mpi_gen_prime+0x1cc>
    8266:	9a00      	ldr	r2, [sp, #0]
    8268:	68b3      	ldr	r3, [r6, #8]
    826a:	589b      	ldr	r3, [r3, r2]
    826c:	4a5a      	ldr	r2, [pc, #360]	; (83d8 <mbedtls_mpi_gen_prime+0x206>)
    826e:	4293      	cmp	r3, r2
    8270:	d9ef      	bls.n	8252 <mbedtls_mpi_gen_prime+0x80>
    8272:	42bc      	cmp	r4, r7
    8274:	f0c0 808b 	bcc.w	838e <mbedtls_mpi_gen_prime+0x1bc>
    8278:	68b2      	ldr	r2, [r6, #8]
    827a:	6813      	ldr	r3, [r2, #0]
    827c:	f043 0101 	orr.w	r1, r3, #1
    8280:	6011      	str	r1, [r2, #0]
    8282:	f1ba 0f00 	cmp.w	sl, #0
    8286:	f000 8093 	beq.w	83b0 <mbedtls_mpi_gen_prime+0x1de>
    828a:	f043 0303 	orr.w	r3, r3, #3
    828e:	4631      	mov	r1, r6
    8290:	a802      	add	r0, sp, #8
    8292:	6013      	str	r3, [r2, #0]
    8294:	2203      	movs	r2, #3
    8296:	f7ff f8ae 	bl	73f6 <mbedtls_mpi_mod_int>
    829a:	4603      	mov	r3, r0
    829c:	2800      	cmp	r0, #0
    829e:	d17e      	bne.n	839e <mbedtls_mpi_gen_prime+0x1cc>
    82a0:	9b02      	ldr	r3, [sp, #8]
    82a2:	2b00      	cmp	r3, #0
    82a4:	f040 8090 	bne.w	83c8 <mbedtls_mpi_gen_prime+0x1f6>
    82a8:	2208      	movs	r2, #8
    82aa:	4631      	mov	r1, r6
    82ac:	4630      	mov	r0, r6
    82ae:	f7fe fd4e 	bl	6d4e <mbedtls_mpi_add_int>
    82b2:	4603      	mov	r3, r0
    82b4:	2800      	cmp	r0, #0
    82b6:	d172      	bne.n	839e <mbedtls_mpi_gen_prime+0x1cc>
    82b8:	4631      	mov	r1, r6
    82ba:	4640      	mov	r0, r8
    82bc:	f7fe f8ae 	bl	641c <mbedtls_mpi_copy>
    82c0:	4603      	mov	r3, r0
    82c2:	2800      	cmp	r0, #0
    82c4:	d16b      	bne.n	839e <mbedtls_mpi_gen_prime+0x1cc>
    82c6:	2101      	movs	r1, #1
    82c8:	4640      	mov	r0, r8
    82ca:	f7fe fb1c 	bl	6906 <mbedtls_mpi_shift_r>
    82ce:	4603      	mov	r3, r0
    82d0:	2800      	cmp	r0, #0
    82d2:	d164      	bne.n	839e <mbedtls_mpi_gen_prime+0x1cc>
    82d4:	4630      	mov	r0, r6
    82d6:	f7ff f97f 	bl	75d8 <mpi_check_small_factors>
    82da:	4603      	mov	r3, r0
    82dc:	b9a8      	cbnz	r0, 830a <mbedtls_mpi_gen_prime+0x138>
    82de:	4640      	mov	r0, r8
    82e0:	f7ff f97a 	bl	75d8 <mpi_check_small_factors>
    82e4:	4603      	mov	r3, r0
    82e6:	b980      	cbnz	r0, 830a <mbedtls_mpi_gen_prime+0x138>
    82e8:	9b10      	ldr	r3, [sp, #64]	; 0x40
    82ea:	464a      	mov	r2, r9
    82ec:	4629      	mov	r1, r5
    82ee:	4630      	mov	r0, r6
    82f0:	f7ff fd05 	bl	7cfe <mpi_miller_rabin>
    82f4:	4603      	mov	r3, r0
    82f6:	b940      	cbnz	r0, 830a <mbedtls_mpi_gen_prime+0x138>
    82f8:	9b10      	ldr	r3, [sp, #64]	; 0x40
    82fa:	464a      	mov	r2, r9
    82fc:	4629      	mov	r1, r5
    82fe:	4640      	mov	r0, r8
    8300:	f7ff fcfd 	bl	7cfe <mpi_miller_rabin>
    8304:	4603      	mov	r3, r0
    8306:	2800      	cmp	r0, #0
    8308:	d049      	beq.n	839e <mbedtls_mpi_gen_prime+0x1cc>
    830a:	f113 0f0e 	cmn.w	r3, #14
    830e:	d146      	bne.n	839e <mbedtls_mpi_gen_prime+0x1cc>
    8310:	220c      	movs	r2, #12
    8312:	4631      	mov	r1, r6
    8314:	4630      	mov	r0, r6
    8316:	f7fe fd1a 	bl	6d4e <mbedtls_mpi_add_int>
    831a:	4603      	mov	r3, r0
    831c:	2800      	cmp	r0, #0
    831e:	d13e      	bne.n	839e <mbedtls_mpi_gen_prime+0x1cc>
    8320:	2206      	movs	r2, #6
    8322:	4641      	mov	r1, r8
    8324:	4640      	mov	r0, r8
    8326:	f7fe fd12 	bl	6d4e <mbedtls_mpi_add_int>
    832a:	e7d0      	b.n	82ce <mbedtls_mpi_gen_prime+0xfc>
    832c:	f240 53a9 	movw	r3, #1449	; 0x5a9
    8330:	429c      	cmp	r4, r3
    8332:	d81e      	bhi.n	8372 <mbedtls_mpi_gen_prime+0x1a0>
    8334:	f240 437d 	movw	r3, #1149	; 0x47d
    8338:	429c      	cmp	r4, r3
    833a:	d81c      	bhi.n	8376 <mbedtls_mpi_gen_prime+0x1a4>
    833c:	f5b4 7f7a 	cmp.w	r4, #1000	; 0x3e8
    8340:	d21b      	bcs.n	837a <mbedtls_mpi_gen_prime+0x1a8>
    8342:	f240 3351 	movw	r3, #849	; 0x351
    8346:	429c      	cmp	r4, r3
    8348:	d819      	bhi.n	837e <mbedtls_mpi_gen_prime+0x1ac>
    834a:	f240 23ed 	movw	r3, #749	; 0x2ed
    834e:	429c      	cmp	r4, r3
    8350:	d817      	bhi.n	8382 <mbedtls_mpi_gen_prime+0x1b0>
    8352:	f5b4 7ffa 	cmp.w	r4, #500	; 0x1f4
    8356:	d216      	bcs.n	8386 <mbedtls_mpi_gen_prime+0x1b4>
    8358:	2cf9      	cmp	r4, #249	; 0xf9
    835a:	d816      	bhi.n	838a <mbedtls_mpi_gen_prime+0x1b8>
    835c:	2c95      	cmp	r4, #149	; 0x95
    835e:	bf8c      	ite	hi
    8360:	2528      	movhi	r5, #40	; 0x28
    8362:	2533      	movls	r5, #51	; 0x33
    8364:	e76b      	b.n	823e <mbedtls_mpi_gen_prime+0x6c>
    8366:	2502      	movs	r5, #2
    8368:	e769      	b.n	823e <mbedtls_mpi_gen_prime+0x6c>
    836a:	2503      	movs	r5, #3
    836c:	e767      	b.n	823e <mbedtls_mpi_gen_prime+0x6c>
    836e:	250c      	movs	r5, #12
    8370:	e765      	b.n	823e <mbedtls_mpi_gen_prime+0x6c>
    8372:	2504      	movs	r5, #4
    8374:	e763      	b.n	823e <mbedtls_mpi_gen_prime+0x6c>
    8376:	2505      	movs	r5, #5
    8378:	e761      	b.n	823e <mbedtls_mpi_gen_prime+0x6c>
    837a:	2506      	movs	r5, #6
    837c:	e75f      	b.n	823e <mbedtls_mpi_gen_prime+0x6c>
    837e:	2507      	movs	r5, #7
    8380:	e75d      	b.n	823e <mbedtls_mpi_gen_prime+0x6c>
    8382:	2508      	movs	r5, #8
    8384:	e75b      	b.n	823e <mbedtls_mpi_gen_prime+0x6c>
    8386:	250d      	movs	r5, #13
    8388:	e759      	b.n	823e <mbedtls_mpi_gen_prime+0x6c>
    838a:	251c      	movs	r5, #28
    838c:	e757      	b.n	823e <mbedtls_mpi_gen_prime+0x6c>
    838e:	4630      	mov	r0, r6
    8390:	9901      	ldr	r1, [sp, #4]
    8392:	f7fe fab8 	bl	6906 <mbedtls_mpi_shift_r>
    8396:	4603      	mov	r3, r0
    8398:	2800      	cmp	r0, #0
    839a:	f43f af6d 	beq.w	8278 <mbedtls_mpi_gen_prime+0xa6>
    839e:	4640      	mov	r0, r8
    83a0:	9300      	str	r3, [sp, #0]
    83a2:	f7fd ff69 	bl	6278 <mbedtls_mpi_free>
    83a6:	9b00      	ldr	r3, [sp, #0]
    83a8:	4618      	mov	r0, r3
    83aa:	b007      	add	sp, #28
    83ac:	e8bd 8ff0 	ldmia.w	sp!, {r4, r5, r6, r7, r8, r9, sl, fp, pc}
    83b0:	9b10      	ldr	r3, [sp, #64]	; 0x40
    83b2:	464a      	mov	r2, r9
    83b4:	4629      	mov	r1, r5
    83b6:	4630      	mov	r0, r6
    83b8:	f7ff fed5 	bl	8166 <mbedtls_mpi_is_prime_ext>
    83bc:	f110 0f0e 	cmn.w	r0, #14
    83c0:	4603      	mov	r3, r0
    83c2:	f43f af46 	beq.w	8252 <mbedtls_mpi_gen_prime+0x80>
    83c6:	e7ea      	b.n	839e <mbedtls_mpi_gen_prime+0x1cc>
    83c8:	2b01      	cmp	r3, #1
    83ca:	f47f af75 	bne.w	82b8 <mbedtls_mpi_gen_prime+0xe6>
    83ce:	2204      	movs	r2, #4
    83d0:	e76b      	b.n	82aa <mbedtls_mpi_gen_prime+0xd8>
    83d2:	f06f 0303 	mvn.w	r3, #3
    83d6:	e7e7      	b.n	83a8 <mbedtls_mpi_gen_prime+0x1d6>
    83d8:	b504f333 	.word	0xb504f333

000083dc <mbedtls_mpi_self_test>:
    83dc:	e92d 4ff0 	stmdb	sp!, {r4, r5, r6, r7, r8, r9, sl, fp, lr}
    83e0:	b09b      	sub	sp, #108	; 0x6c
    83e2:	af05      	add	r7, sp, #20
    83e4:	4604      	mov	r4, r0
    83e6:	f10d 0b20 	add.w	fp, sp, #32
    83ea:	4638      	mov	r0, r7
    83ec:	f7fd ff31 	bl	6252 <mbedtls_mpi_init_mempool>
    83f0:	f10d 082c 	add.w	r8, sp, #44	; 0x2c
    83f4:	4658      	mov	r0, fp
    83f6:	f7fd ff2c 	bl	6252 <mbedtls_mpi_init_mempool>
    83fa:	ad0e      	add	r5, sp, #56	; 0x38
    83fc:	4640      	mov	r0, r8
    83fe:	f7fd ff28 	bl	6252 <mbedtls_mpi_init_mempool>
    8402:	f10d 0944 	add.w	r9, sp, #68	; 0x44
    8406:	4628      	mov	r0, r5
    8408:	f7fd ff23 	bl	6252 <mbedtls_mpi_init_mempool>
    840c:	ae14      	add	r6, sp, #80	; 0x50
    840e:	4648      	mov	r0, r9
    8410:	f7fd ff1f 	bl	6252 <mbedtls_mpi_init_mempool>
    8414:	4630      	mov	r0, r6
    8416:	f7fd ff1c 	bl	6252 <mbedtls_mpi_init_mempool>
    841a:	a817      	add	r0, sp, #92	; 0x5c
    841c:	f7fd ff19 	bl	6252 <mbedtls_mpi_init_mempool>
    8420:	4aa3      	ldr	r2, [pc, #652]	; (86b0 <mbedtls_mpi_self_test+0x2d4>)
    8422:	2110      	movs	r1, #16
    8424:	4638      	mov	r0, r7
    8426:	447a      	add	r2, pc
    8428:	f7fe fd41 	bl	6eae <mbedtls_mpi_read_string>
    842c:	4603      	mov	r3, r0
    842e:	2800      	cmp	r0, #0
    8430:	f040 811e 	bne.w	8670 <mbedtls_mpi_self_test+0x294>
    8434:	4a9f      	ldr	r2, [pc, #636]	; (86b4 <mbedtls_mpi_self_test+0x2d8>)
    8436:	2110      	movs	r1, #16
    8438:	4658      	mov	r0, fp
    843a:	447a      	add	r2, pc
    843c:	f7fe fd37 	bl	6eae <mbedtls_mpi_read_string>
    8440:	4603      	mov	r3, r0
    8442:	2800      	cmp	r0, #0
    8444:	f040 8114 	bne.w	8670 <mbedtls_mpi_self_test+0x294>
    8448:	4a9b      	ldr	r2, [pc, #620]	; (86b8 <mbedtls_mpi_self_test+0x2dc>)
    844a:	2110      	movs	r1, #16
    844c:	4640      	mov	r0, r8
    844e:	447a      	add	r2, pc
    8450:	f7fe fd2d 	bl	6eae <mbedtls_mpi_read_string>
    8454:	4603      	mov	r3, r0
    8456:	2800      	cmp	r0, #0
    8458:	f040 810a 	bne.w	8670 <mbedtls_mpi_self_test+0x294>
    845c:	4642      	mov	r2, r8
    845e:	4639      	mov	r1, r7
    8460:	4628      	mov	r0, r5
    8462:	f7fe fca2 	bl	6daa <mbedtls_mpi_mul_mpi>
    8466:	4603      	mov	r3, r0
    8468:	2800      	cmp	r0, #0
    846a:	f040 8101 	bne.w	8670 <mbedtls_mpi_self_test+0x294>
    846e:	4a93      	ldr	r2, [pc, #588]	; (86bc <mbedtls_mpi_self_test+0x2e0>)
    8470:	2110      	movs	r1, #16
    8472:	4630      	mov	r0, r6
    8474:	447a      	add	r2, pc
    8476:	f7fe fd1a 	bl	6eae <mbedtls_mpi_read_string>
    847a:	4603      	mov	r3, r0
    847c:	2800      	cmp	r0, #0
    847e:	f040 80f7 	bne.w	8670 <mbedtls_mpi_self_test+0x294>
    8482:	b11c      	cbz	r4, 848c <mbedtls_mpi_self_test+0xb0>
    8484:	488e      	ldr	r0, [pc, #568]	; (86c0 <mbedtls_mpi_self_test+0x2e4>)
    8486:	4478      	add	r0, pc
    8488:	f7f8 fc7f 	bl	d8a <printf>
    848c:	4631      	mov	r1, r6
    848e:	4628      	mov	r0, r5
    8490:	f7fe fab6 	bl	6a00 <mbedtls_mpi_cmp_mpi>
    8494:	ab17      	add	r3, sp, #92	; 0x5c
    8496:	9303      	str	r3, [sp, #12]
    8498:	b140      	cbz	r0, 84ac <mbedtls_mpi_self_test+0xd0>
    849a:	2c00      	cmp	r4, #0
    849c:	f000 80f1 	beq.w	8682 <mbedtls_mpi_self_test+0x2a6>
    84a0:	4888      	ldr	r0, [pc, #544]	; (86c4 <mbedtls_mpi_self_test+0x2e8>)
    84a2:	4478      	add	r0, pc
    84a4:	f7f8 fc8e 	bl	dc4 <puts>
    84a8:	2301      	movs	r3, #1
    84aa:	e0e3      	b.n	8674 <mbedtls_mpi_self_test+0x298>
    84ac:	b11c      	cbz	r4, 84b6 <mbedtls_mpi_self_test+0xda>
    84ae:	4886      	ldr	r0, [pc, #536]	; (86c8 <mbedtls_mpi_self_test+0x2ec>)
    84b0:	4478      	add	r0, pc
    84b2:	f7f8 fc87 	bl	dc4 <puts>
    84b6:	4643      	mov	r3, r8
    84b8:	463a      	mov	r2, r7
    84ba:	4649      	mov	r1, r9
    84bc:	4628      	mov	r0, r5
    84be:	f7fe fd8d 	bl	6fdc <mbedtls_mpi_div_mpi>
    84c2:	4603      	mov	r3, r0
    84c4:	2800      	cmp	r0, #0
    84c6:	f040 80d3 	bne.w	8670 <mbedtls_mpi_self_test+0x294>
    84ca:	4a80      	ldr	r2, [pc, #512]	; (86cc <mbedtls_mpi_self_test+0x2f0>)
    84cc:	2110      	movs	r1, #16
    84ce:	4630      	mov	r0, r6
    84d0:	447a      	add	r2, pc
    84d2:	f7fe fcec 	bl	6eae <mbedtls_mpi_read_string>
    84d6:	4603      	mov	r3, r0
    84d8:	2800      	cmp	r0, #0
    84da:	f040 80c9 	bne.w	8670 <mbedtls_mpi_self_test+0x294>
    84de:	4a7c      	ldr	r2, [pc, #496]	; (86d0 <mbedtls_mpi_self_test+0x2f4>)
    84e0:	2110      	movs	r1, #16
    84e2:	9803      	ldr	r0, [sp, #12]
    84e4:	447a      	add	r2, pc
    84e6:	f7fe fce2 	bl	6eae <mbedtls_mpi_read_string>
    84ea:	4603      	mov	r3, r0
    84ec:	2800      	cmp	r0, #0
    84ee:	f040 80bf 	bne.w	8670 <mbedtls_mpi_self_test+0x294>
    84f2:	b11c      	cbz	r4, 84fc <mbedtls_mpi_self_test+0x120>
    84f4:	4877      	ldr	r0, [pc, #476]	; (86d4 <mbedtls_mpi_self_test+0x2f8>)
    84f6:	4478      	add	r0, pc
    84f8:	f7f8 fc47 	bl	d8a <printf>
    84fc:	4631      	mov	r1, r6
    84fe:	4628      	mov	r0, r5
    8500:	f7fe fa7e 	bl	6a00 <mbedtls_mpi_cmp_mpi>
    8504:	2800      	cmp	r0, #0
    8506:	d1c8      	bne.n	849a <mbedtls_mpi_self_test+0xbe>
    8508:	4648      	mov	r0, r9
    850a:	9903      	ldr	r1, [sp, #12]
    850c:	f7fe fa78 	bl	6a00 <mbedtls_mpi_cmp_mpi>
    8510:	2800      	cmp	r0, #0
    8512:	d1c2      	bne.n	849a <mbedtls_mpi_self_test+0xbe>
    8514:	b11c      	cbz	r4, 851e <mbedtls_mpi_self_test+0x142>
    8516:	4870      	ldr	r0, [pc, #448]	; (86d8 <mbedtls_mpi_self_test+0x2fc>)
    8518:	4478      	add	r0, pc
    851a:	f7f8 fc53 	bl	dc4 <puts>
    851e:	2300      	movs	r3, #0
    8520:	465a      	mov	r2, fp
    8522:	4639      	mov	r1, r7
    8524:	4628      	mov	r0, r5
    8526:	9300      	str	r3, [sp, #0]
    8528:	4643      	mov	r3, r8
    852a:	f7ff f906 	bl	773a <mbedtls_mpi_exp_mod>
    852e:	4603      	mov	r3, r0
    8530:	2800      	cmp	r0, #0
    8532:	f040 809d 	bne.w	8670 <mbedtls_mpi_self_test+0x294>
    8536:	4a69      	ldr	r2, [pc, #420]	; (86dc <mbedtls_mpi_self_test+0x300>)
    8538:	2110      	movs	r1, #16
    853a:	4630      	mov	r0, r6
    853c:	447a      	add	r2, pc
    853e:	f7fe fcb6 	bl	6eae <mbedtls_mpi_read_string>
    8542:	4603      	mov	r3, r0
    8544:	2800      	cmp	r0, #0
    8546:	f040 8093 	bne.w	8670 <mbedtls_mpi_self_test+0x294>
    854a:	b11c      	cbz	r4, 8554 <mbedtls_mpi_self_test+0x178>
    854c:	4864      	ldr	r0, [pc, #400]	; (86e0 <mbedtls_mpi_self_test+0x304>)
    854e:	4478      	add	r0, pc
    8550:	f7f8 fc1b 	bl	d8a <printf>
    8554:	4631      	mov	r1, r6
    8556:	4628      	mov	r0, r5
    8558:	f7fe fa52 	bl	6a00 <mbedtls_mpi_cmp_mpi>
    855c:	2800      	cmp	r0, #0
    855e:	d19c      	bne.n	849a <mbedtls_mpi_self_test+0xbe>
    8560:	b11c      	cbz	r4, 856a <mbedtls_mpi_self_test+0x18e>
    8562:	4860      	ldr	r0, [pc, #384]	; (86e4 <mbedtls_mpi_self_test+0x308>)
    8564:	4478      	add	r0, pc
    8566:	f7f8 fc2d 	bl	dc4 <puts>
    856a:	4642      	mov	r2, r8
    856c:	4639      	mov	r1, r7
    856e:	4628      	mov	r0, r5
    8570:	f7ff fc91 	bl	7e96 <mbedtls_mpi_inv_mod>
    8574:	4603      	mov	r3, r0
    8576:	2800      	cmp	r0, #0
    8578:	d17a      	bne.n	8670 <mbedtls_mpi_self_test+0x294>
    857a:	4a5b      	ldr	r2, [pc, #364]	; (86e8 <mbedtls_mpi_self_test+0x30c>)
    857c:	2110      	movs	r1, #16
    857e:	4630      	mov	r0, r6
    8580:	447a      	add	r2, pc
    8582:	f7fe fc94 	bl	6eae <mbedtls_mpi_read_string>
    8586:	4603      	mov	r3, r0
    8588:	2800      	cmp	r0, #0
    858a:	d171      	bne.n	8670 <mbedtls_mpi_self_test+0x294>
    858c:	b11c      	cbz	r4, 8596 <mbedtls_mpi_self_test+0x1ba>
    858e:	4857      	ldr	r0, [pc, #348]	; (86ec <mbedtls_mpi_self_test+0x310>)
    8590:	4478      	add	r0, pc
    8592:	f7f8 fbfa 	bl	d8a <printf>
    8596:	4631      	mov	r1, r6
    8598:	4628      	mov	r0, r5
    859a:	f7fe fa31 	bl	6a00 <mbedtls_mpi_cmp_mpi>
    859e:	9002      	str	r0, [sp, #8]
    85a0:	2800      	cmp	r0, #0
    85a2:	f47f af7a 	bne.w	849a <mbedtls_mpi_self_test+0xbe>
    85a6:	b13c      	cbz	r4, 85b8 <mbedtls_mpi_self_test+0x1dc>
    85a8:	4851      	ldr	r0, [pc, #324]	; (86f0 <mbedtls_mpi_self_test+0x314>)
    85aa:	4478      	add	r0, pc
    85ac:	f7f8 fc0a 	bl	dc4 <puts>
    85b0:	4850      	ldr	r0, [pc, #320]	; (86f4 <mbedtls_mpi_self_test+0x318>)
    85b2:	4478      	add	r0, pc
    85b4:	f7f8 fbe9 	bl	d8a <printf>
    85b8:	f8df a13c 	ldr.w	sl, [pc, #316]	; 86f8 <mbedtls_mpi_self_test+0x31c>
    85bc:	44fa      	add	sl, pc
    85be:	f50a 7a28 	add.w	sl, sl, #672	; 0x2a0
    85c2:	4628      	mov	r0, r5
    85c4:	f8da 1000 	ldr.w	r1, [sl]
    85c8:	f7fd ffe9 	bl	659e <mbedtls_mpi_lset>
    85cc:	4603      	mov	r3, r0
    85ce:	2800      	cmp	r0, #0
    85d0:	d14e      	bne.n	8670 <mbedtls_mpi_self_test+0x294>
    85d2:	4648      	mov	r0, r9
    85d4:	f8da 1004 	ldr.w	r1, [sl, #4]
    85d8:	f7fd ffe1 	bl	659e <mbedtls_mpi_lset>
    85dc:	4603      	mov	r3, r0
    85de:	2800      	cmp	r0, #0
    85e0:	d146      	bne.n	8670 <mbedtls_mpi_self_test+0x294>
    85e2:	464a      	mov	r2, r9
    85e4:	4629      	mov	r1, r5
    85e6:	4638      	mov	r0, r7
    85e8:	f7ff fad4 	bl	7b94 <mbedtls_mpi_gcd>
    85ec:	4603      	mov	r3, r0
    85ee:	2800      	cmp	r0, #0
    85f0:	d13e      	bne.n	8670 <mbedtls_mpi_self_test+0x294>
    85f2:	4638      	mov	r0, r7
    85f4:	f8da 1008 	ldr.w	r1, [sl, #8]
    85f8:	f7fe faaa 	bl	6b50 <mbedtls_mpi_cmp_int>
    85fc:	4603      	mov	r3, r0
    85fe:	b138      	cbz	r0, 8610 <mbedtls_mpi_self_test+0x234>
    8600:	2c00      	cmp	r4, #0
    8602:	d03e      	beq.n	8682 <mbedtls_mpi_self_test+0x2a6>
    8604:	483d      	ldr	r0, [pc, #244]	; (86fc <mbedtls_mpi_self_test+0x320>)
    8606:	9902      	ldr	r1, [sp, #8]
    8608:	4478      	add	r0, pc
    860a:	f7f8 fbbe 	bl	d8a <printf>
    860e:	e74b      	b.n	84a8 <mbedtls_mpi_self_test+0xcc>
    8610:	9a02      	ldr	r2, [sp, #8]
    8612:	f10a 0a0c 	add.w	sl, sl, #12
    8616:	3201      	adds	r2, #1
    8618:	2a03      	cmp	r2, #3
    861a:	9202      	str	r2, [sp, #8]
    861c:	d1d1      	bne.n	85c2 <mbedtls_mpi_self_test+0x1e6>
    861e:	b32c      	cbz	r4, 866c <mbedtls_mpi_self_test+0x290>
    8620:	4837      	ldr	r0, [pc, #220]	; (8700 <mbedtls_mpi_self_test+0x324>)
    8622:	9302      	str	r3, [sp, #8]
    8624:	4478      	add	r0, pc
    8626:	f7f8 fbcd 	bl	dc4 <puts>
    862a:	9b02      	ldr	r3, [sp, #8]
    862c:	4638      	mov	r0, r7
    862e:	9302      	str	r3, [sp, #8]
    8630:	f7fd fe22 	bl	6278 <mbedtls_mpi_free>
    8634:	4658      	mov	r0, fp
    8636:	f7fd fe1f 	bl	6278 <mbedtls_mpi_free>
    863a:	4640      	mov	r0, r8
    863c:	f7fd fe1c 	bl	6278 <mbedtls_mpi_free>
    8640:	4628      	mov	r0, r5
    8642:	f7fd fe19 	bl	6278 <mbedtls_mpi_free>
    8646:	4648      	mov	r0, r9
    8648:	f7fd fe16 	bl	6278 <mbedtls_mpi_free>
    864c:	4630      	mov	r0, r6
    864e:	f7fd fe13 	bl	6278 <mbedtls_mpi_free>
    8652:	a817      	add	r0, sp, #92	; 0x5c
    8654:	f7fd fe10 	bl	6278 <mbedtls_mpi_free>
    8658:	9b02      	ldr	r3, [sp, #8]
    865a:	b11c      	cbz	r4, 8664 <mbedtls_mpi_self_test+0x288>
    865c:	200a      	movs	r0, #10
    865e:	f7f8 fbc3 	bl	de8 <putchar>
    8662:	9b02      	ldr	r3, [sp, #8]
    8664:	4618      	mov	r0, r3
    8666:	b01b      	add	sp, #108	; 0x6c
    8668:	e8bd 8ff0 	ldmia.w	sp!, {r4, r5, r6, r7, r8, r9, sl, fp, pc}
    866c:	4623      	mov	r3, r4
    866e:	e7dd      	b.n	862c <mbedtls_mpi_self_test+0x250>
    8670:	2c00      	cmp	r4, #0
    8672:	d0db      	beq.n	862c <mbedtls_mpi_self_test+0x250>
    8674:	4823      	ldr	r0, [pc, #140]	; (8704 <mbedtls_mpi_self_test+0x328>)
    8676:	4619      	mov	r1, r3
    8678:	9302      	str	r3, [sp, #8]
    867a:	4478      	add	r0, pc
    867c:	f7f8 fb85 	bl	d8a <printf>
    8680:	e7d3      	b.n	862a <mbedtls_mpi_self_test+0x24e>
    8682:	4638      	mov	r0, r7
    8684:	f7fd fdf8 	bl	6278 <mbedtls_mpi_free>
    8688:	4658      	mov	r0, fp
    868a:	f7fd fdf5 	bl	6278 <mbedtls_mpi_free>
    868e:	4640      	mov	r0, r8
    8690:	f7fd fdf2 	bl	6278 <mbedtls_mpi_free>
    8694:	4628      	mov	r0, r5
    8696:	f7fd fdef 	bl	6278 <mbedtls_mpi_free>
    869a:	4648      	mov	r0, r9
    869c:	f7fd fdec 	bl	6278 <mbedtls_mpi_free>
    86a0:	4630      	mov	r0, r6
    86a2:	f7fd fde9 	bl	6278 <mbedtls_mpi_free>
    86a6:	9803      	ldr	r0, [sp, #12]
    86a8:	f7fd fde6 	bl	6278 <mbedtls_mpi_free>
    86ac:	2301      	movs	r3, #1
    86ae:	e7d9      	b.n	8664 <mbedtls_mpi_self_test+0x288>
    86b0:	00001aef 	.word	0x00001aef
    86b4:	00001b5c 	.word	0x00001b5c
    86b8:	00001bc9 	.word	0x00001bc9
    86bc:	00001c04 	.word	0x00001c04
    86c0:	00001cd1 	.word	0x00001cd1
    86c4:	00001a34 	.word	0x00001a34
    86c8:	00001cc1 	.word	0x00001cc1
    86cc:	00001ca8 	.word	0x00001ca8
    86d0:	00001cb8 	.word	0x00001cb8
    86d4:	00001d05 	.word	0x00001d05
    86d8:	00001c59 	.word	0x00001c59
    86dc:	00001cd9 	.word	0x00001cd9
    86e0:	00001d26 	.word	0x00001d26
    86e4:	00001c0d 	.word	0x00001c0d
    86e8:	00001d0e 	.word	0x00001d0e
    86ec:	00001d5f 	.word	0x00001d5f
    86f0:	00001bc7 	.word	0x00001bc7
    86f4:	00001d57 	.word	0x00001d57
    86f8:	00000ec0 	.word	0x00000ec0
    86fc:	00001d1e 	.word	0x00001d1e
    8700:	00001b4d 	.word	0x00001b4d
    8704:	00001cba 	.word	0x00001cba

00008708 <mbedtls_platform_zeroize>:
    8708:	460a      	mov	r2, r1
    870a:	b121      	cbz	r1, 8716 <mbedtls_platform_zeroize+0xe>
    870c:	4b02      	ldr	r3, [pc, #8]	; (8718 <mbedtls_platform_zeroize+0x10>)
    870e:	2100      	movs	r1, #0
    8710:	447b      	add	r3, pc
    8712:	681b      	ldr	r3, [r3, #0]
    8714:	4718      	bx	r3
    8716:	4770      	bx	lr
    8718:	00003bdc 	.word	0x00003bdc

0000871c <raw_malloc_return_hook.constprop.22>:
    871c:	4b09      	ldr	r3, [pc, #36]	; (8744 <raw_malloc_return_hook.constprop.22+0x28>)
    871e:	b510      	push	{r4, lr}
    8720:	447b      	add	r3, pc
    8722:	691a      	ldr	r2, [r3, #16]
    8724:	6c9c      	ldr	r4, [r3, #72]	; 0x48
    8726:	42a2      	cmp	r2, r4
    8728:	bf88      	it	hi
    872a:	649a      	strhi	r2, [r3, #72]	; 0x48
    872c:	b948      	cbnz	r0, 8742 <raw_malloc_return_hook.constprop.22+0x26>
    872e:	4b06      	ldr	r3, [pc, #24]	; (8748 <raw_malloc_return_hook.constprop.22+0x2c>)
    8730:	447b      	add	r3, pc
    8732:	6d18      	ldr	r0, [r3, #80]	; 0x50
    8734:	3001      	adds	r0, #1
    8736:	6518      	str	r0, [r3, #80]	; 0x50
    8738:	6d58      	ldr	r0, [r3, #84]	; 0x54
    873a:	4288      	cmp	r0, r1
    873c:	bf3c      	itt	cc
    873e:	6559      	strcc	r1, [r3, #84]	; 0x54
    8740:	659a      	strcc	r2, [r3, #88]	; 0x58
    8742:	bd10      	pop	{r4, pc}
    8744:	00003bd0 	.word	0x00003bd0
    8748:	00003bc0 	.word	0x00003bc0

0000874c <bget>:
    874c:	2a00      	cmp	r2, #0
    874e:	b5f8      	push	{r3, r4, r5, r6, r7, lr}
    8750:	4605      	mov	r5, r0
    8752:	dc0b      	bgt.n	876c <bget+0x20>
    8754:	4b67      	ldr	r3, [pc, #412]	; (88f4 <bget+0x1a8>)
    8756:	f240 2271 	movw	r2, #625	; 0x271
    875a:	4967      	ldr	r1, [pc, #412]	; (88f8 <bget+0x1ac>)
    875c:	4867      	ldr	r0, [pc, #412]	; (88fc <bget+0x1b0>)
    875e:	447b      	add	r3, pc
    8760:	4479      	add	r1, pc
    8762:	4478      	add	r0, pc
    8764:	f7fd fa78 	bl	5c58 <_assert_log>
    8768:	f7fd fa8a 	bl	5c80 <_assert_break>
    876c:	2800      	cmp	r0, #0
    876e:	db22      	blt.n	87b6 <bget+0x6a>
    8770:	d003      	beq.n	877a <bget+0x2e>
    8772:	4240      	negs	r0, r0
    8774:	ea35 0000 	bics.w	r0, r5, r0
    8778:	d11d      	bne.n	87b6 <bget+0x6a>
    877a:	f011 0007 	ands.w	r0, r1, #7
    877e:	d11a      	bne.n	87b6 <bget+0x6a>
    8780:	2a08      	cmp	r2, #8
    8782:	bfb8      	it	lt
    8784:	2208      	movlt	r2, #8
    8786:	1dd4      	adds	r4, r2, #7
    8788:	d415      	bmi.n	87b6 <bget+0x6a>
    878a:	4294      	cmp	r4, r2
    878c:	d313      	bcc.n	87b6 <bget+0x6a>
    878e:	f024 0407 	bic.w	r4, r4, #7
    8792:	2208      	movs	r2, #8
    8794:	18a4      	adds	r4, r4, r2
    8796:	d700      	bvc.n	879a <bget+0x4e>
    8798:	bdf8      	pop	{r3, r4, r5, r6, r7, pc}
    879a:	1864      	adds	r4, r4, r1
    879c:	d60c      	bvs.n	87b8 <bget+0x6c>
    879e:	2d08      	cmp	r5, #8
    87a0:	f8df c15c 	ldr.w	ip, [pc, #348]	; 8900 <bget+0x1b4>
    87a4:	f101 0708 	add.w	r7, r1, #8
    87a8:	689a      	ldr	r2, [r3, #8]
    87aa:	bfb8      	it	lt
    87ac:	2508      	movlt	r5, #8
    87ae:	1b3f      	subs	r7, r7, r4
    87b0:	4268      	negs	r0, r5
    87b2:	429a      	cmp	r2, r3
    87b4:	d101      	bne.n	87ba <bget+0x6e>
    87b6:	2000      	movs	r0, #0
    87b8:	bdf8      	pop	{r3, r4, r5, r6, r7, pc}
    87ba:	6856      	ldr	r6, [r2, #4]
    87bc:	42b4      	cmp	r4, r6
    87be:	f300 8096 	bgt.w	88ee <bget+0x1a2>
    87c2:	18bd      	adds	r5, r7, r2
    87c4:	4435      	add	r5, r6
    87c6:	4005      	ands	r5, r0
    87c8:	1aad      	subs	r5, r5, r2
    87ca:	1a6d      	subs	r5, r5, r1
    87cc:	f1b5 0e08 	subs.w	lr, r5, #8
    87d0:	d003      	beq.n	87da <bget+0x8e>
    87d2:	3d18      	subs	r5, #24
    87d4:	4565      	cmp	r5, ip
    87d6:	f200 808a 	bhi.w	88ee <bget+0x1a2>
    87da:	5991      	ldr	r1, [r2, r6]
    87dc:	eb02 000e 	add.w	r0, r2, lr
    87e0:	eb02 0c06 	add.w	ip, r2, r6
    87e4:	42b1      	cmp	r1, r6
    87e6:	d008      	beq.n	87fa <bget+0xae>
    87e8:	4b46      	ldr	r3, [pc, #280]	; (8904 <bget+0x1b8>)
    87ea:	f240 22b2 	movw	r2, #690	; 0x2b2
    87ee:	4946      	ldr	r1, [pc, #280]	; (8908 <bget+0x1bc>)
    87f0:	4846      	ldr	r0, [pc, #280]	; (890c <bget+0x1c0>)
    87f2:	447b      	add	r3, pc
    87f4:	4479      	add	r1, pc
    87f6:	4478      	add	r0, pc
    87f8:	e7b4      	b.n	8764 <bget+0x18>
    87fa:	68d7      	ldr	r7, [r2, #12]
    87fc:	2100      	movs	r1, #0
    87fe:	5191      	str	r1, [r2, r6]
    8800:	68b9      	ldr	r1, [r7, #8]
    8802:	428a      	cmp	r2, r1
    8804:	d008      	beq.n	8818 <bget+0xcc>
    8806:	4b42      	ldr	r3, [pc, #264]	; (8910 <bget+0x1c4>)
    8808:	f240 22ba 	movw	r2, #698	; 0x2ba
    880c:	4941      	ldr	r1, [pc, #260]	; (8914 <bget+0x1c8>)
    880e:	4842      	ldr	r0, [pc, #264]	; (8918 <bget+0x1cc>)
    8810:	447b      	add	r3, pc
    8812:	4479      	add	r1, pc
    8814:	4478      	add	r0, pc
    8816:	e7a5      	b.n	8764 <bget+0x18>
    8818:	6891      	ldr	r1, [r2, #8]
    881a:	68cd      	ldr	r5, [r1, #12]
    881c:	42aa      	cmp	r2, r5
    881e:	d008      	beq.n	8832 <bget+0xe6>
    8820:	4b3e      	ldr	r3, [pc, #248]	; (891c <bget+0x1d0>)
    8822:	f240 22bb 	movw	r2, #699	; 0x2bb
    8826:	493e      	ldr	r1, [pc, #248]	; (8920 <bget+0x1d4>)
    8828:	483e      	ldr	r0, [pc, #248]	; (8924 <bget+0x1d8>)
    882a:	447b      	add	r3, pc
    882c:	4479      	add	r1, pc
    882e:	4478      	add	r0, pc
    8830:	e798      	b.n	8764 <bget+0x18>
    8832:	f1be 0f00 	cmp.w	lr, #0
    8836:	d110      	bne.n	885a <bget+0x10e>
    8838:	60b9      	str	r1, [r7, #8]
    883a:	6891      	ldr	r1, [r2, #8]
    883c:	4276      	negs	r6, r6
    883e:	60cf      	str	r7, [r1, #12]
    8840:	6056      	str	r6, [r2, #4]
    8842:	6841      	ldr	r1, [r0, #4]
    8844:	2900      	cmp	r1, #0
    8846:	db10      	blt.n	886a <bget+0x11e>
    8848:	4b37      	ldr	r3, [pc, #220]	; (8928 <bget+0x1dc>)
    884a:	f240 22d1 	movw	r2, #721	; 0x2d1
    884e:	4937      	ldr	r1, [pc, #220]	; (892c <bget+0x1e0>)
    8850:	4837      	ldr	r0, [pc, #220]	; (8930 <bget+0x1e4>)
    8852:	447b      	add	r3, pc
    8854:	4479      	add	r1, pc
    8856:	4478      	add	r0, pc
    8858:	e784      	b.n	8764 <bget+0x18>
    885a:	ebae 0606 	sub.w	r6, lr, r6
    885e:	f8c0 e000 	str.w	lr, [r0]
    8862:	6046      	str	r6, [r0, #4]
    8864:	f8c2 e004 	str.w	lr, [r2, #4]
    8868:	e7eb      	b.n	8842 <bget+0xf6>
    886a:	4249      	negs	r1, r1
    886c:	1b09      	subs	r1, r1, r4
    886e:	2910      	cmp	r1, #16
    8870:	d934      	bls.n	88dc <bget+0x190>
    8872:	1902      	adds	r2, r0, r4
    8874:	2600      	movs	r6, #0
    8876:	6051      	str	r1, [r2, #4]
    8878:	5106      	str	r6, [r0, r4]
    887a:	6844      	ldr	r4, [r0, #4]
    887c:	4421      	add	r1, r4
    887e:	6041      	str	r1, [r0, #4]
    8880:	68d9      	ldr	r1, [r3, #12]
    8882:	688c      	ldr	r4, [r1, #8]
    8884:	42a3      	cmp	r3, r4
    8886:	d008      	beq.n	889a <bget+0x14e>
    8888:	4b2a      	ldr	r3, [pc, #168]	; (8934 <bget+0x1e8>)
    888a:	f240 22e3 	movw	r2, #739	; 0x2e3
    888e:	492a      	ldr	r1, [pc, #168]	; (8938 <bget+0x1ec>)
    8890:	482a      	ldr	r0, [pc, #168]	; (893c <bget+0x1f0>)
    8892:	447b      	add	r3, pc
    8894:	4479      	add	r1, pc
    8896:	4478      	add	r0, pc
    8898:	e764      	b.n	8764 <bget+0x18>
    889a:	689c      	ldr	r4, [r3, #8]
    889c:	68e4      	ldr	r4, [r4, #12]
    889e:	42a3      	cmp	r3, r4
    88a0:	d008      	beq.n	88b4 <bget+0x168>
    88a2:	4b27      	ldr	r3, [pc, #156]	; (8940 <bget+0x1f4>)
    88a4:	f240 22e5 	movw	r2, #741	; 0x2e5
    88a8:	4926      	ldr	r1, [pc, #152]	; (8944 <bget+0x1f8>)
    88aa:	4827      	ldr	r0, [pc, #156]	; (8948 <bget+0x1fc>)
    88ac:	447b      	add	r3, pc
    88ae:	4479      	add	r1, pc
    88b0:	4478      	add	r0, pc
    88b2:	e757      	b.n	8764 <bget+0x18>
    88b4:	6093      	str	r3, [r2, #8]
    88b6:	60d1      	str	r1, [r2, #12]
    88b8:	60da      	str	r2, [r3, #12]
    88ba:	68d1      	ldr	r1, [r2, #12]
    88bc:	608a      	str	r2, [r1, #8]
    88be:	6851      	ldr	r1, [r2, #4]
    88c0:	440a      	add	r2, r1
    88c2:	4594      	cmp	ip, r2
    88c4:	d008      	beq.n	88d8 <bget+0x18c>
    88c6:	4b21      	ldr	r3, [pc, #132]	; (894c <bget+0x200>)
    88c8:	f240 22eb 	movw	r2, #747	; 0x2eb
    88cc:	4920      	ldr	r1, [pc, #128]	; (8950 <bget+0x204>)
    88ce:	4821      	ldr	r0, [pc, #132]	; (8954 <bget+0x208>)
    88d0:	447b      	add	r3, pc
    88d2:	4479      	add	r1, pc
    88d4:	4478      	add	r0, pc
    88d6:	e745      	b.n	8764 <bget+0x18>
    88d8:	f8cc 1000 	str.w	r1, [ip]
    88dc:	6841      	ldr	r1, [r0, #4]
    88de:	3008      	adds	r0, #8
    88e0:	691a      	ldr	r2, [r3, #16]
    88e2:	1a52      	subs	r2, r2, r1
    88e4:	611a      	str	r2, [r3, #16]
    88e6:	695a      	ldr	r2, [r3, #20]
    88e8:	3201      	adds	r2, #1
    88ea:	615a      	str	r2, [r3, #20]
    88ec:	bdf8      	pop	{r3, r4, r5, r6, r7, pc}
    88ee:	6892      	ldr	r2, [r2, #8]
    88f0:	e75f      	b.n	87b2 <bget+0x66>
    88f2:	bf00      	nop
    88f4:	00001bfc 	.word	0x00001bfc
    88f8:	00001c52 	.word	0x00001c52
    88fc:	00001ede 	.word	0x00001ede
    8900:	7fffffef 	.word	0x7fffffef
    8904:	00001b68 	.word	0x00001b68
    8908:	00001bbe 	.word	0x00001bbe
    890c:	00001bd5 	.word	0x00001bd5
    8910:	00001b4a 	.word	0x00001b4a
    8914:	00001ba0 	.word	0x00001ba0
    8918:	00001bd7 	.word	0x00001bd7
    891c:	00001b30 	.word	0x00001b30
    8920:	00001b86 	.word	0x00001b86
    8924:	00001bd8 	.word	0x00001bd8
    8928:	00001b08 	.word	0x00001b08
    892c:	00001b5e 	.word	0x00001b5e
    8930:	00001bcb 	.word	0x00001bcb
    8934:	00001ac8 	.word	0x00001ac8
    8938:	00001b1e 	.word	0x00001b1e
    893c:	00001b9e 	.word	0x00001b9e
    8940:	00001aae 	.word	0x00001aae
    8944:	00001b04 	.word	0x00001b04
    8948:	00001bbf 	.word	0x00001bbf
    894c:	00001a8a 	.word	0x00001a8a
    8950:	00001ae0 	.word	0x00001ae0
    8954:	00001bd6 	.word	0x00001bd6

00008958 <bgetz>:
    8958:	b538      	push	{r3, r4, r5, lr}
    895a:	4615      	mov	r5, r2
    895c:	f7ff fef6 	bl	874c <bget>
    8960:	4604      	mov	r4, r0
    8962:	b308      	cbz	r0, 89a8 <bgetz+0x50>
    8964:	f850 2c04 	ldr.w	r2, [r0, #-4]
    8968:	b9a2      	cbnz	r2, 8994 <bgetz+0x3c>
    896a:	f850 2c10 	ldr.w	r2, [r0, #-16]
    896e:	f850 3c0c 	ldr.w	r3, [r0, #-12]
    8972:	3a10      	subs	r2, #16
    8974:	1ad2      	subs	r2, r2, r3
    8976:	42aa      	cmp	r2, r5
    8978:	da12      	bge.n	89a0 <bgetz+0x48>
    897a:	4b0c      	ldr	r3, [pc, #48]	; (89ac <bgetz+0x54>)
    897c:	f240 3263 	movw	r2, #867	; 0x363
    8980:	490b      	ldr	r1, [pc, #44]	; (89b0 <bgetz+0x58>)
    8982:	480c      	ldr	r0, [pc, #48]	; (89b4 <bgetz+0x5c>)
    8984:	447b      	add	r3, pc
    8986:	3305      	adds	r3, #5
    8988:	4479      	add	r1, pc
    898a:	4478      	add	r0, pc
    898c:	f7fd f964 	bl	5c58 <_assert_log>
    8990:	f7fd f976 	bl	5c80 <_assert_break>
    8994:	f1c2 22ff 	rsb	r2, r2, #4278255360	; 0xff00ff00
    8998:	f502 027f 	add.w	r2, r2, #16711680	; 0xff0000
    899c:	32f8      	adds	r2, #248	; 0xf8
    899e:	e7ea      	b.n	8976 <bgetz+0x1e>
    89a0:	2100      	movs	r1, #0
    89a2:	4620      	mov	r0, r4
    89a4:	f000 fbd7 	bl	9156 <memset>
    89a8:	4620      	mov	r0, r4
    89aa:	bd38      	pop	{r3, r4, r5, pc}
    89ac:	000019d6 	.word	0x000019d6
    89b0:	00001a2a 	.word	0x00001a2a
    89b4:	00001b46 	.word	0x00001b46

000089b8 <brel>:
    89b8:	b5f8      	push	{r3, r4, r5, r6, r7, lr}
    89ba:	f1a0 0408 	sub.w	r4, r0, #8
    89be:	698b      	ldr	r3, [r1, #24]
    89c0:	3301      	adds	r3, #1
    89c2:	618b      	str	r3, [r1, #24]
    89c4:	b960      	cbnz	r0, 89e0 <brel+0x28>
    89c6:	4b5d      	ldr	r3, [pc, #372]	; (8b3c <brel+0x184>)
    89c8:	f240 32a5 	movw	r2, #933	; 0x3a5
    89cc:	495c      	ldr	r1, [pc, #368]	; (8b40 <brel+0x188>)
    89ce:	485d      	ldr	r0, [pc, #372]	; (8b44 <brel+0x18c>)
    89d0:	447b      	add	r3, pc
    89d2:	330b      	adds	r3, #11
    89d4:	4479      	add	r1, pc
    89d6:	4478      	add	r0, pc
    89d8:	f7fd f93e 	bl	5c58 <_assert_log>
    89dc:	f7fd f950 	bl	5c80 <_assert_break>
    89e0:	f850 3c04 	ldr.w	r3, [r0, #-4]
    89e4:	2b00      	cmp	r3, #0
    89e6:	db09      	blt.n	89fc <brel+0x44>
    89e8:	4b57      	ldr	r3, [pc, #348]	; (8b48 <brel+0x190>)
    89ea:	f44f 7272 	mov.w	r2, #968	; 0x3c8
    89ee:	4957      	ldr	r1, [pc, #348]	; (8b4c <brel+0x194>)
    89f0:	4857      	ldr	r0, [pc, #348]	; (8b50 <brel+0x198>)
    89f2:	447b      	add	r3, pc
    89f4:	330b      	adds	r3, #11
    89f6:	4479      	add	r1, pc
    89f8:	4478      	add	r0, pc
    89fa:	e7ed      	b.n	89d8 <brel+0x20>
    89fc:	1ae5      	subs	r5, r4, r3
    89fe:	682d      	ldr	r5, [r5, #0]
    8a00:	b14d      	cbz	r5, 8a16 <brel+0x5e>
    8a02:	4b54      	ldr	r3, [pc, #336]	; (8b54 <brel+0x19c>)
    8a04:	f240 32ce 	movw	r2, #974	; 0x3ce
    8a08:	4953      	ldr	r1, [pc, #332]	; (8b58 <brel+0x1a0>)
    8a0a:	4854      	ldr	r0, [pc, #336]	; (8b5c <brel+0x1a4>)
    8a0c:	447b      	add	r3, pc
    8a0e:	330b      	adds	r3, #11
    8a10:	4479      	add	r1, pc
    8a12:	4478      	add	r0, pc
    8a14:	e7e0      	b.n	89d8 <brel+0x20>
    8a16:	690d      	ldr	r5, [r1, #16]
    8a18:	441d      	add	r5, r3
    8a1a:	2d00      	cmp	r5, #0
    8a1c:	610d      	str	r5, [r1, #16]
    8a1e:	da09      	bge.n	8a34 <brel+0x7c>
    8a20:	4b4f      	ldr	r3, [pc, #316]	; (8b60 <brel+0x1a8>)
    8a22:	f240 32d2 	movw	r2, #978	; 0x3d2
    8a26:	494f      	ldr	r1, [pc, #316]	; (8b64 <brel+0x1ac>)
    8a28:	484f      	ldr	r0, [pc, #316]	; (8b68 <brel+0x1b0>)
    8a2a:	447b      	add	r3, pc
    8a2c:	330b      	adds	r3, #11
    8a2e:	4479      	add	r1, pc
    8a30:	4478      	add	r0, pc
    8a32:	e7d1      	b.n	89d8 <brel+0x20>
    8a34:	f850 5c08 	ldr.w	r5, [r0, #-8]
    8a38:	b30d      	cbz	r5, 8a7e <brel+0xc6>
    8a3a:	1b64      	subs	r4, r4, r5
    8a3c:	6861      	ldr	r1, [r4, #4]
    8a3e:	428d      	cmp	r5, r1
    8a40:	d009      	beq.n	8a56 <brel+0x9e>
    8a42:	4b4a      	ldr	r3, [pc, #296]	; (8b6c <brel+0x1b4>)
    8a44:	f240 32e2 	movw	r2, #994	; 0x3e2
    8a48:	4949      	ldr	r1, [pc, #292]	; (8b70 <brel+0x1b8>)
    8a4a:	484a      	ldr	r0, [pc, #296]	; (8b74 <brel+0x1bc>)
    8a4c:	447b      	add	r3, pc
    8a4e:	330b      	adds	r3, #11
    8a50:	4479      	add	r1, pc
    8a52:	4478      	add	r0, pc
    8a54:	e7c0      	b.n	89d8 <brel+0x20>
    8a56:	1aeb      	subs	r3, r5, r3
    8a58:	6063      	str	r3, [r4, #4]
    8a5a:	6863      	ldr	r3, [r4, #4]
    8a5c:	18e5      	adds	r5, r4, r3
    8a5e:	6869      	ldr	r1, [r5, #4]
    8a60:	2900      	cmp	r1, #0
    8a62:	dd53      	ble.n	8b0c <brel+0x154>
    8a64:	5868      	ldr	r0, [r5, r1]
    8a66:	4281      	cmp	r1, r0
    8a68:	d02e      	beq.n	8ac8 <brel+0x110>
    8a6a:	4b43      	ldr	r3, [pc, #268]	; (8b78 <brel+0x1c0>)
    8a6c:	f240 32fe 	movw	r2, #1022	; 0x3fe
    8a70:	4942      	ldr	r1, [pc, #264]	; (8b7c <brel+0x1c4>)
    8a72:	4843      	ldr	r0, [pc, #268]	; (8b80 <brel+0x1c8>)
    8a74:	447b      	add	r3, pc
    8a76:	330b      	adds	r3, #11
    8a78:	4479      	add	r1, pc
    8a7a:	4478      	add	r0, pc
    8a7c:	e7ac      	b.n	89d8 <brel+0x20>
    8a7e:	68ce      	ldr	r6, [r1, #12]
    8a80:	68b5      	ldr	r5, [r6, #8]
    8a82:	428d      	cmp	r5, r1
    8a84:	d009      	beq.n	8a9a <brel+0xe2>
    8a86:	4b3f      	ldr	r3, [pc, #252]	; (8b84 <brel+0x1cc>)
    8a88:	f240 32ea 	movw	r2, #1002	; 0x3ea
    8a8c:	493e      	ldr	r1, [pc, #248]	; (8b88 <brel+0x1d0>)
    8a8e:	483f      	ldr	r0, [pc, #252]	; (8b8c <brel+0x1d4>)
    8a90:	447b      	add	r3, pc
    8a92:	330b      	adds	r3, #11
    8a94:	4479      	add	r1, pc
    8a96:	4478      	add	r0, pc
    8a98:	e79e      	b.n	89d8 <brel+0x20>
    8a9a:	68a9      	ldr	r1, [r5, #8]
    8a9c:	68c9      	ldr	r1, [r1, #12]
    8a9e:	428d      	cmp	r5, r1
    8aa0:	d009      	beq.n	8ab6 <brel+0xfe>
    8aa2:	4b3b      	ldr	r3, [pc, #236]	; (8b90 <brel+0x1d8>)
    8aa4:	f240 32eb 	movw	r2, #1003	; 0x3eb
    8aa8:	493a      	ldr	r1, [pc, #232]	; (8b94 <brel+0x1dc>)
    8aaa:	483b      	ldr	r0, [pc, #236]	; (8b98 <brel+0x1e0>)
    8aac:	447b      	add	r3, pc
    8aae:	330b      	adds	r3, #11
    8ab0:	4479      	add	r1, pc
    8ab2:	4478      	add	r0, pc
    8ab4:	e790      	b.n	89d8 <brel+0x20>
    8ab6:	e9c0 5600 	strd	r5, r6, [r0]
    8aba:	425b      	negs	r3, r3
    8abc:	60ec      	str	r4, [r5, #12]
    8abe:	6841      	ldr	r1, [r0, #4]
    8ac0:	608c      	str	r4, [r1, #8]
    8ac2:	f840 3c04 	str.w	r3, [r0, #-4]
    8ac6:	e7c8      	b.n	8a5a <brel+0xa2>
    8ac8:	68e8      	ldr	r0, [r5, #12]
    8aca:	6886      	ldr	r6, [r0, #8]
    8acc:	42b5      	cmp	r5, r6
    8ace:	d009      	beq.n	8ae4 <brel+0x12c>
    8ad0:	4b32      	ldr	r3, [pc, #200]	; (8b9c <brel+0x1e4>)
    8ad2:	f240 32ff 	movw	r2, #1023	; 0x3ff
    8ad6:	4932      	ldr	r1, [pc, #200]	; (8ba0 <brel+0x1e8>)
    8ad8:	4832      	ldr	r0, [pc, #200]	; (8ba4 <brel+0x1ec>)
    8ada:	447b      	add	r3, pc
    8adc:	330b      	adds	r3, #11
    8ade:	4479      	add	r1, pc
    8ae0:	4478      	add	r0, pc
    8ae2:	e779      	b.n	89d8 <brel+0x20>
    8ae4:	68ae      	ldr	r6, [r5, #8]
    8ae6:	68f7      	ldr	r7, [r6, #12]
    8ae8:	42bd      	cmp	r5, r7
    8aea:	d009      	beq.n	8b00 <brel+0x148>
    8aec:	4b2e      	ldr	r3, [pc, #184]	; (8ba8 <brel+0x1f0>)
    8aee:	f44f 6280 	mov.w	r2, #1024	; 0x400
    8af2:	492e      	ldr	r1, [pc, #184]	; (8bac <brel+0x1f4>)
    8af4:	482e      	ldr	r0, [pc, #184]	; (8bb0 <brel+0x1f8>)
    8af6:	447b      	add	r3, pc
    8af8:	330b      	adds	r3, #11
    8afa:	4479      	add	r1, pc
    8afc:	4478      	add	r0, pc
    8afe:	e76b      	b.n	89d8 <brel+0x20>
    8b00:	6086      	str	r6, [r0, #8]
    8b02:	68ad      	ldr	r5, [r5, #8]
    8b04:	60e8      	str	r0, [r5, #12]
    8b06:	185d      	adds	r5, r3, r1
    8b08:	6065      	str	r5, [r4, #4]
    8b0a:	4425      	add	r5, r4
    8b0c:	b132      	cbz	r2, 8b1c <brel+0x164>
    8b0e:	6862      	ldr	r2, [r4, #4]
    8b10:	2155      	movs	r1, #85	; 0x55
    8b12:	f104 0010 	add.w	r0, r4, #16
    8b16:	3a10      	subs	r2, #16
    8b18:	f000 fb1d 	bl	9156 <memset>
    8b1c:	686b      	ldr	r3, [r5, #4]
    8b1e:	2b00      	cmp	r3, #0
    8b20:	db09      	blt.n	8b36 <brel+0x17e>
    8b22:	4b24      	ldr	r3, [pc, #144]	; (8bb4 <brel+0x1fc>)
    8b24:	f240 4212 	movw	r2, #1042	; 0x412
    8b28:	4923      	ldr	r1, [pc, #140]	; (8bb8 <brel+0x200>)
    8b2a:	4824      	ldr	r0, [pc, #144]	; (8bbc <brel+0x204>)
    8b2c:	447b      	add	r3, pc
    8b2e:	330b      	adds	r3, #11
    8b30:	4479      	add	r1, pc
    8b32:	4478      	add	r0, pc
    8b34:	e750      	b.n	89d8 <brel+0x20>
    8b36:	6863      	ldr	r3, [r4, #4]
    8b38:	602b      	str	r3, [r5, #0]
    8b3a:	bdf8      	pop	{r3, r4, r5, r6, r7, pc}
    8b3c:	0000198a 	.word	0x0000198a
    8b40:	000019de 	.word	0x000019de
    8b44:	00001b08 	.word	0x00001b08
    8b48:	00001968 	.word	0x00001968
    8b4c:	000019bc 	.word	0x000019bc
    8b50:	00001af2 	.word	0x00001af2
    8b54:	0000194e 	.word	0x0000194e
    8b58:	000019a2 	.word	0x000019a2
    8b5c:	00001ae8 	.word	0x00001ae8
    8b60:	00001930 	.word	0x00001930
    8b64:	00001984 	.word	0x00001984
    8b68:	00001af6 	.word	0x00001af6
    8b6c:	0000190e 	.word	0x0000190e
    8b70:	00001962 	.word	0x00001962
    8b74:	00001aeb 	.word	0x00001aeb
    8b78:	000018e6 	.word	0x000018e6
    8b7c:	0000193a 	.word	0x0000193a
    8b80:	00001afc 	.word	0x00001afc
    8b84:	000018ca 	.word	0x000018ca
    8b88:	0000191e 	.word	0x0000191e
    8b8c:	0000199e 	.word	0x0000199e
    8b90:	000018ae 	.word	0x000018ae
    8b94:	00001902 	.word	0x00001902
    8b98:	000019bd 	.word	0x000019bd
    8b9c:	00001880 	.word	0x00001880
    8ba0:	000018d4 	.word	0x000018d4
    8ba4:	00001acf 	.word	0x00001acf
    8ba8:	00001864 	.word	0x00001864
    8bac:	000018b8 	.word	0x000018b8
    8bb0:	00001ad0 	.word	0x00001ad0
    8bb4:	0000182e 	.word	0x0000182e
    8bb8:	00001882 	.word	0x00001882
    8bbc:	00001ab7 	.word	0x00001ab7

00008bc0 <bgetr>:
    8bc0:	b5f8      	push	{r3, r4, r5, r6, r7, lr}
    8bc2:	4605      	mov	r5, r0
    8bc4:	461e      	mov	r6, r3
    8bc6:	4608      	mov	r0, r1
    8bc8:	4611      	mov	r1, r2
    8bca:	461a      	mov	r2, r3
    8bcc:	9b06      	ldr	r3, [sp, #24]
    8bce:	f7ff fdbd 	bl	874c <bget>
    8bd2:	4607      	mov	r7, r0
    8bd4:	b348      	cbz	r0, 8c2a <bgetr+0x6a>
    8bd6:	b345      	cbz	r5, 8c2a <bgetr+0x6a>
    8bd8:	f855 4c04 	ldr.w	r4, [r5, #-4]
    8bdc:	f1c4 24ff 	rsb	r4, r4, #4278255360	; 0xff00ff00
    8be0:	f504 047f 	add.w	r4, r4, #16711680	; 0xff0000
    8be4:	34f8      	adds	r4, #248	; 0xf8
    8be6:	2c00      	cmp	r4, #0
    8be8:	dc0c      	bgt.n	8c04 <bgetr+0x44>
    8bea:	4b11      	ldr	r3, [pc, #68]	; (8c30 <bgetr+0x70>)
    8bec:	f240 328b 	movw	r2, #907	; 0x38b
    8bf0:	4910      	ldr	r1, [pc, #64]	; (8c34 <bgetr+0x74>)
    8bf2:	4811      	ldr	r0, [pc, #68]	; (8c38 <bgetr+0x78>)
    8bf4:	447b      	add	r3, pc
    8bf6:	3310      	adds	r3, #16
    8bf8:	4479      	add	r1, pc
    8bfa:	4478      	add	r0, pc
    8bfc:	f7fd f82c 	bl	5c58 <_assert_log>
    8c00:	f7fd f83e 	bl	5c80 <_assert_break>
    8c04:	42a6      	cmp	r6, r4
    8c06:	4632      	mov	r2, r6
    8c08:	4629      	mov	r1, r5
    8c0a:	bfa8      	it	ge
    8c0c:	4622      	movge	r2, r4
    8c0e:	f7f7 fb9b 	bl	348 <memcpy>
    8c12:	42a6      	cmp	r6, r4
    8c14:	dd04      	ble.n	8c20 <bgetr+0x60>
    8c16:	1b32      	subs	r2, r6, r4
    8c18:	2100      	movs	r1, #0
    8c1a:	1938      	adds	r0, r7, r4
    8c1c:	f000 fa9b 	bl	9156 <memset>
    8c20:	2200      	movs	r2, #0
    8c22:	4628      	mov	r0, r5
    8c24:	9906      	ldr	r1, [sp, #24]
    8c26:	f7ff fec7 	bl	89b8 <brel>
    8c2a:	4638      	mov	r0, r7
    8c2c:	bdf8      	pop	{r3, r4, r5, r6, r7, pc}
    8c2e:	bf00      	nop
    8c30:	00001766 	.word	0x00001766
    8c34:	000017ba 	.word	0x000017ba
    8c38:	00001a00 	.word	0x00001a00

00008c3c <raw_realloc.constprop.15>:
    8c3c:	b537      	push	{r0, r1, r2, r4, r5, lr}
    8c3e:	0fca      	lsrs	r2, r1, #31
    8c40:	460c      	mov	r4, r1
    8c42:	d111      	bne.n	8c68 <raw_realloc.constprop.15+0x2c>
    8c44:	4b09      	ldr	r3, [pc, #36]	; (8c6c <raw_realloc.constprop.15+0x30>)
    8c46:	2900      	cmp	r1, #0
    8c48:	4611      	mov	r1, r2
    8c4a:	447b      	add	r3, pc
    8c4c:	9300      	str	r3, [sp, #0]
    8c4e:	bf14      	ite	ne
    8c50:	4623      	movne	r3, r4
    8c52:	2301      	moveq	r3, #1
    8c54:	f7ff ffb4 	bl	8bc0 <bgetr>
    8c58:	4605      	mov	r5, r0
    8c5a:	4628      	mov	r0, r5
    8c5c:	4621      	mov	r1, r4
    8c5e:	f7ff fd5d 	bl	871c <raw_malloc_return_hook.constprop.22>
    8c62:	4628      	mov	r0, r5
    8c64:	b003      	add	sp, #12
    8c66:	bd30      	pop	{r4, r5, pc}
    8c68:	2500      	movs	r5, #0
    8c6a:	e7f6      	b.n	8c5a <raw_realloc.constprop.15+0x1e>
    8c6c:	000036a6 	.word	0x000036a6

00008c70 <bpool>:
    8c70:	f021 0107 	bic.w	r1, r1, #7
    8c74:	b510      	push	{r4, lr}
    8c76:	3908      	subs	r1, #8
    8c78:	d50c      	bpl.n	8c94 <bpool+0x24>
    8c7a:	4b1b      	ldr	r3, [pc, #108]	; (8ce8 <bpool+0x78>)
    8c7c:	f240 4265 	movw	r2, #1125	; 0x465
    8c80:	491a      	ldr	r1, [pc, #104]	; (8cec <bpool+0x7c>)
    8c82:	481b      	ldr	r0, [pc, #108]	; (8cf0 <bpool+0x80>)
    8c84:	447b      	add	r3, pc
    8c86:	3316      	adds	r3, #22
    8c88:	4479      	add	r1, pc
    8c8a:	4478      	add	r0, pc
    8c8c:	f7fc ffe4 	bl	5c58 <_assert_log>
    8c90:	f7fc fff6 	bl	5c80 <_assert_break>
    8c94:	68d4      	ldr	r4, [r2, #12]
    8c96:	2300      	movs	r3, #0
    8c98:	6003      	str	r3, [r0, #0]
    8c9a:	68a3      	ldr	r3, [r4, #8]
    8c9c:	4293      	cmp	r3, r2
    8c9e:	d009      	beq.n	8cb4 <bpool+0x44>
    8ca0:	4b14      	ldr	r3, [pc, #80]	; (8cf4 <bpool+0x84>)
    8ca2:	f240 426f 	movw	r2, #1135	; 0x46f
    8ca6:	4914      	ldr	r1, [pc, #80]	; (8cf8 <bpool+0x88>)
    8ca8:	4814      	ldr	r0, [pc, #80]	; (8cfc <bpool+0x8c>)
    8caa:	447b      	add	r3, pc
    8cac:	3316      	adds	r3, #22
    8cae:	4479      	add	r1, pc
    8cb0:	4478      	add	r0, pc
    8cb2:	e7eb      	b.n	8c8c <bpool+0x1c>
    8cb4:	689a      	ldr	r2, [r3, #8]
    8cb6:	68d2      	ldr	r2, [r2, #12]
    8cb8:	4293      	cmp	r3, r2
    8cba:	d009      	beq.n	8cd0 <bpool+0x60>
    8cbc:	4b10      	ldr	r3, [pc, #64]	; (8d00 <bpool+0x90>)
    8cbe:	f44f 628e 	mov.w	r2, #1136	; 0x470
    8cc2:	4910      	ldr	r1, [pc, #64]	; (8d04 <bpool+0x94>)
    8cc4:	4810      	ldr	r0, [pc, #64]	; (8d08 <bpool+0x98>)
    8cc6:	447b      	add	r3, pc
    8cc8:	3316      	adds	r3, #22
    8cca:	4479      	add	r1, pc
    8ccc:	4478      	add	r0, pc
    8cce:	e7dd      	b.n	8c8c <bpool+0x1c>
    8cd0:	6083      	str	r3, [r0, #8]
    8cd2:	f04f 4200 	mov.w	r2, #2147483648	; 0x80000000
    8cd6:	60c4      	str	r4, [r0, #12]
    8cd8:	60d8      	str	r0, [r3, #12]
    8cda:	68c3      	ldr	r3, [r0, #12]
    8cdc:	6098      	str	r0, [r3, #8]
    8cde:	1843      	adds	r3, r0, r1
    8ce0:	6041      	str	r1, [r0, #4]
    8ce2:	5041      	str	r1, [r0, r1]
    8ce4:	605a      	str	r2, [r3, #4]
    8ce6:	bd10      	pop	{r4, pc}
    8ce8:	000016d6 	.word	0x000016d6
    8cec:	0000172a 	.word	0x0000172a
    8cf0:	0000197a 	.word	0x0000197a
    8cf4:	000016b0 	.word	0x000016b0
    8cf8:	00001704 	.word	0x00001704
    8cfc:	00001784 	.word	0x00001784
    8d00:	00001694 	.word	0x00001694
    8d04:	000016e8 	.word	0x000016e8
    8d08:	000017a3 	.word	0x000017a3

00008d0c <bstats>:
    8d0c:	b570      	push	{r4, r5, r6, lr}
    8d0e:	9c05      	ldr	r4, [sp, #20]
    8d10:	68a5      	ldr	r5, [r4, #8]
    8d12:	6966      	ldr	r6, [r4, #20]
    8d14:	601e      	str	r6, [r3, #0]
    8d16:	9b04      	ldr	r3, [sp, #16]
    8d18:	69a6      	ldr	r6, [r4, #24]
    8d1a:	601e      	str	r6, [r3, #0]
    8d1c:	6923      	ldr	r3, [r4, #16]
    8d1e:	6003      	str	r3, [r0, #0]
    8d20:	2300      	movs	r3, #0
    8d22:	600b      	str	r3, [r1, #0]
    8d24:	f04f 33ff 	mov.w	r3, #4294967295	; 0xffffffff
    8d28:	6013      	str	r3, [r2, #0]
    8d2a:	42a5      	cmp	r5, r4
    8d2c:	d100      	bne.n	8d30 <bstats+0x24>
    8d2e:	bd70      	pop	{r4, r5, r6, pc}
    8d30:	6868      	ldr	r0, [r5, #4]
    8d32:	2800      	cmp	r0, #0
    8d34:	dc0c      	bgt.n	8d50 <bstats+0x44>
    8d36:	4b0b      	ldr	r3, [pc, #44]	; (8d64 <bstats+0x58>)
    8d38:	f240 429c 	movw	r2, #1180	; 0x49c
    8d3c:	490a      	ldr	r1, [pc, #40]	; (8d68 <bstats+0x5c>)
    8d3e:	480b      	ldr	r0, [pc, #44]	; (8d6c <bstats+0x60>)
    8d40:	447b      	add	r3, pc
    8d42:	331c      	adds	r3, #28
    8d44:	4479      	add	r1, pc
    8d46:	4478      	add	r0, pc
    8d48:	f7fc ff86 	bl	5c58 <_assert_log>
    8d4c:	f7fc ff98 	bl	5c80 <_assert_break>
    8d50:	680b      	ldr	r3, [r1, #0]
    8d52:	4403      	add	r3, r0
    8d54:	600b      	str	r3, [r1, #0]
    8d56:	686b      	ldr	r3, [r5, #4]
    8d58:	6810      	ldr	r0, [r2, #0]
    8d5a:	68ad      	ldr	r5, [r5, #8]
    8d5c:	4283      	cmp	r3, r0
    8d5e:	bfc8      	it	gt
    8d60:	6013      	strgt	r3, [r2, #0]
    8d62:	e7e2      	b.n	8d2a <bstats+0x1e>
    8d64:	0000161a 	.word	0x0000161a
    8d68:	0000166e 	.word	0x0000166e
    8d6c:	000018f3 	.word	0x000018f3

00008d70 <malloc_reset_stats>:
    8d70:	4b03      	ldr	r3, [pc, #12]	; (8d80 <malloc_reset_stats+0x10>)
    8d72:	2200      	movs	r2, #0
    8d74:	447b      	add	r3, pc
    8d76:	649a      	str	r2, [r3, #72]	; 0x48
    8d78:	651a      	str	r2, [r3, #80]	; 0x50
    8d7a:	655a      	str	r2, [r3, #84]	; 0x54
    8d7c:	659a      	str	r2, [r3, #88]	; 0x58
    8d7e:	4770      	bx	lr
    8d80:	0000357c 	.word	0x0000357c

00008d84 <malloc_get_stats>:
    8d84:	b510      	push	{r4, lr}
    8d86:	2238      	movs	r2, #56	; 0x38
    8d88:	4c04      	ldr	r4, [pc, #16]	; (8d9c <malloc_get_stats+0x18>)
    8d8a:	447c      	add	r4, pc
    8d8c:	f104 0124 	add.w	r1, r4, #36	; 0x24
    8d90:	f7f7 fada 	bl	348 <memcpy>
    8d94:	6922      	ldr	r2, [r4, #16]
    8d96:	6202      	str	r2, [r0, #32]
    8d98:	bd10      	pop	{r4, pc}
    8d9a:	bf00      	nop
    8d9c:	00003566 	.word	0x00003566

00008da0 <malloc>:
    8da0:	b538      	push	{r3, r4, r5, lr}
    8da2:	1e05      	subs	r5, r0, #0
    8da4:	db0f      	blt.n	8dc6 <malloc+0x26>
    8da6:	4b09      	ldr	r3, [pc, #36]	; (8dcc <malloc+0x2c>)
    8da8:	bf14      	ite	ne
    8daa:	462a      	movne	r2, r5
    8dac:	2201      	moveq	r2, #1
    8dae:	2100      	movs	r1, #0
    8db0:	2008      	movs	r0, #8
    8db2:	447b      	add	r3, pc
    8db4:	f7ff fcca 	bl	874c <bget>
    8db8:	4604      	mov	r4, r0
    8dba:	4620      	mov	r0, r4
    8dbc:	4629      	mov	r1, r5
    8dbe:	f7ff fcad 	bl	871c <raw_malloc_return_hook.constprop.22>
    8dc2:	4620      	mov	r0, r4
    8dc4:	bd38      	pop	{r3, r4, r5, pc}
    8dc6:	2400      	movs	r4, #0
    8dc8:	e7f7      	b.n	8dba <malloc+0x1a>
    8dca:	bf00      	nop
    8dcc:	0000353e 	.word	0x0000353e

00008dd0 <calloc>:
    8dd0:	b5f8      	push	{r3, r4, r5, r6, r7, lr}
    8dd2:	fba0 4501 	umull	r4, r5, r0, r1
    8dd6:	460f      	mov	r7, r1
    8dd8:	4606      	mov	r6, r0
    8dda:	1c29      	adds	r1, r5, #0
    8ddc:	4622      	mov	r2, r4
    8dde:	bf18      	it	ne
    8de0:	2101      	movne	r1, #1
    8de2:	2c00      	cmp	r4, #0
    8de4:	bfb8      	it	lt
    8de6:	2101      	movlt	r1, #1
    8de8:	b979      	cbnz	r1, 8e0a <calloc+0x3a>
    8dea:	4b09      	ldr	r3, [pc, #36]	; (8e10 <calloc+0x40>)
    8dec:	2c00      	cmp	r4, #0
    8dee:	4608      	mov	r0, r1
    8df0:	bf08      	it	eq
    8df2:	2201      	moveq	r2, #1
    8df4:	447b      	add	r3, pc
    8df6:	f7ff fdaf 	bl	8958 <bgetz>
    8dfa:	4604      	mov	r4, r0
    8dfc:	4620      	mov	r0, r4
    8dfe:	fb07 f106 	mul.w	r1, r7, r6
    8e02:	f7ff fc8b 	bl	871c <raw_malloc_return_hook.constprop.22>
    8e06:	4620      	mov	r0, r4
    8e08:	bdf8      	pop	{r3, r4, r5, r6, r7, pc}
    8e0a:	2400      	movs	r4, #0
    8e0c:	e7f6      	b.n	8dfc <calloc+0x2c>
    8e0e:	bf00      	nop
    8e10:	000034fc 	.word	0x000034fc

00008e14 <realloc>:
    8e14:	e712      	b.n	8c3c <raw_realloc.constprop.15>

00008e16 <memalign>:
    8e16:	b538      	push	{r3, r4, r5, lr}
    8e18:	460d      	mov	r5, r1
    8e1a:	4604      	mov	r4, r0
    8e1c:	b190      	cbz	r0, 8e44 <memalign+0x2e>
    8e1e:	4243      	negs	r3, r0
    8e20:	ea30 0303 	bics.w	r3, r0, r3
    8e24:	d112      	bne.n	8e4c <memalign+0x36>
    8e26:	2900      	cmp	r1, #0
    8e28:	db0e      	blt.n	8e48 <memalign+0x32>
    8e2a:	4b09      	ldr	r3, [pc, #36]	; (8e50 <memalign+0x3a>)
    8e2c:	bf14      	ite	ne
    8e2e:	460a      	movne	r2, r1
    8e30:	2201      	moveq	r2, #1
    8e32:	2100      	movs	r1, #0
    8e34:	447b      	add	r3, pc
    8e36:	f7ff fc89 	bl	874c <bget>
    8e3a:	4604      	mov	r4, r0
    8e3c:	4629      	mov	r1, r5
    8e3e:	4620      	mov	r0, r4
    8e40:	f7ff fc6c 	bl	871c <raw_malloc_return_hook.constprop.22>
    8e44:	4620      	mov	r0, r4
    8e46:	bd38      	pop	{r3, r4, r5, pc}
    8e48:	2400      	movs	r4, #0
    8e4a:	e7f7      	b.n	8e3c <memalign+0x26>
    8e4c:	2400      	movs	r4, #0
    8e4e:	e7f9      	b.n	8e44 <memalign+0x2e>
    8e50:	000034bc 	.word	0x000034bc

00008e54 <free>:
    8e54:	b120      	cbz	r0, 8e60 <free+0xc>
    8e56:	4903      	ldr	r1, [pc, #12]	; (8e64 <free+0x10>)
    8e58:	2200      	movs	r2, #0
    8e5a:	4479      	add	r1, pc
    8e5c:	f7ff bdac 	b.w	89b8 <brel>
    8e60:	4770      	bx	lr
    8e62:	bf00      	nop
    8e64:	00003496 	.word	0x00003496

00008e68 <free_wipe>:
    8e68:	b120      	cbz	r0, 8e74 <free_wipe+0xc>
    8e6a:	4903      	ldr	r1, [pc, #12]	; (8e78 <free_wipe+0x10>)
    8e6c:	2201      	movs	r2, #1
    8e6e:	4479      	add	r1, pc
    8e70:	f7ff bda2 	b.w	89b8 <brel>
    8e74:	4770      	bx	lr
    8e76:	bf00      	nop
    8e78:	00003482 	.word	0x00003482

00008e7c <malloc_add_pool>:
    8e7c:	b5f8      	push	{r3, r4, r5, r6, r7, lr}
    8e7e:	1844      	adds	r4, r0, r1
    8e80:	3007      	adds	r0, #7
    8e82:	f024 0407 	bic.w	r4, r4, #7
    8e86:	f020 0507 	bic.w	r5, r0, #7
    8e8a:	42a5      	cmp	r5, r4
    8e8c:	d30c      	bcc.n	8ea8 <malloc_add_pool+0x2c>
    8e8e:	4b1a      	ldr	r3, [pc, #104]	; (8ef8 <malloc_add_pool+0x7c>)
    8e90:	f240 3207 	movw	r2, #775	; 0x307
    8e94:	4919      	ldr	r1, [pc, #100]	; (8efc <malloc_add_pool+0x80>)
    8e96:	481a      	ldr	r0, [pc, #104]	; (8f00 <malloc_add_pool+0x84>)
    8e98:	447b      	add	r3, pc
    8e9a:	3323      	adds	r3, #35	; 0x23
    8e9c:	4479      	add	r1, pc
    8e9e:	4478      	add	r0, pc
    8ea0:	f7fc feda 	bl	5c58 <_assert_log>
    8ea4:	f7fc feec 	bl	5c80 <_assert_break>
    8ea8:	1b64      	subs	r4, r4, r5
    8eaa:	2c17      	cmp	r4, #23
    8eac:	d922      	bls.n	8ef4 <malloc_add_pool+0x78>
    8eae:	4e15      	ldr	r6, [pc, #84]	; (8f04 <malloc_add_pool+0x88>)
    8eb0:	4621      	mov	r1, r4
    8eb2:	4628      	mov	r0, r5
    8eb4:	447e      	add	r6, pc
    8eb6:	4632      	mov	r2, r6
    8eb8:	f7ff feda 	bl	8c70 <bpool>
    8ebc:	69f0      	ldr	r0, [r6, #28]
    8ebe:	6a37      	ldr	r7, [r6, #32]
    8ec0:	3701      	adds	r7, #1
    8ec2:	00f9      	lsls	r1, r7, #3
    8ec4:	f7ff feba 	bl	8c3c <raw_realloc.constprop.15>
    8ec8:	b948      	cbnz	r0, 8ede <malloc_add_pool+0x62>
    8eca:	4b0f      	ldr	r3, [pc, #60]	; (8f08 <malloc_add_pool+0x8c>)
    8ecc:	f44f 7245 	mov.w	r2, #788	; 0x314
    8ed0:	490e      	ldr	r1, [pc, #56]	; (8f0c <malloc_add_pool+0x90>)
    8ed2:	480f      	ldr	r0, [pc, #60]	; (8f10 <malloc_add_pool+0x94>)
    8ed4:	447b      	add	r3, pc
    8ed6:	3323      	adds	r3, #35	; 0x23
    8ed8:	4479      	add	r1, pc
    8eda:	4478      	add	r0, pc
    8edc:	e7e0      	b.n	8ea0 <malloc_add_pool+0x24>
    8ede:	6a33      	ldr	r3, [r6, #32]
    8ee0:	61f0      	str	r0, [r6, #28]
    8ee2:	6cf1      	ldr	r1, [r6, #76]	; 0x4c
    8ee4:	eb00 02c3 	add.w	r2, r0, r3, lsl #3
    8ee8:	f840 5033 	str.w	r5, [r0, r3, lsl #3]
    8eec:	6054      	str	r4, [r2, #4]
    8eee:	440c      	add	r4, r1
    8ef0:	6237      	str	r7, [r6, #32]
    8ef2:	64f4      	str	r4, [r6, #76]	; 0x4c
    8ef4:	bdf8      	pop	{r3, r4, r5, r6, r7, pc}
    8ef6:	bf00      	nop
    8ef8:	000014c2 	.word	0x000014c2
    8efc:	000017ad 	.word	0x000017ad
    8f00:	000017cb 	.word	0x000017cb
    8f04:	0000343c 	.word	0x0000343c
    8f08:	00001486 	.word	0x00001486
    8f0c:	00001771 	.word	0x00001771
    8f10:	0000179b 	.word	0x0000179b

00008f14 <malloc_buffer_is_within_alloced>:
    8f14:	1841      	adds	r1, r0, r1
    8f16:	b5f8      	push	{r3, r4, r5, r6, r7, lr}
    8f18:	d255      	bcs.n	8fc6 <malloc_buffer_is_within_alloced+0xb2>
    8f1a:	4b2c      	ldr	r3, [pc, #176]	; (8fcc <malloc_buffer_is_within_alloced+0xb8>)
    8f1c:	2500      	movs	r5, #0
    8f1e:	f06f 0707 	mvn.w	r7, #7
    8f22:	447b      	add	r3, pc
    8f24:	69de      	ldr	r6, [r3, #28]
    8f26:	f8d3 c020 	ldr.w	ip, [r3, #32]
    8f2a:	6833      	ldr	r3, [r6, #0]
    8f2c:	685a      	ldr	r2, [r3, #4]
    8f2e:	f1b2 4f00 	cmp.w	r2, #2147483648	; 0x80000000
    8f32:	d045      	beq.n	8fc0 <malloc_buffer_is_within_alloced+0xac>
    8f34:	2a00      	cmp	r2, #0
    8f36:	da1e      	bge.n	8f76 <malloc_buffer_is_within_alloced+0x62>
    8f38:	4254      	negs	r4, r2
    8f3a:	f04f 0e00 	mov.w	lr, #0
    8f3e:	441c      	add	r4, r3
    8f40:	f1be 0f00 	cmp.w	lr, #0
    8f44:	d115      	bne.n	8f72 <malloc_buffer_is_within_alloced+0x5e>
    8f46:	1aba      	subs	r2, r7, r2
    8f48:	2a00      	cmp	r2, #0
    8f4a:	dc0c      	bgt.n	8f66 <malloc_buffer_is_within_alloced+0x52>
    8f4c:	4b20      	ldr	r3, [pc, #128]	; (8fd0 <malloc_buffer_is_within_alloced+0xbc>)
    8f4e:	f240 12cd 	movw	r2, #461	; 0x1cd
    8f52:	4920      	ldr	r1, [pc, #128]	; (8fd4 <malloc_buffer_is_within_alloced+0xc0>)
    8f54:	4820      	ldr	r0, [pc, #128]	; (8fd8 <malloc_buffer_is_within_alloced+0xc4>)
    8f56:	447b      	add	r3, pc
    8f58:	3337      	adds	r3, #55	; 0x37
    8f5a:	4479      	add	r1, pc
    8f5c:	4478      	add	r0, pc
    8f5e:	f7fc fe7b 	bl	5c58 <_assert_log>
    8f62:	f7fc fe8d 	bl	5c80 <_assert_break>
    8f66:	3308      	adds	r3, #8
    8f68:	4298      	cmp	r0, r3
    8f6a:	d302      	bcc.n	8f72 <malloc_buffer_is_within_alloced+0x5e>
    8f6c:	441a      	add	r2, r3
    8f6e:	4291      	cmp	r1, r2
    8f70:	d924      	bls.n	8fbc <malloc_buffer_is_within_alloced+0xa8>
    8f72:	4623      	mov	r3, r4
    8f74:	e7da      	b.n	8f2c <malloc_buffer_is_within_alloced+0x18>
    8f76:	68dc      	ldr	r4, [r3, #12]
    8f78:	68a4      	ldr	r4, [r4, #8]
    8f7a:	429c      	cmp	r4, r3
    8f7c:	d009      	beq.n	8f92 <malloc_buffer_is_within_alloced+0x7e>
    8f7e:	4b17      	ldr	r3, [pc, #92]	; (8fdc <malloc_buffer_is_within_alloced+0xc8>)
    8f80:	f44f 729c 	mov.w	r2, #312	; 0x138
    8f84:	4916      	ldr	r1, [pc, #88]	; (8fe0 <malloc_buffer_is_within_alloced+0xcc>)
    8f86:	4817      	ldr	r0, [pc, #92]	; (8fe4 <malloc_buffer_is_within_alloced+0xd0>)
    8f88:	447b      	add	r3, pc
    8f8a:	3345      	adds	r3, #69	; 0x45
    8f8c:	4479      	add	r1, pc
    8f8e:	4478      	add	r0, pc
    8f90:	e7e5      	b.n	8f5e <malloc_buffer_is_within_alloced+0x4a>
    8f92:	689c      	ldr	r4, [r3, #8]
    8f94:	68e4      	ldr	r4, [r4, #12]
    8f96:	429c      	cmp	r4, r3
    8f98:	d009      	beq.n	8fae <malloc_buffer_is_within_alloced+0x9a>
    8f9a:	4b13      	ldr	r3, [pc, #76]	; (8fe8 <malloc_buffer_is_within_alloced+0xd4>)
    8f9c:	f240 1239 	movw	r2, #313	; 0x139
    8fa0:	4912      	ldr	r1, [pc, #72]	; (8fec <malloc_buffer_is_within_alloced+0xd8>)
    8fa2:	4813      	ldr	r0, [pc, #76]	; (8ff0 <malloc_buffer_is_within_alloced+0xdc>)
    8fa4:	447b      	add	r3, pc
    8fa6:	3345      	adds	r3, #69	; 0x45
    8fa8:	4479      	add	r1, pc
    8faa:	4478      	add	r0, pc
    8fac:	e7d7      	b.n	8f5e <malloc_buffer_is_within_alloced+0x4a>
    8fae:	4614      	mov	r4, r2
    8fb0:	f04f 0e01 	mov.w	lr, #1
    8fb4:	e7c3      	b.n	8f3e <malloc_buffer_is_within_alloced+0x2a>
    8fb6:	f856 4035 	ldr.w	r4, [r6, r5, lsl #3]
    8fba:	e7da      	b.n	8f72 <malloc_buffer_is_within_alloced+0x5e>
    8fbc:	2001      	movs	r0, #1
    8fbe:	bdf8      	pop	{r3, r4, r5, r6, r7, pc}
    8fc0:	3501      	adds	r5, #1
    8fc2:	4565      	cmp	r5, ip
    8fc4:	d3f7      	bcc.n	8fb6 <malloc_buffer_is_within_alloced+0xa2>
    8fc6:	2000      	movs	r0, #0
    8fc8:	bdf8      	pop	{r3, r4, r5, r6, r7, pc}
    8fca:	bf00      	nop
    8fcc:	000033ce 	.word	0x000033ce
    8fd0:	00001404 	.word	0x00001404
    8fd4:	000016ef 	.word	0x000016ef
    8fd8:	0000169e 	.word	0x0000169e
    8fdc:	000013d2 	.word	0x000013d2
    8fe0:	000016bd 	.word	0x000016bd
    8fe4:	0000145d 	.word	0x0000145d
    8fe8:	000013b6 	.word	0x000013b6
    8fec:	000016a1 	.word	0x000016a1
    8ff0:	0000145c 	.word	0x0000145c

00008ff4 <malloc_buffer_overlaps_heap>:
    8ff4:	4b12      	ldr	r3, [pc, #72]	; (9040 <malloc_buffer_overlaps_heap+0x4c>)
    8ff6:	1809      	adds	r1, r1, r0
    8ff8:	b5f0      	push	{r4, r5, r6, r7, lr}
    8ffa:	bf2c      	ite	cs
    8ffc:	f04f 0c01 	movcs.w	ip, #1
    9000:	f04f 0c00 	movcc.w	ip, #0
    9004:	447b      	add	r3, pc
    9006:	69dd      	ldr	r5, [r3, #28]
    9008:	6a1f      	ldr	r7, [r3, #32]
    900a:	2300      	movs	r3, #0
    900c:	42bb      	cmp	r3, r7
    900e:	d101      	bne.n	9014 <malloc_buffer_overlaps_heap+0x20>
    9010:	2000      	movs	r0, #0
    9012:	bdf0      	pop	{r4, r5, r6, r7, pc}
    9014:	eb05 02c3 	add.w	r2, r5, r3, lsl #3
    9018:	f855 4033 	ldr.w	r4, [r5, r3, lsl #3]
    901c:	2600      	movs	r6, #0
    901e:	6852      	ldr	r2, [r2, #4]
    9020:	18a2      	adds	r2, r4, r2
    9022:	bf28      	it	cs
    9024:	2601      	movcs	r6, #1
    9026:	f1bc 0f00 	cmp.w	ip, #0
    902a:	d106      	bne.n	903a <malloc_buffer_overlaps_heap+0x46>
    902c:	b92e      	cbnz	r6, 903a <malloc_buffer_overlaps_heap+0x46>
    902e:	42a1      	cmp	r1, r4
    9030:	d803      	bhi.n	903a <malloc_buffer_overlaps_heap+0x46>
    9032:	4290      	cmp	r0, r2
    9034:	d301      	bcc.n	903a <malloc_buffer_overlaps_heap+0x46>
    9036:	3301      	adds	r3, #1
    9038:	e7e8      	b.n	900c <malloc_buffer_overlaps_heap+0x18>
    903a:	2001      	movs	r0, #1
    903c:	bdf0      	pop	{r4, r5, r6, r7, pc}
    903e:	bf00      	nop
    9040:	000032ec 	.word	0x000032ec

00009044 <mempool_alloc_pool>:
    9044:	b538      	push	{r3, r4, r5, lr}
    9046:	4604      	mov	r4, r0
    9048:	460d      	mov	r5, r1
    904a:	2001      	movs	r0, #1
    904c:	210c      	movs	r1, #12
    904e:	f7ff febf 	bl	8dd0 <calloc>
    9052:	07a3      	lsls	r3, r4, #30
    9054:	d00a      	beq.n	906c <mempool_alloc_pool+0x28>
    9056:	4b09      	ldr	r3, [pc, #36]	; (907c <mempool_alloc_pool+0x38>)
    9058:	2268      	movs	r2, #104	; 0x68
    905a:	4909      	ldr	r1, [pc, #36]	; (9080 <mempool_alloc_pool+0x3c>)
    905c:	4809      	ldr	r0, [pc, #36]	; (9084 <mempool_alloc_pool+0x40>)
    905e:	447b      	add	r3, pc
    9060:	4479      	add	r1, pc
    9062:	4478      	add	r0, pc
    9064:	f7fc fdf8 	bl	5c58 <_assert_log>
    9068:	f7fc fe0a 	bl	5c80 <_assert_break>
    906c:	b120      	cbz	r0, 9078 <mempool_alloc_pool+0x34>
    906e:	f04f 33ff 	mov.w	r3, #4294967295	; 0xffffffff
    9072:	6005      	str	r5, [r0, #0]
    9074:	6043      	str	r3, [r0, #4]
    9076:	6084      	str	r4, [r0, #8]
    9078:	bd38      	pop	{r3, r4, r5, pc}
    907a:	bf00      	nop
    907c:	00001619 	.word	0x00001619
    9080:	00001638 	.word	0x00001638
    9084:	00001651 	.word	0x00001651

00009088 <mempool_alloc>:
    9088:	b573      	push	{r0, r1, r4, r5, r6, lr}
    908a:	e9d0 2400 	ldrd	r2, r4, [r0]
    908e:	2c00      	cmp	r4, #0
    9090:	db16      	blt.n	90c0 <mempool_alloc+0x38>
    9092:	6886      	ldr	r6, [r0, #8]
    9094:	1ce3      	adds	r3, r4, #3
    9096:	19a5      	adds	r5, r4, r6
    9098:	59a6      	ldr	r6, [r4, r6]
    909a:	4433      	add	r3, r6
    909c:	f023 0303 	bic.w	r3, r3, #3
    90a0:	4293      	cmp	r3, r2
    90a2:	d90f      	bls.n	90c4 <mempool_alloc+0x3c>
    90a4:	4b11      	ldr	r3, [pc, #68]	; (90ec <mempool_alloc+0x64>)
    90a6:	9101      	str	r1, [sp, #4]
    90a8:	21a2      	movs	r1, #162	; 0xa2
    90aa:	4811      	ldr	r0, [pc, #68]	; (90f0 <mempool_alloc+0x68>)
    90ac:	447b      	add	r3, pc
    90ae:	4478      	add	r0, pc
    90b0:	9300      	str	r3, [sp, #0]
    90b2:	2301      	movs	r3, #1
    90b4:	3013      	adds	r0, #19
    90b6:	461a      	mov	r2, r3
    90b8:	f7f7 fa60 	bl	57c <trace_printf>
    90bc:	2000      	movs	r0, #0
    90be:	e013      	b.n	90e8 <mempool_alloc+0x60>
    90c0:	2500      	movs	r5, #0
    90c2:	462b      	mov	r3, r5
    90c4:	310f      	adds	r1, #15
    90c6:	f021 0103 	bic.w	r1, r1, #3
    90ca:	185e      	adds	r6, r3, r1
    90cc:	4296      	cmp	r6, r2
    90ce:	d8e9      	bhi.n	90a4 <mempool_alloc+0x1c>
    90d0:	6886      	ldr	r6, [r0, #8]
    90d2:	199a      	adds	r2, r3, r6
    90d4:	5199      	str	r1, [r3, r6]
    90d6:	6054      	str	r4, [r2, #4]
    90d8:	b105      	cbz	r5, 90dc <mempool_alloc+0x54>
    90da:	60ab      	str	r3, [r5, #8]
    90dc:	f04f 31ff 	mov.w	r1, #4294967295	; 0xffffffff
    90e0:	6091      	str	r1, [r2, #8]
    90e2:	6043      	str	r3, [r0, #4]
    90e4:	f102 000c 	add.w	r0, r2, #12
    90e8:	b002      	add	sp, #8
    90ea:	bd70      	pop	{r4, r5, r6, pc}
    90ec:	0000162e 	.word	0x0000162e
    90f0:	000015c9 	.word	0x000015c9

000090f4 <mempool_calloc>:
    90f4:	b570      	push	{r4, r5, r6, lr}
    90f6:	fba1 4502 	umull	r4, r5, r1, r2
    90fa:	b935      	cbnz	r5, 910a <mempool_calloc+0x16>
    90fc:	4621      	mov	r1, r4
    90fe:	f7ff ffc3 	bl	9088 <mempool_alloc>
    9102:	4606      	mov	r6, r0
    9104:	b918      	cbnz	r0, 910e <mempool_calloc+0x1a>
    9106:	4630      	mov	r0, r6
    9108:	bd70      	pop	{r4, r5, r6, pc}
    910a:	2600      	movs	r6, #0
    910c:	e7fb      	b.n	9106 <mempool_calloc+0x12>
    910e:	4622      	mov	r2, r4
    9110:	4629      	mov	r1, r5
    9112:	f000 f820 	bl	9156 <memset>
    9116:	e7f6      	b.n	9106 <mempool_calloc+0x12>

00009118 <mempool_free>:
    9118:	b510      	push	{r4, lr}
    911a:	b1a1      	cbz	r1, 9146 <mempool_free+0x2e>
    911c:	390c      	subs	r1, #12
    911e:	684b      	ldr	r3, [r1, #4]
    9120:	2b00      	cmp	r3, #0
    9122:	bfa9      	itett	ge
    9124:	6882      	ldrge	r2, [r0, #8]
    9126:	f04f 32ff 	movlt.w	r2, #4294967295	; 0xffffffff
    912a:	688c      	ldrge	r4, [r1, #8]
    912c:	18d2      	addge	r2, r2, r3
    912e:	bfa8      	it	ge
    9130:	6094      	strge	r4, [r2, #8]
    9132:	6889      	ldr	r1, [r1, #8]
    9134:	bfa8      	it	ge
    9136:	461a      	movge	r2, r3
    9138:	2900      	cmp	r1, #0
    913a:	bfa1      	itttt	ge
    913c:	6882      	ldrge	r2, [r0, #8]
    913e:	1852      	addge	r2, r2, r1
    9140:	6053      	strge	r3, [r2, #4]
    9142:	6842      	ldrge	r2, [r0, #4]
    9144:	6042      	str	r2, [r0, #4]
    9146:	bd10      	pop	{r4, pc}

00009148 <__ta_entry_c>:
    9148:	b508      	push	{r3, lr}
    914a:	f7fa fef3 	bl	3f34 <__utee_entry>
    914e:	f7fa eb32 	blx	37b4 <_utee_return>

00009152 <tahead_get_trace_level>:
    9152:	2004      	movs	r0, #4
    9154:	4770      	bx	lr

00009156 <memset>:
    9156:	4402      	add	r2, r0
    9158:	4603      	mov	r3, r0
    915a:	4293      	cmp	r3, r2
    915c:	d100      	bne.n	9160 <memset+0xa>
    915e:	4770      	bx	lr
    9160:	f803 1b01 	strb.w	r1, [r3], #1
    9164:	e7f9      	b.n	915a <memset+0x4>

00009166 <__aeabi_unwind_cpp_pr0>:
    9166:	4770      	bx	lr

00009168 <__aeabi_unwind_cpp_pr1>:
    9168:	4770      	bx	lr

0000916a <__aeabi_unwind_cpp_pr2>:
    916a:	4770      	bx	lr

0000916c <memchr>:
    916c:	b2c9      	uxtb	r1, r1
    916e:	4402      	add	r2, r0
    9170:	b510      	push	{r4, lr}
    9172:	4290      	cmp	r0, r2
    9174:	4603      	mov	r3, r0
    9176:	d101      	bne.n	917c <memchr+0x10>
    9178:	2000      	movs	r0, #0
    917a:	bd10      	pop	{r4, pc}
    917c:	781c      	ldrb	r4, [r3, #0]
    917e:	3001      	adds	r0, #1
    9180:	428c      	cmp	r4, r1
    9182:	d1f6      	bne.n	9172 <memchr+0x6>
    9184:	4618      	mov	r0, r3
    9186:	bd10      	pop	{r4, pc}

00009188 <strlen>:
    9188:	4603      	mov	r3, r0
    918a:	781a      	ldrb	r2, [r3, #0]
    918c:	1c59      	adds	r1, r3, #1
    918e:	b90a      	cbnz	r2, 9194 <strlen+0xc>
    9190:	1a18      	subs	r0, r3, r0
    9192:	4770      	bx	lr
    9194:	460b      	mov	r3, r1
    9196:	e7f8      	b.n	918a <strlen+0x2>

00009198 <__ul_divmod>:
    9198:	e9d0 2302 	ldrd	r2, r3, [r0, #8]
    919c:	e92d 43f0 	stmdb	sp!, {r4, r5, r6, r7, r8, r9, lr}
    91a0:	e9d0 8900 	ldrd	r8, r9, [r0]
    91a4:	ea52 0103 	orrs.w	r1, r2, r3
    91a8:	d02b      	beq.n	9202 <__ul_divmod+0x6a>
    91aa:	2601      	movs	r6, #1
    91ac:	2700      	movs	r7, #0
    91ae:	4614      	mov	r4, r2
    91b0:	461d      	mov	r5, r3
    91b2:	2c00      	cmp	r4, #0
    91b4:	f175 0300 	sbcs.w	r3, r5, #0
    91b8:	da0a      	bge.n	91d0 <__ul_divmod+0x38>
    91ba:	2200      	movs	r2, #0
    91bc:	2300      	movs	r3, #0
    91be:	ea56 0107 	orrs.w	r1, r6, r7
    91c2:	d10a      	bne.n	91da <__ul_divmod+0x42>
    91c4:	e9c0 2300 	strd	r2, r3, [r0]
    91c8:	e9c0 8902 	strd	r8, r9, [r0, #8]
    91cc:	e8bd 83f0 	ldmia.w	sp!, {r4, r5, r6, r7, r8, r9, pc}
    91d0:	19b6      	adds	r6, r6, r6
    91d2:	417f      	adcs	r7, r7
    91d4:	1924      	adds	r4, r4, r4
    91d6:	416d      	adcs	r5, r5
    91d8:	e7eb      	b.n	91b2 <__ul_divmod+0x1a>
    91da:	1892      	adds	r2, r2, r2
    91dc:	415b      	adcs	r3, r3
    91de:	45a9      	cmp	r9, r5
    91e0:	bf08      	it	eq
    91e2:	45a0      	cmpeq	r8, r4
    91e4:	d306      	bcc.n	91f4 <__ul_divmod+0x5c>
    91e6:	ebb8 0804 	subs.w	r8, r8, r4
    91ea:	eb69 0905 	sbc.w	r9, r9, r5
    91ee:	3201      	adds	r2, #1
    91f0:	f143 0300 	adc.w	r3, r3, #0
    91f4:	086d      	lsrs	r5, r5, #1
    91f6:	ea4f 0434 	mov.w	r4, r4, rrx
    91fa:	087f      	lsrs	r7, r7, #1
    91fc:	ea4f 0636 	mov.w	r6, r6, rrx
    9200:	e7dd      	b.n	91be <__ul_divmod+0x26>
    9202:	f04f 38ff 	mov.w	r8, #4294967295	; 0xffffffff
    9206:	f04f 39ff 	mov.w	r9, #4294967295	; 0xffffffff
    920a:	e7db      	b.n	91c4 <__ul_divmod+0x2c>

0000920c <__l_divmod>:
    920c:	e92d 43f0 	stmdb	sp!, {r4, r5, r6, r7, r8, r9, lr}
    9210:	e9d0 4500 	ldrd	r4, r5, [r0]
    9214:	e9d0 2302 	ldrd	r2, r3, [r0, #8]
    9218:	2c00      	cmp	r4, #0
    921a:	f175 0100 	sbcs.w	r1, r5, #0
    921e:	da35      	bge.n	928c <__l_divmod+0x80>
    9220:	2a01      	cmp	r2, #1
    9222:	f173 0100 	sbcs.w	r1, r3, #0
    9226:	bfac      	ite	ge
    9228:	f04f 0c01 	movge.w	ip, #1
    922c:	f04f 0c00 	movlt.w	ip, #0
    9230:	4264      	negs	r4, r4
    9232:	eb65 0545 	sbc.w	r5, r5, r5, lsl #1
    9236:	ea52 0103 	orrs.w	r1, r2, r3
    923a:	f04f 0101 	mov.w	r1, #1
    923e:	d04b      	beq.n	92d8 <__l_divmod+0xcc>
    9240:	2a00      	cmp	r2, #0
    9242:	f173 0600 	sbcs.w	r6, r3, #0
    9246:	da02      	bge.n	924e <__l_divmod+0x42>
    9248:	4252      	negs	r2, r2
    924a:	eb63 0343 	sbc.w	r3, r3, r3, lsl #1
    924e:	4616      	mov	r6, r2
    9250:	461f      	mov	r7, r3
    9252:	f04f 0801 	mov.w	r8, #1
    9256:	f04f 0900 	mov.w	r9, #0
    925a:	2e00      	cmp	r6, #0
    925c:	f177 0300 	sbcs.w	r3, r7, #0
    9260:	da1f      	bge.n	92a2 <__l_divmod+0x96>
    9262:	2200      	movs	r2, #0
    9264:	2300      	movs	r3, #0
    9266:	ea58 0e09 	orrs.w	lr, r8, r9
    926a:	d121      	bne.n	92b0 <__l_divmod+0xa4>
    926c:	f1bc 0f00 	cmp.w	ip, #0
    9270:	d002      	beq.n	9278 <__l_divmod+0x6c>
    9272:	4252      	negs	r2, r2
    9274:	eb63 0343 	sbc.w	r3, r3, r3, lsl #1
    9278:	b111      	cbz	r1, 9280 <__l_divmod+0x74>
    927a:	4264      	negs	r4, r4
    927c:	eb65 0545 	sbc.w	r5, r5, r5, lsl #1
    9280:	e9c0 2300 	strd	r2, r3, [r0]
    9284:	e9c0 4502 	strd	r4, r5, [r0, #8]
    9288:	e8bd 83f0 	ldmia.w	sp!, {r4, r5, r6, r7, r8, r9, pc}
    928c:	ea54 0105 	orrs.w	r1, r4, r5
    9290:	d02c      	beq.n	92ec <__l_divmod+0xe0>
    9292:	2a00      	cmp	r2, #0
    9294:	f173 0100 	sbcs.w	r1, r3, #0
    9298:	da28      	bge.n	92ec <__l_divmod+0xe0>
    929a:	2100      	movs	r1, #0
    929c:	f04f 0c01 	mov.w	ip, #1
    92a0:	e7ce      	b.n	9240 <__l_divmod+0x34>
    92a2:	eb18 0808 	adds.w	r8, r8, r8
    92a6:	eb49 0909 	adc.w	r9, r9, r9
    92aa:	19b6      	adds	r6, r6, r6
    92ac:	417f      	adcs	r7, r7
    92ae:	e7d4      	b.n	925a <__l_divmod+0x4e>
    92b0:	1892      	adds	r2, r2, r2
    92b2:	415b      	adcs	r3, r3
    92b4:	42bd      	cmp	r5, r7
    92b6:	bf08      	it	eq
    92b8:	42b4      	cmpeq	r4, r6
    92ba:	d305      	bcc.n	92c8 <__l_divmod+0xbc>
    92bc:	1ba4      	subs	r4, r4, r6
    92be:	eb65 0507 	sbc.w	r5, r5, r7
    92c2:	3201      	adds	r2, #1
    92c4:	f143 0300 	adc.w	r3, r3, #0
    92c8:	087f      	lsrs	r7, r7, #1
    92ca:	ea4f 0636 	mov.w	r6, r6, rrx
    92ce:	ea5f 0959 	movs.w	r9, r9, lsr #1
    92d2:	ea4f 0838 	mov.w	r8, r8, rrx
    92d6:	e7c6      	b.n	9266 <__l_divmod+0x5a>
    92d8:	f04f 34ff 	mov.w	r4, #4294967295	; 0xffffffff
    92dc:	f04f 35ff 	mov.w	r5, #4294967295	; 0xffffffff
    92e0:	e7c4      	b.n	926c <__l_divmod+0x60>
    92e2:	f04f 34ff 	mov.w	r4, #4294967295	; 0xffffffff
    92e6:	f04f 35ff 	mov.w	r5, #4294967295	; 0xffffffff
    92ea:	e7c9      	b.n	9280 <__l_divmod+0x74>
    92ec:	ea52 0103 	orrs.w	r1, r2, r3
    92f0:	d0f7      	beq.n	92e2 <__l_divmod+0xd6>
    92f2:	2100      	movs	r1, #0
    92f4:	468c      	mov	ip, r1
    92f6:	e7a3      	b.n	9240 <__l_divmod+0x34>

000092f8 <snprintf>:
    92f8:	b40c      	push	{r2, r3}
    92fa:	b51f      	push	{r0, r1, r2, r3, r4, lr}
    92fc:	ab06      	add	r3, sp, #24
    92fe:	f853 2b04 	ldr.w	r2, [r3], #4
    9302:	2400      	movs	r4, #0
    9304:	9400      	str	r4, [sp, #0]
    9306:	9303      	str	r3, [sp, #12]
    9308:	f7f7 f946 	bl	598 <__vsnprintf>
    930c:	b004      	add	sp, #16
    930e:	e8bd 4010 	ldmia.w	sp!, {r4, lr}
    9312:	b002      	add	sp, #8
    9314:	4770      	bx	lr

00009316 <vsnprintf>:
    9316:	b513      	push	{r0, r1, r4, lr}
    9318:	2400      	movs	r4, #0
    931a:	9400      	str	r4, [sp, #0]
    931c:	f7f7 f93c 	bl	598 <__vsnprintf>
    9320:	b002      	add	sp, #8
    9322:	bd10      	pop	{r4, pc}

00009324 <memmove>:
    9324:	4288      	cmp	r0, r1
    9326:	b510      	push	{r4, lr}
    9328:	eb01 0302 	add.w	r3, r1, r2
    932c:	d803      	bhi.n	9336 <memmove+0x12>
    932e:	1e42      	subs	r2, r0, #1
    9330:	4299      	cmp	r1, r3
    9332:	d10c      	bne.n	934e <memmove+0x2a>
    9334:	bd10      	pop	{r4, pc}
    9336:	4298      	cmp	r0, r3
    9338:	d2f9      	bcs.n	932e <memmove+0xa>
    933a:	1881      	adds	r1, r0, r2
    933c:	1ad2      	subs	r2, r2, r3
    933e:	42d3      	cmn	r3, r2
    9340:	d100      	bne.n	9344 <memmove+0x20>
    9342:	bd10      	pop	{r4, pc}
    9344:	f813 4d01 	ldrb.w	r4, [r3, #-1]!
    9348:	f801 4d01 	strb.w	r4, [r1, #-1]!
    934c:	e7f7      	b.n	933e <memmove+0x1a>
    934e:	f811 4b01 	ldrb.w	r4, [r1], #1
    9352:	f802 4f01 	strb.w	r4, [r2, #1]!
    9356:	e7eb      	b.n	9330 <memmove+0xc>

00009358 <strcmp>:
    9358:	3801      	subs	r0, #1
    935a:	b510      	push	{r4, lr}
    935c:	f810 3f01 	ldrb.w	r3, [r0, #1]!
    9360:	460a      	mov	r2, r1
    9362:	b11b      	cbz	r3, 936c <strcmp+0x14>
    9364:	7814      	ldrb	r4, [r2, #0]
    9366:	3101      	adds	r1, #1
    9368:	429c      	cmp	r4, r3
    936a:	d0f7      	beq.n	935c <strcmp+0x4>
    936c:	7810      	ldrb	r0, [r2, #0]
    936e:	1a18      	subs	r0, r3, r0
    9370:	bd10      	pop	{r4, pc}

00009372 <strlcpy>:
    9372:	b510      	push	{r4, lr}
    9374:	460b      	mov	r3, r1
    9376:	b162      	cbz	r2, 9392 <strlcpy+0x20>
    9378:	3a01      	subs	r2, #1
    937a:	d008      	beq.n	938e <strlcpy+0x1c>
    937c:	f813 4b01 	ldrb.w	r4, [r3], #1
    9380:	f800 4b01 	strb.w	r4, [r0], #1
    9384:	2c00      	cmp	r4, #0
    9386:	d1f7      	bne.n	9378 <strlcpy+0x6>
    9388:	1a58      	subs	r0, r3, r1
    938a:	3801      	subs	r0, #1
    938c:	bd10      	pop	{r4, pc}
    938e:	2200      	movs	r2, #0
    9390:	7002      	strb	r2, [r0, #0]
    9392:	f813 2b01 	ldrb.w	r2, [r3], #1
    9396:	2a00      	cmp	r2, #0
    9398:	d1fb      	bne.n	9392 <strlcpy+0x20>
    939a:	e7f5      	b.n	9388 <strlcpy+0x16>

0000939c <consttime_memcmp>:
    939c:	f44f 7380 	mov.w	r3, #256	; 0x100
    93a0:	b5f7      	push	{r0, r1, r2, r4, r5, r6, r7, lr}
    93a2:	1e47      	subs	r7, r0, #1
    93a4:	2000      	movs	r0, #0
    93a6:	9301      	str	r3, [sp, #4]
    93a8:	440a      	add	r2, r1
    93aa:	4603      	mov	r3, r0
    93ac:	4291      	cmp	r1, r2
    93ae:	d104      	bne.n	93ba <consttime_memcmp+0x1e>
    93b0:	0a1b      	lsrs	r3, r3, #8
    93b2:	ebc3 2010 	rsb	r0, r3, r0, lsr #8
    93b6:	b003      	add	sp, #12
    93b8:	bdf0      	pop	{r4, r5, r6, r7, pc}
    93ba:	f817 6f01 	ldrb.w	r6, [r7, #1]!
    93be:	f811 4b01 	ldrb.w	r4, [r1], #1
    93c2:	f8dd c004 	ldr.w	ip, [sp, #4]
    93c6:	1b35      	subs	r5, r6, r4
    93c8:	1ba4      	subs	r4, r4, r6
    93ca:	ea05 050c 	and.w	r5, r5, ip
    93ce:	432b      	orrs	r3, r5
    93d0:	9d01      	ldr	r5, [sp, #4]
    93d2:	402c      	ands	r4, r5
    93d4:	4320      	orrs	r0, r4
    93d6:	9c01      	ldr	r4, [sp, #4]
    93d8:	ea43 0500 	orr.w	r5, r3, r0
    93dc:	ea24 0405 	bic.w	r4, r4, r5
    93e0:	9401      	str	r4, [sp, #4]
    93e2:	e7e3      	b.n	93ac <consttime_memcmp+0x10>
    93e4:	0000      	movs	r0, r0
	...

000093e8 <___utee_check_access_rights_from_thumb>:
    93e8:	4778      	bx	pc
    93ea:	46c0      	nop			; (mov r8, r8)
    93ec:	e59fc000 	ldr	ip, [pc]	; 93f4 <___utee_check_access_rights_from_thumb+0xc>
    93f0:	e08cf00f 	add	pc, ip, pc
    93f4:	ffffa47c 	.word	0xffffa47c

000093f8 <___utee_cache_operation_from_thumb>:
    93f8:	4778      	bx	pc
    93fa:	46c0      	nop			; (mov r8, r8)
    93fc:	e59fc000 	ldr	ip, [pc]	; 9404 <___utee_cache_operation_from_thumb+0xc>
    9400:	e08cf00f 	add	pc, ip, pc
    9404:	ffffa834 	.word	0xffffa834

00009408 <___utee_log_from_thumb>:
    9408:	4778      	bx	pc
    940a:	46c0      	nop			; (mov r8, r8)
    940c:	e59fc000 	ldr	ip, [pc]	; 9414 <___utee_log_from_thumb+0xc>
    9410:	e08cf00f 	add	pc, ip, pc
    9414:	ffffa3b0 	.word	0xffffa3b0

00009418 <___utee_panic_from_thumb>:
    9418:	4778      	bx	pc
    941a:	46c0      	nop			; (mov r8, r8)
    941c:	e59fc000 	ldr	ip, [pc]	; 9424 <___utee_panic_from_thumb+0xc>
    9420:	e08cf00f 	add	pc, ip, pc
    9424:	ffffa378 	.word	0xffffa378
